
airMouse-firmware.elf:     file format elf32-littlearm

Sections:
Idx Name          Size      VMA       LMA       File off  Algn
  0 .isr_vector   000000bc  08000000  08000000  00001000  2**0
                  CONTENTS, ALLOC, LOAD, READONLY, DATA
  1 .text         00002a64  080000bc  080000bc  000010bc  2**2
                  CONTENTS, ALLOC, LOAD, READONLY, CODE
  2 .rodata       00000088  08002b20  08002b20  00003b20  2**2
                  CONTENTS, ALLOC, LOAD, READONLY, DATA
  3 .ARM.extab    00000000  08002ba8  08002ba8  0000400c  2**0
                  CONTENTS
  4 .ARM          00000008  08002ba8  08002ba8  00003ba8  2**2
                  CONTENTS, ALLOC, LOAD, READONLY, DATA
  5 .preinit_array 00000000  08002bb0  08002bb0  0000400c  2**0
                  CONTENTS, ALLOC, LOAD, DATA
  6 .init_array   00000004  08002bb0  08002bb0  00003bb0  2**2
                  CONTENTS, ALLOC, LOAD, READONLY, DATA
  7 .fini_array   00000004  08002bb4  08002bb4  00003bb4  2**2
                  CONTENTS, ALLOC, LOAD, READONLY, DATA
  8 .data         0000000c  20000000  08002bb8  00004000  2**2
                  CONTENTS, ALLOC, LOAD, DATA
  9 .bss          00000148  2000000c  08002bc4  0000400c  2**2
                  ALLOC
 10 ._user_heap_stack 00000604  20000154  08002bc4  00004154  2**0
                  ALLOC
 11 .ARM.attributes 00000028  00000000  00000000  0000400c  2**0
                  CONTENTS, READONLY
 12 .debug_info   0000a57b  00000000  00000000  00004034  2**0
                  CONTENTS, READONLY, DEBUGGING, OCTETS
 13 .debug_abbrev 00001bf4  00000000  00000000  0000e5af  2**0
                  CONTENTS, READONLY, DEBUGGING, OCTETS
 14 .debug_aranges 00000860  00000000  00000000  000101a8  2**3
                  CONTENTS, READONLY, DEBUGGING, OCTETS
 15 .debug_rnglists 00000669  00000000  00000000  00010a08  2**0
                  CONTENTS, READONLY, DEBUGGING, OCTETS
 16 .debug_macro  00017154  00000000  00000000  00011071  2**0
                  CONTENTS, READONLY, DEBUGGING, OCTETS
 17 .debug_line   0000b21f  00000000  00000000  000281c5  2**0
                  CONTENTS, READONLY, DEBUGGING, OCTETS
 18 .debug_str    00092c1b  00000000  00000000  000333e4  2**0
                  CONTENTS, READONLY, DEBUGGING, OCTETS
 19 .comment      00000043  00000000  00000000  000c5fff  2**0
                  CONTENTS, READONLY
 20 .debug_frame  00001c68  00000000  00000000  000c6044  2**2
                  CONTENTS, READONLY, DEBUGGING, OCTETS
 21 .debug_line_str 00000069  00000000  00000000  000c7cac  2**0
                  CONTENTS, READONLY, DEBUGGING, OCTETS

Disassembly of section .text:

080000bc <__do_global_dtors_aux>:
 80000bc:	b510      	push	{r4, lr}
 80000be:	4c06      	ldr	r4, [pc, #24]	@ (80000d8 <__do_global_dtors_aux+0x1c>)
 80000c0:	7823      	ldrb	r3, [r4, #0]
 80000c2:	2b00      	cmp	r3, #0
 80000c4:	d107      	bne.n	80000d6 <__do_global_dtors_aux+0x1a>
 80000c6:	4b05      	ldr	r3, [pc, #20]	@ (80000dc <__do_global_dtors_aux+0x20>)
 80000c8:	2b00      	cmp	r3, #0
 80000ca:	d002      	beq.n	80000d2 <__do_global_dtors_aux+0x16>
 80000cc:	4804      	ldr	r0, [pc, #16]	@ (80000e0 <__do_global_dtors_aux+0x24>)
 80000ce:	e000      	b.n	80000d2 <__do_global_dtors_aux+0x16>
 80000d0:	bf00      	nop
 80000d2:	2301      	movs	r3, #1
 80000d4:	7023      	strb	r3, [r4, #0]
 80000d6:	bd10      	pop	{r4, pc}
 80000d8:	2000000c 	.word	0x2000000c
 80000dc:	00000000 	.word	0x00000000
 80000e0:	08002b08 	.word	0x08002b08

080000e4 <frame_dummy>:
 80000e4:	4b04      	ldr	r3, [pc, #16]	@ (80000f8 <frame_dummy+0x14>)
 80000e6:	b510      	push	{r4, lr}
 80000e8:	2b00      	cmp	r3, #0
 80000ea:	d003      	beq.n	80000f4 <frame_dummy+0x10>
 80000ec:	4903      	ldr	r1, [pc, #12]	@ (80000fc <frame_dummy+0x18>)
 80000ee:	4804      	ldr	r0, [pc, #16]	@ (8000100 <frame_dummy+0x1c>)
 80000f0:	e000      	b.n	80000f4 <frame_dummy+0x10>
 80000f2:	bf00      	nop
 80000f4:	bd10      	pop	{r4, pc}
 80000f6:	46c0      	nop			@ (mov r8, r8)
 80000f8:	00000000 	.word	0x00000000
 80000fc:	20000010 	.word	0x20000010
 8000100:	08002b08 	.word	0x08002b08

08000104 <__udivsi3>:
 8000104:	2200      	movs	r2, #0
 8000106:	0843      	lsrs	r3, r0, #1
 8000108:	428b      	cmp	r3, r1
 800010a:	d374      	bcc.n	80001f6 <__udivsi3+0xf2>
 800010c:	0903      	lsrs	r3, r0, #4
 800010e:	428b      	cmp	r3, r1
 8000110:	d35f      	bcc.n	80001d2 <__udivsi3+0xce>
 8000112:	0a03      	lsrs	r3, r0, #8
 8000114:	428b      	cmp	r3, r1
 8000116:	d344      	bcc.n	80001a2 <__udivsi3+0x9e>
 8000118:	0b03      	lsrs	r3, r0, #12
 800011a:	428b      	cmp	r3, r1
 800011c:	d328      	bcc.n	8000170 <__udivsi3+0x6c>
 800011e:	0c03      	lsrs	r3, r0, #16
 8000120:	428b      	cmp	r3, r1
 8000122:	d30d      	bcc.n	8000140 <__udivsi3+0x3c>
 8000124:	22ff      	movs	r2, #255	@ 0xff
 8000126:	0209      	lsls	r1, r1, #8
 8000128:	ba12      	rev	r2, r2
 800012a:	0c03      	lsrs	r3, r0, #16
 800012c:	428b      	cmp	r3, r1
 800012e:	d302      	bcc.n	8000136 <__udivsi3+0x32>
 8000130:	1212      	asrs	r2, r2, #8
 8000132:	0209      	lsls	r1, r1, #8
 8000134:	d065      	beq.n	8000202 <__udivsi3+0xfe>
 8000136:	0b03      	lsrs	r3, r0, #12
 8000138:	428b      	cmp	r3, r1
 800013a:	d319      	bcc.n	8000170 <__udivsi3+0x6c>
 800013c:	e000      	b.n	8000140 <__udivsi3+0x3c>
 800013e:	0a09      	lsrs	r1, r1, #8
 8000140:	0bc3      	lsrs	r3, r0, #15
 8000142:	428b      	cmp	r3, r1
 8000144:	d301      	bcc.n	800014a <__udivsi3+0x46>
 8000146:	03cb      	lsls	r3, r1, #15
 8000148:	1ac0      	subs	r0, r0, r3
 800014a:	4152      	adcs	r2, r2
 800014c:	0b83      	lsrs	r3, r0, #14
 800014e:	428b      	cmp	r3, r1
 8000150:	d301      	bcc.n	8000156 <__udivsi3+0x52>
 8000152:	038b      	lsls	r3, r1, #14
 8000154:	1ac0      	subs	r0, r0, r3
 8000156:	4152      	adcs	r2, r2
 8000158:	0b43      	lsrs	r3, r0, #13
 800015a:	428b      	cmp	r3, r1
 800015c:	d301      	bcc.n	8000162 <__udivsi3+0x5e>
 800015e:	034b      	lsls	r3, r1, #13
 8000160:	1ac0      	subs	r0, r0, r3
 8000162:	4152      	adcs	r2, r2
 8000164:	0b03      	lsrs	r3, r0, #12
 8000166:	428b      	cmp	r3, r1
 8000168:	d301      	bcc.n	800016e <__udivsi3+0x6a>
 800016a:	030b      	lsls	r3, r1, #12
 800016c:	1ac0      	subs	r0, r0, r3
 800016e:	4152      	adcs	r2, r2
 8000170:	0ac3      	lsrs	r3, r0, #11
 8000172:	428b      	cmp	r3, r1
 8000174:	d301      	bcc.n	800017a <__udivsi3+0x76>
 8000176:	02cb      	lsls	r3, r1, #11
 8000178:	1ac0      	subs	r0, r0, r3
 800017a:	4152      	adcs	r2, r2
 800017c:	0a83      	lsrs	r3, r0, #10
 800017e:	428b      	cmp	r3, r1
 8000180:	d301      	bcc.n	8000186 <__udivsi3+0x82>
 8000182:	028b      	lsls	r3, r1, #10
 8000184:	1ac0      	subs	r0, r0, r3
 8000186:	4152      	adcs	r2, r2
 8000188:	0a43      	lsrs	r3, r0, #9
 800018a:	428b      	cmp	r3, r1
 800018c:	d301      	bcc.n	8000192 <__udivsi3+0x8e>
 800018e:	024b      	lsls	r3, r1, #9
 8000190:	1ac0      	subs	r0, r0, r3
 8000192:	4152      	adcs	r2, r2
 8000194:	0a03      	lsrs	r3, r0, #8
 8000196:	428b      	cmp	r3, r1
 8000198:	d301      	bcc.n	800019e <__udivsi3+0x9a>
 800019a:	020b      	lsls	r3, r1, #8
 800019c:	1ac0      	subs	r0, r0, r3
 800019e:	4152      	adcs	r2, r2
 80001a0:	d2cd      	bcs.n	800013e <__udivsi3+0x3a>
 80001a2:	09c3      	lsrs	r3, r0, #7
 80001a4:	428b      	cmp	r3, r1
 80001a6:	d301      	bcc.n	80001ac <__udivsi3+0xa8>
 80001a8:	01cb      	lsls	r3, r1, #7
 80001aa:	1ac0      	subs	r0, r0, r3
 80001ac:	4152      	adcs	r2, r2
 80001ae:	0983      	lsrs	r3, r0, #6
 80001b0:	428b      	cmp	r3, r1
 80001b2:	d301      	bcc.n	80001b8 <__udivsi3+0xb4>
 80001b4:	018b      	lsls	r3, r1, #6
 80001b6:	1ac0      	subs	r0, r0, r3
 80001b8:	4152      	adcs	r2, r2
 80001ba:	0943      	lsrs	r3, r0, #5
 80001bc:	428b      	cmp	r3, r1
 80001be:	d301      	bcc.n	80001c4 <__udivsi3+0xc0>
 80001c0:	014b      	lsls	r3, r1, #5
 80001c2:	1ac0      	subs	r0, r0, r3
 80001c4:	4152      	adcs	r2, r2
 80001c6:	0903      	lsrs	r3, r0, #4
 80001c8:	428b      	cmp	r3, r1
 80001ca:	d301      	bcc.n	80001d0 <__udivsi3+0xcc>
 80001cc:	010b      	lsls	r3, r1, #4
 80001ce:	1ac0      	subs	r0, r0, r3
 80001d0:	4152      	adcs	r2, r2
 80001d2:	08c3      	lsrs	r3, r0, #3
 80001d4:	428b      	cmp	r3, r1
 80001d6:	d301      	bcc.n	80001dc <__udivsi3+0xd8>
 80001d8:	00cb      	lsls	r3, r1, #3
 80001da:	1ac0      	subs	r0, r0, r3
 80001dc:	4152      	adcs	r2, r2
 80001de:	0883      	lsrs	r3, r0, #2
 80001e0:	428b      	cmp	r3, r1
 80001e2:	d301      	bcc.n	80001e8 <__udivsi3+0xe4>
 80001e4:	008b      	lsls	r3, r1, #2
 80001e6:	1ac0      	subs	r0, r0, r3
 80001e8:	4152      	adcs	r2, r2
 80001ea:	0843      	lsrs	r3, r0, #1
 80001ec:	428b      	cmp	r3, r1
 80001ee:	d301      	bcc.n	80001f4 <__udivsi3+0xf0>
 80001f0:	004b      	lsls	r3, r1, #1
 80001f2:	1ac0      	subs	r0, r0, r3
 80001f4:	4152      	adcs	r2, r2
 80001f6:	1a41      	subs	r1, r0, r1
 80001f8:	d200      	bcs.n	80001fc <__udivsi3+0xf8>
 80001fa:	4601      	mov	r1, r0
 80001fc:	4152      	adcs	r2, r2
 80001fe:	4610      	mov	r0, r2
 8000200:	4770      	bx	lr
 8000202:	e7ff      	b.n	8000204 <__udivsi3+0x100>
 8000204:	b501      	push	{r0, lr}
 8000206:	2000      	movs	r0, #0
 8000208:	f000 f8f0 	bl	80003ec <__aeabi_idiv0>
 800020c:	bd02      	pop	{r1, pc}
 800020e:	46c0      	nop			@ (mov r8, r8)

08000210 <__aeabi_uidivmod>:
 8000210:	2900      	cmp	r1, #0
 8000212:	d0f7      	beq.n	8000204 <__udivsi3+0x100>
 8000214:	e776      	b.n	8000104 <__udivsi3>
 8000216:	4770      	bx	lr

08000218 <__divsi3>:
 8000218:	4603      	mov	r3, r0
 800021a:	430b      	orrs	r3, r1
 800021c:	d47f      	bmi.n	800031e <__divsi3+0x106>
 800021e:	2200      	movs	r2, #0
 8000220:	0843      	lsrs	r3, r0, #1
 8000222:	428b      	cmp	r3, r1
 8000224:	d374      	bcc.n	8000310 <__divsi3+0xf8>
 8000226:	0903      	lsrs	r3, r0, #4
 8000228:	428b      	cmp	r3, r1
 800022a:	d35f      	bcc.n	80002ec <__divsi3+0xd4>
 800022c:	0a03      	lsrs	r3, r0, #8
 800022e:	428b      	cmp	r3, r1
 8000230:	d344      	bcc.n	80002bc <__divsi3+0xa4>
 8000232:	0b03      	lsrs	r3, r0, #12
 8000234:	428b      	cmp	r3, r1
 8000236:	d328      	bcc.n	800028a <__divsi3+0x72>
 8000238:	0c03      	lsrs	r3, r0, #16
 800023a:	428b      	cmp	r3, r1
 800023c:	d30d      	bcc.n	800025a <__divsi3+0x42>
 800023e:	22ff      	movs	r2, #255	@ 0xff
 8000240:	0209      	lsls	r1, r1, #8
 8000242:	ba12      	rev	r2, r2
 8000244:	0c03      	lsrs	r3, r0, #16
 8000246:	428b      	cmp	r3, r1
 8000248:	d302      	bcc.n	8000250 <__divsi3+0x38>
 800024a:	1212      	asrs	r2, r2, #8
 800024c:	0209      	lsls	r1, r1, #8
 800024e:	d065      	beq.n	800031c <__divsi3+0x104>
 8000250:	0b03      	lsrs	r3, r0, #12
 8000252:	428b      	cmp	r3, r1
 8000254:	d319      	bcc.n	800028a <__divsi3+0x72>
 8000256:	e000      	b.n	800025a <__divsi3+0x42>
 8000258:	0a09      	lsrs	r1, r1, #8
 800025a:	0bc3      	lsrs	r3, r0, #15
 800025c:	428b      	cmp	r3, r1
 800025e:	d301      	bcc.n	8000264 <__divsi3+0x4c>
 8000260:	03cb      	lsls	r3, r1, #15
 8000262:	1ac0      	subs	r0, r0, r3
 8000264:	4152      	adcs	r2, r2
 8000266:	0b83      	lsrs	r3, r0, #14
 8000268:	428b      	cmp	r3, r1
 800026a:	d301      	bcc.n	8000270 <__divsi3+0x58>
 800026c:	038b      	lsls	r3, r1, #14
 800026e:	1ac0      	subs	r0, r0, r3
 8000270:	4152      	adcs	r2, r2
 8000272:	0b43      	lsrs	r3, r0, #13
 8000274:	428b      	cmp	r3, r1
 8000276:	d301      	bcc.n	800027c <__divsi3+0x64>
 8000278:	034b      	lsls	r3, r1, #13
 800027a:	1ac0      	subs	r0, r0, r3
 800027c:	4152      	adcs	r2, r2
 800027e:	0b03      	lsrs	r3, r0, #12
 8000280:	428b      	cmp	r3, r1
 8000282:	d301      	bcc.n	8000288 <__divsi3+0x70>
 8000284:	030b      	lsls	r3, r1, #12
 8000286:	1ac0      	subs	r0, r0, r3
 8000288:	4152      	adcs	r2, r2
 800028a:	0ac3      	lsrs	r3, r0, #11
 800028c:	428b      	cmp	r3, r1
 800028e:	d301      	bcc.n	8000294 <__divsi3+0x7c>
 8000290:	02cb      	lsls	r3, r1, #11
 8000292:	1ac0      	subs	r0, r0, r3
 8000294:	4152      	adcs	r2, r2
 8000296:	0a83      	lsrs	r3, r0, #10
 8000298:	428b      	cmp	r3, r1
 800029a:	d301      	bcc.n	80002a0 <__divsi3+0x88>
 800029c:	028b      	lsls	r3, r1, #10
 800029e:	1ac0      	subs	r0, r0, r3
 80002a0:	4152      	adcs	r2, r2
 80002a2:	0a43      	lsrs	r3, r0, #9
 80002a4:	428b      	cmp	r3, r1
 80002a6:	d301      	bcc.n	80002ac <__divsi3+0x94>
 80002a8:	024b      	lsls	r3, r1, #9
 80002aa:	1ac0      	subs	r0, r0, r3
 80002ac:	4152      	adcs	r2, r2
 80002ae:	0a03      	lsrs	r3, r0, #8
 80002b0:	428b      	cmp	r3, r1
 80002b2:	d301      	bcc.n	80002b8 <__divsi3+0xa0>
 80002b4:	020b      	lsls	r3, r1, #8
 80002b6:	1ac0      	subs	r0, r0, r3
 80002b8:	4152      	adcs	r2, r2
 80002ba:	d2cd      	bcs.n	8000258 <__divsi3+0x40>
 80002bc:	09c3      	lsrs	r3, r0, #7
 80002be:	428b      	cmp	r3, r1
 80002c0:	d301      	bcc.n	80002c6 <__divsi3+0xae>
 80002c2:	01cb      	lsls	r3, r1, #7
 80002c4:	1ac0      	subs	r0, r0, r3
 80002c6:	4152      	adcs	r2, r2
 80002c8:	0983      	lsrs	r3, r0, #6
 80002ca:	428b      	cmp	r3, r1
 80002cc:	d301      	bcc.n	80002d2 <__divsi3+0xba>
 80002ce:	018b      	lsls	r3, r1, #6
 80002d0:	1ac0      	subs	r0, r0, r3
 80002d2:	4152      	adcs	r2, r2
 80002d4:	0943      	lsrs	r3, r0, #5
 80002d6:	428b      	cmp	r3, r1
 80002d8:	d301      	bcc.n	80002de <__divsi3+0xc6>
 80002da:	014b      	lsls	r3, r1, #5
 80002dc:	1ac0      	subs	r0, r0, r3
 80002de:	4152      	adcs	r2, r2
 80002e0:	0903      	lsrs	r3, r0, #4
 80002e2:	428b      	cmp	r3, r1
 80002e4:	d301      	bcc.n	80002ea <__divsi3+0xd2>
 80002e6:	010b      	lsls	r3, r1, #4
 80002e8:	1ac0      	subs	r0, r0, r3
 80002ea:	4152      	adcs	r2, r2
 80002ec:	08c3      	lsrs	r3, r0, #3
 80002ee:	428b      	cmp	r3, r1
 80002f0:	d301      	bcc.n	80002f6 <__divsi3+0xde>
 80002f2:	00cb      	lsls	r3, r1, #3
 80002f4:	1ac0      	subs	r0, r0, r3
 80002f6:	4152      	adcs	r2, r2
 80002f8:	0883      	lsrs	r3, r0, #2
 80002fa:	428b      	cmp	r3, r1
 80002fc:	d301      	bcc.n	8000302 <__divsi3+0xea>
 80002fe:	008b      	lsls	r3, r1, #2
 8000300:	1ac0      	subs	r0, r0, r3
 8000302:	4152      	adcs	r2, r2
 8000304:	0843      	lsrs	r3, r0, #1
 8000306:	428b      	cmp	r3, r1
 8000308:	d301      	bcc.n	800030e <__divsi3+0xf6>
 800030a:	004b      	lsls	r3, r1, #1
 800030c:	1ac0      	subs	r0, r0, r3
 800030e:	4152      	adcs	r2, r2
 8000310:	1a41      	subs	r1, r0, r1
 8000312:	d200      	bcs.n	8000316 <__divsi3+0xfe>
 8000314:	4601      	mov	r1, r0
 8000316:	4152      	adcs	r2, r2
 8000318:	4610      	mov	r0, r2
 800031a:	4770      	bx	lr
 800031c:	e05d      	b.n	80003da <__divsi3+0x1c2>
 800031e:	0fca      	lsrs	r2, r1, #31
 8000320:	d000      	beq.n	8000324 <__divsi3+0x10c>
 8000322:	4249      	negs	r1, r1
 8000324:	1003      	asrs	r3, r0, #32
 8000326:	d300      	bcc.n	800032a <__divsi3+0x112>
 8000328:	4240      	negs	r0, r0
 800032a:	4053      	eors	r3, r2
 800032c:	2200      	movs	r2, #0
 800032e:	469c      	mov	ip, r3
 8000330:	0903      	lsrs	r3, r0, #4
 8000332:	428b      	cmp	r3, r1
 8000334:	d32d      	bcc.n	8000392 <__divsi3+0x17a>
 8000336:	0a03      	lsrs	r3, r0, #8
 8000338:	428b      	cmp	r3, r1
 800033a:	d312      	bcc.n	8000362 <__divsi3+0x14a>
 800033c:	22fc      	movs	r2, #252	@ 0xfc
 800033e:	0189      	lsls	r1, r1, #6
 8000340:	ba12      	rev	r2, r2
 8000342:	0a03      	lsrs	r3, r0, #8
 8000344:	428b      	cmp	r3, r1
 8000346:	d30c      	bcc.n	8000362 <__divsi3+0x14a>
 8000348:	0189      	lsls	r1, r1, #6
 800034a:	1192      	asrs	r2, r2, #6
 800034c:	428b      	cmp	r3, r1
 800034e:	d308      	bcc.n	8000362 <__divsi3+0x14a>
 8000350:	0189      	lsls	r1, r1, #6
 8000352:	1192      	asrs	r2, r2, #6
 8000354:	428b      	cmp	r3, r1
 8000356:	d304      	bcc.n	8000362 <__divsi3+0x14a>
 8000358:	0189      	lsls	r1, r1, #6
 800035a:	d03a      	beq.n	80003d2 <__divsi3+0x1ba>
 800035c:	1192      	asrs	r2, r2, #6
 800035e:	e000      	b.n	8000362 <__divsi3+0x14a>
 8000360:	0989      	lsrs	r1, r1, #6
 8000362:	09c3      	lsrs	r3, r0, #7
 8000364:	428b      	cmp	r3, r1
 8000366:	d301      	bcc.n	800036c <__divsi3+0x154>
 8000368:	01cb      	lsls	r3, r1, #7
 800036a:	1ac0      	subs	r0, r0, r3
 800036c:	4152      	adcs	r2, r2
 800036e:	0983      	lsrs	r3, r0, #6
 8000370:	428b      	cmp	r3, r1
 8000372:	d301      	bcc.n	8000378 <__divsi3+0x160>
 8000374:	018b      	lsls	r3, r1, #6
 8000376:	1ac0      	subs	r0, r0, r3
 8000378:	4152      	adcs	r2, r2
 800037a:	0943      	lsrs	r3, r0, #5
 800037c:	428b      	cmp	r3, r1
 800037e:	d301      	bcc.n	8000384 <__divsi3+0x16c>
 8000380:	014b      	lsls	r3, r1, #5
 8000382:	1ac0      	subs	r0, r0, r3
 8000384:	4152      	adcs	r2, r2
 8000386:	0903      	lsrs	r3, r0, #4
 8000388:	428b      	cmp	r3, r1
 800038a:	d301      	bcc.n	8000390 <__divsi3+0x178>
 800038c:	010b      	lsls	r3, r1, #4
 800038e:	1ac0      	subs	r0, r0, r3
 8000390:	4152      	adcs	r2, r2
 8000392:	08c3      	lsrs	r3, r0, #3
 8000394:	428b      	cmp	r3, r1
 8000396:	d301      	bcc.n	800039c <__divsi3+0x184>
 8000398:	00cb      	lsls	r3, r1, #3
 800039a:	1ac0      	subs	r0, r0, r3
 800039c:	4152      	adcs	r2, r2
 800039e:	0883      	lsrs	r3, r0, #2
 80003a0:	428b      	cmp	r3, r1
 80003a2:	d301      	bcc.n	80003a8 <__divsi3+0x190>
 80003a4:	008b      	lsls	r3, r1, #2
 80003a6:	1ac0      	subs	r0, r0, r3
 80003a8:	4152      	adcs	r2, r2
 80003aa:	d2d9      	bcs.n	8000360 <__divsi3+0x148>
 80003ac:	0843      	lsrs	r3, r0, #1
 80003ae:	428b      	cmp	r3, r1
 80003b0:	d301      	bcc.n	80003b6 <__divsi3+0x19e>
 80003b2:	004b      	lsls	r3, r1, #1
 80003b4:	1ac0      	subs	r0, r0, r3
 80003b6:	4152      	adcs	r2, r2
 80003b8:	1a41      	subs	r1, r0, r1
 80003ba:	d200      	bcs.n	80003be <__divsi3+0x1a6>
 80003bc:	4601      	mov	r1, r0
 80003be:	4663      	mov	r3, ip
 80003c0:	4152      	adcs	r2, r2
 80003c2:	105b      	asrs	r3, r3, #1
 80003c4:	4610      	mov	r0, r2
 80003c6:	d301      	bcc.n	80003cc <__divsi3+0x1b4>
 80003c8:	4240      	negs	r0, r0
 80003ca:	2b00      	cmp	r3, #0
 80003cc:	d500      	bpl.n	80003d0 <__divsi3+0x1b8>
 80003ce:	4249      	negs	r1, r1
 80003d0:	4770      	bx	lr
 80003d2:	4663      	mov	r3, ip
 80003d4:	105b      	asrs	r3, r3, #1
 80003d6:	d300      	bcc.n	80003da <__divsi3+0x1c2>
 80003d8:	4240      	negs	r0, r0
 80003da:	b501      	push	{r0, lr}
 80003dc:	2000      	movs	r0, #0
 80003de:	f000 f805 	bl	80003ec <__aeabi_idiv0>
 80003e2:	bd02      	pop	{r1, pc}

080003e4 <__aeabi_idivmod>:
 80003e4:	2900      	cmp	r1, #0
 80003e6:	d0f8      	beq.n	80003da <__divsi3+0x1c2>
 80003e8:	e716      	b.n	8000218 <__divsi3>
 80003ea:	4770      	bx	lr

080003ec <__aeabi_idiv0>:
 80003ec:	4770      	bx	lr
 80003ee:	46c0      	nop			@ (mov r8, r8)

080003f0 <__aeabi_uldivmod>:
 80003f0:	2b00      	cmp	r3, #0
 80003f2:	d111      	bne.n	8000418 <__aeabi_uldivmod+0x28>
 80003f4:	2a00      	cmp	r2, #0
 80003f6:	d10f      	bne.n	8000418 <__aeabi_uldivmod+0x28>
 80003f8:	2900      	cmp	r1, #0
 80003fa:	d100      	bne.n	80003fe <__aeabi_uldivmod+0xe>
 80003fc:	2800      	cmp	r0, #0
 80003fe:	d002      	beq.n	8000406 <__aeabi_uldivmod+0x16>
 8000400:	2100      	movs	r1, #0
 8000402:	43c9      	mvns	r1, r1
 8000404:	0008      	movs	r0, r1
 8000406:	b407      	push	{r0, r1, r2}
 8000408:	4802      	ldr	r0, [pc, #8]	@ (8000414 <__aeabi_uldivmod+0x24>)
 800040a:	a102      	add	r1, pc, #8	@ (adr r1, 8000414 <__aeabi_uldivmod+0x24>)
 800040c:	1840      	adds	r0, r0, r1
 800040e:	9002      	str	r0, [sp, #8]
 8000410:	bd03      	pop	{r0, r1, pc}
 8000412:	46c0      	nop			@ (mov r8, r8)
 8000414:	ffffffd9 	.word	0xffffffd9
 8000418:	b403      	push	{r0, r1}
 800041a:	4668      	mov	r0, sp
 800041c:	b501      	push	{r0, lr}
 800041e:	9802      	ldr	r0, [sp, #8]
 8000420:	f000 f806 	bl	8000430 <__udivmoddi4>
 8000424:	9b01      	ldr	r3, [sp, #4]
 8000426:	469e      	mov	lr, r3
 8000428:	b002      	add	sp, #8
 800042a:	bc0c      	pop	{r2, r3}
 800042c:	4770      	bx	lr
 800042e:	46c0      	nop			@ (mov r8, r8)

08000430 <__udivmoddi4>:
 8000430:	b5f0      	push	{r4, r5, r6, r7, lr}
 8000432:	4657      	mov	r7, sl
 8000434:	464e      	mov	r6, r9
 8000436:	4645      	mov	r5, r8
 8000438:	46de      	mov	lr, fp
 800043a:	b5e0      	push	{r5, r6, r7, lr}
 800043c:	0004      	movs	r4, r0
 800043e:	000d      	movs	r5, r1
 8000440:	4692      	mov	sl, r2
 8000442:	4699      	mov	r9, r3
 8000444:	b083      	sub	sp, #12
 8000446:	428b      	cmp	r3, r1
 8000448:	d830      	bhi.n	80004ac <__udivmoddi4+0x7c>
 800044a:	d02d      	beq.n	80004a8 <__udivmoddi4+0x78>
 800044c:	4649      	mov	r1, r9
 800044e:	4650      	mov	r0, sl
 8000450:	f000 f8ba 	bl	80005c8 <__clzdi2>
 8000454:	0029      	movs	r1, r5
 8000456:	0006      	movs	r6, r0
 8000458:	0020      	movs	r0, r4
 800045a:	f000 f8b5 	bl	80005c8 <__clzdi2>
 800045e:	1a33      	subs	r3, r6, r0
 8000460:	4698      	mov	r8, r3
 8000462:	3b20      	subs	r3, #32
 8000464:	d434      	bmi.n	80004d0 <__udivmoddi4+0xa0>
 8000466:	469b      	mov	fp, r3
 8000468:	4653      	mov	r3, sl
 800046a:	465a      	mov	r2, fp
 800046c:	4093      	lsls	r3, r2
 800046e:	4642      	mov	r2, r8
 8000470:	001f      	movs	r7, r3
 8000472:	4653      	mov	r3, sl
 8000474:	4093      	lsls	r3, r2
 8000476:	001e      	movs	r6, r3
 8000478:	42af      	cmp	r7, r5
 800047a:	d83b      	bhi.n	80004f4 <__udivmoddi4+0xc4>
 800047c:	42af      	cmp	r7, r5
 800047e:	d100      	bne.n	8000482 <__udivmoddi4+0x52>
 8000480:	e079      	b.n	8000576 <__udivmoddi4+0x146>
 8000482:	465b      	mov	r3, fp
 8000484:	1ba4      	subs	r4, r4, r6
 8000486:	41bd      	sbcs	r5, r7
 8000488:	2b00      	cmp	r3, #0
 800048a:	da00      	bge.n	800048e <__udivmoddi4+0x5e>
 800048c:	e076      	b.n	800057c <__udivmoddi4+0x14c>
 800048e:	2200      	movs	r2, #0
 8000490:	2300      	movs	r3, #0
 8000492:	9200      	str	r2, [sp, #0]
 8000494:	9301      	str	r3, [sp, #4]
 8000496:	2301      	movs	r3, #1
 8000498:	465a      	mov	r2, fp
 800049a:	4093      	lsls	r3, r2
 800049c:	9301      	str	r3, [sp, #4]
 800049e:	2301      	movs	r3, #1
 80004a0:	4642      	mov	r2, r8
 80004a2:	4093      	lsls	r3, r2
 80004a4:	9300      	str	r3, [sp, #0]
 80004a6:	e029      	b.n	80004fc <__udivmoddi4+0xcc>
 80004a8:	4282      	cmp	r2, r0
 80004aa:	d9cf      	bls.n	800044c <__udivmoddi4+0x1c>
 80004ac:	2200      	movs	r2, #0
 80004ae:	2300      	movs	r3, #0
 80004b0:	9200      	str	r2, [sp, #0]
 80004b2:	9301      	str	r3, [sp, #4]
 80004b4:	9b0c      	ldr	r3, [sp, #48]	@ 0x30
 80004b6:	2b00      	cmp	r3, #0
 80004b8:	d001      	beq.n	80004be <__udivmoddi4+0x8e>
 80004ba:	601c      	str	r4, [r3, #0]
 80004bc:	605d      	str	r5, [r3, #4]
 80004be:	9800      	ldr	r0, [sp, #0]
 80004c0:	9901      	ldr	r1, [sp, #4]
 80004c2:	b003      	add	sp, #12
 80004c4:	bcf0      	pop	{r4, r5, r6, r7}
 80004c6:	46bb      	mov	fp, r7
 80004c8:	46b2      	mov	sl, r6
 80004ca:	46a9      	mov	r9, r5
 80004cc:	46a0      	mov	r8, r4
 80004ce:	bdf0      	pop	{r4, r5, r6, r7, pc}
 80004d0:	4642      	mov	r2, r8
 80004d2:	469b      	mov	fp, r3
 80004d4:	2320      	movs	r3, #32
 80004d6:	1a9b      	subs	r3, r3, r2
 80004d8:	4652      	mov	r2, sl
 80004da:	40da      	lsrs	r2, r3
 80004dc:	4641      	mov	r1, r8
 80004de:	0013      	movs	r3, r2
 80004e0:	464a      	mov	r2, r9
 80004e2:	408a      	lsls	r2, r1
 80004e4:	0017      	movs	r7, r2
 80004e6:	4642      	mov	r2, r8
 80004e8:	431f      	orrs	r7, r3
 80004ea:	4653      	mov	r3, sl
 80004ec:	4093      	lsls	r3, r2
 80004ee:	001e      	movs	r6, r3
 80004f0:	42af      	cmp	r7, r5
 80004f2:	d9c3      	bls.n	800047c <__udivmoddi4+0x4c>
 80004f4:	2200      	movs	r2, #0
 80004f6:	2300      	movs	r3, #0
 80004f8:	9200      	str	r2, [sp, #0]
 80004fa:	9301      	str	r3, [sp, #4]
 80004fc:	4643      	mov	r3, r8
 80004fe:	2b00      	cmp	r3, #0
 8000500:	d0d8      	beq.n	80004b4 <__udivmoddi4+0x84>
 8000502:	07fb      	lsls	r3, r7, #31
 8000504:	0872      	lsrs	r2, r6, #1
 8000506:	431a      	orrs	r2, r3
 8000508:	4646      	mov	r6, r8
 800050a:	087b      	lsrs	r3, r7, #1
 800050c:	e00e      	b.n	800052c <__udivmoddi4+0xfc>
 800050e:	42ab      	cmp	r3, r5
 8000510:	d101      	bne.n	8000516 <__udivmoddi4+0xe6>
 8000512:	42a2      	cmp	r2, r4
 8000514:	d80c      	bhi.n	8000530 <__udivmoddi4+0x100>
 8000516:	1aa4      	subs	r4, r4, r2
 8000518:	419d      	sbcs	r5, r3
 800051a:	2001      	movs	r0, #1
 800051c:	1924      	adds	r4, r4, r4
 800051e:	416d      	adcs	r5, r5
 8000520:	2100      	movs	r1, #0
 8000522:	3e01      	subs	r6, #1
 8000524:	1824      	adds	r4, r4, r0
 8000526:	414d      	adcs	r5, r1
 8000528:	2e00      	cmp	r6, #0
 800052a:	d006      	beq.n	800053a <__udivmoddi4+0x10a>
 800052c:	42ab      	cmp	r3, r5
 800052e:	d9ee      	bls.n	800050e <__udivmoddi4+0xde>
 8000530:	3e01      	subs	r6, #1
 8000532:	1924      	adds	r4, r4, r4
 8000534:	416d      	adcs	r5, r5
 8000536:	2e00      	cmp	r6, #0
 8000538:	d1f8      	bne.n	800052c <__udivmoddi4+0xfc>
 800053a:	9800      	ldr	r0, [sp, #0]
 800053c:	9901      	ldr	r1, [sp, #4]
 800053e:	465b      	mov	r3, fp
 8000540:	1900      	adds	r0, r0, r4
 8000542:	4169      	adcs	r1, r5
 8000544:	2b00      	cmp	r3, #0
 8000546:	db24      	blt.n	8000592 <__udivmoddi4+0x162>
 8000548:	002b      	movs	r3, r5
 800054a:	465a      	mov	r2, fp
 800054c:	4644      	mov	r4, r8
 800054e:	40d3      	lsrs	r3, r2
 8000550:	002a      	movs	r2, r5
 8000552:	40e2      	lsrs	r2, r4
 8000554:	001c      	movs	r4, r3
 8000556:	465b      	mov	r3, fp
 8000558:	0015      	movs	r5, r2
 800055a:	2b00      	cmp	r3, #0
 800055c:	db2a      	blt.n	80005b4 <__udivmoddi4+0x184>
 800055e:	0026      	movs	r6, r4
 8000560:	409e      	lsls	r6, r3
 8000562:	0033      	movs	r3, r6
 8000564:	0026      	movs	r6, r4
 8000566:	4647      	mov	r7, r8
 8000568:	40be      	lsls	r6, r7
 800056a:	0032      	movs	r2, r6
 800056c:	1a80      	subs	r0, r0, r2
 800056e:	4199      	sbcs	r1, r3
 8000570:	9000      	str	r0, [sp, #0]
 8000572:	9101      	str	r1, [sp, #4]
 8000574:	e79e      	b.n	80004b4 <__udivmoddi4+0x84>
 8000576:	42a3      	cmp	r3, r4
 8000578:	d8bc      	bhi.n	80004f4 <__udivmoddi4+0xc4>
 800057a:	e782      	b.n	8000482 <__udivmoddi4+0x52>
 800057c:	4642      	mov	r2, r8
 800057e:	2320      	movs	r3, #32
 8000580:	2100      	movs	r1, #0
 8000582:	1a9b      	subs	r3, r3, r2
 8000584:	2200      	movs	r2, #0
 8000586:	9100      	str	r1, [sp, #0]
 8000588:	9201      	str	r2, [sp, #4]
 800058a:	2201      	movs	r2, #1
 800058c:	40da      	lsrs	r2, r3
 800058e:	9201      	str	r2, [sp, #4]
 8000590:	e785      	b.n	800049e <__udivmoddi4+0x6e>
 8000592:	4642      	mov	r2, r8
 8000594:	2320      	movs	r3, #32
 8000596:	1a9b      	subs	r3, r3, r2
 8000598:	002a      	movs	r2, r5
 800059a:	4646      	mov	r6, r8
 800059c:	409a      	lsls	r2, r3
 800059e:	0023      	movs	r3, r4
 80005a0:	40f3      	lsrs	r3, r6
 80005a2:	4644      	mov	r4, r8
 80005a4:	4313      	orrs	r3, r2
 80005a6:	002a      	movs	r2, r5
 80005a8:	40e2      	lsrs	r2, r4
 80005aa:	001c      	movs	r4, r3
 80005ac:	465b      	mov	r3, fp
 80005ae:	0015      	movs	r5, r2
 80005b0:	2b00      	cmp	r3, #0
 80005b2:	dad4      	bge.n	800055e <__udivmoddi4+0x12e>
 80005b4:	4642      	mov	r2, r8
 80005b6:	002f      	movs	r7, r5
 80005b8:	2320      	movs	r3, #32
 80005ba:	0026      	movs	r6, r4
 80005bc:	4097      	lsls	r7, r2
 80005be:	1a9b      	subs	r3, r3, r2
 80005c0:	40de      	lsrs	r6, r3
 80005c2:	003b      	movs	r3, r7
 80005c4:	4333      	orrs	r3, r6
 80005c6:	e7cd      	b.n	8000564 <__udivmoddi4+0x134>

080005c8 <__clzdi2>:
 80005c8:	b510      	push	{r4, lr}
 80005ca:	2900      	cmp	r1, #0
 80005cc:	d103      	bne.n	80005d6 <__clzdi2+0xe>
 80005ce:	f000 f807 	bl	80005e0 <__clzsi2>
 80005d2:	3020      	adds	r0, #32
 80005d4:	e002      	b.n	80005dc <__clzdi2+0x14>
 80005d6:	0008      	movs	r0, r1
 80005d8:	f000 f802 	bl	80005e0 <__clzsi2>
 80005dc:	bd10      	pop	{r4, pc}
 80005de:	46c0      	nop			@ (mov r8, r8)

080005e0 <__clzsi2>:
 80005e0:	211c      	movs	r1, #28
 80005e2:	2301      	movs	r3, #1
 80005e4:	041b      	lsls	r3, r3, #16
 80005e6:	4298      	cmp	r0, r3
 80005e8:	d301      	bcc.n	80005ee <__clzsi2+0xe>
 80005ea:	0c00      	lsrs	r0, r0, #16
 80005ec:	3910      	subs	r1, #16
 80005ee:	0a1b      	lsrs	r3, r3, #8
 80005f0:	4298      	cmp	r0, r3
 80005f2:	d301      	bcc.n	80005f8 <__clzsi2+0x18>
 80005f4:	0a00      	lsrs	r0, r0, #8
 80005f6:	3908      	subs	r1, #8
 80005f8:	091b      	lsrs	r3, r3, #4
 80005fa:	4298      	cmp	r0, r3
 80005fc:	d301      	bcc.n	8000602 <__clzsi2+0x22>
 80005fe:	0900      	lsrs	r0, r0, #4
 8000600:	3904      	subs	r1, #4
 8000602:	a202      	add	r2, pc, #8	@ (adr r2, 800060c <__clzsi2+0x2c>)
 8000604:	5c10      	ldrb	r0, [r2, r0]
 8000606:	1840      	adds	r0, r0, r1
 8000608:	4770      	bx	lr
 800060a:	46c0      	nop			@ (mov r8, r8)
 800060c:	02020304 	.word	0x02020304
 8000610:	01010101 	.word	0x01010101
	...

0800061c <HAL_Init>:
  *         each 1ms in the SysTick_Handler() interrupt handler.
  *
  * @retval HAL status
  */
HAL_StatusTypeDef HAL_Init(void)
{
 800061c:	b580      	push	{r7, lr}
 800061e:	b082      	sub	sp, #8
 8000620:	af00      	add	r7, sp, #0
  HAL_StatusTypeDef  status = HAL_OK;
 8000622:	1dfb      	adds	r3, r7, #7
 8000624:	2200      	movs	r2, #0
 8000626:	701a      	strb	r2, [r3, #0]
#if (INSTRUCTION_CACHE_ENABLE == 0U)
  __HAL_FLASH_INSTRUCTION_CACHE_DISABLE();
#endif /* INSTRUCTION_CACHE_ENABLE */

#if (PREFETCH_ENABLE != 0U)
  __HAL_FLASH_PREFETCH_BUFFER_ENABLE();
 8000628:	4b0b      	ldr	r3, [pc, #44]	@ (8000658 <HAL_Init+0x3c>)
 800062a:	681a      	ldr	r2, [r3, #0]
 800062c:	4b0a      	ldr	r3, [pc, #40]	@ (8000658 <HAL_Init+0x3c>)
 800062e:	2180      	movs	r1, #128	@ 0x80
 8000630:	0049      	lsls	r1, r1, #1
 8000632:	430a      	orrs	r2, r1
 8000634:	601a      	str	r2, [r3, #0]
#endif /* PREFETCH_ENABLE */

  /* Use SysTick as time base source and configure 1ms tick (default clock after Reset is HSI) */
  if (HAL_InitTick(TICK_INT_PRIORITY) != HAL_OK)
 8000636:	2003      	movs	r0, #3
 8000638:	f000 f810 	bl	800065c <HAL_InitTick>
 800063c:	1e03      	subs	r3, r0, #0
 800063e:	d003      	beq.n	8000648 <HAL_Init+0x2c>
  {
    status = HAL_ERROR;
 8000640:	1dfb      	adds	r3, r7, #7
 8000642:	2201      	movs	r2, #1
 8000644:	701a      	strb	r2, [r3, #0]
 8000646:	e001      	b.n	800064c <HAL_Init+0x30>
  }
  else
  {
  /* Init the low level hardware */
  HAL_MspInit();
 8000648:	f002 f880 	bl	800274c <HAL_MspInit>
  }

  /* Return function status */
  return status;
 800064c:	1dfb      	adds	r3, r7, #7
 800064e:	781b      	ldrb	r3, [r3, #0]
}
 8000650:	0018      	movs	r0, r3
 8000652:	46bd      	mov	sp, r7
 8000654:	b002      	add	sp, #8
 8000656:	bd80      	pop	{r7, pc}
 8000658:	40022000 	.word	0x40022000

0800065c <HAL_InitTick>:
  *       implementation  in user file.
  * @param TickPriority Tick interrupt priority.
  * @retval HAL status
  */
__weak HAL_StatusTypeDef HAL_InitTick(uint32_t TickPriority)
{
 800065c:	b590      	push	{r4, r7, lr}
 800065e:	b085      	sub	sp, #20
 8000660:	af00      	add	r7, sp, #0
 8000662:	6078      	str	r0, [r7, #4]
  HAL_StatusTypeDef  status = HAL_OK;
 8000664:	230f      	movs	r3, #15
 8000666:	18fb      	adds	r3, r7, r3
 8000668:	2200      	movs	r2, #0
 800066a:	701a      	strb	r2, [r3, #0]

  /* Check uwTickFreq for MisraC 2012 (even if uwTickFreq is a enum type that doesn't take the value zero)*/ 
  if ((uint32_t)uwTickFreq != 0U)
 800066c:	4b1d      	ldr	r3, [pc, #116]	@ (80006e4 <HAL_InitTick+0x88>)
 800066e:	781b      	ldrb	r3, [r3, #0]
 8000670:	2b00      	cmp	r3, #0
 8000672:	d02b      	beq.n	80006cc <HAL_InitTick+0x70>
  {
    /*Configure the SysTick to have interrupt in 1ms time basis*/
    if (HAL_SYSTICK_Config(SystemCoreClock / (1000U /(uint32_t)uwTickFreq)) == 0U)
 8000674:	4b1c      	ldr	r3, [pc, #112]	@ (80006e8 <HAL_InitTick+0x8c>)
 8000676:	681c      	ldr	r4, [r3, #0]
 8000678:	4b1a      	ldr	r3, [pc, #104]	@ (80006e4 <HAL_InitTick+0x88>)
 800067a:	781b      	ldrb	r3, [r3, #0]
 800067c:	0019      	movs	r1, r3
 800067e:	23fa      	movs	r3, #250	@ 0xfa
 8000680:	0098      	lsls	r0, r3, #2
 8000682:	f7ff fd3f 	bl	8000104 <__udivsi3>
 8000686:	0003      	movs	r3, r0
 8000688:	0019      	movs	r1, r3
 800068a:	0020      	movs	r0, r4
 800068c:	f7ff fd3a 	bl	8000104 <__udivsi3>
 8000690:	0003      	movs	r3, r0
 8000692:	0018      	movs	r0, r3
 8000694:	f000 f8ef 	bl	8000876 <HAL_SYSTICK_Config>
 8000698:	1e03      	subs	r3, r0, #0
 800069a:	d112      	bne.n	80006c2 <HAL_InitTick+0x66>
    {
      /* Configure the SysTick IRQ priority */
      if (TickPriority < (1UL << __NVIC_PRIO_BITS))
 800069c:	687b      	ldr	r3, [r7, #4]
 800069e:	2b03      	cmp	r3, #3
 80006a0:	d80a      	bhi.n	80006b8 <HAL_InitTick+0x5c>
      {
        HAL_NVIC_SetPriority(SysTick_IRQn, TickPriority, 0U);
 80006a2:	6879      	ldr	r1, [r7, #4]
 80006a4:	2301      	movs	r3, #1
 80006a6:	425b      	negs	r3, r3
 80006a8:	2200      	movs	r2, #0
 80006aa:	0018      	movs	r0, r3
 80006ac:	f000 f8ce 	bl	800084c <HAL_NVIC_SetPriority>
        uwTickPrio = TickPriority;
 80006b0:	4b0e      	ldr	r3, [pc, #56]	@ (80006ec <HAL_InitTick+0x90>)
 80006b2:	687a      	ldr	r2, [r7, #4]
 80006b4:	601a      	str	r2, [r3, #0]
 80006b6:	e00d      	b.n	80006d4 <HAL_InitTick+0x78>
      }
      else
      {
        status = HAL_ERROR;
 80006b8:	230f      	movs	r3, #15
 80006ba:	18fb      	adds	r3, r7, r3
 80006bc:	2201      	movs	r2, #1
 80006be:	701a      	strb	r2, [r3, #0]
 80006c0:	e008      	b.n	80006d4 <HAL_InitTick+0x78>
      }
    }
    else
    {
      status = HAL_ERROR;
 80006c2:	230f      	movs	r3, #15
 80006c4:	18fb      	adds	r3, r7, r3
 80006c6:	2201      	movs	r2, #1
 80006c8:	701a      	strb	r2, [r3, #0]
 80006ca:	e003      	b.n	80006d4 <HAL_InitTick+0x78>
    }
  }
  else
  {
    status = HAL_ERROR;
 80006cc:	230f      	movs	r3, #15
 80006ce:	18fb      	adds	r3, r7, r3
 80006d0:	2201      	movs	r2, #1
 80006d2:	701a      	strb	r2, [r3, #0]
  }

  /* Return function status */
  return status;
 80006d4:	230f      	movs	r3, #15
 80006d6:	18fb      	adds	r3, r7, r3
 80006d8:	781b      	ldrb	r3, [r3, #0]
}
 80006da:	0018      	movs	r0, r3
 80006dc:	46bd      	mov	sp, r7
 80006de:	b005      	add	sp, #20
 80006e0:	bd90      	pop	{r4, r7, pc}
 80006e2:	46c0      	nop			@ (mov r8, r8)
 80006e4:	20000004 	.word	0x20000004
 80006e8:	20000008 	.word	0x20000008
 80006ec:	20000000 	.word	0x20000000

080006f0 <HAL_IncTick>:
  * @note This function is declared as __weak to be overwritten in case of other
  *      implementations in user file.
  * @retval None
  */
__weak void HAL_IncTick(void)
{
 80006f0:	b580      	push	{r7, lr}
 80006f2:	af00      	add	r7, sp, #0
  uwTick += (uint32_t)uwTickFreq;
 80006f4:	4b05      	ldr	r3, [pc, #20]	@ (800070c <HAL_IncTick+0x1c>)
 80006f6:	781b      	ldrb	r3, [r3, #0]
 80006f8:	001a      	movs	r2, r3
 80006fa:	4b05      	ldr	r3, [pc, #20]	@ (8000710 <HAL_IncTick+0x20>)
 80006fc:	681b      	ldr	r3, [r3, #0]
 80006fe:	18d2      	adds	r2, r2, r3
 8000700:	4b03      	ldr	r3, [pc, #12]	@ (8000710 <HAL_IncTick+0x20>)
 8000702:	601a      	str	r2, [r3, #0]
}
 8000704:	46c0      	nop			@ (mov r8, r8)
 8000706:	46bd      	mov	sp, r7
 8000708:	bd80      	pop	{r7, pc}
 800070a:	46c0      	nop			@ (mov r8, r8)
 800070c:	20000004 	.word	0x20000004
 8000710:	20000028 	.word	0x20000028

08000714 <HAL_GetTick>:
  * @note This function is declared as __weak to be overwritten in case of other
  *       implementations in user file.
  * @retval tick value
  */
__weak uint32_t HAL_GetTick(void)
{
 8000714:	b580      	push	{r7, lr}
 8000716:	af00      	add	r7, sp, #0
  return uwTick;
 8000718:	4b02      	ldr	r3, [pc, #8]	@ (8000724 <HAL_GetTick+0x10>)
 800071a:	681b      	ldr	r3, [r3, #0]
}
 800071c:	0018      	movs	r0, r3
 800071e:	46bd      	mov	sp, r7
 8000720:	bd80      	pop	{r7, pc}
 8000722:	46c0      	nop			@ (mov r8, r8)
 8000724:	20000028 	.word	0x20000028

08000728 <__NVIC_SetPriority>:
  \param [in]      IRQn  Interrupt number.
  \param [in]  priority  Priority to set.
  \note    The priority cannot be set for every processor exception.
 */
__STATIC_INLINE void __NVIC_SetPriority(IRQn_Type IRQn, uint32_t priority)
{
 8000728:	b590      	push	{r4, r7, lr}
 800072a:	b083      	sub	sp, #12
 800072c:	af00      	add	r7, sp, #0
 800072e:	0002      	movs	r2, r0
 8000730:	6039      	str	r1, [r7, #0]
 8000732:	1dfb      	adds	r3, r7, #7
 8000734:	701a      	strb	r2, [r3, #0]
  if ((int32_t)(IRQn) >= 0)
 8000736:	1dfb      	adds	r3, r7, #7
 8000738:	781b      	ldrb	r3, [r3, #0]
 800073a:	2b7f      	cmp	r3, #127	@ 0x7f
 800073c:	d828      	bhi.n	8000790 <__NVIC_SetPriority+0x68>
  {
    NVIC->IP[_IP_IDX(IRQn)]  = ((uint32_t)(NVIC->IP[_IP_IDX(IRQn)]  & ~(0xFFUL << _BIT_SHIFT(IRQn))) |
 800073e:	4a2f      	ldr	r2, [pc, #188]	@ (80007fc <__NVIC_SetPriority+0xd4>)
 8000740:	1dfb      	adds	r3, r7, #7
 8000742:	781b      	ldrb	r3, [r3, #0]
 8000744:	b25b      	sxtb	r3, r3
 8000746:	089b      	lsrs	r3, r3, #2
 8000748:	33c0      	adds	r3, #192	@ 0xc0
 800074a:	009b      	lsls	r3, r3, #2
 800074c:	589b      	ldr	r3, [r3, r2]
 800074e:	1dfa      	adds	r2, r7, #7
 8000750:	7812      	ldrb	r2, [r2, #0]
 8000752:	0011      	movs	r1, r2
 8000754:	2203      	movs	r2, #3
 8000756:	400a      	ands	r2, r1
 8000758:	00d2      	lsls	r2, r2, #3
 800075a:	21ff      	movs	r1, #255	@ 0xff
 800075c:	4091      	lsls	r1, r2
 800075e:	000a      	movs	r2, r1
 8000760:	43d2      	mvns	r2, r2
 8000762:	401a      	ands	r2, r3
 8000764:	0011      	movs	r1, r2
       (((priority << (8U - __NVIC_PRIO_BITS)) & (uint32_t)0xFFUL) << _BIT_SHIFT(IRQn)));
 8000766:	683b      	ldr	r3, [r7, #0]
 8000768:	019b      	lsls	r3, r3, #6
 800076a:	22ff      	movs	r2, #255	@ 0xff
 800076c:	401a      	ands	r2, r3
 800076e:	1dfb      	adds	r3, r7, #7
 8000770:	781b      	ldrb	r3, [r3, #0]
 8000772:	0018      	movs	r0, r3
 8000774:	2303      	movs	r3, #3
 8000776:	4003      	ands	r3, r0
 8000778:	00db      	lsls	r3, r3, #3
 800077a:	409a      	lsls	r2, r3
    NVIC->IP[_IP_IDX(IRQn)]  = ((uint32_t)(NVIC->IP[_IP_IDX(IRQn)]  & ~(0xFFUL << _BIT_SHIFT(IRQn))) |
 800077c:	481f      	ldr	r0, [pc, #124]	@ (80007fc <__NVIC_SetPriority+0xd4>)
 800077e:	1dfb      	adds	r3, r7, #7
 8000780:	781b      	ldrb	r3, [r3, #0]
 8000782:	b25b      	sxtb	r3, r3
 8000784:	089b      	lsrs	r3, r3, #2
 8000786:	430a      	orrs	r2, r1
 8000788:	33c0      	adds	r3, #192	@ 0xc0
 800078a:	009b      	lsls	r3, r3, #2
 800078c:	501a      	str	r2, [r3, r0]
  else
  {
    SCB->SHP[_SHP_IDX(IRQn)] = ((uint32_t)(SCB->SHP[_SHP_IDX(IRQn)] & ~(0xFFUL << _BIT_SHIFT(IRQn))) |
       (((priority << (8U - __NVIC_PRIO_BITS)) & (uint32_t)0xFFUL) << _BIT_SHIFT(IRQn)));
  }
}
 800078e:	e031      	b.n	80007f4 <__NVIC_SetPriority+0xcc>
    SCB->SHP[_SHP_IDX(IRQn)] = ((uint32_t)(SCB->SHP[_SHP_IDX(IRQn)] & ~(0xFFUL << _BIT_SHIFT(IRQn))) |
 8000790:	4a1b      	ldr	r2, [pc, #108]	@ (8000800 <__NVIC_SetPriority+0xd8>)
 8000792:	1dfb      	adds	r3, r7, #7
 8000794:	781b      	ldrb	r3, [r3, #0]
 8000796:	0019      	movs	r1, r3
 8000798:	230f      	movs	r3, #15
 800079a:	400b      	ands	r3, r1
 800079c:	3b08      	subs	r3, #8
 800079e:	089b      	lsrs	r3, r3, #2
 80007a0:	3306      	adds	r3, #6
 80007a2:	009b      	lsls	r3, r3, #2
 80007a4:	18d3      	adds	r3, r2, r3
 80007a6:	3304      	adds	r3, #4
 80007a8:	681b      	ldr	r3, [r3, #0]
 80007aa:	1dfa      	adds	r2, r7, #7
 80007ac:	7812      	ldrb	r2, [r2, #0]
 80007ae:	0011      	movs	r1, r2
 80007b0:	2203      	movs	r2, #3
 80007b2:	400a      	ands	r2, r1
 80007b4:	00d2      	lsls	r2, r2, #3
 80007b6:	21ff      	movs	r1, #255	@ 0xff
 80007b8:	4091      	lsls	r1, r2
 80007ba:	000a      	movs	r2, r1
 80007bc:	43d2      	mvns	r2, r2
 80007be:	401a      	ands	r2, r3
 80007c0:	0011      	movs	r1, r2
       (((priority << (8U - __NVIC_PRIO_BITS)) & (uint32_t)0xFFUL) << _BIT_SHIFT(IRQn)));
 80007c2:	683b      	ldr	r3, [r7, #0]
 80007c4:	019b      	lsls	r3, r3, #6
 80007c6:	22ff      	movs	r2, #255	@ 0xff
 80007c8:	401a      	ands	r2, r3
 80007ca:	1dfb      	adds	r3, r7, #7
 80007cc:	781b      	ldrb	r3, [r3, #0]
 80007ce:	0018      	movs	r0, r3
 80007d0:	2303      	movs	r3, #3
 80007d2:	4003      	ands	r3, r0
 80007d4:	00db      	lsls	r3, r3, #3
 80007d6:	409a      	lsls	r2, r3
    SCB->SHP[_SHP_IDX(IRQn)] = ((uint32_t)(SCB->SHP[_SHP_IDX(IRQn)] & ~(0xFFUL << _BIT_SHIFT(IRQn))) |
 80007d8:	4809      	ldr	r0, [pc, #36]	@ (8000800 <__NVIC_SetPriority+0xd8>)
 80007da:	1dfb      	adds	r3, r7, #7
 80007dc:	781b      	ldrb	r3, [r3, #0]
 80007de:	001c      	movs	r4, r3
 80007e0:	230f      	movs	r3, #15
 80007e2:	4023      	ands	r3, r4
 80007e4:	3b08      	subs	r3, #8
 80007e6:	089b      	lsrs	r3, r3, #2
 80007e8:	430a      	orrs	r2, r1
 80007ea:	3306      	adds	r3, #6
 80007ec:	009b      	lsls	r3, r3, #2
 80007ee:	18c3      	adds	r3, r0, r3
 80007f0:	3304      	adds	r3, #4
 80007f2:	601a      	str	r2, [r3, #0]
}
 80007f4:	46c0      	nop			@ (mov r8, r8)
 80007f6:	46bd      	mov	sp, r7
 80007f8:	b003      	add	sp, #12
 80007fa:	bd90      	pop	{r4, r7, pc}
 80007fc:	e000e100 	.word	0xe000e100
 8000800:	e000ed00 	.word	0xe000ed00

08000804 <SysTick_Config>:
  \note    When the variable <b>__Vendor_SysTickConfig</b> is set to 1, then the
           function <b>SysTick_Config</b> is not included. In this case, the file <b><i>device</i>.h</b>
           must contain a vendor-specific implementation of this function.
 */
__STATIC_INLINE uint32_t SysTick_Config(uint32_t ticks)
{
 8000804:	b580      	push	{r7, lr}
 8000806:	b082      	sub	sp, #8
 8000808:	af00      	add	r7, sp, #0
 800080a:	6078      	str	r0, [r7, #4]
  if ((ticks - 1UL) > SysTick_LOAD_RELOAD_Msk)
 800080c:	687b      	ldr	r3, [r7, #4]
 800080e:	1e5a      	subs	r2, r3, #1
 8000810:	2380      	movs	r3, #128	@ 0x80
 8000812:	045b      	lsls	r3, r3, #17
 8000814:	429a      	cmp	r2, r3
 8000816:	d301      	bcc.n	800081c <SysTick_Config+0x18>
  {
    return (1UL);                                                   /* Reload value impossible */
 8000818:	2301      	movs	r3, #1
 800081a:	e010      	b.n	800083e <SysTick_Config+0x3a>
  }

  SysTick->LOAD  = (uint32_t)(ticks - 1UL);                         /* set reload register */
 800081c:	4b0a      	ldr	r3, [pc, #40]	@ (8000848 <SysTick_Config+0x44>)
 800081e:	687a      	ldr	r2, [r7, #4]
 8000820:	3a01      	subs	r2, #1
 8000822:	605a      	str	r2, [r3, #4]
  NVIC_SetPriority (SysTick_IRQn, (1UL << __NVIC_PRIO_BITS) - 1UL); /* set Priority for Systick Interrupt */
 8000824:	2301      	movs	r3, #1
 8000826:	425b      	negs	r3, r3
 8000828:	2103      	movs	r1, #3
 800082a:	0018      	movs	r0, r3
 800082c:	f7ff ff7c 	bl	8000728 <__NVIC_SetPriority>
  SysTick->VAL   = 0UL;                                             /* Load the SysTick Counter Value */
 8000830:	4b05      	ldr	r3, [pc, #20]	@ (8000848 <SysTick_Config+0x44>)
 8000832:	2200      	movs	r2, #0
 8000834:	609a      	str	r2, [r3, #8]
  SysTick->CTRL  = SysTick_CTRL_CLKSOURCE_Msk |
 8000836:	4b04      	ldr	r3, [pc, #16]	@ (8000848 <SysTick_Config+0x44>)
 8000838:	2207      	movs	r2, #7
 800083a:	601a      	str	r2, [r3, #0]
                   SysTick_CTRL_TICKINT_Msk   |
                   SysTick_CTRL_ENABLE_Msk;                         /* Enable SysTick IRQ and SysTick Timer */
  return (0UL);                                                     /* Function successful */
 800083c:	2300      	movs	r3, #0
}
 800083e:	0018      	movs	r0, r3
 8000840:	46bd      	mov	sp, r7
 8000842:	b002      	add	sp, #8
 8000844:	bd80      	pop	{r7, pc}
 8000846:	46c0      	nop			@ (mov r8, r8)
 8000848:	e000e010 	.word	0xe000e010

0800084c <HAL_NVIC_SetPriority>:
  *         with stm32g0xx devices, this parameter is a dummy value and it is ignored, because
  *         no subpriority supported in Cortex M0+ based products.
  * @retval None
  */
void HAL_NVIC_SetPriority(IRQn_Type IRQn, uint32_t PreemptPriority, uint32_t SubPriority)
{
 800084c:	b580      	push	{r7, lr}
 800084e:	b084      	sub	sp, #16
 8000850:	af00      	add	r7, sp, #0
 8000852:	60b9      	str	r1, [r7, #8]
 8000854:	607a      	str	r2, [r7, #4]
 8000856:	210f      	movs	r1, #15
 8000858:	187b      	adds	r3, r7, r1
 800085a:	1c02      	adds	r2, r0, #0
 800085c:	701a      	strb	r2, [r3, #0]
  /* Prevent unused argument(s) compilation warning */
  UNUSED(SubPriority);

  /* Check the parameters */
  assert_param(IS_NVIC_PREEMPTION_PRIORITY(PreemptPriority));
  NVIC_SetPriority(IRQn, PreemptPriority);
 800085e:	68ba      	ldr	r2, [r7, #8]
 8000860:	187b      	adds	r3, r7, r1
 8000862:	781b      	ldrb	r3, [r3, #0]
 8000864:	b25b      	sxtb	r3, r3
 8000866:	0011      	movs	r1, r2
 8000868:	0018      	movs	r0, r3
 800086a:	f7ff ff5d 	bl	8000728 <__NVIC_SetPriority>
}
 800086e:	46c0      	nop			@ (mov r8, r8)
 8000870:	46bd      	mov	sp, r7
 8000872:	b004      	add	sp, #16
 8000874:	bd80      	pop	{r7, pc}

08000876 <HAL_SYSTICK_Config>:
  * @param  TicksNumb Specifies the ticks Number of ticks between two interrupts.
  * @retval status:  - 0  Function succeeded.
  *                  - 1  Function failed.
  */
uint32_t HAL_SYSTICK_Config(uint32_t TicksNumb)
{
 8000876:	b580      	push	{r7, lr}
 8000878:	b082      	sub	sp, #8
 800087a:	af00      	add	r7, sp, #0
 800087c:	6078      	str	r0, [r7, #4]
  return SysTick_Config(TicksNumb);
 800087e:	687b      	ldr	r3, [r7, #4]
 8000880:	0018      	movs	r0, r3
 8000882:	f7ff ffbf 	bl	8000804 <SysTick_Config>
 8000886:	0003      	movs	r3, r0
}
 8000888:	0018      	movs	r0, r3
 800088a:	46bd      	mov	sp, r7
 800088c:	b002      	add	sp, #8
 800088e:	bd80      	pop	{r7, pc}

08000890 <HAL_GPIO_Init>:
  * @param  GPIO_Init pointer to a GPIO_InitTypeDef structure that contains
  *         the configuration information for the specified GPIO peripheral.
  * @retval None
  */
void HAL_GPIO_Init(GPIO_TypeDef  *GPIOx, GPIO_InitTypeDef *GPIO_Init)
{
 8000890:	b580      	push	{r7, lr}
 8000892:	b086      	sub	sp, #24
 8000894:	af00      	add	r7, sp, #0
 8000896:	6078      	str	r0, [r7, #4]
 8000898:	6039      	str	r1, [r7, #0]
  uint32_t position = 0x00u;
 800089a:	2300      	movs	r3, #0
 800089c:	617b      	str	r3, [r7, #20]
  assert_param(IS_GPIO_ALL_INSTANCE(GPIOx));
  assert_param(IS_GPIO_PIN(GPIO_Init->Pin));
  assert_param(IS_GPIO_MODE(GPIO_Init->Mode));

  /* Configure the port pins */
  while (((GPIO_Init->Pin) >> position) != 0x00u)
 800089e:	e147      	b.n	8000b30 <HAL_GPIO_Init+0x2a0>
  {
    /* Get current io position */
    iocurrent = (GPIO_Init->Pin) & (1uL << position);
 80008a0:	683b      	ldr	r3, [r7, #0]
 80008a2:	681b      	ldr	r3, [r3, #0]
 80008a4:	2101      	movs	r1, #1
 80008a6:	697a      	ldr	r2, [r7, #20]
 80008a8:	4091      	lsls	r1, r2
 80008aa:	000a      	movs	r2, r1
 80008ac:	4013      	ands	r3, r2
 80008ae:	60fb      	str	r3, [r7, #12]

    if (iocurrent != 0x00u)
 80008b0:	68fb      	ldr	r3, [r7, #12]
 80008b2:	2b00      	cmp	r3, #0
 80008b4:	d100      	bne.n	80008b8 <HAL_GPIO_Init+0x28>
 80008b6:	e138      	b.n	8000b2a <HAL_GPIO_Init+0x29a>
    {
      /*--------------------- GPIO Mode Configuration ------------------------*/
      /* In case of Output or Alternate function mode selection */
      if (((GPIO_Init->Mode & GPIO_MODE) == MODE_OUTPUT) || ((GPIO_Init->Mode & GPIO_MODE) == MODE_AF))
 80008b8:	683b      	ldr	r3, [r7, #0]
 80008ba:	685b      	ldr	r3, [r3, #4]
 80008bc:	2203      	movs	r2, #3
 80008be:	4013      	ands	r3, r2
 80008c0:	2b01      	cmp	r3, #1
 80008c2:	d005      	beq.n	80008d0 <HAL_GPIO_Init+0x40>
 80008c4:	683b      	ldr	r3, [r7, #0]
 80008c6:	685b      	ldr	r3, [r3, #4]
 80008c8:	2203      	movs	r2, #3
 80008ca:	4013      	ands	r3, r2
 80008cc:	2b02      	cmp	r3, #2
 80008ce:	d130      	bne.n	8000932 <HAL_GPIO_Init+0xa2>
      {
        /* Check the Speed parameter */
        assert_param(IS_GPIO_SPEED(GPIO_Init->Speed));

        /* Configure the IO Speed */
        temp = GPIOx->OSPEEDR;
 80008d0:	687b      	ldr	r3, [r7, #4]
 80008d2:	689b      	ldr	r3, [r3, #8]
 80008d4:	613b      	str	r3, [r7, #16]
        temp &= ~(GPIO_OSPEEDR_OSPEED0 << (position * 2u));
 80008d6:	697b      	ldr	r3, [r7, #20]
 80008d8:	005b      	lsls	r3, r3, #1
 80008da:	2203      	movs	r2, #3
 80008dc:	409a      	lsls	r2, r3
 80008de:	0013      	movs	r3, r2
 80008e0:	43da      	mvns	r2, r3
 80008e2:	693b      	ldr	r3, [r7, #16]
 80008e4:	4013      	ands	r3, r2
 80008e6:	613b      	str	r3, [r7, #16]
        temp |= (GPIO_Init->Speed << (position * 2u));
 80008e8:	683b      	ldr	r3, [r7, #0]
 80008ea:	68da      	ldr	r2, [r3, #12]
 80008ec:	697b      	ldr	r3, [r7, #20]
 80008ee:	005b      	lsls	r3, r3, #1
 80008f0:	409a      	lsls	r2, r3
 80008f2:	0013      	movs	r3, r2
 80008f4:	693a      	ldr	r2, [r7, #16]
 80008f6:	4313      	orrs	r3, r2
 80008f8:	613b      	str	r3, [r7, #16]
        GPIOx->OSPEEDR = temp;
 80008fa:	687b      	ldr	r3, [r7, #4]
 80008fc:	693a      	ldr	r2, [r7, #16]
 80008fe:	609a      	str	r2, [r3, #8]

        /* Configure the IO Output Type */
        temp = GPIOx->OTYPER;
 8000900:	687b      	ldr	r3, [r7, #4]
 8000902:	685b      	ldr	r3, [r3, #4]
 8000904:	613b      	str	r3, [r7, #16]
        temp &= ~(GPIO_OTYPER_OT0 << position) ;
 8000906:	2201      	movs	r2, #1
 8000908:	697b      	ldr	r3, [r7, #20]
 800090a:	409a      	lsls	r2, r3
 800090c:	0013      	movs	r3, r2
 800090e:	43da      	mvns	r2, r3
 8000910:	693b      	ldr	r3, [r7, #16]
 8000912:	4013      	ands	r3, r2
 8000914:	613b      	str	r3, [r7, #16]
        temp |= (((GPIO_Init->Mode & OUTPUT_TYPE) >> OUTPUT_TYPE_Pos) << position);
 8000916:	683b      	ldr	r3, [r7, #0]
 8000918:	685b      	ldr	r3, [r3, #4]
 800091a:	091b      	lsrs	r3, r3, #4
 800091c:	2201      	movs	r2, #1
 800091e:	401a      	ands	r2, r3
 8000920:	697b      	ldr	r3, [r7, #20]
 8000922:	409a      	lsls	r2, r3
 8000924:	0013      	movs	r3, r2
 8000926:	693a      	ldr	r2, [r7, #16]
 8000928:	4313      	orrs	r3, r2
 800092a:	613b      	str	r3, [r7, #16]
        GPIOx->OTYPER = temp;
 800092c:	687b      	ldr	r3, [r7, #4]
 800092e:	693a      	ldr	r2, [r7, #16]
 8000930:	605a      	str	r2, [r3, #4]
      }

      if ((GPIO_Init->Mode & GPIO_MODE) != MODE_ANALOG)
 8000932:	683b      	ldr	r3, [r7, #0]
 8000934:	685b      	ldr	r3, [r3, #4]
 8000936:	2203      	movs	r2, #3
 8000938:	4013      	ands	r3, r2
 800093a:	2b03      	cmp	r3, #3
 800093c:	d017      	beq.n	800096e <HAL_GPIO_Init+0xde>
      {
        /* Check the Pull parameter */
        assert_param(IS_GPIO_PULL(GPIO_Init->Pull));

        /* Activate the Pull-up or Pull down resistor for the current IO */
        temp = GPIOx->PUPDR;
 800093e:	687b      	ldr	r3, [r7, #4]
 8000940:	68db      	ldr	r3, [r3, #12]
 8000942:	613b      	str	r3, [r7, #16]
        temp &= ~(GPIO_PUPDR_PUPD0 << (position * 2u));
 8000944:	697b      	ldr	r3, [r7, #20]
 8000946:	005b      	lsls	r3, r3, #1
 8000948:	2203      	movs	r2, #3
 800094a:	409a      	lsls	r2, r3
 800094c:	0013      	movs	r3, r2
 800094e:	43da      	mvns	r2, r3
 8000950:	693b      	ldr	r3, [r7, #16]
 8000952:	4013      	ands	r3, r2
 8000954:	613b      	str	r3, [r7, #16]
        temp |= ((GPIO_Init->Pull) << (position * 2u));
 8000956:	683b      	ldr	r3, [r7, #0]
 8000958:	689a      	ldr	r2, [r3, #8]
 800095a:	697b      	ldr	r3, [r7, #20]
 800095c:	005b      	lsls	r3, r3, #1
 800095e:	409a      	lsls	r2, r3
 8000960:	0013      	movs	r3, r2
 8000962:	693a      	ldr	r2, [r7, #16]
 8000964:	4313      	orrs	r3, r2
 8000966:	613b      	str	r3, [r7, #16]
        GPIOx->PUPDR = temp;
 8000968:	687b      	ldr	r3, [r7, #4]
 800096a:	693a      	ldr	r2, [r7, #16]
 800096c:	60da      	str	r2, [r3, #12]
      }

      /* In case of Alternate function mode selection */
      if ((GPIO_Init->Mode & GPIO_MODE) == MODE_AF)
 800096e:	683b      	ldr	r3, [r7, #0]
 8000970:	685b      	ldr	r3, [r3, #4]
 8000972:	2203      	movs	r2, #3
 8000974:	4013      	ands	r3, r2
 8000976:	2b02      	cmp	r3, #2
 8000978:	d123      	bne.n	80009c2 <HAL_GPIO_Init+0x132>
        /* Check the Alternate function parameters */
        assert_param(IS_GPIO_AF_INSTANCE(GPIOx));
        assert_param(IS_GPIO_AF(GPIO_Init->Alternate));

        /* Configure Alternate function mapped with the current IO */
        temp = GPIOx->AFR[position >> 3u];
 800097a:	697b      	ldr	r3, [r7, #20]
 800097c:	08da      	lsrs	r2, r3, #3
 800097e:	687b      	ldr	r3, [r7, #4]
 8000980:	3208      	adds	r2, #8
 8000982:	0092      	lsls	r2, r2, #2
 8000984:	58d3      	ldr	r3, [r2, r3]
 8000986:	613b      	str	r3, [r7, #16]
        temp &= ~(0xFu << ((position & 0x07u) * 4u));
 8000988:	697b      	ldr	r3, [r7, #20]
 800098a:	2207      	movs	r2, #7
 800098c:	4013      	ands	r3, r2
 800098e:	009b      	lsls	r3, r3, #2
 8000990:	220f      	movs	r2, #15
 8000992:	409a      	lsls	r2, r3
 8000994:	0013      	movs	r3, r2
 8000996:	43da      	mvns	r2, r3
 8000998:	693b      	ldr	r3, [r7, #16]
 800099a:	4013      	ands	r3, r2
 800099c:	613b      	str	r3, [r7, #16]
        temp |= ((GPIO_Init->Alternate) << ((position & 0x07u) * 4u));
 800099e:	683b      	ldr	r3, [r7, #0]
 80009a0:	691a      	ldr	r2, [r3, #16]
 80009a2:	697b      	ldr	r3, [r7, #20]
 80009a4:	2107      	movs	r1, #7
 80009a6:	400b      	ands	r3, r1
 80009a8:	009b      	lsls	r3, r3, #2
 80009aa:	409a      	lsls	r2, r3
 80009ac:	0013      	movs	r3, r2
 80009ae:	693a      	ldr	r2, [r7, #16]
 80009b0:	4313      	orrs	r3, r2
 80009b2:	613b      	str	r3, [r7, #16]
        GPIOx->AFR[position >> 3u] = temp;
 80009b4:	697b      	ldr	r3, [r7, #20]
 80009b6:	08da      	lsrs	r2, r3, #3
 80009b8:	687b      	ldr	r3, [r7, #4]
 80009ba:	3208      	adds	r2, #8
 80009bc:	0092      	lsls	r2, r2, #2
 80009be:	6939      	ldr	r1, [r7, #16]
 80009c0:	50d1      	str	r1, [r2, r3]
      }

      /* Configure IO Direction mode (Input, Output, Alternate or Analog) */
      temp = GPIOx->MODER;
 80009c2:	687b      	ldr	r3, [r7, #4]
 80009c4:	681b      	ldr	r3, [r3, #0]
 80009c6:	613b      	str	r3, [r7, #16]
      temp &= ~(GPIO_MODER_MODE0 << (position * 2u));
 80009c8:	697b      	ldr	r3, [r7, #20]
 80009ca:	005b      	lsls	r3, r3, #1
 80009cc:	2203      	movs	r2, #3
 80009ce:	409a      	lsls	r2, r3
 80009d0:	0013      	movs	r3, r2
 80009d2:	43da      	mvns	r2, r3
 80009d4:	693b      	ldr	r3, [r7, #16]
 80009d6:	4013      	ands	r3, r2
 80009d8:	613b      	str	r3, [r7, #16]
      temp |= ((GPIO_Init->Mode & GPIO_MODE) << (position * 2u));
 80009da:	683b      	ldr	r3, [r7, #0]
 80009dc:	685b      	ldr	r3, [r3, #4]
 80009de:	2203      	movs	r2, #3
 80009e0:	401a      	ands	r2, r3
 80009e2:	697b      	ldr	r3, [r7, #20]
 80009e4:	005b      	lsls	r3, r3, #1
 80009e6:	409a      	lsls	r2, r3
 80009e8:	0013      	movs	r3, r2
 80009ea:	693a      	ldr	r2, [r7, #16]
 80009ec:	4313      	orrs	r3, r2
 80009ee:	613b      	str	r3, [r7, #16]
      GPIOx->MODER = temp;
 80009f0:	687b      	ldr	r3, [r7, #4]
 80009f2:	693a      	ldr	r2, [r7, #16]
 80009f4:	601a      	str	r2, [r3, #0]

      /*--------------------- EXTI Mode Configuration ------------------------*/
      /* Configure the External Interrupt or event for the current IO */
      if ((GPIO_Init->Mode & EXTI_MODE) != 0x00u)
 80009f6:	683b      	ldr	r3, [r7, #0]
 80009f8:	685a      	ldr	r2, [r3, #4]
 80009fa:	23c0      	movs	r3, #192	@ 0xc0
 80009fc:	029b      	lsls	r3, r3, #10
 80009fe:	4013      	ands	r3, r2
 8000a00:	d100      	bne.n	8000a04 <HAL_GPIO_Init+0x174>
 8000a02:	e092      	b.n	8000b2a <HAL_GPIO_Init+0x29a>
      {
        temp = EXTI->EXTICR[position >> 2u];
 8000a04:	4a50      	ldr	r2, [pc, #320]	@ (8000b48 <HAL_GPIO_Init+0x2b8>)
 8000a06:	697b      	ldr	r3, [r7, #20]
 8000a08:	089b      	lsrs	r3, r3, #2
 8000a0a:	3318      	adds	r3, #24
 8000a0c:	009b      	lsls	r3, r3, #2
 8000a0e:	589b      	ldr	r3, [r3, r2]
 8000a10:	613b      	str	r3, [r7, #16]
        temp &= ~(0x0FuL << (8u * (position & 0x03u)));
 8000a12:	697b      	ldr	r3, [r7, #20]
 8000a14:	2203      	movs	r2, #3
 8000a16:	4013      	ands	r3, r2
 8000a18:	00db      	lsls	r3, r3, #3
 8000a1a:	220f      	movs	r2, #15
 8000a1c:	409a      	lsls	r2, r3
 8000a1e:	0013      	movs	r3, r2
 8000a20:	43da      	mvns	r2, r3
 8000a22:	693b      	ldr	r3, [r7, #16]
 8000a24:	4013      	ands	r3, r2
 8000a26:	613b      	str	r3, [r7, #16]
        temp |= (GPIO_GET_INDEX(GPIOx) << (8u * (position & 0x03u)));
 8000a28:	687a      	ldr	r2, [r7, #4]
 8000a2a:	23a0      	movs	r3, #160	@ 0xa0
 8000a2c:	05db      	lsls	r3, r3, #23
 8000a2e:	429a      	cmp	r2, r3
 8000a30:	d013      	beq.n	8000a5a <HAL_GPIO_Init+0x1ca>
 8000a32:	687b      	ldr	r3, [r7, #4]
 8000a34:	4a45      	ldr	r2, [pc, #276]	@ (8000b4c <HAL_GPIO_Init+0x2bc>)
 8000a36:	4293      	cmp	r3, r2
 8000a38:	d00d      	beq.n	8000a56 <HAL_GPIO_Init+0x1c6>
 8000a3a:	687b      	ldr	r3, [r7, #4]
 8000a3c:	4a44      	ldr	r2, [pc, #272]	@ (8000b50 <HAL_GPIO_Init+0x2c0>)
 8000a3e:	4293      	cmp	r3, r2
 8000a40:	d007      	beq.n	8000a52 <HAL_GPIO_Init+0x1c2>
 8000a42:	687b      	ldr	r3, [r7, #4]
 8000a44:	4a43      	ldr	r2, [pc, #268]	@ (8000b54 <HAL_GPIO_Init+0x2c4>)
 8000a46:	4293      	cmp	r3, r2
 8000a48:	d101      	bne.n	8000a4e <HAL_GPIO_Init+0x1be>
 8000a4a:	2303      	movs	r3, #3
 8000a4c:	e006      	b.n	8000a5c <HAL_GPIO_Init+0x1cc>
 8000a4e:	2305      	movs	r3, #5
 8000a50:	e004      	b.n	8000a5c <HAL_GPIO_Init+0x1cc>
 8000a52:	2302      	movs	r3, #2
 8000a54:	e002      	b.n	8000a5c <HAL_GPIO_Init+0x1cc>
 8000a56:	2301      	movs	r3, #1
 8000a58:	e000      	b.n	8000a5c <HAL_GPIO_Init+0x1cc>
 8000a5a:	2300      	movs	r3, #0
 8000a5c:	697a      	ldr	r2, [r7, #20]
 8000a5e:	2103      	movs	r1, #3
 8000a60:	400a      	ands	r2, r1
 8000a62:	00d2      	lsls	r2, r2, #3
 8000a64:	4093      	lsls	r3, r2
 8000a66:	693a      	ldr	r2, [r7, #16]
 8000a68:	4313      	orrs	r3, r2
 8000a6a:	613b      	str	r3, [r7, #16]
        EXTI->EXTICR[position >> 2u] = temp;
 8000a6c:	4936      	ldr	r1, [pc, #216]	@ (8000b48 <HAL_GPIO_Init+0x2b8>)
 8000a6e:	697b      	ldr	r3, [r7, #20]
 8000a70:	089b      	lsrs	r3, r3, #2
 8000a72:	3318      	adds	r3, #24
 8000a74:	009b      	lsls	r3, r3, #2
 8000a76:	693a      	ldr	r2, [r7, #16]
 8000a78:	505a      	str	r2, [r3, r1]

        /* Clear Rising Falling edge configuration */
        temp = EXTI->RTSR1;
 8000a7a:	4b33      	ldr	r3, [pc, #204]	@ (8000b48 <HAL_GPIO_Init+0x2b8>)
 8000a7c:	681b      	ldr	r3, [r3, #0]
 8000a7e:	613b      	str	r3, [r7, #16]
        temp &= ~(iocurrent);
 8000a80:	68fb      	ldr	r3, [r7, #12]
 8000a82:	43da      	mvns	r2, r3
 8000a84:	693b      	ldr	r3, [r7, #16]
 8000a86:	4013      	ands	r3, r2
 8000a88:	613b      	str	r3, [r7, #16]
        if ((GPIO_Init->Mode & TRIGGER_RISING) != 0x00u)
 8000a8a:	683b      	ldr	r3, [r7, #0]
 8000a8c:	685a      	ldr	r2, [r3, #4]
 8000a8e:	2380      	movs	r3, #128	@ 0x80
 8000a90:	035b      	lsls	r3, r3, #13
 8000a92:	4013      	ands	r3, r2
 8000a94:	d003      	beq.n	8000a9e <HAL_GPIO_Init+0x20e>
        {
          temp |= iocurrent;
 8000a96:	693a      	ldr	r2, [r7, #16]
 8000a98:	68fb      	ldr	r3, [r7, #12]
 8000a9a:	4313      	orrs	r3, r2
 8000a9c:	613b      	str	r3, [r7, #16]
        }
        EXTI->RTSR1 = temp;
 8000a9e:	4b2a      	ldr	r3, [pc, #168]	@ (8000b48 <HAL_GPIO_Init+0x2b8>)
 8000aa0:	693a      	ldr	r2, [r7, #16]
 8000aa2:	601a      	str	r2, [r3, #0]

        temp = EXTI->FTSR1;
 8000aa4:	4b28      	ldr	r3, [pc, #160]	@ (8000b48 <HAL_GPIO_Init+0x2b8>)
 8000aa6:	685b      	ldr	r3, [r3, #4]
 8000aa8:	613b      	str	r3, [r7, #16]
        temp &= ~(iocurrent);
 8000aaa:	68fb      	ldr	r3, [r7, #12]
 8000aac:	43da      	mvns	r2, r3
 8000aae:	693b      	ldr	r3, [r7, #16]
 8000ab0:	4013      	ands	r3, r2
 8000ab2:	613b      	str	r3, [r7, #16]
        if ((GPIO_Init->Mode & TRIGGER_FALLING) != 0x00u)
 8000ab4:	683b      	ldr	r3, [r7, #0]
 8000ab6:	685a      	ldr	r2, [r3, #4]
 8000ab8:	2380      	movs	r3, #128	@ 0x80
 8000aba:	039b      	lsls	r3, r3, #14
 8000abc:	4013      	ands	r3, r2
 8000abe:	d003      	beq.n	8000ac8 <HAL_GPIO_Init+0x238>
        {
          temp |= iocurrent;
 8000ac0:	693a      	ldr	r2, [r7, #16]
 8000ac2:	68fb      	ldr	r3, [r7, #12]
 8000ac4:	4313      	orrs	r3, r2
 8000ac6:	613b      	str	r3, [r7, #16]
        }
        EXTI->FTSR1 = temp;
 8000ac8:	4b1f      	ldr	r3, [pc, #124]	@ (8000b48 <HAL_GPIO_Init+0x2b8>)
 8000aca:	693a      	ldr	r2, [r7, #16]
 8000acc:	605a      	str	r2, [r3, #4]

        /* Clear EXTI line configuration */
        temp = EXTI->EMR1;
 8000ace:	4a1e      	ldr	r2, [pc, #120]	@ (8000b48 <HAL_GPIO_Init+0x2b8>)
 8000ad0:	2384      	movs	r3, #132	@ 0x84
 8000ad2:	58d3      	ldr	r3, [r2, r3]
 8000ad4:	613b      	str	r3, [r7, #16]
        temp &= ~(iocurrent);
 8000ad6:	68fb      	ldr	r3, [r7, #12]
 8000ad8:	43da      	mvns	r2, r3
 8000ada:	693b      	ldr	r3, [r7, #16]
 8000adc:	4013      	ands	r3, r2
 8000ade:	613b      	str	r3, [r7, #16]
        if ((GPIO_Init->Mode & EXTI_EVT) != 0x00u)
 8000ae0:	683b      	ldr	r3, [r7, #0]
 8000ae2:	685a      	ldr	r2, [r3, #4]
 8000ae4:	2380      	movs	r3, #128	@ 0x80
 8000ae6:	029b      	lsls	r3, r3, #10
 8000ae8:	4013      	ands	r3, r2
 8000aea:	d003      	beq.n	8000af4 <HAL_GPIO_Init+0x264>
        {
          temp |= iocurrent;
 8000aec:	693a      	ldr	r2, [r7, #16]
 8000aee:	68fb      	ldr	r3, [r7, #12]
 8000af0:	4313      	orrs	r3, r2
 8000af2:	613b      	str	r3, [r7, #16]
        }
        EXTI->EMR1 = temp;
 8000af4:	4914      	ldr	r1, [pc, #80]	@ (8000b48 <HAL_GPIO_Init+0x2b8>)
 8000af6:	2284      	movs	r2, #132	@ 0x84
 8000af8:	693b      	ldr	r3, [r7, #16]
 8000afa:	508b      	str	r3, [r1, r2]

        temp = EXTI->IMR1;
 8000afc:	4a12      	ldr	r2, [pc, #72]	@ (8000b48 <HAL_GPIO_Init+0x2b8>)
 8000afe:	2380      	movs	r3, #128	@ 0x80
 8000b00:	58d3      	ldr	r3, [r2, r3]
 8000b02:	613b      	str	r3, [r7, #16]
        temp &= ~(iocurrent);
 8000b04:	68fb      	ldr	r3, [r7, #12]
 8000b06:	43da      	mvns	r2, r3
 8000b08:	693b      	ldr	r3, [r7, #16]
 8000b0a:	4013      	ands	r3, r2
 8000b0c:	613b      	str	r3, [r7, #16]
        if ((GPIO_Init->Mode & EXTI_IT) != 0x00u)
 8000b0e:	683b      	ldr	r3, [r7, #0]
 8000b10:	685a      	ldr	r2, [r3, #4]
 8000b12:	2380      	movs	r3, #128	@ 0x80
 8000b14:	025b      	lsls	r3, r3, #9
 8000b16:	4013      	ands	r3, r2
 8000b18:	d003      	beq.n	8000b22 <HAL_GPIO_Init+0x292>
        {
          temp |= iocurrent;
 8000b1a:	693a      	ldr	r2, [r7, #16]
 8000b1c:	68fb      	ldr	r3, [r7, #12]
 8000b1e:	4313      	orrs	r3, r2
 8000b20:	613b      	str	r3, [r7, #16]
        }
        EXTI->IMR1 = temp;
 8000b22:	4909      	ldr	r1, [pc, #36]	@ (8000b48 <HAL_GPIO_Init+0x2b8>)
 8000b24:	2280      	movs	r2, #128	@ 0x80
 8000b26:	693b      	ldr	r3, [r7, #16]
 8000b28:	508b      	str	r3, [r1, r2]
      }
    }

    position++;
 8000b2a:	697b      	ldr	r3, [r7, #20]
 8000b2c:	3301      	adds	r3, #1
 8000b2e:	617b      	str	r3, [r7, #20]
  while (((GPIO_Init->Pin) >> position) != 0x00u)
 8000b30:	683b      	ldr	r3, [r7, #0]
 8000b32:	681a      	ldr	r2, [r3, #0]
 8000b34:	697b      	ldr	r3, [r7, #20]
 8000b36:	40da      	lsrs	r2, r3
 8000b38:	1e13      	subs	r3, r2, #0
 8000b3a:	d000      	beq.n	8000b3e <HAL_GPIO_Init+0x2ae>
 8000b3c:	e6b0      	b.n	80008a0 <HAL_GPIO_Init+0x10>
  }
}
 8000b3e:	46c0      	nop			@ (mov r8, r8)
 8000b40:	46c0      	nop			@ (mov r8, r8)
 8000b42:	46bd      	mov	sp, r7
 8000b44:	b006      	add	sp, #24
 8000b46:	bd80      	pop	{r7, pc}
 8000b48:	40021800 	.word	0x40021800
 8000b4c:	50000400 	.word	0x50000400
 8000b50:	50000800 	.word	0x50000800
 8000b54:	50000c00 	.word	0x50000c00

08000b58 <HAL_GPIO_WritePin>:
  *            @arg GPIO_PIN_RESET: to clear the port pin
  *            @arg GPIO_PIN_SET: to set the port pin
  * @retval None
  */
void HAL_GPIO_WritePin(GPIO_TypeDef *GPIOx, uint16_t GPIO_Pin, GPIO_PinState PinState)
{
 8000b58:	b580      	push	{r7, lr}
 8000b5a:	b082      	sub	sp, #8
 8000b5c:	af00      	add	r7, sp, #0
 8000b5e:	6078      	str	r0, [r7, #4]
 8000b60:	0008      	movs	r0, r1
 8000b62:	0011      	movs	r1, r2
 8000b64:	1cbb      	adds	r3, r7, #2
 8000b66:	1c02      	adds	r2, r0, #0
 8000b68:	801a      	strh	r2, [r3, #0]
 8000b6a:	1c7b      	adds	r3, r7, #1
 8000b6c:	1c0a      	adds	r2, r1, #0
 8000b6e:	701a      	strb	r2, [r3, #0]
  /* Check the parameters */
  assert_param(IS_GPIO_PIN(GPIO_Pin));
  assert_param(IS_GPIO_PIN_ACTION(PinState));

  if (PinState != GPIO_PIN_RESET)
 8000b70:	1c7b      	adds	r3, r7, #1
 8000b72:	781b      	ldrb	r3, [r3, #0]
 8000b74:	2b00      	cmp	r3, #0
 8000b76:	d004      	beq.n	8000b82 <HAL_GPIO_WritePin+0x2a>
  {
    GPIOx->BSRR = (uint32_t)GPIO_Pin;
 8000b78:	1cbb      	adds	r3, r7, #2
 8000b7a:	881a      	ldrh	r2, [r3, #0]
 8000b7c:	687b      	ldr	r3, [r7, #4]
 8000b7e:	619a      	str	r2, [r3, #24]
  }
  else
  {
    GPIOx->BRR = (uint32_t)GPIO_Pin;
  }
}
 8000b80:	e003      	b.n	8000b8a <HAL_GPIO_WritePin+0x32>
    GPIOx->BRR = (uint32_t)GPIO_Pin;
 8000b82:	1cbb      	adds	r3, r7, #2
 8000b84:	881a      	ldrh	r2, [r3, #0]
 8000b86:	687b      	ldr	r3, [r7, #4]
 8000b88:	629a      	str	r2, [r3, #40]	@ 0x28
}
 8000b8a:	46c0      	nop			@ (mov r8, r8)
 8000b8c:	46bd      	mov	sp, r7
 8000b8e:	b002      	add	sp, #8
 8000b90:	bd80      	pop	{r7, pc}
	...

08000b94 <HAL_PWREx_ControlVoltageScaling>:
  *        cleared before returning the status. If the flag is not cleared within
  *        6 microseconds, HAL_TIMEOUT status is reported.
  * @retval HAL Status
  */
HAL_StatusTypeDef HAL_PWREx_ControlVoltageScaling(uint32_t VoltageScaling)
{
 8000b94:	b580      	push	{r7, lr}
 8000b96:	b084      	sub	sp, #16
 8000b98:	af00      	add	r7, sp, #0
 8000b9a:	6078      	str	r0, [r7, #4]
  uint32_t wait_loop_index;

  assert_param(IS_PWR_VOLTAGE_SCALING_RANGE(VoltageScaling));

  /* Modify voltage scaling range */
  MODIFY_REG(PWR->CR1, PWR_CR1_VOS, VoltageScaling);
 8000b9c:	4b19      	ldr	r3, [pc, #100]	@ (8000c04 <HAL_PWREx_ControlVoltageScaling+0x70>)
 8000b9e:	681b      	ldr	r3, [r3, #0]
 8000ba0:	4a19      	ldr	r2, [pc, #100]	@ (8000c08 <HAL_PWREx_ControlVoltageScaling+0x74>)
 8000ba2:	4013      	ands	r3, r2
 8000ba4:	0019      	movs	r1, r3
 8000ba6:	4b17      	ldr	r3, [pc, #92]	@ (8000c04 <HAL_PWREx_ControlVoltageScaling+0x70>)
 8000ba8:	687a      	ldr	r2, [r7, #4]
 8000baa:	430a      	orrs	r2, r1
 8000bac:	601a      	str	r2, [r3, #0]

  /* In case of Range 1 selected, we need to ensure that main regulator reaches new value */
  if (VoltageScaling == PWR_REGULATOR_VOLTAGE_SCALE1)
 8000bae:	687a      	ldr	r2, [r7, #4]
 8000bb0:	2380      	movs	r3, #128	@ 0x80
 8000bb2:	009b      	lsls	r3, r3, #2
 8000bb4:	429a      	cmp	r2, r3
 8000bb6:	d11f      	bne.n	8000bf8 <HAL_PWREx_ControlVoltageScaling+0x64>
  {
    /* Set timeout value */
    wait_loop_index = ((PWR_VOSF_SETTING_DELAY_6_US * SystemCoreClock) / 1000000U) + 1U;
 8000bb8:	4b14      	ldr	r3, [pc, #80]	@ (8000c0c <HAL_PWREx_ControlVoltageScaling+0x78>)
 8000bba:	681a      	ldr	r2, [r3, #0]
 8000bbc:	0013      	movs	r3, r2
 8000bbe:	005b      	lsls	r3, r3, #1
 8000bc0:	189b      	adds	r3, r3, r2
 8000bc2:	005b      	lsls	r3, r3, #1
 8000bc4:	4912      	ldr	r1, [pc, #72]	@ (8000c10 <HAL_PWREx_ControlVoltageScaling+0x7c>)
 8000bc6:	0018      	movs	r0, r3
 8000bc8:	f7ff fa9c 	bl	8000104 <__udivsi3>
 8000bcc:	0003      	movs	r3, r0
 8000bce:	3301      	adds	r3, #1
 8000bd0:	60fb      	str	r3, [r7, #12]

    /* Wait until VOSF is reset */
    while (HAL_IS_BIT_SET(PWR->SR2, PWR_SR2_VOSF))
 8000bd2:	e008      	b.n	8000be6 <HAL_PWREx_ControlVoltageScaling+0x52>
    {
      if (wait_loop_index != 0U)
 8000bd4:	68fb      	ldr	r3, [r7, #12]
 8000bd6:	2b00      	cmp	r3, #0
 8000bd8:	d003      	beq.n	8000be2 <HAL_PWREx_ControlVoltageScaling+0x4e>
      {
        wait_loop_index--;
 8000bda:	68fb      	ldr	r3, [r7, #12]
 8000bdc:	3b01      	subs	r3, #1
 8000bde:	60fb      	str	r3, [r7, #12]
 8000be0:	e001      	b.n	8000be6 <HAL_PWREx_ControlVoltageScaling+0x52>
      }
      else
      {
        return HAL_TIMEOUT;
 8000be2:	2303      	movs	r3, #3
 8000be4:	e009      	b.n	8000bfa <HAL_PWREx_ControlVoltageScaling+0x66>
    while (HAL_IS_BIT_SET(PWR->SR2, PWR_SR2_VOSF))
 8000be6:	4b07      	ldr	r3, [pc, #28]	@ (8000c04 <HAL_PWREx_ControlVoltageScaling+0x70>)
 8000be8:	695a      	ldr	r2, [r3, #20]
 8000bea:	2380      	movs	r3, #128	@ 0x80
 8000bec:	00db      	lsls	r3, r3, #3
 8000bee:	401a      	ands	r2, r3
 8000bf0:	2380      	movs	r3, #128	@ 0x80
 8000bf2:	00db      	lsls	r3, r3, #3
 8000bf4:	429a      	cmp	r2, r3
 8000bf6:	d0ed      	beq.n	8000bd4 <HAL_PWREx_ControlVoltageScaling+0x40>
      }
    }
  }

  return HAL_OK;
 8000bf8:	2300      	movs	r3, #0
}
 8000bfa:	0018      	movs	r0, r3
 8000bfc:	46bd      	mov	sp, r7
 8000bfe:	b004      	add	sp, #16
 8000c00:	bd80      	pop	{r7, pc}
 8000c02:	46c0      	nop			@ (mov r8, r8)
 8000c04:	40007000 	.word	0x40007000
 8000c08:	fffff9ff 	.word	0xfffff9ff
 8000c0c:	20000008 	.word	0x20000008
 8000c10:	000f4240 	.word	0x000f4240

08000c14 <LL_RCC_GetAPB1Prescaler>:
  *         @arg @ref LL_RCC_APB1_DIV_4
  *         @arg @ref LL_RCC_APB1_DIV_8
  *         @arg @ref LL_RCC_APB1_DIV_16
  */
__STATIC_INLINE uint32_t LL_RCC_GetAPB1Prescaler(void)
{
 8000c14:	b580      	push	{r7, lr}
 8000c16:	af00      	add	r7, sp, #0
  return (uint32_t)(READ_BIT(RCC->CFGR, RCC_CFGR_PPRE));
 8000c18:	4b03      	ldr	r3, [pc, #12]	@ (8000c28 <LL_RCC_GetAPB1Prescaler+0x14>)
 8000c1a:	689a      	ldr	r2, [r3, #8]
 8000c1c:	23e0      	movs	r3, #224	@ 0xe0
 8000c1e:	01db      	lsls	r3, r3, #7
 8000c20:	4013      	ands	r3, r2
}
 8000c22:	0018      	movs	r0, r3
 8000c24:	46bd      	mov	sp, r7
 8000c26:	bd80      	pop	{r7, pc}
 8000c28:	40021000 	.word	0x40021000

08000c2c <HAL_RCC_OscConfig>:
  *         supported by this function. User should request a transition to LSE Off
  *         first and then to LSE On or LSE Bypass.
  * @retval HAL status
  */
HAL_StatusTypeDef HAL_RCC_OscConfig(RCC_OscInitTypeDef  *RCC_OscInitStruct)
{
 8000c2c:	b580      	push	{r7, lr}
 8000c2e:	b088      	sub	sp, #32
 8000c30:	af00      	add	r7, sp, #0
 8000c32:	6078      	str	r0, [r7, #4]
  uint32_t tickstart;
  uint32_t temp_sysclksrc;
  uint32_t temp_pllckcfg;

  /* Check Null pointer */
  if (RCC_OscInitStruct == NULL)
 8000c34:	687b      	ldr	r3, [r7, #4]
 8000c36:	2b00      	cmp	r3, #0
 8000c38:	d101      	bne.n	8000c3e <HAL_RCC_OscConfig+0x12>
  {
    return HAL_ERROR;
 8000c3a:	2301      	movs	r3, #1
 8000c3c:	e2fe      	b.n	800123c <HAL_RCC_OscConfig+0x610>

  /* Check the parameters */
  assert_param(IS_RCC_OSCILLATORTYPE(RCC_OscInitStruct->OscillatorType));

  /*------------------------------- HSE Configuration ------------------------*/
  if (((RCC_OscInitStruct->OscillatorType) & RCC_OSCILLATORTYPE_HSE) == RCC_OSCILLATORTYPE_HSE)
 8000c3e:	687b      	ldr	r3, [r7, #4]
 8000c40:	681b      	ldr	r3, [r3, #0]
 8000c42:	2201      	movs	r2, #1
 8000c44:	4013      	ands	r3, r2
 8000c46:	d100      	bne.n	8000c4a <HAL_RCC_OscConfig+0x1e>
 8000c48:	e07c      	b.n	8000d44 <HAL_RCC_OscConfig+0x118>
  {
    /* Check the parameters */
    assert_param(IS_RCC_HSE(RCC_OscInitStruct->HSEState));

    temp_sysclksrc = __HAL_RCC_GET_SYSCLK_SOURCE();
 8000c4a:	4bc3      	ldr	r3, [pc, #780]	@ (8000f58 <HAL_RCC_OscConfig+0x32c>)
 8000c4c:	689b      	ldr	r3, [r3, #8]
 8000c4e:	2238      	movs	r2, #56	@ 0x38
 8000c50:	4013      	ands	r3, r2
 8000c52:	61bb      	str	r3, [r7, #24]
    temp_pllckcfg = __HAL_RCC_GET_PLL_OSCSOURCE();
 8000c54:	4bc0      	ldr	r3, [pc, #768]	@ (8000f58 <HAL_RCC_OscConfig+0x32c>)
 8000c56:	68db      	ldr	r3, [r3, #12]
 8000c58:	2203      	movs	r2, #3
 8000c5a:	4013      	ands	r3, r2
 8000c5c:	617b      	str	r3, [r7, #20]

    /* When the HSE is used as system clock or clock source for PLL in these cases it is not allowed to be disabled */
    if (((temp_sysclksrc == RCC_SYSCLKSOURCE_STATUS_PLLCLK) && (temp_pllckcfg == RCC_PLLSOURCE_HSE))
 8000c5e:	69bb      	ldr	r3, [r7, #24]
 8000c60:	2b10      	cmp	r3, #16
 8000c62:	d102      	bne.n	8000c6a <HAL_RCC_OscConfig+0x3e>
 8000c64:	697b      	ldr	r3, [r7, #20]
 8000c66:	2b03      	cmp	r3, #3
 8000c68:	d002      	beq.n	8000c70 <HAL_RCC_OscConfig+0x44>
        || (temp_sysclksrc == RCC_SYSCLKSOURCE_STATUS_HSE))
 8000c6a:	69bb      	ldr	r3, [r7, #24]
 8000c6c:	2b08      	cmp	r3, #8
 8000c6e:	d10b      	bne.n	8000c88 <HAL_RCC_OscConfig+0x5c>
    {
      if ((READ_BIT(RCC->CR, RCC_CR_HSERDY) != 0U) && (RCC_OscInitStruct->HSEState == RCC_HSE_OFF))
 8000c70:	4bb9      	ldr	r3, [pc, #740]	@ (8000f58 <HAL_RCC_OscConfig+0x32c>)
 8000c72:	681a      	ldr	r2, [r3, #0]
 8000c74:	2380      	movs	r3, #128	@ 0x80
 8000c76:	029b      	lsls	r3, r3, #10
 8000c78:	4013      	ands	r3, r2
 8000c7a:	d062      	beq.n	8000d42 <HAL_RCC_OscConfig+0x116>
 8000c7c:	687b      	ldr	r3, [r7, #4]
 8000c7e:	685b      	ldr	r3, [r3, #4]
 8000c80:	2b00      	cmp	r3, #0
 8000c82:	d15e      	bne.n	8000d42 <HAL_RCC_OscConfig+0x116>
      {
        return HAL_ERROR;
 8000c84:	2301      	movs	r3, #1
 8000c86:	e2d9      	b.n	800123c <HAL_RCC_OscConfig+0x610>
      }
    }
    else
    {
      /* Set the new HSE configuration ---------------------------------------*/
      __HAL_RCC_HSE_CONFIG(RCC_OscInitStruct->HSEState);
 8000c88:	687b      	ldr	r3, [r7, #4]
 8000c8a:	685a      	ldr	r2, [r3, #4]
 8000c8c:	2380      	movs	r3, #128	@ 0x80
 8000c8e:	025b      	lsls	r3, r3, #9
 8000c90:	429a      	cmp	r2, r3
 8000c92:	d107      	bne.n	8000ca4 <HAL_RCC_OscConfig+0x78>
 8000c94:	4bb0      	ldr	r3, [pc, #704]	@ (8000f58 <HAL_RCC_OscConfig+0x32c>)
 8000c96:	681a      	ldr	r2, [r3, #0]
 8000c98:	4baf      	ldr	r3, [pc, #700]	@ (8000f58 <HAL_RCC_OscConfig+0x32c>)
 8000c9a:	2180      	movs	r1, #128	@ 0x80
 8000c9c:	0249      	lsls	r1, r1, #9
 8000c9e:	430a      	orrs	r2, r1
 8000ca0:	601a      	str	r2, [r3, #0]
 8000ca2:	e020      	b.n	8000ce6 <HAL_RCC_OscConfig+0xba>
 8000ca4:	687b      	ldr	r3, [r7, #4]
 8000ca6:	685a      	ldr	r2, [r3, #4]
 8000ca8:	23a0      	movs	r3, #160	@ 0xa0
 8000caa:	02db      	lsls	r3, r3, #11
 8000cac:	429a      	cmp	r2, r3
 8000cae:	d10e      	bne.n	8000cce <HAL_RCC_OscConfig+0xa2>
 8000cb0:	4ba9      	ldr	r3, [pc, #676]	@ (8000f58 <HAL_RCC_OscConfig+0x32c>)
 8000cb2:	681a      	ldr	r2, [r3, #0]
 8000cb4:	4ba8      	ldr	r3, [pc, #672]	@ (8000f58 <HAL_RCC_OscConfig+0x32c>)
 8000cb6:	2180      	movs	r1, #128	@ 0x80
 8000cb8:	02c9      	lsls	r1, r1, #11
 8000cba:	430a      	orrs	r2, r1
 8000cbc:	601a      	str	r2, [r3, #0]
 8000cbe:	4ba6      	ldr	r3, [pc, #664]	@ (8000f58 <HAL_RCC_OscConfig+0x32c>)
 8000cc0:	681a      	ldr	r2, [r3, #0]
 8000cc2:	4ba5      	ldr	r3, [pc, #660]	@ (8000f58 <HAL_RCC_OscConfig+0x32c>)
 8000cc4:	2180      	movs	r1, #128	@ 0x80
 8000cc6:	0249      	lsls	r1, r1, #9
 8000cc8:	430a      	orrs	r2, r1
 8000cca:	601a      	str	r2, [r3, #0]
 8000ccc:	e00b      	b.n	8000ce6 <HAL_RCC_OscConfig+0xba>
 8000cce:	4ba2      	ldr	r3, [pc, #648]	@ (8000f58 <HAL_RCC_OscConfig+0x32c>)
 8000cd0:	681a      	ldr	r2, [r3, #0]
 8000cd2:	4ba1      	ldr	r3, [pc, #644]	@ (8000f58 <HAL_RCC_OscConfig+0x32c>)
 8000cd4:	49a1      	ldr	r1, [pc, #644]	@ (8000f5c <HAL_RCC_OscConfig+0x330>)
 8000cd6:	400a      	ands	r2, r1
 8000cd8:	601a      	str	r2, [r3, #0]
 8000cda:	4b9f      	ldr	r3, [pc, #636]	@ (8000f58 <HAL_RCC_OscConfig+0x32c>)
 8000cdc:	681a      	ldr	r2, [r3, #0]
 8000cde:	4b9e      	ldr	r3, [pc, #632]	@ (8000f58 <HAL_RCC_OscConfig+0x32c>)
 8000ce0:	499f      	ldr	r1, [pc, #636]	@ (8000f60 <HAL_RCC_OscConfig+0x334>)
 8000ce2:	400a      	ands	r2, r1
 8000ce4:	601a      	str	r2, [r3, #0]

      /* Check the HSE State */
      if (RCC_OscInitStruct->HSEState != RCC_HSE_OFF)
 8000ce6:	687b      	ldr	r3, [r7, #4]
 8000ce8:	685b      	ldr	r3, [r3, #4]
 8000cea:	2b00      	cmp	r3, #0
 8000cec:	d014      	beq.n	8000d18 <HAL_RCC_OscConfig+0xec>
      {
        /* Get Start Tick*/
        tickstart = HAL_GetTick();
 8000cee:	f7ff fd11 	bl	8000714 <HAL_GetTick>
 8000cf2:	0003      	movs	r3, r0
 8000cf4:	613b      	str	r3, [r7, #16]

        /* Wait till HSE is ready */
        while (READ_BIT(RCC->CR, RCC_CR_HSERDY) == 0U)
 8000cf6:	e008      	b.n	8000d0a <HAL_RCC_OscConfig+0xde>
        {
          if ((HAL_GetTick() - tickstart) > HSE_TIMEOUT_VALUE)
 8000cf8:	f7ff fd0c 	bl	8000714 <HAL_GetTick>
 8000cfc:	0002      	movs	r2, r0
 8000cfe:	693b      	ldr	r3, [r7, #16]
 8000d00:	1ad3      	subs	r3, r2, r3
 8000d02:	2b64      	cmp	r3, #100	@ 0x64
 8000d04:	d901      	bls.n	8000d0a <HAL_RCC_OscConfig+0xde>
          {
            return HAL_TIMEOUT;
 8000d06:	2303      	movs	r3, #3
 8000d08:	e298      	b.n	800123c <HAL_RCC_OscConfig+0x610>
        while (READ_BIT(RCC->CR, RCC_CR_HSERDY) == 0U)
 8000d0a:	4b93      	ldr	r3, [pc, #588]	@ (8000f58 <HAL_RCC_OscConfig+0x32c>)
 8000d0c:	681a      	ldr	r2, [r3, #0]
 8000d0e:	2380      	movs	r3, #128	@ 0x80
 8000d10:	029b      	lsls	r3, r3, #10
 8000d12:	4013      	ands	r3, r2
 8000d14:	d0f0      	beq.n	8000cf8 <HAL_RCC_OscConfig+0xcc>
 8000d16:	e015      	b.n	8000d44 <HAL_RCC_OscConfig+0x118>
        }
      }
      else
      {
        /* Get Start Tick*/
        tickstart = HAL_GetTick();
 8000d18:	f7ff fcfc 	bl	8000714 <HAL_GetTick>
 8000d1c:	0003      	movs	r3, r0
 8000d1e:	613b      	str	r3, [r7, #16]

        /* Wait till HSE is disabled */
        while (READ_BIT(RCC->CR, RCC_CR_HSERDY) != 0U)
 8000d20:	e008      	b.n	8000d34 <HAL_RCC_OscConfig+0x108>
        {
          if ((HAL_GetTick() - tickstart) > HSE_TIMEOUT_VALUE)
 8000d22:	f7ff fcf7 	bl	8000714 <HAL_GetTick>
 8000d26:	0002      	movs	r2, r0
 8000d28:	693b      	ldr	r3, [r7, #16]
 8000d2a:	1ad3      	subs	r3, r2, r3
 8000d2c:	2b64      	cmp	r3, #100	@ 0x64
 8000d2e:	d901      	bls.n	8000d34 <HAL_RCC_OscConfig+0x108>
          {
            return HAL_TIMEOUT;
 8000d30:	2303      	movs	r3, #3
 8000d32:	e283      	b.n	800123c <HAL_RCC_OscConfig+0x610>
        while (READ_BIT(RCC->CR, RCC_CR_HSERDY) != 0U)
 8000d34:	4b88      	ldr	r3, [pc, #544]	@ (8000f58 <HAL_RCC_OscConfig+0x32c>)
 8000d36:	681a      	ldr	r2, [r3, #0]
 8000d38:	2380      	movs	r3, #128	@ 0x80
 8000d3a:	029b      	lsls	r3, r3, #10
 8000d3c:	4013      	ands	r3, r2
 8000d3e:	d1f0      	bne.n	8000d22 <HAL_RCC_OscConfig+0xf6>
 8000d40:	e000      	b.n	8000d44 <HAL_RCC_OscConfig+0x118>
      if ((READ_BIT(RCC->CR, RCC_CR_HSERDY) != 0U) && (RCC_OscInitStruct->HSEState == RCC_HSE_OFF))
 8000d42:	46c0      	nop			@ (mov r8, r8)
        }
      }
    }
  }
  /*----------------------------- HSI Configuration --------------------------*/
  if (((RCC_OscInitStruct->OscillatorType) & RCC_OSCILLATORTYPE_HSI) == RCC_OSCILLATORTYPE_HSI)
 8000d44:	687b      	ldr	r3, [r7, #4]
 8000d46:	681b      	ldr	r3, [r3, #0]
 8000d48:	2202      	movs	r2, #2
 8000d4a:	4013      	ands	r3, r2
 8000d4c:	d100      	bne.n	8000d50 <HAL_RCC_OscConfig+0x124>
 8000d4e:	e099      	b.n	8000e84 <HAL_RCC_OscConfig+0x258>
    assert_param(IS_RCC_HSI(RCC_OscInitStruct->HSIState));
    assert_param(IS_RCC_HSI_CALIBRATION_VALUE(RCC_OscInitStruct->HSICalibrationValue));
    assert_param(IS_RCC_HSIDIV(RCC_OscInitStruct->HSIDiv));

    /* Check if HSI16 is used as system clock or as PLL source when PLL is selected as system clock */
    temp_sysclksrc = __HAL_RCC_GET_SYSCLK_SOURCE();
 8000d50:	4b81      	ldr	r3, [pc, #516]	@ (8000f58 <HAL_RCC_OscConfig+0x32c>)
 8000d52:	689b      	ldr	r3, [r3, #8]
 8000d54:	2238      	movs	r2, #56	@ 0x38
 8000d56:	4013      	ands	r3, r2
 8000d58:	61bb      	str	r3, [r7, #24]
    temp_pllckcfg = __HAL_RCC_GET_PLL_OSCSOURCE();
 8000d5a:	4b7f      	ldr	r3, [pc, #508]	@ (8000f58 <HAL_RCC_OscConfig+0x32c>)
 8000d5c:	68db      	ldr	r3, [r3, #12]
 8000d5e:	2203      	movs	r2, #3
 8000d60:	4013      	ands	r3, r2
 8000d62:	617b      	str	r3, [r7, #20]
    if (((temp_sysclksrc == RCC_SYSCLKSOURCE_STATUS_PLLCLK) && (temp_pllckcfg == RCC_PLLSOURCE_HSI))
 8000d64:	69bb      	ldr	r3, [r7, #24]
 8000d66:	2b10      	cmp	r3, #16
 8000d68:	d102      	bne.n	8000d70 <HAL_RCC_OscConfig+0x144>
 8000d6a:	697b      	ldr	r3, [r7, #20]
 8000d6c:	2b02      	cmp	r3, #2
 8000d6e:	d002      	beq.n	8000d76 <HAL_RCC_OscConfig+0x14a>
        || (temp_sysclksrc == RCC_SYSCLKSOURCE_STATUS_HSI))
 8000d70:	69bb      	ldr	r3, [r7, #24]
 8000d72:	2b00      	cmp	r3, #0
 8000d74:	d135      	bne.n	8000de2 <HAL_RCC_OscConfig+0x1b6>
    {
      /* When HSI is used as system clock or as PLL input clock it can not be disabled */
      if ((READ_BIT(RCC->CR, RCC_CR_HSIRDY) != 0U) && (RCC_OscInitStruct->HSIState == RCC_HSI_OFF))
 8000d76:	4b78      	ldr	r3, [pc, #480]	@ (8000f58 <HAL_RCC_OscConfig+0x32c>)
 8000d78:	681a      	ldr	r2, [r3, #0]
 8000d7a:	2380      	movs	r3, #128	@ 0x80
 8000d7c:	00db      	lsls	r3, r3, #3
 8000d7e:	4013      	ands	r3, r2
 8000d80:	d005      	beq.n	8000d8e <HAL_RCC_OscConfig+0x162>
 8000d82:	687b      	ldr	r3, [r7, #4]
 8000d84:	68db      	ldr	r3, [r3, #12]
 8000d86:	2b00      	cmp	r3, #0
 8000d88:	d101      	bne.n	8000d8e <HAL_RCC_OscConfig+0x162>
      {
        return HAL_ERROR;
 8000d8a:	2301      	movs	r3, #1
 8000d8c:	e256      	b.n	800123c <HAL_RCC_OscConfig+0x610>
      }
      /* Otherwise, just the calibration is allowed */
      else
      {
        /* Adjusts the Internal High Speed oscillator (HSI) calibration value.*/
        __HAL_RCC_HSI_CALIBRATIONVALUE_ADJUST(RCC_OscInitStruct->HSICalibrationValue);
 8000d8e:	4b72      	ldr	r3, [pc, #456]	@ (8000f58 <HAL_RCC_OscConfig+0x32c>)
 8000d90:	685b      	ldr	r3, [r3, #4]
 8000d92:	4a74      	ldr	r2, [pc, #464]	@ (8000f64 <HAL_RCC_OscConfig+0x338>)
 8000d94:	4013      	ands	r3, r2
 8000d96:	0019      	movs	r1, r3
 8000d98:	687b      	ldr	r3, [r7, #4]
 8000d9a:	695b      	ldr	r3, [r3, #20]
 8000d9c:	021a      	lsls	r2, r3, #8
 8000d9e:	4b6e      	ldr	r3, [pc, #440]	@ (8000f58 <HAL_RCC_OscConfig+0x32c>)
 8000da0:	430a      	orrs	r2, r1
 8000da2:	605a      	str	r2, [r3, #4]

        if (temp_sysclksrc == RCC_SYSCLKSOURCE_STATUS_HSI)
 8000da4:	69bb      	ldr	r3, [r7, #24]
 8000da6:	2b00      	cmp	r3, #0
 8000da8:	d112      	bne.n	8000dd0 <HAL_RCC_OscConfig+0x1a4>
        {
          /* Adjust the HSI16 division factor */
          __HAL_RCC_HSI_CONFIG(RCC_OscInitStruct->HSIDiv);
 8000daa:	4b6b      	ldr	r3, [pc, #428]	@ (8000f58 <HAL_RCC_OscConfig+0x32c>)
 8000dac:	681b      	ldr	r3, [r3, #0]
 8000dae:	4a6e      	ldr	r2, [pc, #440]	@ (8000f68 <HAL_RCC_OscConfig+0x33c>)
 8000db0:	4013      	ands	r3, r2
 8000db2:	0019      	movs	r1, r3
 8000db4:	687b      	ldr	r3, [r7, #4]
 8000db6:	691a      	ldr	r2, [r3, #16]
 8000db8:	4b67      	ldr	r3, [pc, #412]	@ (8000f58 <HAL_RCC_OscConfig+0x32c>)
 8000dba:	430a      	orrs	r2, r1
 8000dbc:	601a      	str	r2, [r3, #0]

          /* Update the SystemCoreClock global variable with HSISYS value  */
          SystemCoreClock = (HSI_VALUE / (1UL << ((READ_BIT(RCC->CR, RCC_CR_HSIDIV)) >> RCC_CR_HSIDIV_Pos)));
 8000dbe:	4b66      	ldr	r3, [pc, #408]	@ (8000f58 <HAL_RCC_OscConfig+0x32c>)
 8000dc0:	681b      	ldr	r3, [r3, #0]
 8000dc2:	0adb      	lsrs	r3, r3, #11
 8000dc4:	2207      	movs	r2, #7
 8000dc6:	4013      	ands	r3, r2
 8000dc8:	4a68      	ldr	r2, [pc, #416]	@ (8000f6c <HAL_RCC_OscConfig+0x340>)
 8000dca:	40da      	lsrs	r2, r3
 8000dcc:	4b68      	ldr	r3, [pc, #416]	@ (8000f70 <HAL_RCC_OscConfig+0x344>)
 8000dce:	601a      	str	r2, [r3, #0]
        }

        /* Adapt Systick interrupt period */
        if (HAL_InitTick(uwTickPrio) != HAL_OK)
 8000dd0:	4b68      	ldr	r3, [pc, #416]	@ (8000f74 <HAL_RCC_OscConfig+0x348>)
 8000dd2:	681b      	ldr	r3, [r3, #0]
 8000dd4:	0018      	movs	r0, r3
 8000dd6:	f7ff fc41 	bl	800065c <HAL_InitTick>
 8000dda:	1e03      	subs	r3, r0, #0
 8000ddc:	d051      	beq.n	8000e82 <HAL_RCC_OscConfig+0x256>
        {
          return HAL_ERROR;
 8000dde:	2301      	movs	r3, #1
 8000de0:	e22c      	b.n	800123c <HAL_RCC_OscConfig+0x610>
      }
    }
    else
    {
      /* Check the HSI State */
      if (RCC_OscInitStruct->HSIState != RCC_HSI_OFF)
 8000de2:	687b      	ldr	r3, [r7, #4]
 8000de4:	68db      	ldr	r3, [r3, #12]
 8000de6:	2b00      	cmp	r3, #0
 8000de8:	d030      	beq.n	8000e4c <HAL_RCC_OscConfig+0x220>
      {
        /* Configure the HSI16 division factor */
        __HAL_RCC_HSI_CONFIG(RCC_OscInitStruct->HSIDiv);
 8000dea:	4b5b      	ldr	r3, [pc, #364]	@ (8000f58 <HAL_RCC_OscConfig+0x32c>)
 8000dec:	681b      	ldr	r3, [r3, #0]
 8000dee:	4a5e      	ldr	r2, [pc, #376]	@ (8000f68 <HAL_RCC_OscConfig+0x33c>)
 8000df0:	4013      	ands	r3, r2
 8000df2:	0019      	movs	r1, r3
 8000df4:	687b      	ldr	r3, [r7, #4]
 8000df6:	691a      	ldr	r2, [r3, #16]
 8000df8:	4b57      	ldr	r3, [pc, #348]	@ (8000f58 <HAL_RCC_OscConfig+0x32c>)
 8000dfa:	430a      	orrs	r2, r1
 8000dfc:	601a      	str	r2, [r3, #0]

        /* Enable the Internal High Speed oscillator (HSI16). */
        __HAL_RCC_HSI_ENABLE();
 8000dfe:	4b56      	ldr	r3, [pc, #344]	@ (8000f58 <HAL_RCC_OscConfig+0x32c>)
 8000e00:	681a      	ldr	r2, [r3, #0]
 8000e02:	4b55      	ldr	r3, [pc, #340]	@ (8000f58 <HAL_RCC_OscConfig+0x32c>)
 8000e04:	2180      	movs	r1, #128	@ 0x80
 8000e06:	0049      	lsls	r1, r1, #1
 8000e08:	430a      	orrs	r2, r1
 8000e0a:	601a      	str	r2, [r3, #0]

        /* Get Start Tick*/
        tickstart = HAL_GetTick();
 8000e0c:	f7ff fc82 	bl	8000714 <HAL_GetTick>
 8000e10:	0003      	movs	r3, r0
 8000e12:	613b      	str	r3, [r7, #16]

        /* Wait till HSI is ready */
        while (READ_BIT(RCC->CR, RCC_CR_HSIRDY) == 0U)
 8000e14:	e008      	b.n	8000e28 <HAL_RCC_OscConfig+0x1fc>
        {
          if ((HAL_GetTick() - tickstart) > HSI_TIMEOUT_VALUE)
 8000e16:	f7ff fc7d 	bl	8000714 <HAL_GetTick>
 8000e1a:	0002      	movs	r2, r0
 8000e1c:	693b      	ldr	r3, [r7, #16]
 8000e1e:	1ad3      	subs	r3, r2, r3
 8000e20:	2b02      	cmp	r3, #2
 8000e22:	d901      	bls.n	8000e28 <HAL_RCC_OscConfig+0x1fc>
          {
            return HAL_TIMEOUT;
 8000e24:	2303      	movs	r3, #3
 8000e26:	e209      	b.n	800123c <HAL_RCC_OscConfig+0x610>
        while (READ_BIT(RCC->CR, RCC_CR_HSIRDY) == 0U)
 8000e28:	4b4b      	ldr	r3, [pc, #300]	@ (8000f58 <HAL_RCC_OscConfig+0x32c>)
 8000e2a:	681a      	ldr	r2, [r3, #0]
 8000e2c:	2380      	movs	r3, #128	@ 0x80
 8000e2e:	00db      	lsls	r3, r3, #3
 8000e30:	4013      	ands	r3, r2
 8000e32:	d0f0      	beq.n	8000e16 <HAL_RCC_OscConfig+0x1ea>
          }
        }

        /* Adjusts the Internal High Speed oscillator (HSI) calibration value.*/
        __HAL_RCC_HSI_CALIBRATIONVALUE_ADJUST(RCC_OscInitStruct->HSICalibrationValue);
 8000e34:	4b48      	ldr	r3, [pc, #288]	@ (8000f58 <HAL_RCC_OscConfig+0x32c>)
 8000e36:	685b      	ldr	r3, [r3, #4]
 8000e38:	4a4a      	ldr	r2, [pc, #296]	@ (8000f64 <HAL_RCC_OscConfig+0x338>)
 8000e3a:	4013      	ands	r3, r2
 8000e3c:	0019      	movs	r1, r3
 8000e3e:	687b      	ldr	r3, [r7, #4]
 8000e40:	695b      	ldr	r3, [r3, #20]
 8000e42:	021a      	lsls	r2, r3, #8
 8000e44:	4b44      	ldr	r3, [pc, #272]	@ (8000f58 <HAL_RCC_OscConfig+0x32c>)
 8000e46:	430a      	orrs	r2, r1
 8000e48:	605a      	str	r2, [r3, #4]
 8000e4a:	e01b      	b.n	8000e84 <HAL_RCC_OscConfig+0x258>
      }
      else
      {
        /* Disable the Internal High Speed oscillator (HSI16). */
        __HAL_RCC_HSI_DISABLE();
 8000e4c:	4b42      	ldr	r3, [pc, #264]	@ (8000f58 <HAL_RCC_OscConfig+0x32c>)
 8000e4e:	681a      	ldr	r2, [r3, #0]
 8000e50:	4b41      	ldr	r3, [pc, #260]	@ (8000f58 <HAL_RCC_OscConfig+0x32c>)
 8000e52:	4949      	ldr	r1, [pc, #292]	@ (8000f78 <HAL_RCC_OscConfig+0x34c>)
 8000e54:	400a      	ands	r2, r1
 8000e56:	601a      	str	r2, [r3, #0]

        /* Get Start Tick*/
        tickstart = HAL_GetTick();
 8000e58:	f7ff fc5c 	bl	8000714 <HAL_GetTick>
 8000e5c:	0003      	movs	r3, r0
 8000e5e:	613b      	str	r3, [r7, #16]

        /* Wait till HSI is disabled */
        while (READ_BIT(RCC->CR, RCC_CR_HSIRDY) != 0U)
 8000e60:	e008      	b.n	8000e74 <HAL_RCC_OscConfig+0x248>
        {
          if ((HAL_GetTick() - tickstart) > HSI_TIMEOUT_VALUE)
 8000e62:	f7ff fc57 	bl	8000714 <HAL_GetTick>
 8000e66:	0002      	movs	r2, r0
 8000e68:	693b      	ldr	r3, [r7, #16]
 8000e6a:	1ad3      	subs	r3, r2, r3
 8000e6c:	2b02      	cmp	r3, #2
 8000e6e:	d901      	bls.n	8000e74 <HAL_RCC_OscConfig+0x248>
          {
            return HAL_TIMEOUT;
 8000e70:	2303      	movs	r3, #3
 8000e72:	e1e3      	b.n	800123c <HAL_RCC_OscConfig+0x610>
        while (READ_BIT(RCC->CR, RCC_CR_HSIRDY) != 0U)
 8000e74:	4b38      	ldr	r3, [pc, #224]	@ (8000f58 <HAL_RCC_OscConfig+0x32c>)
 8000e76:	681a      	ldr	r2, [r3, #0]
 8000e78:	2380      	movs	r3, #128	@ 0x80
 8000e7a:	00db      	lsls	r3, r3, #3
 8000e7c:	4013      	ands	r3, r2
 8000e7e:	d1f0      	bne.n	8000e62 <HAL_RCC_OscConfig+0x236>
 8000e80:	e000      	b.n	8000e84 <HAL_RCC_OscConfig+0x258>
      if ((READ_BIT(RCC->CR, RCC_CR_HSIRDY) != 0U) && (RCC_OscInitStruct->HSIState == RCC_HSI_OFF))
 8000e82:	46c0      	nop			@ (mov r8, r8)
        }
      }
    }
  }
  /*------------------------------ LSI Configuration -------------------------*/
  if (((RCC_OscInitStruct->OscillatorType) & RCC_OSCILLATORTYPE_LSI) == RCC_OSCILLATORTYPE_LSI)
 8000e84:	687b      	ldr	r3, [r7, #4]
 8000e86:	681b      	ldr	r3, [r3, #0]
 8000e88:	2208      	movs	r2, #8
 8000e8a:	4013      	ands	r3, r2
 8000e8c:	d047      	beq.n	8000f1e <HAL_RCC_OscConfig+0x2f2>
  {
    /* Check the parameters */
    assert_param(IS_RCC_LSI(RCC_OscInitStruct->LSIState));

    /* Check if LSI is used as system clock */
    if (__HAL_RCC_GET_SYSCLK_SOURCE() == RCC_SYSCLKSOURCE_STATUS_LSI)
 8000e8e:	4b32      	ldr	r3, [pc, #200]	@ (8000f58 <HAL_RCC_OscConfig+0x32c>)
 8000e90:	689b      	ldr	r3, [r3, #8]
 8000e92:	2238      	movs	r2, #56	@ 0x38
 8000e94:	4013      	ands	r3, r2
 8000e96:	2b18      	cmp	r3, #24
 8000e98:	d10a      	bne.n	8000eb0 <HAL_RCC_OscConfig+0x284>
    {
      /* When LSI is used as system clock it will not be disabled */
      if ((((RCC->CSR) & RCC_CSR_LSIRDY) != 0U) && (RCC_OscInitStruct->LSIState == RCC_LSI_OFF))
 8000e9a:	4b2f      	ldr	r3, [pc, #188]	@ (8000f58 <HAL_RCC_OscConfig+0x32c>)
 8000e9c:	6e1b      	ldr	r3, [r3, #96]	@ 0x60
 8000e9e:	2202      	movs	r2, #2
 8000ea0:	4013      	ands	r3, r2
 8000ea2:	d03c      	beq.n	8000f1e <HAL_RCC_OscConfig+0x2f2>
 8000ea4:	687b      	ldr	r3, [r7, #4]
 8000ea6:	699b      	ldr	r3, [r3, #24]
 8000ea8:	2b00      	cmp	r3, #0
 8000eaa:	d138      	bne.n	8000f1e <HAL_RCC_OscConfig+0x2f2>
      {
        return HAL_ERROR;
 8000eac:	2301      	movs	r3, #1
 8000eae:	e1c5      	b.n	800123c <HAL_RCC_OscConfig+0x610>
      }
    }
    else
    {
      /* Check the LSI State */
      if (RCC_OscInitStruct->LSIState != RCC_LSI_OFF)
 8000eb0:	687b      	ldr	r3, [r7, #4]
 8000eb2:	699b      	ldr	r3, [r3, #24]
 8000eb4:	2b00      	cmp	r3, #0
 8000eb6:	d019      	beq.n	8000eec <HAL_RCC_OscConfig+0x2c0>
      {
        /* Enable the Internal Low Speed oscillator (LSI). */
        __HAL_RCC_LSI_ENABLE();
 8000eb8:	4b27      	ldr	r3, [pc, #156]	@ (8000f58 <HAL_RCC_OscConfig+0x32c>)
 8000eba:	6e1a      	ldr	r2, [r3, #96]	@ 0x60
 8000ebc:	4b26      	ldr	r3, [pc, #152]	@ (8000f58 <HAL_RCC_OscConfig+0x32c>)
 8000ebe:	2101      	movs	r1, #1
 8000ec0:	430a      	orrs	r2, r1
 8000ec2:	661a      	str	r2, [r3, #96]	@ 0x60

        /* Get Start Tick*/
        tickstart = HAL_GetTick();
 8000ec4:	f7ff fc26 	bl	8000714 <HAL_GetTick>
 8000ec8:	0003      	movs	r3, r0
 8000eca:	613b      	str	r3, [r7, #16]

        /* Wait till LSI is ready */
        while (READ_BIT(RCC->CSR, RCC_CSR_LSIRDY) == 0U)
 8000ecc:	e008      	b.n	8000ee0 <HAL_RCC_OscConfig+0x2b4>
        {
          if ((HAL_GetTick() - tickstart) > LSI_TIMEOUT_VALUE)
 8000ece:	f7ff fc21 	bl	8000714 <HAL_GetTick>
 8000ed2:	0002      	movs	r2, r0
 8000ed4:	693b      	ldr	r3, [r7, #16]
 8000ed6:	1ad3      	subs	r3, r2, r3
 8000ed8:	2b02      	cmp	r3, #2
 8000eda:	d901      	bls.n	8000ee0 <HAL_RCC_OscConfig+0x2b4>
          {
            return HAL_TIMEOUT;
 8000edc:	2303      	movs	r3, #3
 8000ede:	e1ad      	b.n	800123c <HAL_RCC_OscConfig+0x610>
        while (READ_BIT(RCC->CSR, RCC_CSR_LSIRDY) == 0U)
 8000ee0:	4b1d      	ldr	r3, [pc, #116]	@ (8000f58 <HAL_RCC_OscConfig+0x32c>)
 8000ee2:	6e1b      	ldr	r3, [r3, #96]	@ 0x60
 8000ee4:	2202      	movs	r2, #2
 8000ee6:	4013      	ands	r3, r2
 8000ee8:	d0f1      	beq.n	8000ece <HAL_RCC_OscConfig+0x2a2>
 8000eea:	e018      	b.n	8000f1e <HAL_RCC_OscConfig+0x2f2>
        }
      }
      else
      {
        /* Disable the Internal Low Speed oscillator (LSI). */
        __HAL_RCC_LSI_DISABLE();
 8000eec:	4b1a      	ldr	r3, [pc, #104]	@ (8000f58 <HAL_RCC_OscConfig+0x32c>)
 8000eee:	6e1a      	ldr	r2, [r3, #96]	@ 0x60
 8000ef0:	4b19      	ldr	r3, [pc, #100]	@ (8000f58 <HAL_RCC_OscConfig+0x32c>)
 8000ef2:	2101      	movs	r1, #1
 8000ef4:	438a      	bics	r2, r1
 8000ef6:	661a      	str	r2, [r3, #96]	@ 0x60

        /* Get Start Tick*/
        tickstart = HAL_GetTick();
 8000ef8:	f7ff fc0c 	bl	8000714 <HAL_GetTick>
 8000efc:	0003      	movs	r3, r0
 8000efe:	613b      	str	r3, [r7, #16]

        /* Wait till LSI is disabled */
        while (READ_BIT(RCC->CSR, RCC_CSR_LSIRDY) != 0U)
 8000f00:	e008      	b.n	8000f14 <HAL_RCC_OscConfig+0x2e8>
        {
          if ((HAL_GetTick() - tickstart) > LSI_TIMEOUT_VALUE)
 8000f02:	f7ff fc07 	bl	8000714 <HAL_GetTick>
 8000f06:	0002      	movs	r2, r0
 8000f08:	693b      	ldr	r3, [r7, #16]
 8000f0a:	1ad3      	subs	r3, r2, r3
 8000f0c:	2b02      	cmp	r3, #2
 8000f0e:	d901      	bls.n	8000f14 <HAL_RCC_OscConfig+0x2e8>
          {
            return HAL_TIMEOUT;
 8000f10:	2303      	movs	r3, #3
 8000f12:	e193      	b.n	800123c <HAL_RCC_OscConfig+0x610>
        while (READ_BIT(RCC->CSR, RCC_CSR_LSIRDY) != 0U)
 8000f14:	4b10      	ldr	r3, [pc, #64]	@ (8000f58 <HAL_RCC_OscConfig+0x32c>)
 8000f16:	6e1b      	ldr	r3, [r3, #96]	@ 0x60
 8000f18:	2202      	movs	r2, #2
 8000f1a:	4013      	ands	r3, r2
 8000f1c:	d1f1      	bne.n	8000f02 <HAL_RCC_OscConfig+0x2d6>
        }
      }
    }
  }
  /*------------------------------ LSE Configuration -------------------------*/
  if (((RCC_OscInitStruct->OscillatorType) & RCC_OSCILLATORTYPE_LSE) == RCC_OSCILLATORTYPE_LSE)
 8000f1e:	687b      	ldr	r3, [r7, #4]
 8000f20:	681b      	ldr	r3, [r3, #0]
 8000f22:	2204      	movs	r2, #4
 8000f24:	4013      	ands	r3, r2
 8000f26:	d100      	bne.n	8000f2a <HAL_RCC_OscConfig+0x2fe>
 8000f28:	e0c6      	b.n	80010b8 <HAL_RCC_OscConfig+0x48c>
  {
    FlagStatus       pwrclkchanged = RESET;
 8000f2a:	231f      	movs	r3, #31
 8000f2c:	18fb      	adds	r3, r7, r3
 8000f2e:	2200      	movs	r2, #0
 8000f30:	701a      	strb	r2, [r3, #0]

    /* Check the parameters */
    assert_param(IS_RCC_LSE(RCC_OscInitStruct->LSEState));

    /* When the LSE is used as system clock, it is not allowed disable it */
    if (__HAL_RCC_GET_SYSCLK_SOURCE() == RCC_SYSCLKSOURCE_STATUS_LSE)
 8000f32:	4b09      	ldr	r3, [pc, #36]	@ (8000f58 <HAL_RCC_OscConfig+0x32c>)
 8000f34:	689b      	ldr	r3, [r3, #8]
 8000f36:	2238      	movs	r2, #56	@ 0x38
 8000f38:	4013      	ands	r3, r2
 8000f3a:	2b20      	cmp	r3, #32
 8000f3c:	d11e      	bne.n	8000f7c <HAL_RCC_OscConfig+0x350>
    {
      if ((((RCC->BDCR) & RCC_BDCR_LSERDY) != 0U) && (RCC_OscInitStruct->LSEState == RCC_LSE_OFF))
 8000f3e:	4b06      	ldr	r3, [pc, #24]	@ (8000f58 <HAL_RCC_OscConfig+0x32c>)
 8000f40:	6ddb      	ldr	r3, [r3, #92]	@ 0x5c
 8000f42:	2202      	movs	r2, #2
 8000f44:	4013      	ands	r3, r2
 8000f46:	d100      	bne.n	8000f4a <HAL_RCC_OscConfig+0x31e>
 8000f48:	e0b6      	b.n	80010b8 <HAL_RCC_OscConfig+0x48c>
 8000f4a:	687b      	ldr	r3, [r7, #4]
 8000f4c:	689b      	ldr	r3, [r3, #8]
 8000f4e:	2b00      	cmp	r3, #0
 8000f50:	d000      	beq.n	8000f54 <HAL_RCC_OscConfig+0x328>
 8000f52:	e0b1      	b.n	80010b8 <HAL_RCC_OscConfig+0x48c>
      {
        return HAL_ERROR;
 8000f54:	2301      	movs	r3, #1
 8000f56:	e171      	b.n	800123c <HAL_RCC_OscConfig+0x610>
 8000f58:	40021000 	.word	0x40021000
 8000f5c:	fffeffff 	.word	0xfffeffff
 8000f60:	fffbffff 	.word	0xfffbffff
 8000f64:	ffff80ff 	.word	0xffff80ff
 8000f68:	ffffc7ff 	.word	0xffffc7ff
 8000f6c:	00f42400 	.word	0x00f42400
 8000f70:	20000008 	.word	0x20000008
 8000f74:	20000000 	.word	0x20000000
 8000f78:	fffffeff 	.word	0xfffffeff
    }
    else
    {
      /* Update LSE configuration in Backup Domain control register    */
      /* Requires to enable write access to Backup Domain of necessary */
      if (__HAL_RCC_PWR_IS_CLK_DISABLED() != 0U)
 8000f7c:	4bb1      	ldr	r3, [pc, #708]	@ (8001244 <HAL_RCC_OscConfig+0x618>)
 8000f7e:	6bda      	ldr	r2, [r3, #60]	@ 0x3c
 8000f80:	2380      	movs	r3, #128	@ 0x80
 8000f82:	055b      	lsls	r3, r3, #21
 8000f84:	4013      	ands	r3, r2
 8000f86:	d101      	bne.n	8000f8c <HAL_RCC_OscConfig+0x360>
 8000f88:	2301      	movs	r3, #1
 8000f8a:	e000      	b.n	8000f8e <HAL_RCC_OscConfig+0x362>
 8000f8c:	2300      	movs	r3, #0
 8000f8e:	2b00      	cmp	r3, #0
 8000f90:	d011      	beq.n	8000fb6 <HAL_RCC_OscConfig+0x38a>
      {
        __HAL_RCC_PWR_CLK_ENABLE();
 8000f92:	4bac      	ldr	r3, [pc, #688]	@ (8001244 <HAL_RCC_OscConfig+0x618>)
 8000f94:	6bda      	ldr	r2, [r3, #60]	@ 0x3c
 8000f96:	4bab      	ldr	r3, [pc, #684]	@ (8001244 <HAL_RCC_OscConfig+0x618>)
 8000f98:	2180      	movs	r1, #128	@ 0x80
 8000f9a:	0549      	lsls	r1, r1, #21
 8000f9c:	430a      	orrs	r2, r1
 8000f9e:	63da      	str	r2, [r3, #60]	@ 0x3c
 8000fa0:	4ba8      	ldr	r3, [pc, #672]	@ (8001244 <HAL_RCC_OscConfig+0x618>)
 8000fa2:	6bda      	ldr	r2, [r3, #60]	@ 0x3c
 8000fa4:	2380      	movs	r3, #128	@ 0x80
 8000fa6:	055b      	lsls	r3, r3, #21
 8000fa8:	4013      	ands	r3, r2
 8000faa:	60fb      	str	r3, [r7, #12]
 8000fac:	68fb      	ldr	r3, [r7, #12]
        pwrclkchanged = SET;
 8000fae:	231f      	movs	r3, #31
 8000fb0:	18fb      	adds	r3, r7, r3
 8000fb2:	2201      	movs	r2, #1
 8000fb4:	701a      	strb	r2, [r3, #0]
      }

      if (HAL_IS_BIT_CLR(PWR->CR1, PWR_CR1_DBP))
 8000fb6:	4ba4      	ldr	r3, [pc, #656]	@ (8001248 <HAL_RCC_OscConfig+0x61c>)
 8000fb8:	681a      	ldr	r2, [r3, #0]
 8000fba:	2380      	movs	r3, #128	@ 0x80
 8000fbc:	005b      	lsls	r3, r3, #1
 8000fbe:	4013      	ands	r3, r2
 8000fc0:	d11a      	bne.n	8000ff8 <HAL_RCC_OscConfig+0x3cc>
      {
        /* Enable write access to Backup domain */
        SET_BIT(PWR->CR1, PWR_CR1_DBP);
 8000fc2:	4ba1      	ldr	r3, [pc, #644]	@ (8001248 <HAL_RCC_OscConfig+0x61c>)
 8000fc4:	681a      	ldr	r2, [r3, #0]
 8000fc6:	4ba0      	ldr	r3, [pc, #640]	@ (8001248 <HAL_RCC_OscConfig+0x61c>)
 8000fc8:	2180      	movs	r1, #128	@ 0x80
 8000fca:	0049      	lsls	r1, r1, #1
 8000fcc:	430a      	orrs	r2, r1
 8000fce:	601a      	str	r2, [r3, #0]

        /* Wait for Backup domain Write protection disable */
        tickstart = HAL_GetTick();
 8000fd0:	f7ff fba0 	bl	8000714 <HAL_GetTick>
 8000fd4:	0003      	movs	r3, r0
 8000fd6:	613b      	str	r3, [r7, #16]

        while (HAL_IS_BIT_CLR(PWR->CR1, PWR_CR1_DBP))
 8000fd8:	e008      	b.n	8000fec <HAL_RCC_OscConfig+0x3c0>
        {
          if ((HAL_GetTick() - tickstart) > RCC_DBP_TIMEOUT_VALUE)
 8000fda:	f7ff fb9b 	bl	8000714 <HAL_GetTick>
 8000fde:	0002      	movs	r2, r0
 8000fe0:	693b      	ldr	r3, [r7, #16]
 8000fe2:	1ad3      	subs	r3, r2, r3
 8000fe4:	2b02      	cmp	r3, #2
 8000fe6:	d901      	bls.n	8000fec <HAL_RCC_OscConfig+0x3c0>
          {
            return HAL_TIMEOUT;
 8000fe8:	2303      	movs	r3, #3
 8000fea:	e127      	b.n	800123c <HAL_RCC_OscConfig+0x610>
        while (HAL_IS_BIT_CLR(PWR->CR1, PWR_CR1_DBP))
 8000fec:	4b96      	ldr	r3, [pc, #600]	@ (8001248 <HAL_RCC_OscConfig+0x61c>)
 8000fee:	681a      	ldr	r2, [r3, #0]
 8000ff0:	2380      	movs	r3, #128	@ 0x80
 8000ff2:	005b      	lsls	r3, r3, #1
 8000ff4:	4013      	ands	r3, r2
 8000ff6:	d0f0      	beq.n	8000fda <HAL_RCC_OscConfig+0x3ae>
          }
        }
      }

      /* Set the new LSE configuration -----------------------------------------*/
      __HAL_RCC_LSE_CONFIG(RCC_OscInitStruct->LSEState);
 8000ff8:	687b      	ldr	r3, [r7, #4]
 8000ffa:	689b      	ldr	r3, [r3, #8]
 8000ffc:	2b01      	cmp	r3, #1
 8000ffe:	d106      	bne.n	800100e <HAL_RCC_OscConfig+0x3e2>
 8001000:	4b90      	ldr	r3, [pc, #576]	@ (8001244 <HAL_RCC_OscConfig+0x618>)
 8001002:	6dda      	ldr	r2, [r3, #92]	@ 0x5c
 8001004:	4b8f      	ldr	r3, [pc, #572]	@ (8001244 <HAL_RCC_OscConfig+0x618>)
 8001006:	2101      	movs	r1, #1
 8001008:	430a      	orrs	r2, r1
 800100a:	65da      	str	r2, [r3, #92]	@ 0x5c
 800100c:	e01c      	b.n	8001048 <HAL_RCC_OscConfig+0x41c>
 800100e:	687b      	ldr	r3, [r7, #4]
 8001010:	689b      	ldr	r3, [r3, #8]
 8001012:	2b05      	cmp	r3, #5
 8001014:	d10c      	bne.n	8001030 <HAL_RCC_OscConfig+0x404>
 8001016:	4b8b      	ldr	r3, [pc, #556]	@ (8001244 <HAL_RCC_OscConfig+0x618>)
 8001018:	6dda      	ldr	r2, [r3, #92]	@ 0x5c
 800101a:	4b8a      	ldr	r3, [pc, #552]	@ (8001244 <HAL_RCC_OscConfig+0x618>)
 800101c:	2104      	movs	r1, #4
 800101e:	430a      	orrs	r2, r1
 8001020:	65da      	str	r2, [r3, #92]	@ 0x5c
 8001022:	4b88      	ldr	r3, [pc, #544]	@ (8001244 <HAL_RCC_OscConfig+0x618>)
 8001024:	6dda      	ldr	r2, [r3, #92]	@ 0x5c
 8001026:	4b87      	ldr	r3, [pc, #540]	@ (8001244 <HAL_RCC_OscConfig+0x618>)
 8001028:	2101      	movs	r1, #1
 800102a:	430a      	orrs	r2, r1
 800102c:	65da      	str	r2, [r3, #92]	@ 0x5c
 800102e:	e00b      	b.n	8001048 <HAL_RCC_OscConfig+0x41c>
 8001030:	4b84      	ldr	r3, [pc, #528]	@ (8001244 <HAL_RCC_OscConfig+0x618>)
 8001032:	6dda      	ldr	r2, [r3, #92]	@ 0x5c
 8001034:	4b83      	ldr	r3, [pc, #524]	@ (8001244 <HAL_RCC_OscConfig+0x618>)
 8001036:	2101      	movs	r1, #1
 8001038:	438a      	bics	r2, r1
 800103a:	65da      	str	r2, [r3, #92]	@ 0x5c
 800103c:	4b81      	ldr	r3, [pc, #516]	@ (8001244 <HAL_RCC_OscConfig+0x618>)
 800103e:	6dda      	ldr	r2, [r3, #92]	@ 0x5c
 8001040:	4b80      	ldr	r3, [pc, #512]	@ (8001244 <HAL_RCC_OscConfig+0x618>)
 8001042:	2104      	movs	r1, #4
 8001044:	438a      	bics	r2, r1
 8001046:	65da      	str	r2, [r3, #92]	@ 0x5c

      /* Check the LSE State */
      if (RCC_OscInitStruct->LSEState != RCC_LSE_OFF)
 8001048:	687b      	ldr	r3, [r7, #4]
 800104a:	689b      	ldr	r3, [r3, #8]
 800104c:	2b00      	cmp	r3, #0
 800104e:	d014      	beq.n	800107a <HAL_RCC_OscConfig+0x44e>
      {
        /* Get Start Tick*/
        tickstart = HAL_GetTick();
 8001050:	f7ff fb60 	bl	8000714 <HAL_GetTick>
 8001054:	0003      	movs	r3, r0
 8001056:	613b      	str	r3, [r7, #16]

        /* Wait till LSE is ready */
        while (READ_BIT(RCC->BDCR, RCC_BDCR_LSERDY) == 0U)
 8001058:	e009      	b.n	800106e <HAL_RCC_OscConfig+0x442>
        {
          if ((HAL_GetTick() - tickstart) > RCC_LSE_TIMEOUT_VALUE)
 800105a:	f7ff fb5b 	bl	8000714 <HAL_GetTick>
 800105e:	0002      	movs	r2, r0
 8001060:	693b      	ldr	r3, [r7, #16]
 8001062:	1ad3      	subs	r3, r2, r3
 8001064:	4a79      	ldr	r2, [pc, #484]	@ (800124c <HAL_RCC_OscConfig+0x620>)
 8001066:	4293      	cmp	r3, r2
 8001068:	d901      	bls.n	800106e <HAL_RCC_OscConfig+0x442>
          {
            return HAL_TIMEOUT;
 800106a:	2303      	movs	r3, #3
 800106c:	e0e6      	b.n	800123c <HAL_RCC_OscConfig+0x610>
        while (READ_BIT(RCC->BDCR, RCC_BDCR_LSERDY) == 0U)
 800106e:	4b75      	ldr	r3, [pc, #468]	@ (8001244 <HAL_RCC_OscConfig+0x618>)
 8001070:	6ddb      	ldr	r3, [r3, #92]	@ 0x5c
 8001072:	2202      	movs	r2, #2
 8001074:	4013      	ands	r3, r2
 8001076:	d0f0      	beq.n	800105a <HAL_RCC_OscConfig+0x42e>
 8001078:	e013      	b.n	80010a2 <HAL_RCC_OscConfig+0x476>
        }
      }
      else
      {
        /* Get Start Tick*/
        tickstart = HAL_GetTick();
 800107a:	f7ff fb4b 	bl	8000714 <HAL_GetTick>
 800107e:	0003      	movs	r3, r0
 8001080:	613b      	str	r3, [r7, #16]

        /* Wait till LSE is disabled */
        while (READ_BIT(RCC->BDCR, RCC_BDCR_LSERDY) != 0U)
 8001082:	e009      	b.n	8001098 <HAL_RCC_OscConfig+0x46c>
        {
          if ((HAL_GetTick() - tickstart) > RCC_LSE_TIMEOUT_VALUE)
 8001084:	f7ff fb46 	bl	8000714 <HAL_GetTick>
 8001088:	0002      	movs	r2, r0
 800108a:	693b      	ldr	r3, [r7, #16]
 800108c:	1ad3      	subs	r3, r2, r3
 800108e:	4a6f      	ldr	r2, [pc, #444]	@ (800124c <HAL_RCC_OscConfig+0x620>)
 8001090:	4293      	cmp	r3, r2
 8001092:	d901      	bls.n	8001098 <HAL_RCC_OscConfig+0x46c>
          {
            return HAL_TIMEOUT;
 8001094:	2303      	movs	r3, #3
 8001096:	e0d1      	b.n	800123c <HAL_RCC_OscConfig+0x610>
        while (READ_BIT(RCC->BDCR, RCC_BDCR_LSERDY) != 0U)
 8001098:	4b6a      	ldr	r3, [pc, #424]	@ (8001244 <HAL_RCC_OscConfig+0x618>)
 800109a:	6ddb      	ldr	r3, [r3, #92]	@ 0x5c
 800109c:	2202      	movs	r2, #2
 800109e:	4013      	ands	r3, r2
 80010a0:	d1f0      	bne.n	8001084 <HAL_RCC_OscConfig+0x458>
          }
        }
      }

      /* Restore clock configuration if changed */
      if (pwrclkchanged == SET)
 80010a2:	231f      	movs	r3, #31
 80010a4:	18fb      	adds	r3, r7, r3
 80010a6:	781b      	ldrb	r3, [r3, #0]
 80010a8:	2b01      	cmp	r3, #1
 80010aa:	d105      	bne.n	80010b8 <HAL_RCC_OscConfig+0x48c>
      {
        __HAL_RCC_PWR_CLK_DISABLE();
 80010ac:	4b65      	ldr	r3, [pc, #404]	@ (8001244 <HAL_RCC_OscConfig+0x618>)
 80010ae:	6bda      	ldr	r2, [r3, #60]	@ 0x3c
 80010b0:	4b64      	ldr	r3, [pc, #400]	@ (8001244 <HAL_RCC_OscConfig+0x618>)
 80010b2:	4967      	ldr	r1, [pc, #412]	@ (8001250 <HAL_RCC_OscConfig+0x624>)
 80010b4:	400a      	ands	r2, r1
 80010b6:	63da      	str	r2, [r3, #60]	@ 0x3c
#endif /* RCC_HSI48_SUPPORT */
  /*-------------------------------- PLL Configuration -----------------------*/
  /* Check the parameters */
  assert_param(IS_RCC_PLL(RCC_OscInitStruct->PLL.PLLState));

  if (RCC_OscInitStruct->PLL.PLLState != RCC_PLL_NONE)
 80010b8:	687b      	ldr	r3, [r7, #4]
 80010ba:	69db      	ldr	r3, [r3, #28]
 80010bc:	2b00      	cmp	r3, #0
 80010be:	d100      	bne.n	80010c2 <HAL_RCC_OscConfig+0x496>
 80010c0:	e0bb      	b.n	800123a <HAL_RCC_OscConfig+0x60e>
  {
    /* Check if the PLL is used as system clock or not */
    if (__HAL_RCC_GET_SYSCLK_SOURCE() != RCC_SYSCLKSOURCE_STATUS_PLLCLK)
 80010c2:	4b60      	ldr	r3, [pc, #384]	@ (8001244 <HAL_RCC_OscConfig+0x618>)
 80010c4:	689b      	ldr	r3, [r3, #8]
 80010c6:	2238      	movs	r2, #56	@ 0x38
 80010c8:	4013      	ands	r3, r2
 80010ca:	2b10      	cmp	r3, #16
 80010cc:	d100      	bne.n	80010d0 <HAL_RCC_OscConfig+0x4a4>
 80010ce:	e07b      	b.n	80011c8 <HAL_RCC_OscConfig+0x59c>
    {
      if (RCC_OscInitStruct->PLL.PLLState == RCC_PLL_ON)
 80010d0:	687b      	ldr	r3, [r7, #4]
 80010d2:	69db      	ldr	r3, [r3, #28]
 80010d4:	2b02      	cmp	r3, #2
 80010d6:	d156      	bne.n	8001186 <HAL_RCC_OscConfig+0x55a>
        assert_param(IS_RCC_PLLQ_VALUE(RCC_OscInitStruct->PLL.PLLQ));
#endif /* RCC_PLLQ_SUPPORT */
        assert_param(IS_RCC_PLLR_VALUE(RCC_OscInitStruct->PLL.PLLR));

        /* Disable the main PLL. */
        __HAL_RCC_PLL_DISABLE();
 80010d8:	4b5a      	ldr	r3, [pc, #360]	@ (8001244 <HAL_RCC_OscConfig+0x618>)
 80010da:	681a      	ldr	r2, [r3, #0]
 80010dc:	4b59      	ldr	r3, [pc, #356]	@ (8001244 <HAL_RCC_OscConfig+0x618>)
 80010de:	495d      	ldr	r1, [pc, #372]	@ (8001254 <HAL_RCC_OscConfig+0x628>)
 80010e0:	400a      	ands	r2, r1
 80010e2:	601a      	str	r2, [r3, #0]

        /* Get Start Tick*/
        tickstart = HAL_GetTick();
 80010e4:	f7ff fb16 	bl	8000714 <HAL_GetTick>
 80010e8:	0003      	movs	r3, r0
 80010ea:	613b      	str	r3, [r7, #16]

        /* Wait till PLL is ready */
        while (READ_BIT(RCC->CR, RCC_CR_PLLRDY) != 0U)
 80010ec:	e008      	b.n	8001100 <HAL_RCC_OscConfig+0x4d4>
        {
          if ((HAL_GetTick() - tickstart) > PLL_TIMEOUT_VALUE)
 80010ee:	f7ff fb11 	bl	8000714 <HAL_GetTick>
 80010f2:	0002      	movs	r2, r0
 80010f4:	693b      	ldr	r3, [r7, #16]
 80010f6:	1ad3      	subs	r3, r2, r3
 80010f8:	2b02      	cmp	r3, #2
 80010fa:	d901      	bls.n	8001100 <HAL_RCC_OscConfig+0x4d4>
          {
            return HAL_TIMEOUT;
 80010fc:	2303      	movs	r3, #3
 80010fe:	e09d      	b.n	800123c <HAL_RCC_OscConfig+0x610>
        while (READ_BIT(RCC->CR, RCC_CR_PLLRDY) != 0U)
 8001100:	4b50      	ldr	r3, [pc, #320]	@ (8001244 <HAL_RCC_OscConfig+0x618>)
 8001102:	681a      	ldr	r2, [r3, #0]
 8001104:	2380      	movs	r3, #128	@ 0x80
 8001106:	049b      	lsls	r3, r3, #18
 8001108:	4013      	ands	r3, r2
 800110a:	d1f0      	bne.n	80010ee <HAL_RCC_OscConfig+0x4c2>
          }
        }

        /* Configure the main PLL clock source, multiplication and division factors. */
#if defined(RCC_PLLQ_SUPPORT)
        __HAL_RCC_PLL_CONFIG(RCC_OscInitStruct->PLL.PLLSource,
 800110c:	4b4d      	ldr	r3, [pc, #308]	@ (8001244 <HAL_RCC_OscConfig+0x618>)
 800110e:	68db      	ldr	r3, [r3, #12]
 8001110:	4a51      	ldr	r2, [pc, #324]	@ (8001258 <HAL_RCC_OscConfig+0x62c>)
 8001112:	4013      	ands	r3, r2
 8001114:	0019      	movs	r1, r3
 8001116:	687b      	ldr	r3, [r7, #4]
 8001118:	6a1a      	ldr	r2, [r3, #32]
 800111a:	687b      	ldr	r3, [r7, #4]
 800111c:	6a5b      	ldr	r3, [r3, #36]	@ 0x24
 800111e:	431a      	orrs	r2, r3
 8001120:	687b      	ldr	r3, [r7, #4]
 8001122:	6a9b      	ldr	r3, [r3, #40]	@ 0x28
 8001124:	021b      	lsls	r3, r3, #8
 8001126:	431a      	orrs	r2, r3
 8001128:	687b      	ldr	r3, [r7, #4]
 800112a:	6adb      	ldr	r3, [r3, #44]	@ 0x2c
 800112c:	431a      	orrs	r2, r3
 800112e:	687b      	ldr	r3, [r7, #4]
 8001130:	6b1b      	ldr	r3, [r3, #48]	@ 0x30
 8001132:	431a      	orrs	r2, r3
 8001134:	687b      	ldr	r3, [r7, #4]
 8001136:	6b5b      	ldr	r3, [r3, #52]	@ 0x34
 8001138:	431a      	orrs	r2, r3
 800113a:	4b42      	ldr	r3, [pc, #264]	@ (8001244 <HAL_RCC_OscConfig+0x618>)
 800113c:	430a      	orrs	r2, r1
 800113e:	60da      	str	r2, [r3, #12]
                             RCC_OscInitStruct->PLL.PLLP,
                             RCC_OscInitStruct->PLL.PLLR);
#endif /* RCC_PLLQ_SUPPORT */

        /* Enable the main PLL. */
        __HAL_RCC_PLL_ENABLE();
 8001140:	4b40      	ldr	r3, [pc, #256]	@ (8001244 <HAL_RCC_OscConfig+0x618>)
 8001142:	681a      	ldr	r2, [r3, #0]
 8001144:	4b3f      	ldr	r3, [pc, #252]	@ (8001244 <HAL_RCC_OscConfig+0x618>)
 8001146:	2180      	movs	r1, #128	@ 0x80
 8001148:	0449      	lsls	r1, r1, #17
 800114a:	430a      	orrs	r2, r1
 800114c:	601a      	str	r2, [r3, #0]

        /* Enable PLLR Clock output. */
        __HAL_RCC_PLLCLKOUT_ENABLE(RCC_PLLRCLK);
 800114e:	4b3d      	ldr	r3, [pc, #244]	@ (8001244 <HAL_RCC_OscConfig+0x618>)
 8001150:	68da      	ldr	r2, [r3, #12]
 8001152:	4b3c      	ldr	r3, [pc, #240]	@ (8001244 <HAL_RCC_OscConfig+0x618>)
 8001154:	2180      	movs	r1, #128	@ 0x80
 8001156:	0549      	lsls	r1, r1, #21
 8001158:	430a      	orrs	r2, r1
 800115a:	60da      	str	r2, [r3, #12]

        /* Get Start Tick*/
        tickstart = HAL_GetTick();
 800115c:	f7ff fada 	bl	8000714 <HAL_GetTick>
 8001160:	0003      	movs	r3, r0
 8001162:	613b      	str	r3, [r7, #16]

        /* Wait till PLL is ready */
        while (READ_BIT(RCC->CR, RCC_CR_PLLRDY) == 0U)
 8001164:	e008      	b.n	8001178 <HAL_RCC_OscConfig+0x54c>
        {
          if ((HAL_GetTick() - tickstart) > PLL_TIMEOUT_VALUE)
 8001166:	f7ff fad5 	bl	8000714 <HAL_GetTick>
 800116a:	0002      	movs	r2, r0
 800116c:	693b      	ldr	r3, [r7, #16]
 800116e:	1ad3      	subs	r3, r2, r3
 8001170:	2b02      	cmp	r3, #2
 8001172:	d901      	bls.n	8001178 <HAL_RCC_OscConfig+0x54c>
          {
            return HAL_TIMEOUT;
 8001174:	2303      	movs	r3, #3
 8001176:	e061      	b.n	800123c <HAL_RCC_OscConfig+0x610>
        while (READ_BIT(RCC->CR, RCC_CR_PLLRDY) == 0U)
 8001178:	4b32      	ldr	r3, [pc, #200]	@ (8001244 <HAL_RCC_OscConfig+0x618>)
 800117a:	681a      	ldr	r2, [r3, #0]
 800117c:	2380      	movs	r3, #128	@ 0x80
 800117e:	049b      	lsls	r3, r3, #18
 8001180:	4013      	ands	r3, r2
 8001182:	d0f0      	beq.n	8001166 <HAL_RCC_OscConfig+0x53a>
 8001184:	e059      	b.n	800123a <HAL_RCC_OscConfig+0x60e>
        }
      }
      else
      {
        /* Disable the main PLL. */
        __HAL_RCC_PLL_DISABLE();
 8001186:	4b2f      	ldr	r3, [pc, #188]	@ (8001244 <HAL_RCC_OscConfig+0x618>)
 8001188:	681a      	ldr	r2, [r3, #0]
 800118a:	4b2e      	ldr	r3, [pc, #184]	@ (8001244 <HAL_RCC_OscConfig+0x618>)
 800118c:	4931      	ldr	r1, [pc, #196]	@ (8001254 <HAL_RCC_OscConfig+0x628>)
 800118e:	400a      	ands	r2, r1
 8001190:	601a      	str	r2, [r3, #0]

        /* Get Start Tick*/
        tickstart = HAL_GetTick();
 8001192:	f7ff fabf 	bl	8000714 <HAL_GetTick>
 8001196:	0003      	movs	r3, r0
 8001198:	613b      	str	r3, [r7, #16]

        /* Wait till PLL is disabled */
        while (READ_BIT(RCC->CR, RCC_CR_PLLRDY) != 0U)
 800119a:	e008      	b.n	80011ae <HAL_RCC_OscConfig+0x582>
        {
          if ((HAL_GetTick() - tickstart) > PLL_TIMEOUT_VALUE)
 800119c:	f7ff faba 	bl	8000714 <HAL_GetTick>
 80011a0:	0002      	movs	r2, r0
 80011a2:	693b      	ldr	r3, [r7, #16]
 80011a4:	1ad3      	subs	r3, r2, r3
 80011a6:	2b02      	cmp	r3, #2
 80011a8:	d901      	bls.n	80011ae <HAL_RCC_OscConfig+0x582>
          {
            return HAL_TIMEOUT;
 80011aa:	2303      	movs	r3, #3
 80011ac:	e046      	b.n	800123c <HAL_RCC_OscConfig+0x610>
        while (READ_BIT(RCC->CR, RCC_CR_PLLRDY) != 0U)
 80011ae:	4b25      	ldr	r3, [pc, #148]	@ (8001244 <HAL_RCC_OscConfig+0x618>)
 80011b0:	681a      	ldr	r2, [r3, #0]
 80011b2:	2380      	movs	r3, #128	@ 0x80
 80011b4:	049b      	lsls	r3, r3, #18
 80011b6:	4013      	ands	r3, r2
 80011b8:	d1f0      	bne.n	800119c <HAL_RCC_OscConfig+0x570>
          }
        }
        /* Unselect main PLL clock source and disable main PLL outputs to save power */
#if defined(RCC_PLLQ_SUPPORT)
        RCC->PLLCFGR &= ~(RCC_PLLCFGR_PLLSRC | RCC_PLLCFGR_PLLPEN | RCC_PLLCFGR_PLLQEN | RCC_PLLCFGR_PLLREN);
 80011ba:	4b22      	ldr	r3, [pc, #136]	@ (8001244 <HAL_RCC_OscConfig+0x618>)
 80011bc:	68da      	ldr	r2, [r3, #12]
 80011be:	4b21      	ldr	r3, [pc, #132]	@ (8001244 <HAL_RCC_OscConfig+0x618>)
 80011c0:	4926      	ldr	r1, [pc, #152]	@ (800125c <HAL_RCC_OscConfig+0x630>)
 80011c2:	400a      	ands	r2, r1
 80011c4:	60da      	str	r2, [r3, #12]
 80011c6:	e038      	b.n	800123a <HAL_RCC_OscConfig+0x60e>
      }
    }
    else
    {
      /* Check if there is a request to disable the PLL used as System clock source */
      if ((RCC_OscInitStruct->PLL.PLLState) == RCC_PLL_OFF)
 80011c8:	687b      	ldr	r3, [r7, #4]
 80011ca:	69db      	ldr	r3, [r3, #28]
 80011cc:	2b01      	cmp	r3, #1
 80011ce:	d101      	bne.n	80011d4 <HAL_RCC_OscConfig+0x5a8>
      {
        return HAL_ERROR;
 80011d0:	2301      	movs	r3, #1
 80011d2:	e033      	b.n	800123c <HAL_RCC_OscConfig+0x610>
      }
      else
      {
        /* Do not return HAL_ERROR if request repeats the current configuration */
        temp_pllckcfg = RCC->PLLCFGR;
 80011d4:	4b1b      	ldr	r3, [pc, #108]	@ (8001244 <HAL_RCC_OscConfig+0x618>)
 80011d6:	68db      	ldr	r3, [r3, #12]
 80011d8:	617b      	str	r3, [r7, #20]
        if ((READ_BIT(temp_pllckcfg, RCC_PLLCFGR_PLLSRC) != RCC_OscInitStruct->PLL.PLLSource) ||
 80011da:	697b      	ldr	r3, [r7, #20]
 80011dc:	2203      	movs	r2, #3
 80011de:	401a      	ands	r2, r3
 80011e0:	687b      	ldr	r3, [r7, #4]
 80011e2:	6a1b      	ldr	r3, [r3, #32]
 80011e4:	429a      	cmp	r2, r3
 80011e6:	d126      	bne.n	8001236 <HAL_RCC_OscConfig+0x60a>
            (READ_BIT(temp_pllckcfg, RCC_PLLCFGR_PLLM) != RCC_OscInitStruct->PLL.PLLM) ||
 80011e8:	697b      	ldr	r3, [r7, #20]
 80011ea:	2270      	movs	r2, #112	@ 0x70
 80011ec:	401a      	ands	r2, r3
 80011ee:	687b      	ldr	r3, [r7, #4]
 80011f0:	6a5b      	ldr	r3, [r3, #36]	@ 0x24
        if ((READ_BIT(temp_pllckcfg, RCC_PLLCFGR_PLLSRC) != RCC_OscInitStruct->PLL.PLLSource) ||
 80011f2:	429a      	cmp	r2, r3
 80011f4:	d11f      	bne.n	8001236 <HAL_RCC_OscConfig+0x60a>
            (READ_BIT(temp_pllckcfg, RCC_PLLCFGR_PLLN) != (RCC_OscInitStruct->PLL.PLLN << RCC_PLLCFGR_PLLN_Pos)) ||
 80011f6:	697a      	ldr	r2, [r7, #20]
 80011f8:	23fe      	movs	r3, #254	@ 0xfe
 80011fa:	01db      	lsls	r3, r3, #7
 80011fc:	401a      	ands	r2, r3
 80011fe:	687b      	ldr	r3, [r7, #4]
 8001200:	6a9b      	ldr	r3, [r3, #40]	@ 0x28
 8001202:	021b      	lsls	r3, r3, #8
            (READ_BIT(temp_pllckcfg, RCC_PLLCFGR_PLLM) != RCC_OscInitStruct->PLL.PLLM) ||
 8001204:	429a      	cmp	r2, r3
 8001206:	d116      	bne.n	8001236 <HAL_RCC_OscConfig+0x60a>
            (READ_BIT(temp_pllckcfg, RCC_PLLCFGR_PLLP) != RCC_OscInitStruct->PLL.PLLP) ||
 8001208:	697a      	ldr	r2, [r7, #20]
 800120a:	23f8      	movs	r3, #248	@ 0xf8
 800120c:	039b      	lsls	r3, r3, #14
 800120e:	401a      	ands	r2, r3
 8001210:	687b      	ldr	r3, [r7, #4]
 8001212:	6adb      	ldr	r3, [r3, #44]	@ 0x2c
            (READ_BIT(temp_pllckcfg, RCC_PLLCFGR_PLLN) != (RCC_OscInitStruct->PLL.PLLN << RCC_PLLCFGR_PLLN_Pos)) ||
 8001214:	429a      	cmp	r2, r3
 8001216:	d10e      	bne.n	8001236 <HAL_RCC_OscConfig+0x60a>
#if defined (RCC_PLLQ_SUPPORT)
            (READ_BIT(temp_pllckcfg, RCC_PLLCFGR_PLLQ) != RCC_OscInitStruct->PLL.PLLQ) ||
 8001218:	697a      	ldr	r2, [r7, #20]
 800121a:	23e0      	movs	r3, #224	@ 0xe0
 800121c:	051b      	lsls	r3, r3, #20
 800121e:	401a      	ands	r2, r3
 8001220:	687b      	ldr	r3, [r7, #4]
 8001222:	6b1b      	ldr	r3, [r3, #48]	@ 0x30
            (READ_BIT(temp_pllckcfg, RCC_PLLCFGR_PLLP) != RCC_OscInitStruct->PLL.PLLP) ||
 8001224:	429a      	cmp	r2, r3
 8001226:	d106      	bne.n	8001236 <HAL_RCC_OscConfig+0x60a>
#endif /* RCC_PLLQ_SUPPORT */
            (READ_BIT(temp_pllckcfg, RCC_PLLCFGR_PLLR) != RCC_OscInitStruct->PLL.PLLR))
 8001228:	697b      	ldr	r3, [r7, #20]
 800122a:	0f5b      	lsrs	r3, r3, #29
 800122c:	075a      	lsls	r2, r3, #29
 800122e:	687b      	ldr	r3, [r7, #4]
 8001230:	6b5b      	ldr	r3, [r3, #52]	@ 0x34
            (READ_BIT(temp_pllckcfg, RCC_PLLCFGR_PLLQ) != RCC_OscInitStruct->PLL.PLLQ) ||
 8001232:	429a      	cmp	r2, r3
 8001234:	d001      	beq.n	800123a <HAL_RCC_OscConfig+0x60e>
        {
          return HAL_ERROR;
 8001236:	2301      	movs	r3, #1
 8001238:	e000      	b.n	800123c <HAL_RCC_OscConfig+0x610>
        }
      }
    }
  }
  return HAL_OK;
 800123a:	2300      	movs	r3, #0
}
 800123c:	0018      	movs	r0, r3
 800123e:	46bd      	mov	sp, r7
 8001240:	b008      	add	sp, #32
 8001242:	bd80      	pop	{r7, pc}
 8001244:	40021000 	.word	0x40021000
 8001248:	40007000 	.word	0x40007000
 800124c:	00001388 	.word	0x00001388
 8001250:	efffffff 	.word	0xefffffff
 8001254:	feffffff 	.word	0xfeffffff
 8001258:	11c1808c 	.word	0x11c1808c
 800125c:	eefefffc 	.word	0xeefefffc

08001260 <HAL_RCC_ClockConfig>:
  *         HPRE[3:0] bits to ensure that HCLK not exceed the maximum allowed frequency
  *         (for more details refer to section above "Initialization/de-initialization functions")
  * @retval None
  */
HAL_StatusTypeDef HAL_RCC_ClockConfig(RCC_ClkInitTypeDef  *RCC_ClkInitStruct, uint32_t FLatency)
{
 8001260:	b580      	push	{r7, lr}
 8001262:	b084      	sub	sp, #16
 8001264:	af00      	add	r7, sp, #0
 8001266:	6078      	str	r0, [r7, #4]
 8001268:	6039      	str	r1, [r7, #0]
  uint32_t tickstart;

  /* Check Null pointer */
  if (RCC_ClkInitStruct == NULL)
 800126a:	687b      	ldr	r3, [r7, #4]
 800126c:	2b00      	cmp	r3, #0
 800126e:	d101      	bne.n	8001274 <HAL_RCC_ClockConfig+0x14>
  {
    return HAL_ERROR;
 8001270:	2301      	movs	r3, #1
 8001272:	e0e9      	b.n	8001448 <HAL_RCC_ClockConfig+0x1e8>
  /* To correctly read data from FLASH memory, the number of wait states (LATENCY)
    must be correctly programmed according to the frequency of the FLASH clock
    (HCLK) and the supply voltage of the device. */

  /* Increasing the number of wait states because of higher CPU frequency */
  if (FLatency > __HAL_FLASH_GET_LATENCY())
 8001274:	4b76      	ldr	r3, [pc, #472]	@ (8001450 <HAL_RCC_ClockConfig+0x1f0>)
 8001276:	681b      	ldr	r3, [r3, #0]
 8001278:	2207      	movs	r2, #7
 800127a:	4013      	ands	r3, r2
 800127c:	683a      	ldr	r2, [r7, #0]
 800127e:	429a      	cmp	r2, r3
 8001280:	d91e      	bls.n	80012c0 <HAL_RCC_ClockConfig+0x60>
  {
    /* Program the new number of wait states to the LATENCY bits in the FLASH_ACR register */
    __HAL_FLASH_SET_LATENCY(FLatency);
 8001282:	4b73      	ldr	r3, [pc, #460]	@ (8001450 <HAL_RCC_ClockConfig+0x1f0>)
 8001284:	681b      	ldr	r3, [r3, #0]
 8001286:	2207      	movs	r2, #7
 8001288:	4393      	bics	r3, r2
 800128a:	0019      	movs	r1, r3
 800128c:	4b70      	ldr	r3, [pc, #448]	@ (8001450 <HAL_RCC_ClockConfig+0x1f0>)
 800128e:	683a      	ldr	r2, [r7, #0]
 8001290:	430a      	orrs	r2, r1
 8001292:	601a      	str	r2, [r3, #0]

    /* Check that the new number of wait states is taken into account to access the Flash
    memory by polling the FLASH_ACR register */
    tickstart = HAL_GetTick();
 8001294:	f7ff fa3e 	bl	8000714 <HAL_GetTick>
 8001298:	0003      	movs	r3, r0
 800129a:	60fb      	str	r3, [r7, #12]

    while ((FLASH->ACR & FLASH_ACR_LATENCY) != FLatency)
 800129c:	e009      	b.n	80012b2 <HAL_RCC_ClockConfig+0x52>
    {
      if ((HAL_GetTick() - tickstart) > CLOCKSWITCH_TIMEOUT_VALUE)
 800129e:	f7ff fa39 	bl	8000714 <HAL_GetTick>
 80012a2:	0002      	movs	r2, r0
 80012a4:	68fb      	ldr	r3, [r7, #12]
 80012a6:	1ad3      	subs	r3, r2, r3
 80012a8:	4a6a      	ldr	r2, [pc, #424]	@ (8001454 <HAL_RCC_ClockConfig+0x1f4>)
 80012aa:	4293      	cmp	r3, r2
 80012ac:	d901      	bls.n	80012b2 <HAL_RCC_ClockConfig+0x52>
      {
        return HAL_TIMEOUT;
 80012ae:	2303      	movs	r3, #3
 80012b0:	e0ca      	b.n	8001448 <HAL_RCC_ClockConfig+0x1e8>
    while ((FLASH->ACR & FLASH_ACR_LATENCY) != FLatency)
 80012b2:	4b67      	ldr	r3, [pc, #412]	@ (8001450 <HAL_RCC_ClockConfig+0x1f0>)
 80012b4:	681b      	ldr	r3, [r3, #0]
 80012b6:	2207      	movs	r2, #7
 80012b8:	4013      	ands	r3, r2
 80012ba:	683a      	ldr	r2, [r7, #0]
 80012bc:	429a      	cmp	r2, r3
 80012be:	d1ee      	bne.n	800129e <HAL_RCC_ClockConfig+0x3e>
      }
    }
  }

  /*-------------------------- HCLK Configuration --------------------------*/
  if (((RCC_ClkInitStruct->ClockType) & RCC_CLOCKTYPE_HCLK) == RCC_CLOCKTYPE_HCLK)
 80012c0:	687b      	ldr	r3, [r7, #4]
 80012c2:	681b      	ldr	r3, [r3, #0]
 80012c4:	2202      	movs	r2, #2
 80012c6:	4013      	ands	r3, r2
 80012c8:	d015      	beq.n	80012f6 <HAL_RCC_ClockConfig+0x96>
  {
    /* Set the highest APB divider in order to ensure that we do not go through
       a non-spec phase whatever we decrease or increase HCLK. */
    if (((RCC_ClkInitStruct->ClockType) & RCC_CLOCKTYPE_PCLK1) == RCC_CLOCKTYPE_PCLK1)
 80012ca:	687b      	ldr	r3, [r7, #4]
 80012cc:	681b      	ldr	r3, [r3, #0]
 80012ce:	2204      	movs	r2, #4
 80012d0:	4013      	ands	r3, r2
 80012d2:	d006      	beq.n	80012e2 <HAL_RCC_ClockConfig+0x82>
    {
      MODIFY_REG(RCC->CFGR, RCC_CFGR_PPRE, RCC_HCLK_DIV16);
 80012d4:	4b60      	ldr	r3, [pc, #384]	@ (8001458 <HAL_RCC_ClockConfig+0x1f8>)
 80012d6:	689a      	ldr	r2, [r3, #8]
 80012d8:	4b5f      	ldr	r3, [pc, #380]	@ (8001458 <HAL_RCC_ClockConfig+0x1f8>)
 80012da:	21e0      	movs	r1, #224	@ 0xe0
 80012dc:	01c9      	lsls	r1, r1, #7
 80012de:	430a      	orrs	r2, r1
 80012e0:	609a      	str	r2, [r3, #8]
    }

    /* Set the new HCLK clock divider */
    assert_param(IS_RCC_HCLK(RCC_ClkInitStruct->AHBCLKDivider));
    MODIFY_REG(RCC->CFGR, RCC_CFGR_HPRE, RCC_ClkInitStruct->AHBCLKDivider);
 80012e2:	4b5d      	ldr	r3, [pc, #372]	@ (8001458 <HAL_RCC_ClockConfig+0x1f8>)
 80012e4:	689b      	ldr	r3, [r3, #8]
 80012e6:	4a5d      	ldr	r2, [pc, #372]	@ (800145c <HAL_RCC_ClockConfig+0x1fc>)
 80012e8:	4013      	ands	r3, r2
 80012ea:	0019      	movs	r1, r3
 80012ec:	687b      	ldr	r3, [r7, #4]
 80012ee:	689a      	ldr	r2, [r3, #8]
 80012f0:	4b59      	ldr	r3, [pc, #356]	@ (8001458 <HAL_RCC_ClockConfig+0x1f8>)
 80012f2:	430a      	orrs	r2, r1
 80012f4:	609a      	str	r2, [r3, #8]
  }

  /*------------------------- SYSCLK Configuration ---------------------------*/
  if (((RCC_ClkInitStruct->ClockType) & RCC_CLOCKTYPE_SYSCLK) == RCC_CLOCKTYPE_SYSCLK)
 80012f6:	687b      	ldr	r3, [r7, #4]
 80012f8:	681b      	ldr	r3, [r3, #0]
 80012fa:	2201      	movs	r2, #1
 80012fc:	4013      	ands	r3, r2
 80012fe:	d057      	beq.n	80013b0 <HAL_RCC_ClockConfig+0x150>
  {
    assert_param(IS_RCC_SYSCLKSOURCE(RCC_ClkInitStruct->SYSCLKSource));

    /* HSE is selected as System Clock Source */
    if (RCC_ClkInitStruct->SYSCLKSource == RCC_SYSCLKSOURCE_HSE)
 8001300:	687b      	ldr	r3, [r7, #4]
 8001302:	685b      	ldr	r3, [r3, #4]
 8001304:	2b01      	cmp	r3, #1
 8001306:	d107      	bne.n	8001318 <HAL_RCC_ClockConfig+0xb8>
    {
      /* Check the HSE ready flag */
      if (READ_BIT(RCC->CR, RCC_CR_HSERDY) == 0U)
 8001308:	4b53      	ldr	r3, [pc, #332]	@ (8001458 <HAL_RCC_ClockConfig+0x1f8>)
 800130a:	681a      	ldr	r2, [r3, #0]
 800130c:	2380      	movs	r3, #128	@ 0x80
 800130e:	029b      	lsls	r3, r3, #10
 8001310:	4013      	ands	r3, r2
 8001312:	d12b      	bne.n	800136c <HAL_RCC_ClockConfig+0x10c>
      {
        return HAL_ERROR;
 8001314:	2301      	movs	r3, #1
 8001316:	e097      	b.n	8001448 <HAL_RCC_ClockConfig+0x1e8>
      }
    }
    /* PLL is selected as System Clock Source */
    else if (RCC_ClkInitStruct->SYSCLKSource == RCC_SYSCLKSOURCE_PLLCLK)
 8001318:	687b      	ldr	r3, [r7, #4]
 800131a:	685b      	ldr	r3, [r3, #4]
 800131c:	2b02      	cmp	r3, #2
 800131e:	d107      	bne.n	8001330 <HAL_RCC_ClockConfig+0xd0>
    {
      /* Check the PLL ready flag */
      if (READ_BIT(RCC->CR, RCC_CR_PLLRDY) == 0U)
 8001320:	4b4d      	ldr	r3, [pc, #308]	@ (8001458 <HAL_RCC_ClockConfig+0x1f8>)
 8001322:	681a      	ldr	r2, [r3, #0]
 8001324:	2380      	movs	r3, #128	@ 0x80
 8001326:	049b      	lsls	r3, r3, #18
 8001328:	4013      	ands	r3, r2
 800132a:	d11f      	bne.n	800136c <HAL_RCC_ClockConfig+0x10c>
      {
        return HAL_ERROR;
 800132c:	2301      	movs	r3, #1
 800132e:	e08b      	b.n	8001448 <HAL_RCC_ClockConfig+0x1e8>
      }
    }
    /* HSI is selected as System Clock Source */
    else if (RCC_ClkInitStruct->SYSCLKSource == RCC_SYSCLKSOURCE_HSI)
 8001330:	687b      	ldr	r3, [r7, #4]
 8001332:	685b      	ldr	r3, [r3, #4]
 8001334:	2b00      	cmp	r3, #0
 8001336:	d107      	bne.n	8001348 <HAL_RCC_ClockConfig+0xe8>
    {
      /* Check the HSI ready flag */
      if (READ_BIT(RCC->CR, RCC_CR_HSIRDY) == 0U)
 8001338:	4b47      	ldr	r3, [pc, #284]	@ (8001458 <HAL_RCC_ClockConfig+0x1f8>)
 800133a:	681a      	ldr	r2, [r3, #0]
 800133c:	2380      	movs	r3, #128	@ 0x80
 800133e:	00db      	lsls	r3, r3, #3
 8001340:	4013      	ands	r3, r2
 8001342:	d113      	bne.n	800136c <HAL_RCC_ClockConfig+0x10c>
      {
        return HAL_ERROR;
 8001344:	2301      	movs	r3, #1
 8001346:	e07f      	b.n	8001448 <HAL_RCC_ClockConfig+0x1e8>
      }
    }
    /* LSI is selected as System Clock Source */
    else if (RCC_ClkInitStruct->SYSCLKSource == RCC_SYSCLKSOURCE_LSI)
 8001348:	687b      	ldr	r3, [r7, #4]
 800134a:	685b      	ldr	r3, [r3, #4]
 800134c:	2b03      	cmp	r3, #3
 800134e:	d106      	bne.n	800135e <HAL_RCC_ClockConfig+0xfe>
    {
      /* Check the LSI ready flag */
      if (READ_BIT(RCC->CSR, RCC_CSR_LSIRDY) == 0U)
 8001350:	4b41      	ldr	r3, [pc, #260]	@ (8001458 <HAL_RCC_ClockConfig+0x1f8>)
 8001352:	6e1b      	ldr	r3, [r3, #96]	@ 0x60
 8001354:	2202      	movs	r2, #2
 8001356:	4013      	ands	r3, r2
 8001358:	d108      	bne.n	800136c <HAL_RCC_ClockConfig+0x10c>
      {
        return HAL_ERROR;
 800135a:	2301      	movs	r3, #1
 800135c:	e074      	b.n	8001448 <HAL_RCC_ClockConfig+0x1e8>
    }
    /* LSE is selected as System Clock Source */
    else
    {
      /* Check the LSE ready flag */
      if (READ_BIT(RCC->BDCR, RCC_BDCR_LSERDY) == 0U)
 800135e:	4b3e      	ldr	r3, [pc, #248]	@ (8001458 <HAL_RCC_ClockConfig+0x1f8>)
 8001360:	6ddb      	ldr	r3, [r3, #92]	@ 0x5c
 8001362:	2202      	movs	r2, #2
 8001364:	4013      	ands	r3, r2
 8001366:	d101      	bne.n	800136c <HAL_RCC_ClockConfig+0x10c>
      {
        return HAL_ERROR;
 8001368:	2301      	movs	r3, #1
 800136a:	e06d      	b.n	8001448 <HAL_RCC_ClockConfig+0x1e8>
      }
    }
    MODIFY_REG(RCC->CFGR, RCC_CFGR_SW, RCC_ClkInitStruct->SYSCLKSource);
 800136c:	4b3a      	ldr	r3, [pc, #232]	@ (8001458 <HAL_RCC_ClockConfig+0x1f8>)
 800136e:	689b      	ldr	r3, [r3, #8]
 8001370:	2207      	movs	r2, #7
 8001372:	4393      	bics	r3, r2
 8001374:	0019      	movs	r1, r3
 8001376:	687b      	ldr	r3, [r7, #4]
 8001378:	685a      	ldr	r2, [r3, #4]
 800137a:	4b37      	ldr	r3, [pc, #220]	@ (8001458 <HAL_RCC_ClockConfig+0x1f8>)
 800137c:	430a      	orrs	r2, r1
 800137e:	609a      	str	r2, [r3, #8]

    /* Get Start Tick*/
    tickstart = HAL_GetTick();
 8001380:	f7ff f9c8 	bl	8000714 <HAL_GetTick>
 8001384:	0003      	movs	r3, r0
 8001386:	60fb      	str	r3, [r7, #12]

    while (__HAL_RCC_GET_SYSCLK_SOURCE() != (RCC_ClkInitStruct->SYSCLKSource << RCC_CFGR_SWS_Pos))
 8001388:	e009      	b.n	800139e <HAL_RCC_ClockConfig+0x13e>
    {
      if ((HAL_GetTick() - tickstart) > CLOCKSWITCH_TIMEOUT_VALUE)
 800138a:	f7ff f9c3 	bl	8000714 <HAL_GetTick>
 800138e:	0002      	movs	r2, r0
 8001390:	68fb      	ldr	r3, [r7, #12]
 8001392:	1ad3      	subs	r3, r2, r3
 8001394:	4a2f      	ldr	r2, [pc, #188]	@ (8001454 <HAL_RCC_ClockConfig+0x1f4>)
 8001396:	4293      	cmp	r3, r2
 8001398:	d901      	bls.n	800139e <HAL_RCC_ClockConfig+0x13e>
      {
        return HAL_TIMEOUT;
 800139a:	2303      	movs	r3, #3
 800139c:	e054      	b.n	8001448 <HAL_RCC_ClockConfig+0x1e8>
    while (__HAL_RCC_GET_SYSCLK_SOURCE() != (RCC_ClkInitStruct->SYSCLKSource << RCC_CFGR_SWS_Pos))
 800139e:	4b2e      	ldr	r3, [pc, #184]	@ (8001458 <HAL_RCC_ClockConfig+0x1f8>)
 80013a0:	689b      	ldr	r3, [r3, #8]
 80013a2:	2238      	movs	r2, #56	@ 0x38
 80013a4:	401a      	ands	r2, r3
 80013a6:	687b      	ldr	r3, [r7, #4]
 80013a8:	685b      	ldr	r3, [r3, #4]
 80013aa:	00db      	lsls	r3, r3, #3
 80013ac:	429a      	cmp	r2, r3
 80013ae:	d1ec      	bne.n	800138a <HAL_RCC_ClockConfig+0x12a>
      }
    }
  }

  /* Decreasing the number of wait states because of lower CPU frequency */
  if (FLatency < __HAL_FLASH_GET_LATENCY())
 80013b0:	4b27      	ldr	r3, [pc, #156]	@ (8001450 <HAL_RCC_ClockConfig+0x1f0>)
 80013b2:	681b      	ldr	r3, [r3, #0]
 80013b4:	2207      	movs	r2, #7
 80013b6:	4013      	ands	r3, r2
 80013b8:	683a      	ldr	r2, [r7, #0]
 80013ba:	429a      	cmp	r2, r3
 80013bc:	d21e      	bcs.n	80013fc <HAL_RCC_ClockConfig+0x19c>
  {
    /* Program the new number of wait states to the LATENCY bits in the FLASH_ACR register */
    __HAL_FLASH_SET_LATENCY(FLatency);
 80013be:	4b24      	ldr	r3, [pc, #144]	@ (8001450 <HAL_RCC_ClockConfig+0x1f0>)
 80013c0:	681b      	ldr	r3, [r3, #0]
 80013c2:	2207      	movs	r2, #7
 80013c4:	4393      	bics	r3, r2
 80013c6:	0019      	movs	r1, r3
 80013c8:	4b21      	ldr	r3, [pc, #132]	@ (8001450 <HAL_RCC_ClockConfig+0x1f0>)
 80013ca:	683a      	ldr	r2, [r7, #0]
 80013cc:	430a      	orrs	r2, r1
 80013ce:	601a      	str	r2, [r3, #0]

    /* Check that the new number of wait states is taken into account to access the Flash
    memory by polling the FLASH_ACR register */
    tickstart = HAL_GetTick();
 80013d0:	f7ff f9a0 	bl	8000714 <HAL_GetTick>
 80013d4:	0003      	movs	r3, r0
 80013d6:	60fb      	str	r3, [r7, #12]

    while ((FLASH->ACR & FLASH_ACR_LATENCY) != FLatency)
 80013d8:	e009      	b.n	80013ee <HAL_RCC_ClockConfig+0x18e>
    {
      if ((HAL_GetTick() - tickstart) > CLOCKSWITCH_TIMEOUT_VALUE)
 80013da:	f7ff f99b 	bl	8000714 <HAL_GetTick>
 80013de:	0002      	movs	r2, r0
 80013e0:	68fb      	ldr	r3, [r7, #12]
 80013e2:	1ad3      	subs	r3, r2, r3
 80013e4:	4a1b      	ldr	r2, [pc, #108]	@ (8001454 <HAL_RCC_ClockConfig+0x1f4>)
 80013e6:	4293      	cmp	r3, r2
 80013e8:	d901      	bls.n	80013ee <HAL_RCC_ClockConfig+0x18e>
      {
        return HAL_TIMEOUT;
 80013ea:	2303      	movs	r3, #3
 80013ec:	e02c      	b.n	8001448 <HAL_RCC_ClockConfig+0x1e8>
    while ((FLASH->ACR & FLASH_ACR_LATENCY) != FLatency)
 80013ee:	4b18      	ldr	r3, [pc, #96]	@ (8001450 <HAL_RCC_ClockConfig+0x1f0>)
 80013f0:	681b      	ldr	r3, [r3, #0]
 80013f2:	2207      	movs	r2, #7
 80013f4:	4013      	ands	r3, r2
 80013f6:	683a      	ldr	r2, [r7, #0]
 80013f8:	429a      	cmp	r2, r3
 80013fa:	d1ee      	bne.n	80013da <HAL_RCC_ClockConfig+0x17a>
      }
    }
  }

  /*-------------------------- PCLK1 Configuration ---------------------------*/
  if (((RCC_ClkInitStruct->ClockType) & RCC_CLOCKTYPE_PCLK1) == RCC_CLOCKTYPE_PCLK1)
 80013fc:	687b      	ldr	r3, [r7, #4]
 80013fe:	681b      	ldr	r3, [r3, #0]
 8001400:	2204      	movs	r2, #4
 8001402:	4013      	ands	r3, r2
 8001404:	d009      	beq.n	800141a <HAL_RCC_ClockConfig+0x1ba>
  {
    assert_param(IS_RCC_PCLK(RCC_ClkInitStruct->APB1CLKDivider));
    MODIFY_REG(RCC->CFGR, RCC_CFGR_PPRE, RCC_ClkInitStruct->APB1CLKDivider);
 8001406:	4b14      	ldr	r3, [pc, #80]	@ (8001458 <HAL_RCC_ClockConfig+0x1f8>)
 8001408:	689b      	ldr	r3, [r3, #8]
 800140a:	4a15      	ldr	r2, [pc, #84]	@ (8001460 <HAL_RCC_ClockConfig+0x200>)
 800140c:	4013      	ands	r3, r2
 800140e:	0019      	movs	r1, r3
 8001410:	687b      	ldr	r3, [r7, #4]
 8001412:	68da      	ldr	r2, [r3, #12]
 8001414:	4b10      	ldr	r3, [pc, #64]	@ (8001458 <HAL_RCC_ClockConfig+0x1f8>)
 8001416:	430a      	orrs	r2, r1
 8001418:	609a      	str	r2, [r3, #8]
  }

  /* Update the SystemCoreClock global variable */
  SystemCoreClock = (HAL_RCC_GetSysClockFreq() >> ((AHBPrescTable[(RCC->CFGR & RCC_CFGR_HPRE) >> RCC_CFGR_HPRE_Pos]) & 0x1FU));
 800141a:	f000 f829 	bl	8001470 <HAL_RCC_GetSysClockFreq>
 800141e:	0001      	movs	r1, r0
 8001420:	4b0d      	ldr	r3, [pc, #52]	@ (8001458 <HAL_RCC_ClockConfig+0x1f8>)
 8001422:	689b      	ldr	r3, [r3, #8]
 8001424:	0a1b      	lsrs	r3, r3, #8
 8001426:	220f      	movs	r2, #15
 8001428:	401a      	ands	r2, r3
 800142a:	4b0e      	ldr	r3, [pc, #56]	@ (8001464 <HAL_RCC_ClockConfig+0x204>)
 800142c:	0092      	lsls	r2, r2, #2
 800142e:	58d3      	ldr	r3, [r2, r3]
 8001430:	221f      	movs	r2, #31
 8001432:	4013      	ands	r3, r2
 8001434:	000a      	movs	r2, r1
 8001436:	40da      	lsrs	r2, r3
 8001438:	4b0b      	ldr	r3, [pc, #44]	@ (8001468 <HAL_RCC_ClockConfig+0x208>)
 800143a:	601a      	str	r2, [r3, #0]

  /* Configure the source of time base considering new system clocks settings*/
  return HAL_InitTick(uwTickPrio);
 800143c:	4b0b      	ldr	r3, [pc, #44]	@ (800146c <HAL_RCC_ClockConfig+0x20c>)
 800143e:	681b      	ldr	r3, [r3, #0]
 8001440:	0018      	movs	r0, r3
 8001442:	f7ff f90b 	bl	800065c <HAL_InitTick>
 8001446:	0003      	movs	r3, r0
}
 8001448:	0018      	movs	r0, r3
 800144a:	46bd      	mov	sp, r7
 800144c:	b004      	add	sp, #16
 800144e:	bd80      	pop	{r7, pc}
 8001450:	40022000 	.word	0x40022000
 8001454:	00001388 	.word	0x00001388
 8001458:	40021000 	.word	0x40021000
 800145c:	fffff0ff 	.word	0xfffff0ff
 8001460:	ffff8fff 	.word	0xffff8fff
 8001464:	08002b48 	.word	0x08002b48
 8001468:	20000008 	.word	0x20000008
 800146c:	20000000 	.word	0x20000000

08001470 <HAL_RCC_GetSysClockFreq>:
  *
  *
  * @retval SYSCLK frequency
  */
uint32_t HAL_RCC_GetSysClockFreq(void)
{
 8001470:	b580      	push	{r7, lr}
 8001472:	b086      	sub	sp, #24
 8001474:	af00      	add	r7, sp, #0
  uint32_t pllvco, pllsource, pllr, pllm, hsidiv;
  uint32_t sysclockfreq;

  if (__HAL_RCC_GET_SYSCLK_SOURCE() == RCC_SYSCLKSOURCE_STATUS_HSI)
 8001476:	4b3c      	ldr	r3, [pc, #240]	@ (8001568 <HAL_RCC_GetSysClockFreq+0xf8>)
 8001478:	689b      	ldr	r3, [r3, #8]
 800147a:	2238      	movs	r2, #56	@ 0x38
 800147c:	4013      	ands	r3, r2
 800147e:	d10f      	bne.n	80014a0 <HAL_RCC_GetSysClockFreq+0x30>
  {
    /* HSISYS can be derived for HSI16 */
    hsidiv = (1UL << ((READ_BIT(RCC->CR, RCC_CR_HSIDIV)) >> RCC_CR_HSIDIV_Pos));
 8001480:	4b39      	ldr	r3, [pc, #228]	@ (8001568 <HAL_RCC_GetSysClockFreq+0xf8>)
 8001482:	681b      	ldr	r3, [r3, #0]
 8001484:	0adb      	lsrs	r3, r3, #11
 8001486:	2207      	movs	r2, #7
 8001488:	4013      	ands	r3, r2
 800148a:	2201      	movs	r2, #1
 800148c:	409a      	lsls	r2, r3
 800148e:	0013      	movs	r3, r2
 8001490:	603b      	str	r3, [r7, #0]

    /* HSI used as system clock source */
    sysclockfreq = (HSI_VALUE / hsidiv);
 8001492:	6839      	ldr	r1, [r7, #0]
 8001494:	4835      	ldr	r0, [pc, #212]	@ (800156c <HAL_RCC_GetSysClockFreq+0xfc>)
 8001496:	f7fe fe35 	bl	8000104 <__udivsi3>
 800149a:	0003      	movs	r3, r0
 800149c:	613b      	str	r3, [r7, #16]
 800149e:	e05d      	b.n	800155c <HAL_RCC_GetSysClockFreq+0xec>
  }
  else if (__HAL_RCC_GET_SYSCLK_SOURCE() == RCC_SYSCLKSOURCE_STATUS_HSE)
 80014a0:	4b31      	ldr	r3, [pc, #196]	@ (8001568 <HAL_RCC_GetSysClockFreq+0xf8>)
 80014a2:	689b      	ldr	r3, [r3, #8]
 80014a4:	2238      	movs	r2, #56	@ 0x38
 80014a6:	4013      	ands	r3, r2
 80014a8:	2b08      	cmp	r3, #8
 80014aa:	d102      	bne.n	80014b2 <HAL_RCC_GetSysClockFreq+0x42>
  {
    /* HSE used as system clock source */
    sysclockfreq = HSE_VALUE;
 80014ac:	4b30      	ldr	r3, [pc, #192]	@ (8001570 <HAL_RCC_GetSysClockFreq+0x100>)
 80014ae:	613b      	str	r3, [r7, #16]
 80014b0:	e054      	b.n	800155c <HAL_RCC_GetSysClockFreq+0xec>
  }
  else if (__HAL_RCC_GET_SYSCLK_SOURCE() == RCC_SYSCLKSOURCE_STATUS_PLLCLK)
 80014b2:	4b2d      	ldr	r3, [pc, #180]	@ (8001568 <HAL_RCC_GetSysClockFreq+0xf8>)
 80014b4:	689b      	ldr	r3, [r3, #8]
 80014b6:	2238      	movs	r2, #56	@ 0x38
 80014b8:	4013      	ands	r3, r2
 80014ba:	2b10      	cmp	r3, #16
 80014bc:	d138      	bne.n	8001530 <HAL_RCC_GetSysClockFreq+0xc0>
    /* PLL used as system clock  source */

    /* PLL_VCO = ((HSE_VALUE or HSI_VALUE)/ PLLM) * PLLN
    SYSCLK = PLL_VCO / PLLR
    */
    pllsource = (RCC->PLLCFGR & RCC_PLLCFGR_PLLSRC);
 80014be:	4b2a      	ldr	r3, [pc, #168]	@ (8001568 <HAL_RCC_GetSysClockFreq+0xf8>)
 80014c0:	68db      	ldr	r3, [r3, #12]
 80014c2:	2203      	movs	r2, #3
 80014c4:	4013      	ands	r3, r2
 80014c6:	60fb      	str	r3, [r7, #12]
    pllm = ((RCC->PLLCFGR & RCC_PLLCFGR_PLLM) >> RCC_PLLCFGR_PLLM_Pos) + 1U ;
 80014c8:	4b27      	ldr	r3, [pc, #156]	@ (8001568 <HAL_RCC_GetSysClockFreq+0xf8>)
 80014ca:	68db      	ldr	r3, [r3, #12]
 80014cc:	091b      	lsrs	r3, r3, #4
 80014ce:	2207      	movs	r2, #7
 80014d0:	4013      	ands	r3, r2
 80014d2:	3301      	adds	r3, #1
 80014d4:	60bb      	str	r3, [r7, #8]

    switch (pllsource)
 80014d6:	68fb      	ldr	r3, [r7, #12]
 80014d8:	2b03      	cmp	r3, #3
 80014da:	d10d      	bne.n	80014f8 <HAL_RCC_GetSysClockFreq+0x88>
    {
      case RCC_PLLSOURCE_HSE:  /* HSE used as PLL clock source */
        pllvco = (HSE_VALUE / pllm) * ((RCC->PLLCFGR & RCC_PLLCFGR_PLLN) >> RCC_PLLCFGR_PLLN_Pos);
 80014dc:	68b9      	ldr	r1, [r7, #8]
 80014de:	4824      	ldr	r0, [pc, #144]	@ (8001570 <HAL_RCC_GetSysClockFreq+0x100>)
 80014e0:	f7fe fe10 	bl	8000104 <__udivsi3>
 80014e4:	0003      	movs	r3, r0
 80014e6:	0019      	movs	r1, r3
 80014e8:	4b1f      	ldr	r3, [pc, #124]	@ (8001568 <HAL_RCC_GetSysClockFreq+0xf8>)
 80014ea:	68db      	ldr	r3, [r3, #12]
 80014ec:	0a1b      	lsrs	r3, r3, #8
 80014ee:	227f      	movs	r2, #127	@ 0x7f
 80014f0:	4013      	ands	r3, r2
 80014f2:	434b      	muls	r3, r1
 80014f4:	617b      	str	r3, [r7, #20]
        break;
 80014f6:	e00d      	b.n	8001514 <HAL_RCC_GetSysClockFreq+0xa4>

      case RCC_PLLSOURCE_HSI:  /* HSI16 used as PLL clock source */
      default:                 /* HSI16 used as PLL clock source */
        pllvco = (HSI_VALUE / pllm) * ((RCC->PLLCFGR & RCC_PLLCFGR_PLLN) >> RCC_PLLCFGR_PLLN_Pos) ;
 80014f8:	68b9      	ldr	r1, [r7, #8]
 80014fa:	481c      	ldr	r0, [pc, #112]	@ (800156c <HAL_RCC_GetSysClockFreq+0xfc>)
 80014fc:	f7fe fe02 	bl	8000104 <__udivsi3>
 8001500:	0003      	movs	r3, r0
 8001502:	0019      	movs	r1, r3
 8001504:	4b18      	ldr	r3, [pc, #96]	@ (8001568 <HAL_RCC_GetSysClockFreq+0xf8>)
 8001506:	68db      	ldr	r3, [r3, #12]
 8001508:	0a1b      	lsrs	r3, r3, #8
 800150a:	227f      	movs	r2, #127	@ 0x7f
 800150c:	4013      	ands	r3, r2
 800150e:	434b      	muls	r3, r1
 8001510:	617b      	str	r3, [r7, #20]
        break;
 8001512:	46c0      	nop			@ (mov r8, r8)
    }
    pllr = (((RCC->PLLCFGR & RCC_PLLCFGR_PLLR) >> RCC_PLLCFGR_PLLR_Pos) + 1U);
 8001514:	4b14      	ldr	r3, [pc, #80]	@ (8001568 <HAL_RCC_GetSysClockFreq+0xf8>)
 8001516:	68db      	ldr	r3, [r3, #12]
 8001518:	0f5b      	lsrs	r3, r3, #29
 800151a:	2207      	movs	r2, #7
 800151c:	4013      	ands	r3, r2
 800151e:	3301      	adds	r3, #1
 8001520:	607b      	str	r3, [r7, #4]
    sysclockfreq = pllvco / pllr;
 8001522:	6879      	ldr	r1, [r7, #4]
 8001524:	6978      	ldr	r0, [r7, #20]
 8001526:	f7fe fded 	bl	8000104 <__udivsi3>
 800152a:	0003      	movs	r3, r0
 800152c:	613b      	str	r3, [r7, #16]
 800152e:	e015      	b.n	800155c <HAL_RCC_GetSysClockFreq+0xec>
  }
  else if (__HAL_RCC_GET_SYSCLK_SOURCE() == RCC_SYSCLKSOURCE_STATUS_LSE)
 8001530:	4b0d      	ldr	r3, [pc, #52]	@ (8001568 <HAL_RCC_GetSysClockFreq+0xf8>)
 8001532:	689b      	ldr	r3, [r3, #8]
 8001534:	2238      	movs	r2, #56	@ 0x38
 8001536:	4013      	ands	r3, r2
 8001538:	2b20      	cmp	r3, #32
 800153a:	d103      	bne.n	8001544 <HAL_RCC_GetSysClockFreq+0xd4>
  {
    /* LSE used as system clock source */
    sysclockfreq = LSE_VALUE;
 800153c:	2380      	movs	r3, #128	@ 0x80
 800153e:	021b      	lsls	r3, r3, #8
 8001540:	613b      	str	r3, [r7, #16]
 8001542:	e00b      	b.n	800155c <HAL_RCC_GetSysClockFreq+0xec>
  }
  else if (__HAL_RCC_GET_SYSCLK_SOURCE() == RCC_SYSCLKSOURCE_STATUS_LSI)
 8001544:	4b08      	ldr	r3, [pc, #32]	@ (8001568 <HAL_RCC_GetSysClockFreq+0xf8>)
 8001546:	689b      	ldr	r3, [r3, #8]
 8001548:	2238      	movs	r2, #56	@ 0x38
 800154a:	4013      	ands	r3, r2
 800154c:	2b18      	cmp	r3, #24
 800154e:	d103      	bne.n	8001558 <HAL_RCC_GetSysClockFreq+0xe8>
  {
    /* LSI used as system clock source */
    sysclockfreq = LSI_VALUE;
 8001550:	23fa      	movs	r3, #250	@ 0xfa
 8001552:	01db      	lsls	r3, r3, #7
 8001554:	613b      	str	r3, [r7, #16]
 8001556:	e001      	b.n	800155c <HAL_RCC_GetSysClockFreq+0xec>
  }
  else
  {
    sysclockfreq = 0U;
 8001558:	2300      	movs	r3, #0
 800155a:	613b      	str	r3, [r7, #16]
  }

  return sysclockfreq;
 800155c:	693b      	ldr	r3, [r7, #16]
}
 800155e:	0018      	movs	r0, r3
 8001560:	46bd      	mov	sp, r7
 8001562:	b006      	add	sp, #24
 8001564:	bd80      	pop	{r7, pc}
 8001566:	46c0      	nop			@ (mov r8, r8)
 8001568:	40021000 	.word	0x40021000
 800156c:	00f42400 	.word	0x00f42400
 8001570:	007a1200 	.word	0x007a1200

08001574 <HAL_RCC_GetHCLKFreq>:
  *
  * @note   The SystemCoreClock CMSIS variable is used to store System Clock Frequency.
  * @retval HCLK frequency in Hz
  */
uint32_t HAL_RCC_GetHCLKFreq(void)
{
 8001574:	b580      	push	{r7, lr}
 8001576:	af00      	add	r7, sp, #0
  return SystemCoreClock;
 8001578:	4b02      	ldr	r3, [pc, #8]	@ (8001584 <HAL_RCC_GetHCLKFreq+0x10>)
 800157a:	681b      	ldr	r3, [r3, #0]
}
 800157c:	0018      	movs	r0, r3
 800157e:	46bd      	mov	sp, r7
 8001580:	bd80      	pop	{r7, pc}
 8001582:	46c0      	nop			@ (mov r8, r8)
 8001584:	20000008 	.word	0x20000008

08001588 <HAL_RCC_GetPCLK1Freq>:
  * @note   Each time PCLK1 changes, this function must be called to update the
  *         right PCLK1 value. Otherwise, any configuration based on this function will be incorrect.
  * @retval PCLK1 frequency in Hz
  */
uint32_t HAL_RCC_GetPCLK1Freq(void)
{
 8001588:	b5b0      	push	{r4, r5, r7, lr}
 800158a:	af00      	add	r7, sp, #0
  /* Get HCLK source and Compute PCLK1 frequency ---------------------------*/
  return ((uint32_t)(__LL_RCC_CALC_PCLK1_FREQ(HAL_RCC_GetHCLKFreq(), LL_RCC_GetAPB1Prescaler())));
 800158c:	f7ff fff2 	bl	8001574 <HAL_RCC_GetHCLKFreq>
 8001590:	0004      	movs	r4, r0
 8001592:	f7ff fb3f 	bl	8000c14 <LL_RCC_GetAPB1Prescaler>
 8001596:	0003      	movs	r3, r0
 8001598:	0b1a      	lsrs	r2, r3, #12
 800159a:	4b05      	ldr	r3, [pc, #20]	@ (80015b0 <HAL_RCC_GetPCLK1Freq+0x28>)
 800159c:	0092      	lsls	r2, r2, #2
 800159e:	58d3      	ldr	r3, [r2, r3]
 80015a0:	221f      	movs	r2, #31
 80015a2:	4013      	ands	r3, r2
 80015a4:	40dc      	lsrs	r4, r3
 80015a6:	0023      	movs	r3, r4
}
 80015a8:	0018      	movs	r0, r3
 80015aa:	46bd      	mov	sp, r7
 80015ac:	bdb0      	pop	{r4, r5, r7, pc}
 80015ae:	46c0      	nop			@ (mov r8, r8)
 80015b0:	08002b88 	.word	0x08002b88

080015b4 <HAL_RCCEx_PeriphCLKConfig>:
  *         the RTC clock source: in this case the access to Backup domain is enabled.
  *
  * @retval HAL status
  */
HAL_StatusTypeDef HAL_RCCEx_PeriphCLKConfig(RCC_PeriphCLKInitTypeDef  *PeriphClkInit)
{
 80015b4:	b580      	push	{r7, lr}
 80015b6:	b086      	sub	sp, #24
 80015b8:	af00      	add	r7, sp, #0
 80015ba:	6078      	str	r0, [r7, #4]
  uint32_t tmpregister;
  uint32_t tickstart;
  HAL_StatusTypeDef ret    = HAL_OK;   /* Intermediate status */
 80015bc:	2313      	movs	r3, #19
 80015be:	18fb      	adds	r3, r7, r3
 80015c0:	2200      	movs	r2, #0
 80015c2:	701a      	strb	r2, [r3, #0]
  HAL_StatusTypeDef status = HAL_OK;   /* Final status */
 80015c4:	2312      	movs	r3, #18
 80015c6:	18fb      	adds	r3, r7, r3
 80015c8:	2200      	movs	r2, #0
 80015ca:	701a      	strb	r2, [r3, #0]

  /* Check the parameters */
  assert_param(IS_RCC_PERIPHCLOCK(PeriphClkInit->PeriphClockSelection));

  /*-------------------------- RTC clock source configuration ----------------------*/
  if ((PeriphClkInit->PeriphClockSelection & RCC_PERIPHCLK_RTC) == RCC_PERIPHCLK_RTC)
 80015cc:	687b      	ldr	r3, [r7, #4]
 80015ce:	681a      	ldr	r2, [r3, #0]
 80015d0:	2380      	movs	r3, #128	@ 0x80
 80015d2:	029b      	lsls	r3, r3, #10
 80015d4:	4013      	ands	r3, r2
 80015d6:	d100      	bne.n	80015da <HAL_RCCEx_PeriphCLKConfig+0x26>
 80015d8:	e0a3      	b.n	8001722 <HAL_RCCEx_PeriphCLKConfig+0x16e>
  {
    FlagStatus       pwrclkchanged = RESET;
 80015da:	2011      	movs	r0, #17
 80015dc:	183b      	adds	r3, r7, r0
 80015de:	2200      	movs	r2, #0
 80015e0:	701a      	strb	r2, [r3, #0]

    /* Check for RTC Parameters used to output RTCCLK */
    assert_param(IS_RCC_RTCCLKSOURCE(PeriphClkInit->RTCClockSelection));

    /* Enable Power Clock */
    if (__HAL_RCC_PWR_IS_CLK_DISABLED())
 80015e2:	4bc3      	ldr	r3, [pc, #780]	@ (80018f0 <HAL_RCCEx_PeriphCLKConfig+0x33c>)
 80015e4:	6bda      	ldr	r2, [r3, #60]	@ 0x3c
 80015e6:	2380      	movs	r3, #128	@ 0x80
 80015e8:	055b      	lsls	r3, r3, #21
 80015ea:	4013      	ands	r3, r2
 80015ec:	d110      	bne.n	8001610 <HAL_RCCEx_PeriphCLKConfig+0x5c>
    {
      __HAL_RCC_PWR_CLK_ENABLE();
 80015ee:	4bc0      	ldr	r3, [pc, #768]	@ (80018f0 <HAL_RCCEx_PeriphCLKConfig+0x33c>)
 80015f0:	6bda      	ldr	r2, [r3, #60]	@ 0x3c
 80015f2:	4bbf      	ldr	r3, [pc, #764]	@ (80018f0 <HAL_RCCEx_PeriphCLKConfig+0x33c>)
 80015f4:	2180      	movs	r1, #128	@ 0x80
 80015f6:	0549      	lsls	r1, r1, #21
 80015f8:	430a      	orrs	r2, r1
 80015fa:	63da      	str	r2, [r3, #60]	@ 0x3c
 80015fc:	4bbc      	ldr	r3, [pc, #752]	@ (80018f0 <HAL_RCCEx_PeriphCLKConfig+0x33c>)
 80015fe:	6bda      	ldr	r2, [r3, #60]	@ 0x3c
 8001600:	2380      	movs	r3, #128	@ 0x80
 8001602:	055b      	lsls	r3, r3, #21
 8001604:	4013      	ands	r3, r2
 8001606:	60bb      	str	r3, [r7, #8]
 8001608:	68bb      	ldr	r3, [r7, #8]
      pwrclkchanged = SET;
 800160a:	183b      	adds	r3, r7, r0
 800160c:	2201      	movs	r2, #1
 800160e:	701a      	strb	r2, [r3, #0]
    }

    /* Enable write access to Backup domain */
    SET_BIT(PWR->CR1, PWR_CR1_DBP);
 8001610:	4bb8      	ldr	r3, [pc, #736]	@ (80018f4 <HAL_RCCEx_PeriphCLKConfig+0x340>)
 8001612:	681a      	ldr	r2, [r3, #0]
 8001614:	4bb7      	ldr	r3, [pc, #732]	@ (80018f4 <HAL_RCCEx_PeriphCLKConfig+0x340>)
 8001616:	2180      	movs	r1, #128	@ 0x80
 8001618:	0049      	lsls	r1, r1, #1
 800161a:	430a      	orrs	r2, r1
 800161c:	601a      	str	r2, [r3, #0]

    /* Wait for Backup domain Write protection disable */
    tickstart = HAL_GetTick();
 800161e:	f7ff f879 	bl	8000714 <HAL_GetTick>
 8001622:	0003      	movs	r3, r0
 8001624:	60fb      	str	r3, [r7, #12]

    while ((PWR->CR1 & PWR_CR1_DBP) == 0U)
 8001626:	e00b      	b.n	8001640 <HAL_RCCEx_PeriphCLKConfig+0x8c>
    {
      if ((HAL_GetTick() - tickstart) > RCC_DBP_TIMEOUT_VALUE)
 8001628:	f7ff f874 	bl	8000714 <HAL_GetTick>
 800162c:	0002      	movs	r2, r0
 800162e:	68fb      	ldr	r3, [r7, #12]
 8001630:	1ad3      	subs	r3, r2, r3
 8001632:	2b02      	cmp	r3, #2
 8001634:	d904      	bls.n	8001640 <HAL_RCCEx_PeriphCLKConfig+0x8c>
      {
        ret = HAL_TIMEOUT;
 8001636:	2313      	movs	r3, #19
 8001638:	18fb      	adds	r3, r7, r3
 800163a:	2203      	movs	r2, #3
 800163c:	701a      	strb	r2, [r3, #0]
        break;
 800163e:	e005      	b.n	800164c <HAL_RCCEx_PeriphCLKConfig+0x98>
    while ((PWR->CR1 & PWR_CR1_DBP) == 0U)
 8001640:	4bac      	ldr	r3, [pc, #688]	@ (80018f4 <HAL_RCCEx_PeriphCLKConfig+0x340>)
 8001642:	681a      	ldr	r2, [r3, #0]
 8001644:	2380      	movs	r3, #128	@ 0x80
 8001646:	005b      	lsls	r3, r3, #1
 8001648:	4013      	ands	r3, r2
 800164a:	d0ed      	beq.n	8001628 <HAL_RCCEx_PeriphCLKConfig+0x74>
      }
    }

    if (ret == HAL_OK)
 800164c:	2313      	movs	r3, #19
 800164e:	18fb      	adds	r3, r7, r3
 8001650:	781b      	ldrb	r3, [r3, #0]
 8001652:	2b00      	cmp	r3, #0
 8001654:	d154      	bne.n	8001700 <HAL_RCCEx_PeriphCLKConfig+0x14c>
    {
      /* Reset the Backup domain only if the RTC Clock source selection is modified from default */
      tmpregister = READ_BIT(RCC->BDCR, RCC_BDCR_RTCSEL);
 8001656:	4ba6      	ldr	r3, [pc, #664]	@ (80018f0 <HAL_RCCEx_PeriphCLKConfig+0x33c>)
 8001658:	6dda      	ldr	r2, [r3, #92]	@ 0x5c
 800165a:	23c0      	movs	r3, #192	@ 0xc0
 800165c:	009b      	lsls	r3, r3, #2
 800165e:	4013      	ands	r3, r2
 8001660:	617b      	str	r3, [r7, #20]

      /* Reset the Backup domain only if the RTC Clock source selection is modified */
      if ((tmpregister != RCC_RTCCLKSOURCE_NONE) && (tmpregister != PeriphClkInit->RTCClockSelection))
 8001662:	697b      	ldr	r3, [r7, #20]
 8001664:	2b00      	cmp	r3, #0
 8001666:	d019      	beq.n	800169c <HAL_RCCEx_PeriphCLKConfig+0xe8>
 8001668:	687b      	ldr	r3, [r7, #4]
 800166a:	6b1b      	ldr	r3, [r3, #48]	@ 0x30
 800166c:	697a      	ldr	r2, [r7, #20]
 800166e:	429a      	cmp	r2, r3
 8001670:	d014      	beq.n	800169c <HAL_RCCEx_PeriphCLKConfig+0xe8>
      {
        /* Store the content of BDCR register before the reset of Backup Domain */
        tmpregister = READ_BIT(RCC->BDCR, ~(RCC_BDCR_RTCSEL));
 8001672:	4b9f      	ldr	r3, [pc, #636]	@ (80018f0 <HAL_RCCEx_PeriphCLKConfig+0x33c>)
 8001674:	6ddb      	ldr	r3, [r3, #92]	@ 0x5c
 8001676:	4aa0      	ldr	r2, [pc, #640]	@ (80018f8 <HAL_RCCEx_PeriphCLKConfig+0x344>)
 8001678:	4013      	ands	r3, r2
 800167a:	617b      	str	r3, [r7, #20]
        /* RTC Clock selection can be changed only if the Backup Domain is reset */
        __HAL_RCC_BACKUPRESET_FORCE();
 800167c:	4b9c      	ldr	r3, [pc, #624]	@ (80018f0 <HAL_RCCEx_PeriphCLKConfig+0x33c>)
 800167e:	6dda      	ldr	r2, [r3, #92]	@ 0x5c
 8001680:	4b9b      	ldr	r3, [pc, #620]	@ (80018f0 <HAL_RCCEx_PeriphCLKConfig+0x33c>)
 8001682:	2180      	movs	r1, #128	@ 0x80
 8001684:	0249      	lsls	r1, r1, #9
 8001686:	430a      	orrs	r2, r1
 8001688:	65da      	str	r2, [r3, #92]	@ 0x5c
        __HAL_RCC_BACKUPRESET_RELEASE();
 800168a:	4b99      	ldr	r3, [pc, #612]	@ (80018f0 <HAL_RCCEx_PeriphCLKConfig+0x33c>)
 800168c:	6dda      	ldr	r2, [r3, #92]	@ 0x5c
 800168e:	4b98      	ldr	r3, [pc, #608]	@ (80018f0 <HAL_RCCEx_PeriphCLKConfig+0x33c>)
 8001690:	499a      	ldr	r1, [pc, #616]	@ (80018fc <HAL_RCCEx_PeriphCLKConfig+0x348>)
 8001692:	400a      	ands	r2, r1
 8001694:	65da      	str	r2, [r3, #92]	@ 0x5c
        /* Restore the Content of BDCR register */
        RCC->BDCR = tmpregister;
 8001696:	4b96      	ldr	r3, [pc, #600]	@ (80018f0 <HAL_RCCEx_PeriphCLKConfig+0x33c>)
 8001698:	697a      	ldr	r2, [r7, #20]
 800169a:	65da      	str	r2, [r3, #92]	@ 0x5c
      }

      /* Wait for LSE reactivation if LSE was enable prior to Backup Domain reset */
      if (HAL_IS_BIT_SET(tmpregister, RCC_BDCR_LSEON))
 800169c:	697b      	ldr	r3, [r7, #20]
 800169e:	2201      	movs	r2, #1
 80016a0:	4013      	ands	r3, r2
 80016a2:	d016      	beq.n	80016d2 <HAL_RCCEx_PeriphCLKConfig+0x11e>
      {
        /* Get Start Tick*/
        tickstart = HAL_GetTick();
 80016a4:	f7ff f836 	bl	8000714 <HAL_GetTick>
 80016a8:	0003      	movs	r3, r0
 80016aa:	60fb      	str	r3, [r7, #12]

        /* Wait till LSE is ready */
        while (READ_BIT(RCC->BDCR, RCC_BDCR_LSERDY) == 0U)
 80016ac:	e00c      	b.n	80016c8 <HAL_RCCEx_PeriphCLKConfig+0x114>
        {
          if ((HAL_GetTick() - tickstart) > RCC_LSE_TIMEOUT_VALUE)
 80016ae:	f7ff f831 	bl	8000714 <HAL_GetTick>
 80016b2:	0002      	movs	r2, r0
 80016b4:	68fb      	ldr	r3, [r7, #12]
 80016b6:	1ad3      	subs	r3, r2, r3
 80016b8:	4a91      	ldr	r2, [pc, #580]	@ (8001900 <HAL_RCCEx_PeriphCLKConfig+0x34c>)
 80016ba:	4293      	cmp	r3, r2
 80016bc:	d904      	bls.n	80016c8 <HAL_RCCEx_PeriphCLKConfig+0x114>
          {
            ret = HAL_TIMEOUT;
 80016be:	2313      	movs	r3, #19
 80016c0:	18fb      	adds	r3, r7, r3
 80016c2:	2203      	movs	r2, #3
 80016c4:	701a      	strb	r2, [r3, #0]
            break;
 80016c6:	e004      	b.n	80016d2 <HAL_RCCEx_PeriphCLKConfig+0x11e>
        while (READ_BIT(RCC->BDCR, RCC_BDCR_LSERDY) == 0U)
 80016c8:	4b89      	ldr	r3, [pc, #548]	@ (80018f0 <HAL_RCCEx_PeriphCLKConfig+0x33c>)
 80016ca:	6ddb      	ldr	r3, [r3, #92]	@ 0x5c
 80016cc:	2202      	movs	r2, #2
 80016ce:	4013      	ands	r3, r2
 80016d0:	d0ed      	beq.n	80016ae <HAL_RCCEx_PeriphCLKConfig+0xfa>
          }
        }
      }

      if (ret == HAL_OK)
 80016d2:	2313      	movs	r3, #19
 80016d4:	18fb      	adds	r3, r7, r3
 80016d6:	781b      	ldrb	r3, [r3, #0]
 80016d8:	2b00      	cmp	r3, #0
 80016da:	d10a      	bne.n	80016f2 <HAL_RCCEx_PeriphCLKConfig+0x13e>
      {
        /* Apply new RTC clock source selection */
        __HAL_RCC_RTC_CONFIG(PeriphClkInit->RTCClockSelection);
 80016dc:	4b84      	ldr	r3, [pc, #528]	@ (80018f0 <HAL_RCCEx_PeriphCLKConfig+0x33c>)
 80016de:	6ddb      	ldr	r3, [r3, #92]	@ 0x5c
 80016e0:	4a85      	ldr	r2, [pc, #532]	@ (80018f8 <HAL_RCCEx_PeriphCLKConfig+0x344>)
 80016e2:	4013      	ands	r3, r2
 80016e4:	0019      	movs	r1, r3
 80016e6:	687b      	ldr	r3, [r7, #4]
 80016e8:	6b1a      	ldr	r2, [r3, #48]	@ 0x30
 80016ea:	4b81      	ldr	r3, [pc, #516]	@ (80018f0 <HAL_RCCEx_PeriphCLKConfig+0x33c>)
 80016ec:	430a      	orrs	r2, r1
 80016ee:	65da      	str	r2, [r3, #92]	@ 0x5c
 80016f0:	e00c      	b.n	800170c <HAL_RCCEx_PeriphCLKConfig+0x158>
      }
      else
      {
        /* set overall return value */
        status = ret;
 80016f2:	2312      	movs	r3, #18
 80016f4:	18fb      	adds	r3, r7, r3
 80016f6:	2213      	movs	r2, #19
 80016f8:	18ba      	adds	r2, r7, r2
 80016fa:	7812      	ldrb	r2, [r2, #0]
 80016fc:	701a      	strb	r2, [r3, #0]
 80016fe:	e005      	b.n	800170c <HAL_RCCEx_PeriphCLKConfig+0x158>
      }
    }
    else
    {
      /* set overall return value */
      status = ret;
 8001700:	2312      	movs	r3, #18
 8001702:	18fb      	adds	r3, r7, r3
 8001704:	2213      	movs	r2, #19
 8001706:	18ba      	adds	r2, r7, r2
 8001708:	7812      	ldrb	r2, [r2, #0]
 800170a:	701a      	strb	r2, [r3, #0]
    }

    /* Restore clock configuration if changed */
    if (pwrclkchanged == SET)
 800170c:	2311      	movs	r3, #17
 800170e:	18fb      	adds	r3, r7, r3
 8001710:	781b      	ldrb	r3, [r3, #0]
 8001712:	2b01      	cmp	r3, #1
 8001714:	d105      	bne.n	8001722 <HAL_RCCEx_PeriphCLKConfig+0x16e>
    {
      __HAL_RCC_PWR_CLK_DISABLE();
 8001716:	4b76      	ldr	r3, [pc, #472]	@ (80018f0 <HAL_RCCEx_PeriphCLKConfig+0x33c>)
 8001718:	6bda      	ldr	r2, [r3, #60]	@ 0x3c
 800171a:	4b75      	ldr	r3, [pc, #468]	@ (80018f0 <HAL_RCCEx_PeriphCLKConfig+0x33c>)
 800171c:	4979      	ldr	r1, [pc, #484]	@ (8001904 <HAL_RCCEx_PeriphCLKConfig+0x350>)
 800171e:	400a      	ands	r2, r1
 8001720:	63da      	str	r2, [r3, #60]	@ 0x3c
    }
  }

  /*-------------------------- USART1 clock source configuration -------------------*/
  if (((PeriphClkInit->PeriphClockSelection) & RCC_PERIPHCLK_USART1) == RCC_PERIPHCLK_USART1)
 8001722:	687b      	ldr	r3, [r7, #4]
 8001724:	681b      	ldr	r3, [r3, #0]
 8001726:	2201      	movs	r2, #1
 8001728:	4013      	ands	r3, r2
 800172a:	d009      	beq.n	8001740 <HAL_RCCEx_PeriphCLKConfig+0x18c>
  {
    /* Check the parameters */
    assert_param(IS_RCC_USART1CLKSOURCE(PeriphClkInit->Usart1ClockSelection));

    /* Configure the USART1 clock source */
    __HAL_RCC_USART1_CONFIG(PeriphClkInit->Usart1ClockSelection);
 800172c:	4b70      	ldr	r3, [pc, #448]	@ (80018f0 <HAL_RCCEx_PeriphCLKConfig+0x33c>)
 800172e:	6d5b      	ldr	r3, [r3, #84]	@ 0x54
 8001730:	2203      	movs	r2, #3
 8001732:	4393      	bics	r3, r2
 8001734:	0019      	movs	r1, r3
 8001736:	687b      	ldr	r3, [r7, #4]
 8001738:	685a      	ldr	r2, [r3, #4]
 800173a:	4b6d      	ldr	r3, [pc, #436]	@ (80018f0 <HAL_RCCEx_PeriphCLKConfig+0x33c>)
 800173c:	430a      	orrs	r2, r1
 800173e:	655a      	str	r2, [r3, #84]	@ 0x54
  }

#if defined(RCC_CCIPR_USART2SEL)
  /*-------------------------- USART2 clock source configuration -------------------*/
  if (((PeriphClkInit->PeriphClockSelection) & RCC_PERIPHCLK_USART2) == RCC_PERIPHCLK_USART2)
 8001740:	687b      	ldr	r3, [r7, #4]
 8001742:	681b      	ldr	r3, [r3, #0]
 8001744:	2202      	movs	r2, #2
 8001746:	4013      	ands	r3, r2
 8001748:	d009      	beq.n	800175e <HAL_RCCEx_PeriphCLKConfig+0x1aa>
  {
    /* Check the parameters */
    assert_param(IS_RCC_USART2CLKSOURCE(PeriphClkInit->Usart2ClockSelection));

    /* Configure the USART2 clock source */
    __HAL_RCC_USART2_CONFIG(PeriphClkInit->Usart2ClockSelection);
 800174a:	4b69      	ldr	r3, [pc, #420]	@ (80018f0 <HAL_RCCEx_PeriphCLKConfig+0x33c>)
 800174c:	6d5b      	ldr	r3, [r3, #84]	@ 0x54
 800174e:	220c      	movs	r2, #12
 8001750:	4393      	bics	r3, r2
 8001752:	0019      	movs	r1, r3
 8001754:	687b      	ldr	r3, [r7, #4]
 8001756:	689a      	ldr	r2, [r3, #8]
 8001758:	4b65      	ldr	r3, [pc, #404]	@ (80018f0 <HAL_RCCEx_PeriphCLKConfig+0x33c>)
 800175a:	430a      	orrs	r2, r1
 800175c:	655a      	str	r2, [r3, #84]	@ 0x54
  }
#endif /* RCC_CCIPR_USART3SEL */

#if defined(LPUART1)
  /*-------------------------- LPUART1 clock source configuration ------------------*/
  if (((PeriphClkInit->PeriphClockSelection) & RCC_PERIPHCLK_LPUART1) == RCC_PERIPHCLK_LPUART1)
 800175e:	687b      	ldr	r3, [r7, #4]
 8001760:	681b      	ldr	r3, [r3, #0]
 8001762:	2210      	movs	r2, #16
 8001764:	4013      	ands	r3, r2
 8001766:	d009      	beq.n	800177c <HAL_RCCEx_PeriphCLKConfig+0x1c8>
  {
    /* Check the parameters */
    assert_param(IS_RCC_LPUART1CLKSOURCE(PeriphClkInit->Lpuart1ClockSelection));

    /* Configure the LPUART1 clock source */
    __HAL_RCC_LPUART1_CONFIG(PeriphClkInit->Lpuart1ClockSelection);
 8001768:	4b61      	ldr	r3, [pc, #388]	@ (80018f0 <HAL_RCCEx_PeriphCLKConfig+0x33c>)
 800176a:	6d5b      	ldr	r3, [r3, #84]	@ 0x54
 800176c:	4a66      	ldr	r2, [pc, #408]	@ (8001908 <HAL_RCCEx_PeriphCLKConfig+0x354>)
 800176e:	4013      	ands	r3, r2
 8001770:	0019      	movs	r1, r3
 8001772:	687b      	ldr	r3, [r7, #4]
 8001774:	68da      	ldr	r2, [r3, #12]
 8001776:	4b5e      	ldr	r3, [pc, #376]	@ (80018f0 <HAL_RCCEx_PeriphCLKConfig+0x33c>)
 8001778:	430a      	orrs	r2, r1
 800177a:	655a      	str	r2, [r3, #84]	@ 0x54
  }
#endif /* LPUART2 */

#if defined(RCC_CCIPR_LPTIM1SEL)
  /*-------------------------- LPTIM1 clock source configuration -------------------*/
  if (((PeriphClkInit->PeriphClockSelection) & RCC_PERIPHCLK_LPTIM1) == (RCC_PERIPHCLK_LPTIM1))
 800177c:	687b      	ldr	r3, [r7, #4]
 800177e:	681a      	ldr	r2, [r3, #0]
 8001780:	2380      	movs	r3, #128	@ 0x80
 8001782:	009b      	lsls	r3, r3, #2
 8001784:	4013      	ands	r3, r2
 8001786:	d009      	beq.n	800179c <HAL_RCCEx_PeriphCLKConfig+0x1e8>
  {
    assert_param(IS_RCC_LPTIM1CLKSOURCE(PeriphClkInit->Lptim1ClockSelection));
    __HAL_RCC_LPTIM1_CONFIG(PeriphClkInit->Lptim1ClockSelection);
 8001788:	4b59      	ldr	r3, [pc, #356]	@ (80018f0 <HAL_RCCEx_PeriphCLKConfig+0x33c>)
 800178a:	6d5b      	ldr	r3, [r3, #84]	@ 0x54
 800178c:	4a5f      	ldr	r2, [pc, #380]	@ (800190c <HAL_RCCEx_PeriphCLKConfig+0x358>)
 800178e:	4013      	ands	r3, r2
 8001790:	0019      	movs	r1, r3
 8001792:	687b      	ldr	r3, [r7, #4]
 8001794:	699a      	ldr	r2, [r3, #24]
 8001796:	4b56      	ldr	r3, [pc, #344]	@ (80018f0 <HAL_RCCEx_PeriphCLKConfig+0x33c>)
 8001798:	430a      	orrs	r2, r1
 800179a:	655a      	str	r2, [r3, #84]	@ 0x54
  }
#endif /* RCC_CCIPR_LPTIM1SEL */

#if defined(RCC_CCIPR_LPTIM2SEL)
  /*-------------------------- LPTIM2 clock source configuration -------------------*/
  if (((PeriphClkInit->PeriphClockSelection) & RCC_PERIPHCLK_LPTIM2) == (RCC_PERIPHCLK_LPTIM2))
 800179c:	687b      	ldr	r3, [r7, #4]
 800179e:	681a      	ldr	r2, [r3, #0]
 80017a0:	2380      	movs	r3, #128	@ 0x80
 80017a2:	00db      	lsls	r3, r3, #3
 80017a4:	4013      	ands	r3, r2
 80017a6:	d009      	beq.n	80017bc <HAL_RCCEx_PeriphCLKConfig+0x208>
  {
    assert_param(IS_RCC_LPTIM2CLKSOURCE(PeriphClkInit->Lptim2ClockSelection));
    __HAL_RCC_LPTIM2_CONFIG(PeriphClkInit->Lptim2ClockSelection);
 80017a8:	4b51      	ldr	r3, [pc, #324]	@ (80018f0 <HAL_RCCEx_PeriphCLKConfig+0x33c>)
 80017aa:	6d5b      	ldr	r3, [r3, #84]	@ 0x54
 80017ac:	4a58      	ldr	r2, [pc, #352]	@ (8001910 <HAL_RCCEx_PeriphCLKConfig+0x35c>)
 80017ae:	4013      	ands	r3, r2
 80017b0:	0019      	movs	r1, r3
 80017b2:	687b      	ldr	r3, [r7, #4]
 80017b4:	69da      	ldr	r2, [r3, #28]
 80017b6:	4b4e      	ldr	r3, [pc, #312]	@ (80018f0 <HAL_RCCEx_PeriphCLKConfig+0x33c>)
 80017b8:	430a      	orrs	r2, r1
 80017ba:	655a      	str	r2, [r3, #84]	@ 0x54
  }
#endif /* RCC_CCIPR_LPTIM2SEL */

  /*-------------------------- I2C1 clock source configuration ---------------------*/
  if (((PeriphClkInit->PeriphClockSelection) & RCC_PERIPHCLK_I2C1) == RCC_PERIPHCLK_I2C1)
 80017bc:	687b      	ldr	r3, [r7, #4]
 80017be:	681b      	ldr	r3, [r3, #0]
 80017c0:	2220      	movs	r2, #32
 80017c2:	4013      	ands	r3, r2
 80017c4:	d009      	beq.n	80017da <HAL_RCCEx_PeriphCLKConfig+0x226>
  {
    /* Check the parameters */
    assert_param(IS_RCC_I2C1CLKSOURCE(PeriphClkInit->I2c1ClockSelection));

    /* Configure the I2C1 clock source */
    __HAL_RCC_I2C1_CONFIG(PeriphClkInit->I2c1ClockSelection);
 80017c6:	4b4a      	ldr	r3, [pc, #296]	@ (80018f0 <HAL_RCCEx_PeriphCLKConfig+0x33c>)
 80017c8:	6d5b      	ldr	r3, [r3, #84]	@ 0x54
 80017ca:	4a52      	ldr	r2, [pc, #328]	@ (8001914 <HAL_RCCEx_PeriphCLKConfig+0x360>)
 80017cc:	4013      	ands	r3, r2
 80017ce:	0019      	movs	r1, r3
 80017d0:	687b      	ldr	r3, [r7, #4]
 80017d2:	691a      	ldr	r2, [r3, #16]
 80017d4:	4b46      	ldr	r3, [pc, #280]	@ (80018f0 <HAL_RCCEx_PeriphCLKConfig+0x33c>)
 80017d6:	430a      	orrs	r2, r1
 80017d8:	655a      	str	r2, [r3, #84]	@ 0x54
      __HAL_RCC_PLLCLKOUT_ENABLE(RCC_PLLQCLK);
    }
  }
#endif /* RNG */
  /*-------------------------- ADC clock source configuration ----------------------*/
  if (((PeriphClkInit->PeriphClockSelection) & RCC_PERIPHCLK_ADC) == RCC_PERIPHCLK_ADC)
 80017da:	687b      	ldr	r3, [r7, #4]
 80017dc:	681a      	ldr	r2, [r3, #0]
 80017de:	2380      	movs	r3, #128	@ 0x80
 80017e0:	01db      	lsls	r3, r3, #7
 80017e2:	4013      	ands	r3, r2
 80017e4:	d015      	beq.n	8001812 <HAL_RCCEx_PeriphCLKConfig+0x25e>
  {
    /* Check the parameters */
    assert_param(IS_RCC_ADCCLKSOURCE(PeriphClkInit->AdcClockSelection));

    /* Configure the ADC interface clock source */
    __HAL_RCC_ADC_CONFIG(PeriphClkInit->AdcClockSelection);
 80017e6:	4b42      	ldr	r3, [pc, #264]	@ (80018f0 <HAL_RCCEx_PeriphCLKConfig+0x33c>)
 80017e8:	6d5b      	ldr	r3, [r3, #84]	@ 0x54
 80017ea:	009b      	lsls	r3, r3, #2
 80017ec:	0899      	lsrs	r1, r3, #2
 80017ee:	687b      	ldr	r3, [r7, #4]
 80017f0:	6a1a      	ldr	r2, [r3, #32]
 80017f2:	4b3f      	ldr	r3, [pc, #252]	@ (80018f0 <HAL_RCCEx_PeriphCLKConfig+0x33c>)
 80017f4:	430a      	orrs	r2, r1
 80017f6:	655a      	str	r2, [r3, #84]	@ 0x54

    if (PeriphClkInit->AdcClockSelection == RCC_ADCCLKSOURCE_PLLADC)
 80017f8:	687b      	ldr	r3, [r7, #4]
 80017fa:	6a1a      	ldr	r2, [r3, #32]
 80017fc:	2380      	movs	r3, #128	@ 0x80
 80017fe:	05db      	lsls	r3, r3, #23
 8001800:	429a      	cmp	r2, r3
 8001802:	d106      	bne.n	8001812 <HAL_RCCEx_PeriphCLKConfig+0x25e>
    {
      /* Enable PLLPCLK output */
      __HAL_RCC_PLLCLKOUT_ENABLE(RCC_PLLPCLK);
 8001804:	4b3a      	ldr	r3, [pc, #232]	@ (80018f0 <HAL_RCCEx_PeriphCLKConfig+0x33c>)
 8001806:	68da      	ldr	r2, [r3, #12]
 8001808:	4b39      	ldr	r3, [pc, #228]	@ (80018f0 <HAL_RCCEx_PeriphCLKConfig+0x33c>)
 800180a:	2180      	movs	r1, #128	@ 0x80
 800180c:	0249      	lsls	r1, r1, #9
 800180e:	430a      	orrs	r2, r1
 8001810:	60da      	str	r2, [r3, #12]
    }
  }

#if defined(CEC)
  /*-------------------------- CEC clock source configuration ---------------------*/
  if (((PeriphClkInit->PeriphClockSelection) & RCC_PERIPHCLK_CEC) == RCC_PERIPHCLK_CEC)
 8001812:	687b      	ldr	r3, [r7, #4]
 8001814:	681a      	ldr	r2, [r3, #0]
 8001816:	2380      	movs	r3, #128	@ 0x80
 8001818:	031b      	lsls	r3, r3, #12
 800181a:	4013      	ands	r3, r2
 800181c:	d009      	beq.n	8001832 <HAL_RCCEx_PeriphCLKConfig+0x27e>
  {
    /* Check the parameters */
    assert_param(IS_RCC_CECCLKSOURCE(PeriphClkInit->CecClockSelection));

    /* Configure the CEC clock source */
    __HAL_RCC_CEC_CONFIG(PeriphClkInit->CecClockSelection);
 800181e:	4b34      	ldr	r3, [pc, #208]	@ (80018f0 <HAL_RCCEx_PeriphCLKConfig+0x33c>)
 8001820:	6d5b      	ldr	r3, [r3, #84]	@ 0x54
 8001822:	2240      	movs	r2, #64	@ 0x40
 8001824:	4393      	bics	r3, r2
 8001826:	0019      	movs	r1, r3
 8001828:	687b      	ldr	r3, [r7, #4]
 800182a:	6a5a      	ldr	r2, [r3, #36]	@ 0x24
 800182c:	4b30      	ldr	r3, [pc, #192]	@ (80018f0 <HAL_RCCEx_PeriphCLKConfig+0x33c>)
 800182e:	430a      	orrs	r2, r1
 8001830:	655a      	str	r2, [r3, #84]	@ 0x54
  }
#endif /* CEC */

#if defined(RCC_CCIPR_TIM1SEL)
  /*-------------------------- TIM1 clock source configuration ---------------------*/
  if (((PeriphClkInit->PeriphClockSelection) & RCC_PERIPHCLK_TIM1) == RCC_PERIPHCLK_TIM1)
 8001832:	687b      	ldr	r3, [r7, #4]
 8001834:	681a      	ldr	r2, [r3, #0]
 8001836:	2380      	movs	r3, #128	@ 0x80
 8001838:	039b      	lsls	r3, r3, #14
 800183a:	4013      	ands	r3, r2
 800183c:	d016      	beq.n	800186c <HAL_RCCEx_PeriphCLKConfig+0x2b8>
  {
    /* Check the parameters */
    assert_param(IS_RCC_TIM1CLKSOURCE(PeriphClkInit->Tim1ClockSelection));

    /* Configure the TIM1 clock source */
    __HAL_RCC_TIM1_CONFIG(PeriphClkInit->Tim1ClockSelection);
 800183e:	4b2c      	ldr	r3, [pc, #176]	@ (80018f0 <HAL_RCCEx_PeriphCLKConfig+0x33c>)
 8001840:	6d5b      	ldr	r3, [r3, #84]	@ 0x54
 8001842:	4a35      	ldr	r2, [pc, #212]	@ (8001918 <HAL_RCCEx_PeriphCLKConfig+0x364>)
 8001844:	4013      	ands	r3, r2
 8001846:	0019      	movs	r1, r3
 8001848:	687b      	ldr	r3, [r7, #4]
 800184a:	6a9a      	ldr	r2, [r3, #40]	@ 0x28
 800184c:	4b28      	ldr	r3, [pc, #160]	@ (80018f0 <HAL_RCCEx_PeriphCLKConfig+0x33c>)
 800184e:	430a      	orrs	r2, r1
 8001850:	655a      	str	r2, [r3, #84]	@ 0x54

    if (PeriphClkInit->Tim1ClockSelection == RCC_TIM1CLKSOURCE_PLL)
 8001852:	687b      	ldr	r3, [r7, #4]
 8001854:	6a9a      	ldr	r2, [r3, #40]	@ 0x28
 8001856:	2380      	movs	r3, #128	@ 0x80
 8001858:	03db      	lsls	r3, r3, #15
 800185a:	429a      	cmp	r2, r3
 800185c:	d106      	bne.n	800186c <HAL_RCCEx_PeriphCLKConfig+0x2b8>
    {
      /* Enable PLLQCLK output */
      __HAL_RCC_PLLCLKOUT_ENABLE(RCC_PLLQCLK);
 800185e:	4b24      	ldr	r3, [pc, #144]	@ (80018f0 <HAL_RCCEx_PeriphCLKConfig+0x33c>)
 8001860:	68da      	ldr	r2, [r3, #12]
 8001862:	4b23      	ldr	r3, [pc, #140]	@ (80018f0 <HAL_RCCEx_PeriphCLKConfig+0x33c>)
 8001864:	2180      	movs	r1, #128	@ 0x80
 8001866:	0449      	lsls	r1, r1, #17
 8001868:	430a      	orrs	r2, r1
 800186a:	60da      	str	r2, [r3, #12]
  }
#endif /* RCC_CCIPR_TIM1SEL */

#if defined(RCC_CCIPR_TIM15SEL)
  /*-------------------------- TIM15 clock source configuration ---------------------*/
  if (((PeriphClkInit->PeriphClockSelection) & RCC_PERIPHCLK_TIM15) == RCC_PERIPHCLK_TIM15)
 800186c:	687b      	ldr	r3, [r7, #4]
 800186e:	681a      	ldr	r2, [r3, #0]
 8001870:	2380      	movs	r3, #128	@ 0x80
 8001872:	03db      	lsls	r3, r3, #15
 8001874:	4013      	ands	r3, r2
 8001876:	d016      	beq.n	80018a6 <HAL_RCCEx_PeriphCLKConfig+0x2f2>
  {
    /* Check the parameters */
    assert_param(IS_RCC_TIM15CLKSOURCE(PeriphClkInit->Tim15ClockSelection));

    /* Configure the TIM15 clock source */
    __HAL_RCC_TIM15_CONFIG(PeriphClkInit->Tim15ClockSelection);
 8001878:	4b1d      	ldr	r3, [pc, #116]	@ (80018f0 <HAL_RCCEx_PeriphCLKConfig+0x33c>)
 800187a:	6d5b      	ldr	r3, [r3, #84]	@ 0x54
 800187c:	4a27      	ldr	r2, [pc, #156]	@ (800191c <HAL_RCCEx_PeriphCLKConfig+0x368>)
 800187e:	4013      	ands	r3, r2
 8001880:	0019      	movs	r1, r3
 8001882:	687b      	ldr	r3, [r7, #4]
 8001884:	6ada      	ldr	r2, [r3, #44]	@ 0x2c
 8001886:	4b1a      	ldr	r3, [pc, #104]	@ (80018f0 <HAL_RCCEx_PeriphCLKConfig+0x33c>)
 8001888:	430a      	orrs	r2, r1
 800188a:	655a      	str	r2, [r3, #84]	@ 0x54

    if (PeriphClkInit->Tim15ClockSelection == RCC_TIM15CLKSOURCE_PLL)
 800188c:	687b      	ldr	r3, [r7, #4]
 800188e:	6ada      	ldr	r2, [r3, #44]	@ 0x2c
 8001890:	2380      	movs	r3, #128	@ 0x80
 8001892:	045b      	lsls	r3, r3, #17
 8001894:	429a      	cmp	r2, r3
 8001896:	d106      	bne.n	80018a6 <HAL_RCCEx_PeriphCLKConfig+0x2f2>
    {
      /* Enable PLLQCLK output */
      __HAL_RCC_PLLCLKOUT_ENABLE(RCC_PLLQCLK);
 8001898:	4b15      	ldr	r3, [pc, #84]	@ (80018f0 <HAL_RCCEx_PeriphCLKConfig+0x33c>)
 800189a:	68da      	ldr	r2, [r3, #12]
 800189c:	4b14      	ldr	r3, [pc, #80]	@ (80018f0 <HAL_RCCEx_PeriphCLKConfig+0x33c>)
 800189e:	2180      	movs	r1, #128	@ 0x80
 80018a0:	0449      	lsls	r1, r1, #17
 80018a2:	430a      	orrs	r2, r1
 80018a4:	60da      	str	r2, [r3, #12]
    }
  }
#endif /* RCC_CCIPR_TIM15SEL */

  /*-------------------------- I2S1 clock source configuration ---------------------*/
  if (((PeriphClkInit->PeriphClockSelection) & RCC_PERIPHCLK_I2S1) == RCC_PERIPHCLK_I2S1)
 80018a6:	687b      	ldr	r3, [r7, #4]
 80018a8:	681a      	ldr	r2, [r3, #0]
 80018aa:	2380      	movs	r3, #128	@ 0x80
 80018ac:	011b      	lsls	r3, r3, #4
 80018ae:	4013      	ands	r3, r2
 80018b0:	d016      	beq.n	80018e0 <HAL_RCCEx_PeriphCLKConfig+0x32c>
  {
    /* Check the parameters */
    assert_param(IS_RCC_I2S1CLKSOURCE(PeriphClkInit->I2s1ClockSelection));

    /* Configure the I2S1 clock source */
    __HAL_RCC_I2S1_CONFIG(PeriphClkInit->I2s1ClockSelection);
 80018b2:	4b0f      	ldr	r3, [pc, #60]	@ (80018f0 <HAL_RCCEx_PeriphCLKConfig+0x33c>)
 80018b4:	6d5b      	ldr	r3, [r3, #84]	@ 0x54
 80018b6:	4a1a      	ldr	r2, [pc, #104]	@ (8001920 <HAL_RCCEx_PeriphCLKConfig+0x36c>)
 80018b8:	4013      	ands	r3, r2
 80018ba:	0019      	movs	r1, r3
 80018bc:	687b      	ldr	r3, [r7, #4]
 80018be:	695a      	ldr	r2, [r3, #20]
 80018c0:	4b0b      	ldr	r3, [pc, #44]	@ (80018f0 <HAL_RCCEx_PeriphCLKConfig+0x33c>)
 80018c2:	430a      	orrs	r2, r1
 80018c4:	655a      	str	r2, [r3, #84]	@ 0x54

    if (PeriphClkInit->I2s1ClockSelection == RCC_I2S1CLKSOURCE_PLL)
 80018c6:	687b      	ldr	r3, [r7, #4]
 80018c8:	695a      	ldr	r2, [r3, #20]
 80018ca:	2380      	movs	r3, #128	@ 0x80
 80018cc:	01db      	lsls	r3, r3, #7
 80018ce:	429a      	cmp	r2, r3
 80018d0:	d106      	bne.n	80018e0 <HAL_RCCEx_PeriphCLKConfig+0x32c>
    {
      /* Enable PLLPCLK output */
      __HAL_RCC_PLLCLKOUT_ENABLE(RCC_PLLPCLK);
 80018d2:	4b07      	ldr	r3, [pc, #28]	@ (80018f0 <HAL_RCCEx_PeriphCLKConfig+0x33c>)
 80018d4:	68da      	ldr	r2, [r3, #12]
 80018d6:	4b06      	ldr	r3, [pc, #24]	@ (80018f0 <HAL_RCCEx_PeriphCLKConfig+0x33c>)
 80018d8:	2180      	movs	r1, #128	@ 0x80
 80018da:	0249      	lsls	r1, r1, #9
 80018dc:	430a      	orrs	r2, r1
 80018de:	60da      	str	r2, [r3, #12]
      __HAL_RCC_PLLCLKOUT_ENABLE(RCC_PLLQCLK);
    }
  }
#endif /* FDCAN1 || FDCAN2 */

  return status;
 80018e0:	2312      	movs	r3, #18
 80018e2:	18fb      	adds	r3, r7, r3
 80018e4:	781b      	ldrb	r3, [r3, #0]
}
 80018e6:	0018      	movs	r0, r3
 80018e8:	46bd      	mov	sp, r7
 80018ea:	b006      	add	sp, #24
 80018ec:	bd80      	pop	{r7, pc}
 80018ee:	46c0      	nop			@ (mov r8, r8)
 80018f0:	40021000 	.word	0x40021000
 80018f4:	40007000 	.word	0x40007000
 80018f8:	fffffcff 	.word	0xfffffcff
 80018fc:	fffeffff 	.word	0xfffeffff
 8001900:	00001388 	.word	0x00001388
 8001904:	efffffff 	.word	0xefffffff
 8001908:	fffff3ff 	.word	0xfffff3ff
 800190c:	fff3ffff 	.word	0xfff3ffff
 8001910:	ffcfffff 	.word	0xffcfffff
 8001914:	ffffcfff 	.word	0xffffcfff
 8001918:	ffbfffff 	.word	0xffbfffff
 800191c:	feffffff 	.word	0xfeffffff
 8001920:	ffff3fff 	.word	0xffff3fff

08001924 <HAL_UART_Init>:
  *        parameters in the UART_InitTypeDef and initialize the associated handle.
  * @param huart UART handle.
  * @retval HAL status
  */
HAL_StatusTypeDef HAL_UART_Init(UART_HandleTypeDef *huart)
{
 8001924:	b580      	push	{r7, lr}
 8001926:	b082      	sub	sp, #8
 8001928:	af00      	add	r7, sp, #0
 800192a:	6078      	str	r0, [r7, #4]
  /* Check the UART handle allocation */
  if (huart == NULL)
 800192c:	687b      	ldr	r3, [r7, #4]
 800192e:	2b00      	cmp	r3, #0
 8001930:	d101      	bne.n	8001936 <HAL_UART_Init+0x12>
  {
    return HAL_ERROR;
 8001932:	2301      	movs	r3, #1
 8001934:	e046      	b.n	80019c4 <HAL_UART_Init+0xa0>
  {
    /* Check the parameters */
    assert_param((IS_UART_INSTANCE(huart->Instance)) || (IS_LPUART_INSTANCE(huart->Instance)));
  }

  if (huart->gState == HAL_UART_STATE_RESET)
 8001936:	687b      	ldr	r3, [r7, #4]
 8001938:	2288      	movs	r2, #136	@ 0x88
 800193a:	589b      	ldr	r3, [r3, r2]
 800193c:	2b00      	cmp	r3, #0
 800193e:	d107      	bne.n	8001950 <HAL_UART_Init+0x2c>
  {
    /* Allocate lock resource and initialize it */
    huart->Lock = HAL_UNLOCKED;
 8001940:	687b      	ldr	r3, [r7, #4]
 8001942:	2284      	movs	r2, #132	@ 0x84
 8001944:	2100      	movs	r1, #0
 8001946:	5499      	strb	r1, [r3, r2]

    /* Init the low level hardware */
    huart->MspInitCallback(huart);
#else
    /* Init the low level hardware : GPIO, CLOCK */
    HAL_UART_MspInit(huart);
 8001948:	687b      	ldr	r3, [r7, #4]
 800194a:	0018      	movs	r0, r3
 800194c:	f000 ffdc 	bl	8002908 <HAL_UART_MspInit>
#endif /* (USE_HAL_UART_REGISTER_CALLBACKS) */
  }

  huart->gState = HAL_UART_STATE_BUSY;
 8001950:	687b      	ldr	r3, [r7, #4]
 8001952:	2288      	movs	r2, #136	@ 0x88
 8001954:	2124      	movs	r1, #36	@ 0x24
 8001956:	5099      	str	r1, [r3, r2]

  __HAL_UART_DISABLE(huart);
 8001958:	687b      	ldr	r3, [r7, #4]
 800195a:	681b      	ldr	r3, [r3, #0]
 800195c:	681a      	ldr	r2, [r3, #0]
 800195e:	687b      	ldr	r3, [r7, #4]
 8001960:	681b      	ldr	r3, [r3, #0]
 8001962:	2101      	movs	r1, #1
 8001964:	438a      	bics	r2, r1
 8001966:	601a      	str	r2, [r3, #0]

  /* Perform advanced settings configuration */
  /* For some items, configuration requires to be done prior TE and RE bits are set */
  if (huart->AdvancedInit.AdvFeatureInit != UART_ADVFEATURE_NO_INIT)
 8001968:	687b      	ldr	r3, [r7, #4]
 800196a:	6a9b      	ldr	r3, [r3, #40]	@ 0x28
 800196c:	2b00      	cmp	r3, #0
 800196e:	d003      	beq.n	8001978 <HAL_UART_Init+0x54>
  {
    UART_AdvFeatureConfig(huart);
 8001970:	687b      	ldr	r3, [r7, #4]
 8001972:	0018      	movs	r0, r3
 8001974:	f000 faea 	bl	8001f4c <UART_AdvFeatureConfig>
  }

  /* Set the UART Communication parameters */
  if (UART_SetConfig(huart) == HAL_ERROR)
 8001978:	687b      	ldr	r3, [r7, #4]
 800197a:	0018      	movs	r0, r3
 800197c:	f000 f828 	bl	80019d0 <UART_SetConfig>
 8001980:	0003      	movs	r3, r0
 8001982:	2b01      	cmp	r3, #1
 8001984:	d101      	bne.n	800198a <HAL_UART_Init+0x66>
  {
    return HAL_ERROR;
 8001986:	2301      	movs	r3, #1
 8001988:	e01c      	b.n	80019c4 <HAL_UART_Init+0xa0>
  }

  /* In asynchronous mode, the following bits must be kept cleared:
  - LINEN and CLKEN bits in the USART_CR2 register,
  - SCEN, HDSEL and IREN  bits in the USART_CR3 register.*/
  CLEAR_BIT(huart->Instance->CR2, (USART_CR2_LINEN | USART_CR2_CLKEN));
 800198a:	687b      	ldr	r3, [r7, #4]
 800198c:	681b      	ldr	r3, [r3, #0]
 800198e:	685a      	ldr	r2, [r3, #4]
 8001990:	687b      	ldr	r3, [r7, #4]
 8001992:	681b      	ldr	r3, [r3, #0]
 8001994:	490d      	ldr	r1, [pc, #52]	@ (80019cc <HAL_UART_Init+0xa8>)
 8001996:	400a      	ands	r2, r1
 8001998:	605a      	str	r2, [r3, #4]
  CLEAR_BIT(huart->Instance->CR3, (USART_CR3_SCEN | USART_CR3_HDSEL | USART_CR3_IREN));
 800199a:	687b      	ldr	r3, [r7, #4]
 800199c:	681b      	ldr	r3, [r3, #0]
 800199e:	689a      	ldr	r2, [r3, #8]
 80019a0:	687b      	ldr	r3, [r7, #4]
 80019a2:	681b      	ldr	r3, [r3, #0]
 80019a4:	212a      	movs	r1, #42	@ 0x2a
 80019a6:	438a      	bics	r2, r1
 80019a8:	609a      	str	r2, [r3, #8]

  __HAL_UART_ENABLE(huart);
 80019aa:	687b      	ldr	r3, [r7, #4]
 80019ac:	681b      	ldr	r3, [r3, #0]
 80019ae:	681a      	ldr	r2, [r3, #0]
 80019b0:	687b      	ldr	r3, [r7, #4]
 80019b2:	681b      	ldr	r3, [r3, #0]
 80019b4:	2101      	movs	r1, #1
 80019b6:	430a      	orrs	r2, r1
 80019b8:	601a      	str	r2, [r3, #0]

  /* TEACK and/or REACK to check before moving huart->gState and huart->RxState to Ready */
  return (UART_CheckIdleState(huart));
 80019ba:	687b      	ldr	r3, [r7, #4]
 80019bc:	0018      	movs	r0, r3
 80019be:	f000 fb79 	bl	80020b4 <UART_CheckIdleState>
 80019c2:	0003      	movs	r3, r0
}
 80019c4:	0018      	movs	r0, r3
 80019c6:	46bd      	mov	sp, r7
 80019c8:	b002      	add	sp, #8
 80019ca:	bd80      	pop	{r7, pc}
 80019cc:	ffffb7ff 	.word	0xffffb7ff

080019d0 <UART_SetConfig>:
  * @brief Configure the UART peripheral.
  * @param huart UART handle.
  * @retval HAL status
  */
HAL_StatusTypeDef UART_SetConfig(UART_HandleTypeDef *huart)
{
 80019d0:	b5b0      	push	{r4, r5, r7, lr}
 80019d2:	b090      	sub	sp, #64	@ 0x40
 80019d4:	af00      	add	r7, sp, #0
 80019d6:	6278      	str	r0, [r7, #36]	@ 0x24
  uint32_t tmpreg;
  uint16_t brrtemp;
  UART_ClockSourceTypeDef clocksource;
  uint32_t usartdiv;
  HAL_StatusTypeDef ret               = HAL_OK;
 80019d8:	231a      	movs	r3, #26
 80019da:	2220      	movs	r2, #32
 80019dc:	189b      	adds	r3, r3, r2
 80019de:	19db      	adds	r3, r3, r7
 80019e0:	2200      	movs	r2, #0
 80019e2:	701a      	strb	r2, [r3, #0]
  *  the UART Word Length, Parity, Mode and oversampling:
  *  set the M bits according to huart->Init.WordLength value
  *  set PCE and PS bits according to huart->Init.Parity value
  *  set TE and RE bits according to huart->Init.Mode value
  *  set OVER8 bit according to huart->Init.OverSampling value */
  tmpreg = (uint32_t)huart->Init.WordLength | huart->Init.Parity | huart->Init.Mode | huart->Init.OverSampling ;
 80019e4:	6a7b      	ldr	r3, [r7, #36]	@ 0x24
 80019e6:	689a      	ldr	r2, [r3, #8]
 80019e8:	6a7b      	ldr	r3, [r7, #36]	@ 0x24
 80019ea:	691b      	ldr	r3, [r3, #16]
 80019ec:	431a      	orrs	r2, r3
 80019ee:	6a7b      	ldr	r3, [r7, #36]	@ 0x24
 80019f0:	695b      	ldr	r3, [r3, #20]
 80019f2:	431a      	orrs	r2, r3
 80019f4:	6a7b      	ldr	r3, [r7, #36]	@ 0x24
 80019f6:	69db      	ldr	r3, [r3, #28]
 80019f8:	4313      	orrs	r3, r2
 80019fa:	63fb      	str	r3, [r7, #60]	@ 0x3c
  MODIFY_REG(huart->Instance->CR1, USART_CR1_FIELDS, tmpreg);
 80019fc:	6a7b      	ldr	r3, [r7, #36]	@ 0x24
 80019fe:	681b      	ldr	r3, [r3, #0]
 8001a00:	681b      	ldr	r3, [r3, #0]
 8001a02:	4aaf      	ldr	r2, [pc, #700]	@ (8001cc0 <UART_SetConfig+0x2f0>)
 8001a04:	4013      	ands	r3, r2
 8001a06:	0019      	movs	r1, r3
 8001a08:	6a7b      	ldr	r3, [r7, #36]	@ 0x24
 8001a0a:	681a      	ldr	r2, [r3, #0]
 8001a0c:	6bfb      	ldr	r3, [r7, #60]	@ 0x3c
 8001a0e:	430b      	orrs	r3, r1
 8001a10:	6013      	str	r3, [r2, #0]

  /*-------------------------- USART CR2 Configuration -----------------------*/
  /* Configure the UART Stop Bits: Set STOP[13:12] bits according
  * to huart->Init.StopBits value */
  MODIFY_REG(huart->Instance->CR2, USART_CR2_STOP, huart->Init.StopBits);
 8001a12:	6a7b      	ldr	r3, [r7, #36]	@ 0x24
 8001a14:	681b      	ldr	r3, [r3, #0]
 8001a16:	685b      	ldr	r3, [r3, #4]
 8001a18:	4aaa      	ldr	r2, [pc, #680]	@ (8001cc4 <UART_SetConfig+0x2f4>)
 8001a1a:	4013      	ands	r3, r2
 8001a1c:	0018      	movs	r0, r3
 8001a1e:	6a7b      	ldr	r3, [r7, #36]	@ 0x24
 8001a20:	68d9      	ldr	r1, [r3, #12]
 8001a22:	6a7b      	ldr	r3, [r7, #36]	@ 0x24
 8001a24:	681a      	ldr	r2, [r3, #0]
 8001a26:	0003      	movs	r3, r0
 8001a28:	430b      	orrs	r3, r1
 8001a2a:	6053      	str	r3, [r2, #4]
  /* Configure
  * - UART HardWare Flow Control: set CTSE and RTSE bits according
  *   to huart->Init.HwFlowCtl value
  * - one-bit sampling method versus three samples' majority rule according
  *   to huart->Init.OneBitSampling (not applicable to LPUART) */
  tmpreg = (uint32_t)huart->Init.HwFlowCtl;
 8001a2c:	6a7b      	ldr	r3, [r7, #36]	@ 0x24
 8001a2e:	699b      	ldr	r3, [r3, #24]
 8001a30:	63fb      	str	r3, [r7, #60]	@ 0x3c

  if (!(UART_INSTANCE_LOWPOWER(huart)))
 8001a32:	6a7b      	ldr	r3, [r7, #36]	@ 0x24
 8001a34:	681b      	ldr	r3, [r3, #0]
 8001a36:	4aa4      	ldr	r2, [pc, #656]	@ (8001cc8 <UART_SetConfig+0x2f8>)
 8001a38:	4293      	cmp	r3, r2
 8001a3a:	d004      	beq.n	8001a46 <UART_SetConfig+0x76>
  {
    tmpreg |= huart->Init.OneBitSampling;
 8001a3c:	6a7b      	ldr	r3, [r7, #36]	@ 0x24
 8001a3e:	6a1b      	ldr	r3, [r3, #32]
 8001a40:	6bfa      	ldr	r2, [r7, #60]	@ 0x3c
 8001a42:	4313      	orrs	r3, r2
 8001a44:	63fb      	str	r3, [r7, #60]	@ 0x3c
  }
  MODIFY_REG(huart->Instance->CR3, USART_CR3_FIELDS, tmpreg);
 8001a46:	6a7b      	ldr	r3, [r7, #36]	@ 0x24
 8001a48:	681b      	ldr	r3, [r3, #0]
 8001a4a:	689b      	ldr	r3, [r3, #8]
 8001a4c:	4a9f      	ldr	r2, [pc, #636]	@ (8001ccc <UART_SetConfig+0x2fc>)
 8001a4e:	4013      	ands	r3, r2
 8001a50:	0019      	movs	r1, r3
 8001a52:	6a7b      	ldr	r3, [r7, #36]	@ 0x24
 8001a54:	681a      	ldr	r2, [r3, #0]
 8001a56:	6bfb      	ldr	r3, [r7, #60]	@ 0x3c
 8001a58:	430b      	orrs	r3, r1
 8001a5a:	6093      	str	r3, [r2, #8]

  /*-------------------------- USART PRESC Configuration -----------------------*/
  /* Configure
  * - UART Clock Prescaler : set PRESCALER according to huart->Init.ClockPrescaler value */
  MODIFY_REG(huart->Instance->PRESC, USART_PRESC_PRESCALER, huart->Init.ClockPrescaler);
 8001a5c:	6a7b      	ldr	r3, [r7, #36]	@ 0x24
 8001a5e:	681b      	ldr	r3, [r3, #0]
 8001a60:	6adb      	ldr	r3, [r3, #44]	@ 0x2c
 8001a62:	220f      	movs	r2, #15
 8001a64:	4393      	bics	r3, r2
 8001a66:	0018      	movs	r0, r3
 8001a68:	6a7b      	ldr	r3, [r7, #36]	@ 0x24
 8001a6a:	6a59      	ldr	r1, [r3, #36]	@ 0x24
 8001a6c:	6a7b      	ldr	r3, [r7, #36]	@ 0x24
 8001a6e:	681a      	ldr	r2, [r3, #0]
 8001a70:	0003      	movs	r3, r0
 8001a72:	430b      	orrs	r3, r1
 8001a74:	62d3      	str	r3, [r2, #44]	@ 0x2c

  /*-------------------------- USART BRR Configuration -----------------------*/
  UART_GETCLOCKSOURCE(huart, clocksource);
 8001a76:	6a7b      	ldr	r3, [r7, #36]	@ 0x24
 8001a78:	681b      	ldr	r3, [r3, #0]
 8001a7a:	4a95      	ldr	r2, [pc, #596]	@ (8001cd0 <UART_SetConfig+0x300>)
 8001a7c:	4293      	cmp	r3, r2
 8001a7e:	d131      	bne.n	8001ae4 <UART_SetConfig+0x114>
 8001a80:	4b94      	ldr	r3, [pc, #592]	@ (8001cd4 <UART_SetConfig+0x304>)
 8001a82:	6d5b      	ldr	r3, [r3, #84]	@ 0x54
 8001a84:	2203      	movs	r2, #3
 8001a86:	4013      	ands	r3, r2
 8001a88:	2b03      	cmp	r3, #3
 8001a8a:	d01d      	beq.n	8001ac8 <UART_SetConfig+0xf8>
 8001a8c:	d823      	bhi.n	8001ad6 <UART_SetConfig+0x106>
 8001a8e:	2b02      	cmp	r3, #2
 8001a90:	d00c      	beq.n	8001aac <UART_SetConfig+0xdc>
 8001a92:	d820      	bhi.n	8001ad6 <UART_SetConfig+0x106>
 8001a94:	2b00      	cmp	r3, #0
 8001a96:	d002      	beq.n	8001a9e <UART_SetConfig+0xce>
 8001a98:	2b01      	cmp	r3, #1
 8001a9a:	d00e      	beq.n	8001aba <UART_SetConfig+0xea>
 8001a9c:	e01b      	b.n	8001ad6 <UART_SetConfig+0x106>
 8001a9e:	231b      	movs	r3, #27
 8001aa0:	2220      	movs	r2, #32
 8001aa2:	189b      	adds	r3, r3, r2
 8001aa4:	19db      	adds	r3, r3, r7
 8001aa6:	2200      	movs	r2, #0
 8001aa8:	701a      	strb	r2, [r3, #0]
 8001aaa:	e0b4      	b.n	8001c16 <UART_SetConfig+0x246>
 8001aac:	231b      	movs	r3, #27
 8001aae:	2220      	movs	r2, #32
 8001ab0:	189b      	adds	r3, r3, r2
 8001ab2:	19db      	adds	r3, r3, r7
 8001ab4:	2202      	movs	r2, #2
 8001ab6:	701a      	strb	r2, [r3, #0]
 8001ab8:	e0ad      	b.n	8001c16 <UART_SetConfig+0x246>
 8001aba:	231b      	movs	r3, #27
 8001abc:	2220      	movs	r2, #32
 8001abe:	189b      	adds	r3, r3, r2
 8001ac0:	19db      	adds	r3, r3, r7
 8001ac2:	2204      	movs	r2, #4
 8001ac4:	701a      	strb	r2, [r3, #0]
 8001ac6:	e0a6      	b.n	8001c16 <UART_SetConfig+0x246>
 8001ac8:	231b      	movs	r3, #27
 8001aca:	2220      	movs	r2, #32
 8001acc:	189b      	adds	r3, r3, r2
 8001ace:	19db      	adds	r3, r3, r7
 8001ad0:	2208      	movs	r2, #8
 8001ad2:	701a      	strb	r2, [r3, #0]
 8001ad4:	e09f      	b.n	8001c16 <UART_SetConfig+0x246>
 8001ad6:	231b      	movs	r3, #27
 8001ad8:	2220      	movs	r2, #32
 8001ada:	189b      	adds	r3, r3, r2
 8001adc:	19db      	adds	r3, r3, r7
 8001ade:	2210      	movs	r2, #16
 8001ae0:	701a      	strb	r2, [r3, #0]
 8001ae2:	e098      	b.n	8001c16 <UART_SetConfig+0x246>
 8001ae4:	6a7b      	ldr	r3, [r7, #36]	@ 0x24
 8001ae6:	681b      	ldr	r3, [r3, #0]
 8001ae8:	4a7b      	ldr	r2, [pc, #492]	@ (8001cd8 <UART_SetConfig+0x308>)
 8001aea:	4293      	cmp	r3, r2
 8001aec:	d131      	bne.n	8001b52 <UART_SetConfig+0x182>
 8001aee:	4b79      	ldr	r3, [pc, #484]	@ (8001cd4 <UART_SetConfig+0x304>)
 8001af0:	6d5b      	ldr	r3, [r3, #84]	@ 0x54
 8001af2:	220c      	movs	r2, #12
 8001af4:	4013      	ands	r3, r2
 8001af6:	2b0c      	cmp	r3, #12
 8001af8:	d01d      	beq.n	8001b36 <UART_SetConfig+0x166>
 8001afa:	d823      	bhi.n	8001b44 <UART_SetConfig+0x174>
 8001afc:	2b08      	cmp	r3, #8
 8001afe:	d00c      	beq.n	8001b1a <UART_SetConfig+0x14a>
 8001b00:	d820      	bhi.n	8001b44 <UART_SetConfig+0x174>
 8001b02:	2b00      	cmp	r3, #0
 8001b04:	d002      	beq.n	8001b0c <UART_SetConfig+0x13c>
 8001b06:	2b04      	cmp	r3, #4
 8001b08:	d00e      	beq.n	8001b28 <UART_SetConfig+0x158>
 8001b0a:	e01b      	b.n	8001b44 <UART_SetConfig+0x174>
 8001b0c:	231b      	movs	r3, #27
 8001b0e:	2220      	movs	r2, #32
 8001b10:	189b      	adds	r3, r3, r2
 8001b12:	19db      	adds	r3, r3, r7
 8001b14:	2200      	movs	r2, #0
 8001b16:	701a      	strb	r2, [r3, #0]
 8001b18:	e07d      	b.n	8001c16 <UART_SetConfig+0x246>
 8001b1a:	231b      	movs	r3, #27
 8001b1c:	2220      	movs	r2, #32
 8001b1e:	189b      	adds	r3, r3, r2
 8001b20:	19db      	adds	r3, r3, r7
 8001b22:	2202      	movs	r2, #2
 8001b24:	701a      	strb	r2, [r3, #0]
 8001b26:	e076      	b.n	8001c16 <UART_SetConfig+0x246>
 8001b28:	231b      	movs	r3, #27
 8001b2a:	2220      	movs	r2, #32
 8001b2c:	189b      	adds	r3, r3, r2
 8001b2e:	19db      	adds	r3, r3, r7
 8001b30:	2204      	movs	r2, #4
 8001b32:	701a      	strb	r2, [r3, #0]
 8001b34:	e06f      	b.n	8001c16 <UART_SetConfig+0x246>
 8001b36:	231b      	movs	r3, #27
 8001b38:	2220      	movs	r2, #32
 8001b3a:	189b      	adds	r3, r3, r2
 8001b3c:	19db      	adds	r3, r3, r7
 8001b3e:	2208      	movs	r2, #8
 8001b40:	701a      	strb	r2, [r3, #0]
 8001b42:	e068      	b.n	8001c16 <UART_SetConfig+0x246>
 8001b44:	231b      	movs	r3, #27
 8001b46:	2220      	movs	r2, #32
 8001b48:	189b      	adds	r3, r3, r2
 8001b4a:	19db      	adds	r3, r3, r7
 8001b4c:	2210      	movs	r2, #16
 8001b4e:	701a      	strb	r2, [r3, #0]
 8001b50:	e061      	b.n	8001c16 <UART_SetConfig+0x246>
 8001b52:	6a7b      	ldr	r3, [r7, #36]	@ 0x24
 8001b54:	681b      	ldr	r3, [r3, #0]
 8001b56:	4a61      	ldr	r2, [pc, #388]	@ (8001cdc <UART_SetConfig+0x30c>)
 8001b58:	4293      	cmp	r3, r2
 8001b5a:	d106      	bne.n	8001b6a <UART_SetConfig+0x19a>
 8001b5c:	231b      	movs	r3, #27
 8001b5e:	2220      	movs	r2, #32
 8001b60:	189b      	adds	r3, r3, r2
 8001b62:	19db      	adds	r3, r3, r7
 8001b64:	2200      	movs	r2, #0
 8001b66:	701a      	strb	r2, [r3, #0]
 8001b68:	e055      	b.n	8001c16 <UART_SetConfig+0x246>
 8001b6a:	6a7b      	ldr	r3, [r7, #36]	@ 0x24
 8001b6c:	681b      	ldr	r3, [r3, #0]
 8001b6e:	4a5c      	ldr	r2, [pc, #368]	@ (8001ce0 <UART_SetConfig+0x310>)
 8001b70:	4293      	cmp	r3, r2
 8001b72:	d106      	bne.n	8001b82 <UART_SetConfig+0x1b2>
 8001b74:	231b      	movs	r3, #27
 8001b76:	2220      	movs	r2, #32
 8001b78:	189b      	adds	r3, r3, r2
 8001b7a:	19db      	adds	r3, r3, r7
 8001b7c:	2200      	movs	r2, #0
 8001b7e:	701a      	strb	r2, [r3, #0]
 8001b80:	e049      	b.n	8001c16 <UART_SetConfig+0x246>
 8001b82:	6a7b      	ldr	r3, [r7, #36]	@ 0x24
 8001b84:	681b      	ldr	r3, [r3, #0]
 8001b86:	4a50      	ldr	r2, [pc, #320]	@ (8001cc8 <UART_SetConfig+0x2f8>)
 8001b88:	4293      	cmp	r3, r2
 8001b8a:	d13e      	bne.n	8001c0a <UART_SetConfig+0x23a>
 8001b8c:	4b51      	ldr	r3, [pc, #324]	@ (8001cd4 <UART_SetConfig+0x304>)
 8001b8e:	6d5a      	ldr	r2, [r3, #84]	@ 0x54
 8001b90:	23c0      	movs	r3, #192	@ 0xc0
 8001b92:	011b      	lsls	r3, r3, #4
 8001b94:	4013      	ands	r3, r2
 8001b96:	22c0      	movs	r2, #192	@ 0xc0
 8001b98:	0112      	lsls	r2, r2, #4
 8001b9a:	4293      	cmp	r3, r2
 8001b9c:	d027      	beq.n	8001bee <UART_SetConfig+0x21e>
 8001b9e:	22c0      	movs	r2, #192	@ 0xc0
 8001ba0:	0112      	lsls	r2, r2, #4
 8001ba2:	4293      	cmp	r3, r2
 8001ba4:	d82a      	bhi.n	8001bfc <UART_SetConfig+0x22c>
 8001ba6:	2280      	movs	r2, #128	@ 0x80
 8001ba8:	0112      	lsls	r2, r2, #4
 8001baa:	4293      	cmp	r3, r2
 8001bac:	d011      	beq.n	8001bd2 <UART_SetConfig+0x202>
 8001bae:	2280      	movs	r2, #128	@ 0x80
 8001bb0:	0112      	lsls	r2, r2, #4
 8001bb2:	4293      	cmp	r3, r2
 8001bb4:	d822      	bhi.n	8001bfc <UART_SetConfig+0x22c>
 8001bb6:	2b00      	cmp	r3, #0
 8001bb8:	d004      	beq.n	8001bc4 <UART_SetConfig+0x1f4>
 8001bba:	2280      	movs	r2, #128	@ 0x80
 8001bbc:	00d2      	lsls	r2, r2, #3
 8001bbe:	4293      	cmp	r3, r2
 8001bc0:	d00e      	beq.n	8001be0 <UART_SetConfig+0x210>
 8001bc2:	e01b      	b.n	8001bfc <UART_SetConfig+0x22c>
 8001bc4:	231b      	movs	r3, #27
 8001bc6:	2220      	movs	r2, #32
 8001bc8:	189b      	adds	r3, r3, r2
 8001bca:	19db      	adds	r3, r3, r7
 8001bcc:	2200      	movs	r2, #0
 8001bce:	701a      	strb	r2, [r3, #0]
 8001bd0:	e021      	b.n	8001c16 <UART_SetConfig+0x246>
 8001bd2:	231b      	movs	r3, #27
 8001bd4:	2220      	movs	r2, #32
 8001bd6:	189b      	adds	r3, r3, r2
 8001bd8:	19db      	adds	r3, r3, r7
 8001bda:	2202      	movs	r2, #2
 8001bdc:	701a      	strb	r2, [r3, #0]
 8001bde:	e01a      	b.n	8001c16 <UART_SetConfig+0x246>
 8001be0:	231b      	movs	r3, #27
 8001be2:	2220      	movs	r2, #32
 8001be4:	189b      	adds	r3, r3, r2
 8001be6:	19db      	adds	r3, r3, r7
 8001be8:	2204      	movs	r2, #4
 8001bea:	701a      	strb	r2, [r3, #0]
 8001bec:	e013      	b.n	8001c16 <UART_SetConfig+0x246>
 8001bee:	231b      	movs	r3, #27
 8001bf0:	2220      	movs	r2, #32
 8001bf2:	189b      	adds	r3, r3, r2
 8001bf4:	19db      	adds	r3, r3, r7
 8001bf6:	2208      	movs	r2, #8
 8001bf8:	701a      	strb	r2, [r3, #0]
 8001bfa:	e00c      	b.n	8001c16 <UART_SetConfig+0x246>
 8001bfc:	231b      	movs	r3, #27
 8001bfe:	2220      	movs	r2, #32
 8001c00:	189b      	adds	r3, r3, r2
 8001c02:	19db      	adds	r3, r3, r7
 8001c04:	2210      	movs	r2, #16
 8001c06:	701a      	strb	r2, [r3, #0]
 8001c08:	e005      	b.n	8001c16 <UART_SetConfig+0x246>
 8001c0a:	231b      	movs	r3, #27
 8001c0c:	2220      	movs	r2, #32
 8001c0e:	189b      	adds	r3, r3, r2
 8001c10:	19db      	adds	r3, r3, r7
 8001c12:	2210      	movs	r2, #16
 8001c14:	701a      	strb	r2, [r3, #0]

  /* Check LPUART instance */
  if (UART_INSTANCE_LOWPOWER(huart))
 8001c16:	6a7b      	ldr	r3, [r7, #36]	@ 0x24
 8001c18:	681b      	ldr	r3, [r3, #0]
 8001c1a:	4a2b      	ldr	r2, [pc, #172]	@ (8001cc8 <UART_SetConfig+0x2f8>)
 8001c1c:	4293      	cmp	r3, r2
 8001c1e:	d000      	beq.n	8001c22 <UART_SetConfig+0x252>
 8001c20:	e0a9      	b.n	8001d76 <UART_SetConfig+0x3a6>
  {
    /* Retrieve frequency clock */
    switch (clocksource)
 8001c22:	231b      	movs	r3, #27
 8001c24:	2220      	movs	r2, #32
 8001c26:	189b      	adds	r3, r3, r2
 8001c28:	19db      	adds	r3, r3, r7
 8001c2a:	781b      	ldrb	r3, [r3, #0]
 8001c2c:	2b08      	cmp	r3, #8
 8001c2e:	d015      	beq.n	8001c5c <UART_SetConfig+0x28c>
 8001c30:	dc18      	bgt.n	8001c64 <UART_SetConfig+0x294>
 8001c32:	2b04      	cmp	r3, #4
 8001c34:	d00d      	beq.n	8001c52 <UART_SetConfig+0x282>
 8001c36:	dc15      	bgt.n	8001c64 <UART_SetConfig+0x294>
 8001c38:	2b00      	cmp	r3, #0
 8001c3a:	d002      	beq.n	8001c42 <UART_SetConfig+0x272>
 8001c3c:	2b02      	cmp	r3, #2
 8001c3e:	d005      	beq.n	8001c4c <UART_SetConfig+0x27c>
 8001c40:	e010      	b.n	8001c64 <UART_SetConfig+0x294>
    {
      case UART_CLOCKSOURCE_PCLK1:
        pclk = HAL_RCC_GetPCLK1Freq();
 8001c42:	f7ff fca1 	bl	8001588 <HAL_RCC_GetPCLK1Freq>
 8001c46:	0003      	movs	r3, r0
 8001c48:	637b      	str	r3, [r7, #52]	@ 0x34
        break;
 8001c4a:	e014      	b.n	8001c76 <UART_SetConfig+0x2a6>
      case UART_CLOCKSOURCE_HSI:
        pclk = (uint32_t) HSI_VALUE;
 8001c4c:	4b25      	ldr	r3, [pc, #148]	@ (8001ce4 <UART_SetConfig+0x314>)
 8001c4e:	637b      	str	r3, [r7, #52]	@ 0x34
        break;
 8001c50:	e011      	b.n	8001c76 <UART_SetConfig+0x2a6>
      case UART_CLOCKSOURCE_SYSCLK:
        pclk = HAL_RCC_GetSysClockFreq();
 8001c52:	f7ff fc0d 	bl	8001470 <HAL_RCC_GetSysClockFreq>
 8001c56:	0003      	movs	r3, r0
 8001c58:	637b      	str	r3, [r7, #52]	@ 0x34
        break;
 8001c5a:	e00c      	b.n	8001c76 <UART_SetConfig+0x2a6>
      case UART_CLOCKSOURCE_LSE:
        pclk = (uint32_t) LSE_VALUE;
 8001c5c:	2380      	movs	r3, #128	@ 0x80
 8001c5e:	021b      	lsls	r3, r3, #8
 8001c60:	637b      	str	r3, [r7, #52]	@ 0x34
        break;
 8001c62:	e008      	b.n	8001c76 <UART_SetConfig+0x2a6>
      default:
        pclk = 0U;
 8001c64:	2300      	movs	r3, #0
 8001c66:	637b      	str	r3, [r7, #52]	@ 0x34
        ret = HAL_ERROR;
 8001c68:	231a      	movs	r3, #26
 8001c6a:	2220      	movs	r2, #32
 8001c6c:	189b      	adds	r3, r3, r2
 8001c6e:	19db      	adds	r3, r3, r7
 8001c70:	2201      	movs	r2, #1
 8001c72:	701a      	strb	r2, [r3, #0]
        break;
 8001c74:	46c0      	nop			@ (mov r8, r8)
    }

    /* If proper clock source reported */
    if (pclk != 0U)
 8001c76:	6b7b      	ldr	r3, [r7, #52]	@ 0x34
 8001c78:	2b00      	cmp	r3, #0
 8001c7a:	d100      	bne.n	8001c7e <UART_SetConfig+0x2ae>
 8001c7c:	e14b      	b.n	8001f16 <UART_SetConfig+0x546>
    {
      /* Compute clock after Prescaler */
      lpuart_ker_ck_pres = (pclk / UARTPrescTable[huart->Init.ClockPrescaler]);
 8001c7e:	6a7b      	ldr	r3, [r7, #36]	@ 0x24
 8001c80:	6a5a      	ldr	r2, [r3, #36]	@ 0x24
 8001c82:	4b19      	ldr	r3, [pc, #100]	@ (8001ce8 <UART_SetConfig+0x318>)
 8001c84:	0052      	lsls	r2, r2, #1
 8001c86:	5ad3      	ldrh	r3, [r2, r3]
 8001c88:	0019      	movs	r1, r3
 8001c8a:	6b78      	ldr	r0, [r7, #52]	@ 0x34
 8001c8c:	f7fe fa3a 	bl	8000104 <__udivsi3>
 8001c90:	0003      	movs	r3, r0
 8001c92:	62bb      	str	r3, [r7, #40]	@ 0x28

      /* Ensure that Frequency clock is in the range [3 * baudrate, 4096 * baudrate] */
      if ((lpuart_ker_ck_pres < (3U * huart->Init.BaudRate)) ||
 8001c94:	6a7b      	ldr	r3, [r7, #36]	@ 0x24
 8001c96:	685a      	ldr	r2, [r3, #4]
 8001c98:	0013      	movs	r3, r2
 8001c9a:	005b      	lsls	r3, r3, #1
 8001c9c:	189b      	adds	r3, r3, r2
 8001c9e:	6aba      	ldr	r2, [r7, #40]	@ 0x28
 8001ca0:	429a      	cmp	r2, r3
 8001ca2:	d305      	bcc.n	8001cb0 <UART_SetConfig+0x2e0>
          (lpuart_ker_ck_pres > (4096U * huart->Init.BaudRate)))
 8001ca4:	6a7b      	ldr	r3, [r7, #36]	@ 0x24
 8001ca6:	685b      	ldr	r3, [r3, #4]
 8001ca8:	031b      	lsls	r3, r3, #12
      if ((lpuart_ker_ck_pres < (3U * huart->Init.BaudRate)) ||
 8001caa:	6aba      	ldr	r2, [r7, #40]	@ 0x28
 8001cac:	429a      	cmp	r2, r3
 8001cae:	d91d      	bls.n	8001cec <UART_SetConfig+0x31c>
      {
        ret = HAL_ERROR;
 8001cb0:	231a      	movs	r3, #26
 8001cb2:	2220      	movs	r2, #32
 8001cb4:	189b      	adds	r3, r3, r2
 8001cb6:	19db      	adds	r3, r3, r7
 8001cb8:	2201      	movs	r2, #1
 8001cba:	701a      	strb	r2, [r3, #0]
 8001cbc:	e12b      	b.n	8001f16 <UART_SetConfig+0x546>
 8001cbe:	46c0      	nop			@ (mov r8, r8)
 8001cc0:	cfff69f3 	.word	0xcfff69f3
 8001cc4:	ffffcfff 	.word	0xffffcfff
 8001cc8:	40008000 	.word	0x40008000
 8001ccc:	11fff4ff 	.word	0x11fff4ff
 8001cd0:	40013800 	.word	0x40013800
 8001cd4:	40021000 	.word	0x40021000
 8001cd8:	40004400 	.word	0x40004400
 8001cdc:	40004800 	.word	0x40004800
 8001ce0:	40004c00 	.word	0x40004c00
 8001ce4:	00f42400 	.word	0x00f42400
 8001ce8:	08002b20 	.word	0x08002b20
      }
      else
      {
        /* Check computed UsartDiv value is in allocated range
           (it is forbidden to write values lower than 0x300 in the LPUART_BRR register) */
        usartdiv = (uint32_t)(UART_DIV_LPUART(pclk, huart->Init.BaudRate, huart->Init.ClockPrescaler));
 8001cec:	6b7b      	ldr	r3, [r7, #52]	@ 0x34
 8001cee:	61bb      	str	r3, [r7, #24]
 8001cf0:	2300      	movs	r3, #0
 8001cf2:	61fb      	str	r3, [r7, #28]
 8001cf4:	6a7b      	ldr	r3, [r7, #36]	@ 0x24
 8001cf6:	6a5a      	ldr	r2, [r3, #36]	@ 0x24
 8001cf8:	4b92      	ldr	r3, [pc, #584]	@ (8001f44 <UART_SetConfig+0x574>)
 8001cfa:	0052      	lsls	r2, r2, #1
 8001cfc:	5ad3      	ldrh	r3, [r2, r3]
 8001cfe:	613b      	str	r3, [r7, #16]
 8001d00:	2300      	movs	r3, #0
 8001d02:	617b      	str	r3, [r7, #20]
 8001d04:	693a      	ldr	r2, [r7, #16]
 8001d06:	697b      	ldr	r3, [r7, #20]
 8001d08:	69b8      	ldr	r0, [r7, #24]
 8001d0a:	69f9      	ldr	r1, [r7, #28]
 8001d0c:	f7fe fb70 	bl	80003f0 <__aeabi_uldivmod>
 8001d10:	0002      	movs	r2, r0
 8001d12:	000b      	movs	r3, r1
 8001d14:	0e11      	lsrs	r1, r2, #24
 8001d16:	021d      	lsls	r5, r3, #8
 8001d18:	430d      	orrs	r5, r1
 8001d1a:	0214      	lsls	r4, r2, #8
 8001d1c:	6a7b      	ldr	r3, [r7, #36]	@ 0x24
 8001d1e:	685b      	ldr	r3, [r3, #4]
 8001d20:	085b      	lsrs	r3, r3, #1
 8001d22:	60bb      	str	r3, [r7, #8]
 8001d24:	2300      	movs	r3, #0
 8001d26:	60fb      	str	r3, [r7, #12]
 8001d28:	68b8      	ldr	r0, [r7, #8]
 8001d2a:	68f9      	ldr	r1, [r7, #12]
 8001d2c:	1900      	adds	r0, r0, r4
 8001d2e:	4169      	adcs	r1, r5
 8001d30:	6a7b      	ldr	r3, [r7, #36]	@ 0x24
 8001d32:	685b      	ldr	r3, [r3, #4]
 8001d34:	603b      	str	r3, [r7, #0]
 8001d36:	2300      	movs	r3, #0
 8001d38:	607b      	str	r3, [r7, #4]
 8001d3a:	683a      	ldr	r2, [r7, #0]
 8001d3c:	687b      	ldr	r3, [r7, #4]
 8001d3e:	f7fe fb57 	bl	80003f0 <__aeabi_uldivmod>
 8001d42:	0002      	movs	r2, r0
 8001d44:	000b      	movs	r3, r1
 8001d46:	0013      	movs	r3, r2
 8001d48:	633b      	str	r3, [r7, #48]	@ 0x30
        if ((usartdiv >= LPUART_BRR_MIN) && (usartdiv <= LPUART_BRR_MAX))
 8001d4a:	6b3a      	ldr	r2, [r7, #48]	@ 0x30
 8001d4c:	23c0      	movs	r3, #192	@ 0xc0
 8001d4e:	009b      	lsls	r3, r3, #2
 8001d50:	429a      	cmp	r2, r3
 8001d52:	d309      	bcc.n	8001d68 <UART_SetConfig+0x398>
 8001d54:	6b3a      	ldr	r2, [r7, #48]	@ 0x30
 8001d56:	2380      	movs	r3, #128	@ 0x80
 8001d58:	035b      	lsls	r3, r3, #13
 8001d5a:	429a      	cmp	r2, r3
 8001d5c:	d204      	bcs.n	8001d68 <UART_SetConfig+0x398>
        {
          huart->Instance->BRR = usartdiv;
 8001d5e:	6a7b      	ldr	r3, [r7, #36]	@ 0x24
 8001d60:	681b      	ldr	r3, [r3, #0]
 8001d62:	6b3a      	ldr	r2, [r7, #48]	@ 0x30
 8001d64:	60da      	str	r2, [r3, #12]
 8001d66:	e0d6      	b.n	8001f16 <UART_SetConfig+0x546>
        }
        else
        {
          ret = HAL_ERROR;
 8001d68:	231a      	movs	r3, #26
 8001d6a:	2220      	movs	r2, #32
 8001d6c:	189b      	adds	r3, r3, r2
 8001d6e:	19db      	adds	r3, r3, r7
 8001d70:	2201      	movs	r2, #1
 8001d72:	701a      	strb	r2, [r3, #0]
 8001d74:	e0cf      	b.n	8001f16 <UART_SetConfig+0x546>
      } /* if ( (lpuart_ker_ck_pres < (3 * huart->Init.BaudRate) ) ||
                (lpuart_ker_ck_pres > (4096 * huart->Init.BaudRate) )) */
    } /* if (pclk != 0) */
  }
  /* Check UART Over Sampling to set Baud Rate Register */
  else if (huart->Init.OverSampling == UART_OVERSAMPLING_8)
 8001d76:	6a7b      	ldr	r3, [r7, #36]	@ 0x24
 8001d78:	69da      	ldr	r2, [r3, #28]
 8001d7a:	2380      	movs	r3, #128	@ 0x80
 8001d7c:	021b      	lsls	r3, r3, #8
 8001d7e:	429a      	cmp	r2, r3
 8001d80:	d000      	beq.n	8001d84 <UART_SetConfig+0x3b4>
 8001d82:	e070      	b.n	8001e66 <UART_SetConfig+0x496>
  {
    switch (clocksource)
 8001d84:	231b      	movs	r3, #27
 8001d86:	2220      	movs	r2, #32
 8001d88:	189b      	adds	r3, r3, r2
 8001d8a:	19db      	adds	r3, r3, r7
 8001d8c:	781b      	ldrb	r3, [r3, #0]
 8001d8e:	2b08      	cmp	r3, #8
 8001d90:	d015      	beq.n	8001dbe <UART_SetConfig+0x3ee>
 8001d92:	dc18      	bgt.n	8001dc6 <UART_SetConfig+0x3f6>
 8001d94:	2b04      	cmp	r3, #4
 8001d96:	d00d      	beq.n	8001db4 <UART_SetConfig+0x3e4>
 8001d98:	dc15      	bgt.n	8001dc6 <UART_SetConfig+0x3f6>
 8001d9a:	2b00      	cmp	r3, #0
 8001d9c:	d002      	beq.n	8001da4 <UART_SetConfig+0x3d4>
 8001d9e:	2b02      	cmp	r3, #2
 8001da0:	d005      	beq.n	8001dae <UART_SetConfig+0x3de>
 8001da2:	e010      	b.n	8001dc6 <UART_SetConfig+0x3f6>
    {
      case UART_CLOCKSOURCE_PCLK1:
        pclk = HAL_RCC_GetPCLK1Freq();
 8001da4:	f7ff fbf0 	bl	8001588 <HAL_RCC_GetPCLK1Freq>
 8001da8:	0003      	movs	r3, r0
 8001daa:	637b      	str	r3, [r7, #52]	@ 0x34
        break;
 8001dac:	e014      	b.n	8001dd8 <UART_SetConfig+0x408>
      case UART_CLOCKSOURCE_HSI:
        pclk = (uint32_t) HSI_VALUE;
 8001dae:	4b66      	ldr	r3, [pc, #408]	@ (8001f48 <UART_SetConfig+0x578>)
 8001db0:	637b      	str	r3, [r7, #52]	@ 0x34
        break;
 8001db2:	e011      	b.n	8001dd8 <UART_SetConfig+0x408>
      case UART_CLOCKSOURCE_SYSCLK:
        pclk = HAL_RCC_GetSysClockFreq();
 8001db4:	f7ff fb5c 	bl	8001470 <HAL_RCC_GetSysClockFreq>
 8001db8:	0003      	movs	r3, r0
 8001dba:	637b      	str	r3, [r7, #52]	@ 0x34
        break;
 8001dbc:	e00c      	b.n	8001dd8 <UART_SetConfig+0x408>
      case UART_CLOCKSOURCE_LSE:
        pclk = (uint32_t) LSE_VALUE;
 8001dbe:	2380      	movs	r3, #128	@ 0x80
 8001dc0:	021b      	lsls	r3, r3, #8
 8001dc2:	637b      	str	r3, [r7, #52]	@ 0x34
        break;
 8001dc4:	e008      	b.n	8001dd8 <UART_SetConfig+0x408>
      default:
        pclk = 0U;
 8001dc6:	2300      	movs	r3, #0
 8001dc8:	637b      	str	r3, [r7, #52]	@ 0x34
        ret = HAL_ERROR;
 8001dca:	231a      	movs	r3, #26
 8001dcc:	2220      	movs	r2, #32
 8001dce:	189b      	adds	r3, r3, r2
 8001dd0:	19db      	adds	r3, r3, r7
 8001dd2:	2201      	movs	r2, #1
 8001dd4:	701a      	strb	r2, [r3, #0]
        break;
 8001dd6:	46c0      	nop			@ (mov r8, r8)
    }

    /* USARTDIV must be greater than or equal to 0d16 */
    if (pclk != 0U)
 8001dd8:	6b7b      	ldr	r3, [r7, #52]	@ 0x34
 8001dda:	2b00      	cmp	r3, #0
 8001ddc:	d100      	bne.n	8001de0 <UART_SetConfig+0x410>
 8001dde:	e09a      	b.n	8001f16 <UART_SetConfig+0x546>
    {
      usartdiv = (uint32_t)(UART_DIV_SAMPLING8(pclk, huart->Init.BaudRate, huart->Init.ClockPrescaler));
 8001de0:	6a7b      	ldr	r3, [r7, #36]	@ 0x24
 8001de2:	6a5a      	ldr	r2, [r3, #36]	@ 0x24
 8001de4:	4b57      	ldr	r3, [pc, #348]	@ (8001f44 <UART_SetConfig+0x574>)
 8001de6:	0052      	lsls	r2, r2, #1
 8001de8:	5ad3      	ldrh	r3, [r2, r3]
 8001dea:	0019      	movs	r1, r3
 8001dec:	6b78      	ldr	r0, [r7, #52]	@ 0x34
 8001dee:	f7fe f989 	bl	8000104 <__udivsi3>
 8001df2:	0003      	movs	r3, r0
 8001df4:	005a      	lsls	r2, r3, #1
 8001df6:	6a7b      	ldr	r3, [r7, #36]	@ 0x24
 8001df8:	685b      	ldr	r3, [r3, #4]
 8001dfa:	085b      	lsrs	r3, r3, #1
 8001dfc:	18d2      	adds	r2, r2, r3
 8001dfe:	6a7b      	ldr	r3, [r7, #36]	@ 0x24
 8001e00:	685b      	ldr	r3, [r3, #4]
 8001e02:	0019      	movs	r1, r3
 8001e04:	0010      	movs	r0, r2
 8001e06:	f7fe f97d 	bl	8000104 <__udivsi3>
 8001e0a:	0003      	movs	r3, r0
 8001e0c:	633b      	str	r3, [r7, #48]	@ 0x30
      if ((usartdiv >= UART_BRR_MIN) && (usartdiv <= UART_BRR_MAX))
 8001e0e:	6b3b      	ldr	r3, [r7, #48]	@ 0x30
 8001e10:	2b0f      	cmp	r3, #15
 8001e12:	d921      	bls.n	8001e58 <UART_SetConfig+0x488>
 8001e14:	6b3a      	ldr	r2, [r7, #48]	@ 0x30
 8001e16:	2380      	movs	r3, #128	@ 0x80
 8001e18:	025b      	lsls	r3, r3, #9
 8001e1a:	429a      	cmp	r2, r3
 8001e1c:	d21c      	bcs.n	8001e58 <UART_SetConfig+0x488>
      {
        brrtemp = (uint16_t)(usartdiv & 0xFFF0U);
 8001e1e:	6b3b      	ldr	r3, [r7, #48]	@ 0x30
 8001e20:	b29a      	uxth	r2, r3
 8001e22:	200e      	movs	r0, #14
 8001e24:	2420      	movs	r4, #32
 8001e26:	1903      	adds	r3, r0, r4
 8001e28:	19db      	adds	r3, r3, r7
 8001e2a:	210f      	movs	r1, #15
 8001e2c:	438a      	bics	r2, r1
 8001e2e:	801a      	strh	r2, [r3, #0]
        brrtemp |= (uint16_t)((usartdiv & (uint16_t)0x000FU) >> 1U);
 8001e30:	6b3b      	ldr	r3, [r7, #48]	@ 0x30
 8001e32:	085b      	lsrs	r3, r3, #1
 8001e34:	b29b      	uxth	r3, r3
 8001e36:	2207      	movs	r2, #7
 8001e38:	4013      	ands	r3, r2
 8001e3a:	b299      	uxth	r1, r3
 8001e3c:	1903      	adds	r3, r0, r4
 8001e3e:	19db      	adds	r3, r3, r7
 8001e40:	1902      	adds	r2, r0, r4
 8001e42:	19d2      	adds	r2, r2, r7
 8001e44:	8812      	ldrh	r2, [r2, #0]
 8001e46:	430a      	orrs	r2, r1
 8001e48:	801a      	strh	r2, [r3, #0]
        huart->Instance->BRR = brrtemp;
 8001e4a:	6a7b      	ldr	r3, [r7, #36]	@ 0x24
 8001e4c:	681b      	ldr	r3, [r3, #0]
 8001e4e:	1902      	adds	r2, r0, r4
 8001e50:	19d2      	adds	r2, r2, r7
 8001e52:	8812      	ldrh	r2, [r2, #0]
 8001e54:	60da      	str	r2, [r3, #12]
 8001e56:	e05e      	b.n	8001f16 <UART_SetConfig+0x546>
      }
      else
      {
        ret = HAL_ERROR;
 8001e58:	231a      	movs	r3, #26
 8001e5a:	2220      	movs	r2, #32
 8001e5c:	189b      	adds	r3, r3, r2
 8001e5e:	19db      	adds	r3, r3, r7
 8001e60:	2201      	movs	r2, #1
 8001e62:	701a      	strb	r2, [r3, #0]
 8001e64:	e057      	b.n	8001f16 <UART_SetConfig+0x546>
      }
    }
  }
  else
  {
    switch (clocksource)
 8001e66:	231b      	movs	r3, #27
 8001e68:	2220      	movs	r2, #32
 8001e6a:	189b      	adds	r3, r3, r2
 8001e6c:	19db      	adds	r3, r3, r7
 8001e6e:	781b      	ldrb	r3, [r3, #0]
 8001e70:	2b08      	cmp	r3, #8
 8001e72:	d015      	beq.n	8001ea0 <UART_SetConfig+0x4d0>
 8001e74:	dc18      	bgt.n	8001ea8 <UART_SetConfig+0x4d8>
 8001e76:	2b04      	cmp	r3, #4
 8001e78:	d00d      	beq.n	8001e96 <UART_SetConfig+0x4c6>
 8001e7a:	dc15      	bgt.n	8001ea8 <UART_SetConfig+0x4d8>
 8001e7c:	2b00      	cmp	r3, #0
 8001e7e:	d002      	beq.n	8001e86 <UART_SetConfig+0x4b6>
 8001e80:	2b02      	cmp	r3, #2
 8001e82:	d005      	beq.n	8001e90 <UART_SetConfig+0x4c0>
 8001e84:	e010      	b.n	8001ea8 <UART_SetConfig+0x4d8>
    {
      case UART_CLOCKSOURCE_PCLK1:
        pclk = HAL_RCC_GetPCLK1Freq();
 8001e86:	f7ff fb7f 	bl	8001588 <HAL_RCC_GetPCLK1Freq>
 8001e8a:	0003      	movs	r3, r0
 8001e8c:	637b      	str	r3, [r7, #52]	@ 0x34
        break;
 8001e8e:	e014      	b.n	8001eba <UART_SetConfig+0x4ea>
      case UART_CLOCKSOURCE_HSI:
        pclk = (uint32_t) HSI_VALUE;
 8001e90:	4b2d      	ldr	r3, [pc, #180]	@ (8001f48 <UART_SetConfig+0x578>)
 8001e92:	637b      	str	r3, [r7, #52]	@ 0x34
        break;
 8001e94:	e011      	b.n	8001eba <UART_SetConfig+0x4ea>
      case UART_CLOCKSOURCE_SYSCLK:
        pclk = HAL_RCC_GetSysClockFreq();
 8001e96:	f7ff faeb 	bl	8001470 <HAL_RCC_GetSysClockFreq>
 8001e9a:	0003      	movs	r3, r0
 8001e9c:	637b      	str	r3, [r7, #52]	@ 0x34
        break;
 8001e9e:	e00c      	b.n	8001eba <UART_SetConfig+0x4ea>
      case UART_CLOCKSOURCE_LSE:
        pclk = (uint32_t) LSE_VALUE;
 8001ea0:	2380      	movs	r3, #128	@ 0x80
 8001ea2:	021b      	lsls	r3, r3, #8
 8001ea4:	637b      	str	r3, [r7, #52]	@ 0x34
        break;
 8001ea6:	e008      	b.n	8001eba <UART_SetConfig+0x4ea>
      default:
        pclk = 0U;
 8001ea8:	2300      	movs	r3, #0
 8001eaa:	637b      	str	r3, [r7, #52]	@ 0x34
        ret = HAL_ERROR;
 8001eac:	231a      	movs	r3, #26
 8001eae:	2220      	movs	r2, #32
 8001eb0:	189b      	adds	r3, r3, r2
 8001eb2:	19db      	adds	r3, r3, r7
 8001eb4:	2201      	movs	r2, #1
 8001eb6:	701a      	strb	r2, [r3, #0]
        break;
 8001eb8:	46c0      	nop			@ (mov r8, r8)
    }

    if (pclk != 0U)
 8001eba:	6b7b      	ldr	r3, [r7, #52]	@ 0x34
 8001ebc:	2b00      	cmp	r3, #0
 8001ebe:	d02a      	beq.n	8001f16 <UART_SetConfig+0x546>
    {
      /* USARTDIV must be greater than or equal to 0d16 */
      usartdiv = (uint32_t)(UART_DIV_SAMPLING16(pclk, huart->Init.BaudRate, huart->Init.ClockPrescaler));
 8001ec0:	6a7b      	ldr	r3, [r7, #36]	@ 0x24
 8001ec2:	6a5a      	ldr	r2, [r3, #36]	@ 0x24
 8001ec4:	4b1f      	ldr	r3, [pc, #124]	@ (8001f44 <UART_SetConfig+0x574>)
 8001ec6:	0052      	lsls	r2, r2, #1
 8001ec8:	5ad3      	ldrh	r3, [r2, r3]
 8001eca:	0019      	movs	r1, r3
 8001ecc:	6b78      	ldr	r0, [r7, #52]	@ 0x34
 8001ece:	f7fe f919 	bl	8000104 <__udivsi3>
 8001ed2:	0003      	movs	r3, r0
 8001ed4:	001a      	movs	r2, r3
 8001ed6:	6a7b      	ldr	r3, [r7, #36]	@ 0x24
 8001ed8:	685b      	ldr	r3, [r3, #4]
 8001eda:	085b      	lsrs	r3, r3, #1
 8001edc:	18d2      	adds	r2, r2, r3
 8001ede:	6a7b      	ldr	r3, [r7, #36]	@ 0x24
 8001ee0:	685b      	ldr	r3, [r3, #4]
 8001ee2:	0019      	movs	r1, r3
 8001ee4:	0010      	movs	r0, r2
 8001ee6:	f7fe f90d 	bl	8000104 <__udivsi3>
 8001eea:	0003      	movs	r3, r0
 8001eec:	633b      	str	r3, [r7, #48]	@ 0x30
      if ((usartdiv >= UART_BRR_MIN) && (usartdiv <= UART_BRR_MAX))
 8001eee:	6b3b      	ldr	r3, [r7, #48]	@ 0x30
 8001ef0:	2b0f      	cmp	r3, #15
 8001ef2:	d90a      	bls.n	8001f0a <UART_SetConfig+0x53a>
 8001ef4:	6b3a      	ldr	r2, [r7, #48]	@ 0x30
 8001ef6:	2380      	movs	r3, #128	@ 0x80
 8001ef8:	025b      	lsls	r3, r3, #9
 8001efa:	429a      	cmp	r2, r3
 8001efc:	d205      	bcs.n	8001f0a <UART_SetConfig+0x53a>
      {
        huart->Instance->BRR = (uint16_t)usartdiv;
 8001efe:	6b3b      	ldr	r3, [r7, #48]	@ 0x30
 8001f00:	b29a      	uxth	r2, r3
 8001f02:	6a7b      	ldr	r3, [r7, #36]	@ 0x24
 8001f04:	681b      	ldr	r3, [r3, #0]
 8001f06:	60da      	str	r2, [r3, #12]
 8001f08:	e005      	b.n	8001f16 <UART_SetConfig+0x546>
      }
      else
      {
        ret = HAL_ERROR;
 8001f0a:	231a      	movs	r3, #26
 8001f0c:	2220      	movs	r2, #32
 8001f0e:	189b      	adds	r3, r3, r2
 8001f10:	19db      	adds	r3, r3, r7
 8001f12:	2201      	movs	r2, #1
 8001f14:	701a      	strb	r2, [r3, #0]
      }
    }
  }

  /* Initialize the number of data to process during RX/TX ISR execution */
  huart->NbTxDataToProcess = 1;
 8001f16:	6a7b      	ldr	r3, [r7, #36]	@ 0x24
 8001f18:	226a      	movs	r2, #106	@ 0x6a
 8001f1a:	2101      	movs	r1, #1
 8001f1c:	5299      	strh	r1, [r3, r2]
  huart->NbRxDataToProcess = 1;
 8001f1e:	6a7b      	ldr	r3, [r7, #36]	@ 0x24
 8001f20:	2268      	movs	r2, #104	@ 0x68
 8001f22:	2101      	movs	r1, #1
 8001f24:	5299      	strh	r1, [r3, r2]

  /* Clear ISR function pointers */
  huart->RxISR = NULL;
 8001f26:	6a7b      	ldr	r3, [r7, #36]	@ 0x24
 8001f28:	2200      	movs	r2, #0
 8001f2a:	675a      	str	r2, [r3, #116]	@ 0x74
  huart->TxISR = NULL;
 8001f2c:	6a7b      	ldr	r3, [r7, #36]	@ 0x24
 8001f2e:	2200      	movs	r2, #0
 8001f30:	679a      	str	r2, [r3, #120]	@ 0x78

  return ret;
 8001f32:	231a      	movs	r3, #26
 8001f34:	2220      	movs	r2, #32
 8001f36:	189b      	adds	r3, r3, r2
 8001f38:	19db      	adds	r3, r3, r7
 8001f3a:	781b      	ldrb	r3, [r3, #0]
}
 8001f3c:	0018      	movs	r0, r3
 8001f3e:	46bd      	mov	sp, r7
 8001f40:	b010      	add	sp, #64	@ 0x40
 8001f42:	bdb0      	pop	{r4, r5, r7, pc}
 8001f44:	08002b20 	.word	0x08002b20
 8001f48:	00f42400 	.word	0x00f42400

08001f4c <UART_AdvFeatureConfig>:
  * @brief Configure the UART peripheral advanced features.
  * @param huart UART handle.
  * @retval None
  */
void UART_AdvFeatureConfig(UART_HandleTypeDef *huart)
{
 8001f4c:	b580      	push	{r7, lr}
 8001f4e:	b082      	sub	sp, #8
 8001f50:	af00      	add	r7, sp, #0
 8001f52:	6078      	str	r0, [r7, #4]
  /* Check whether the set of advanced features to configure is properly set */
  assert_param(IS_UART_ADVFEATURE_INIT(huart->AdvancedInit.AdvFeatureInit));

  /* if required, configure RX/TX pins swap */
  if (HAL_IS_BIT_SET(huart->AdvancedInit.AdvFeatureInit, UART_ADVFEATURE_SWAP_INIT))
 8001f54:	687b      	ldr	r3, [r7, #4]
 8001f56:	6a9b      	ldr	r3, [r3, #40]	@ 0x28
 8001f58:	2208      	movs	r2, #8
 8001f5a:	4013      	ands	r3, r2
 8001f5c:	d00b      	beq.n	8001f76 <UART_AdvFeatureConfig+0x2a>
  {
    assert_param(IS_UART_ADVFEATURE_SWAP(huart->AdvancedInit.Swap));
    MODIFY_REG(huart->Instance->CR2, USART_CR2_SWAP, huart->AdvancedInit.Swap);
 8001f5e:	687b      	ldr	r3, [r7, #4]
 8001f60:	681b      	ldr	r3, [r3, #0]
 8001f62:	685b      	ldr	r3, [r3, #4]
 8001f64:	4a4a      	ldr	r2, [pc, #296]	@ (8002090 <UART_AdvFeatureConfig+0x144>)
 8001f66:	4013      	ands	r3, r2
 8001f68:	0019      	movs	r1, r3
 8001f6a:	687b      	ldr	r3, [r7, #4]
 8001f6c:	6b9a      	ldr	r2, [r3, #56]	@ 0x38
 8001f6e:	687b      	ldr	r3, [r7, #4]
 8001f70:	681b      	ldr	r3, [r3, #0]
 8001f72:	430a      	orrs	r2, r1
 8001f74:	605a      	str	r2, [r3, #4]
  }

  /* if required, configure TX pin active level inversion */
  if (HAL_IS_BIT_SET(huart->AdvancedInit.AdvFeatureInit, UART_ADVFEATURE_TXINVERT_INIT))
 8001f76:	687b      	ldr	r3, [r7, #4]
 8001f78:	6a9b      	ldr	r3, [r3, #40]	@ 0x28
 8001f7a:	2201      	movs	r2, #1
 8001f7c:	4013      	ands	r3, r2
 8001f7e:	d00b      	beq.n	8001f98 <UART_AdvFeatureConfig+0x4c>
  {
    assert_param(IS_UART_ADVFEATURE_TXINV(huart->AdvancedInit.TxPinLevelInvert));
    MODIFY_REG(huart->Instance->CR2, USART_CR2_TXINV, huart->AdvancedInit.TxPinLevelInvert);
 8001f80:	687b      	ldr	r3, [r7, #4]
 8001f82:	681b      	ldr	r3, [r3, #0]
 8001f84:	685b      	ldr	r3, [r3, #4]
 8001f86:	4a43      	ldr	r2, [pc, #268]	@ (8002094 <UART_AdvFeatureConfig+0x148>)
 8001f88:	4013      	ands	r3, r2
 8001f8a:	0019      	movs	r1, r3
 8001f8c:	687b      	ldr	r3, [r7, #4]
 8001f8e:	6ada      	ldr	r2, [r3, #44]	@ 0x2c
 8001f90:	687b      	ldr	r3, [r7, #4]
 8001f92:	681b      	ldr	r3, [r3, #0]
 8001f94:	430a      	orrs	r2, r1
 8001f96:	605a      	str	r2, [r3, #4]
  }

  /* if required, configure RX pin active level inversion */
  if (HAL_IS_BIT_SET(huart->AdvancedInit.AdvFeatureInit, UART_ADVFEATURE_RXINVERT_INIT))
 8001f98:	687b      	ldr	r3, [r7, #4]
 8001f9a:	6a9b      	ldr	r3, [r3, #40]	@ 0x28
 8001f9c:	2202      	movs	r2, #2
 8001f9e:	4013      	ands	r3, r2
 8001fa0:	d00b      	beq.n	8001fba <UART_AdvFeatureConfig+0x6e>
  {
    assert_param(IS_UART_ADVFEATURE_RXINV(huart->AdvancedInit.RxPinLevelInvert));
    MODIFY_REG(huart->Instance->CR2, USART_CR2_RXINV, huart->AdvancedInit.RxPinLevelInvert);
 8001fa2:	687b      	ldr	r3, [r7, #4]
 8001fa4:	681b      	ldr	r3, [r3, #0]
 8001fa6:	685b      	ldr	r3, [r3, #4]
 8001fa8:	4a3b      	ldr	r2, [pc, #236]	@ (8002098 <UART_AdvFeatureConfig+0x14c>)
 8001faa:	4013      	ands	r3, r2
 8001fac:	0019      	movs	r1, r3
 8001fae:	687b      	ldr	r3, [r7, #4]
 8001fb0:	6b1a      	ldr	r2, [r3, #48]	@ 0x30
 8001fb2:	687b      	ldr	r3, [r7, #4]
 8001fb4:	681b      	ldr	r3, [r3, #0]
 8001fb6:	430a      	orrs	r2, r1
 8001fb8:	605a      	str	r2, [r3, #4]
  }

  /* if required, configure data inversion */
  if (HAL_IS_BIT_SET(huart->AdvancedInit.AdvFeatureInit, UART_ADVFEATURE_DATAINVERT_INIT))
 8001fba:	687b      	ldr	r3, [r7, #4]
 8001fbc:	6a9b      	ldr	r3, [r3, #40]	@ 0x28
 8001fbe:	2204      	movs	r2, #4
 8001fc0:	4013      	ands	r3, r2
 8001fc2:	d00b      	beq.n	8001fdc <UART_AdvFeatureConfig+0x90>
  {
    assert_param(IS_UART_ADVFEATURE_DATAINV(huart->AdvancedInit.DataInvert));
    MODIFY_REG(huart->Instance->CR2, USART_CR2_DATAINV, huart->AdvancedInit.DataInvert);
 8001fc4:	687b      	ldr	r3, [r7, #4]
 8001fc6:	681b      	ldr	r3, [r3, #0]
 8001fc8:	685b      	ldr	r3, [r3, #4]
 8001fca:	4a34      	ldr	r2, [pc, #208]	@ (800209c <UART_AdvFeatureConfig+0x150>)
 8001fcc:	4013      	ands	r3, r2
 8001fce:	0019      	movs	r1, r3
 8001fd0:	687b      	ldr	r3, [r7, #4]
 8001fd2:	6b5a      	ldr	r2, [r3, #52]	@ 0x34
 8001fd4:	687b      	ldr	r3, [r7, #4]
 8001fd6:	681b      	ldr	r3, [r3, #0]
 8001fd8:	430a      	orrs	r2, r1
 8001fda:	605a      	str	r2, [r3, #4]
  }

  /* if required, configure RX overrun detection disabling */
  if (HAL_IS_BIT_SET(huart->AdvancedInit.AdvFeatureInit, UART_ADVFEATURE_RXOVERRUNDISABLE_INIT))
 8001fdc:	687b      	ldr	r3, [r7, #4]
 8001fde:	6a9b      	ldr	r3, [r3, #40]	@ 0x28
 8001fe0:	2210      	movs	r2, #16
 8001fe2:	4013      	ands	r3, r2
 8001fe4:	d00b      	beq.n	8001ffe <UART_AdvFeatureConfig+0xb2>
  {
    assert_param(IS_UART_OVERRUN(huart->AdvancedInit.OverrunDisable));
    MODIFY_REG(huart->Instance->CR3, USART_CR3_OVRDIS, huart->AdvancedInit.OverrunDisable);
 8001fe6:	687b      	ldr	r3, [r7, #4]
 8001fe8:	681b      	ldr	r3, [r3, #0]
 8001fea:	689b      	ldr	r3, [r3, #8]
 8001fec:	4a2c      	ldr	r2, [pc, #176]	@ (80020a0 <UART_AdvFeatureConfig+0x154>)
 8001fee:	4013      	ands	r3, r2
 8001ff0:	0019      	movs	r1, r3
 8001ff2:	687b      	ldr	r3, [r7, #4]
 8001ff4:	6bda      	ldr	r2, [r3, #60]	@ 0x3c
 8001ff6:	687b      	ldr	r3, [r7, #4]
 8001ff8:	681b      	ldr	r3, [r3, #0]
 8001ffa:	430a      	orrs	r2, r1
 8001ffc:	609a      	str	r2, [r3, #8]
  }

  /* if required, configure DMA disabling on reception error */
  if (HAL_IS_BIT_SET(huart->AdvancedInit.AdvFeatureInit, UART_ADVFEATURE_DMADISABLEONERROR_INIT))
 8001ffe:	687b      	ldr	r3, [r7, #4]
 8002000:	6a9b      	ldr	r3, [r3, #40]	@ 0x28
 8002002:	2220      	movs	r2, #32
 8002004:	4013      	ands	r3, r2
 8002006:	d00b      	beq.n	8002020 <UART_AdvFeatureConfig+0xd4>
  {
    assert_param(IS_UART_ADVFEATURE_DMAONRXERROR(huart->AdvancedInit.DMADisableonRxError));
    MODIFY_REG(huart->Instance->CR3, USART_CR3_DDRE, huart->AdvancedInit.DMADisableonRxError);
 8002008:	687b      	ldr	r3, [r7, #4]
 800200a:	681b      	ldr	r3, [r3, #0]
 800200c:	689b      	ldr	r3, [r3, #8]
 800200e:	4a25      	ldr	r2, [pc, #148]	@ (80020a4 <UART_AdvFeatureConfig+0x158>)
 8002010:	4013      	ands	r3, r2
 8002012:	0019      	movs	r1, r3
 8002014:	687b      	ldr	r3, [r7, #4]
 8002016:	6c1a      	ldr	r2, [r3, #64]	@ 0x40
 8002018:	687b      	ldr	r3, [r7, #4]
 800201a:	681b      	ldr	r3, [r3, #0]
 800201c:	430a      	orrs	r2, r1
 800201e:	609a      	str	r2, [r3, #8]
  }

  /* if required, configure auto Baud rate detection scheme */
  if (HAL_IS_BIT_SET(huart->AdvancedInit.AdvFeatureInit, UART_ADVFEATURE_AUTOBAUDRATE_INIT))
 8002020:	687b      	ldr	r3, [r7, #4]
 8002022:	6a9b      	ldr	r3, [r3, #40]	@ 0x28
 8002024:	2240      	movs	r2, #64	@ 0x40
 8002026:	4013      	ands	r3, r2
 8002028:	d01d      	beq.n	8002066 <UART_AdvFeatureConfig+0x11a>
  {
    assert_param(IS_USART_AUTOBAUDRATE_DETECTION_INSTANCE(huart->Instance));
    assert_param(IS_UART_ADVFEATURE_AUTOBAUDRATE(huart->AdvancedInit.AutoBaudRateEnable));
    MODIFY_REG(huart->Instance->CR2, USART_CR2_ABREN, huart->AdvancedInit.AutoBaudRateEnable);
 800202a:	687b      	ldr	r3, [r7, #4]
 800202c:	681b      	ldr	r3, [r3, #0]
 800202e:	685b      	ldr	r3, [r3, #4]
 8002030:	4a1d      	ldr	r2, [pc, #116]	@ (80020a8 <UART_AdvFeatureConfig+0x15c>)
 8002032:	4013      	ands	r3, r2
 8002034:	0019      	movs	r1, r3
 8002036:	687b      	ldr	r3, [r7, #4]
 8002038:	6c5a      	ldr	r2, [r3, #68]	@ 0x44
 800203a:	687b      	ldr	r3, [r7, #4]
 800203c:	681b      	ldr	r3, [r3, #0]
 800203e:	430a      	orrs	r2, r1
 8002040:	605a      	str	r2, [r3, #4]
    /* set auto Baudrate detection parameters if detection is enabled */
    if (huart->AdvancedInit.AutoBaudRateEnable == UART_ADVFEATURE_AUTOBAUDRATE_ENABLE)
 8002042:	687b      	ldr	r3, [r7, #4]
 8002044:	6c5a      	ldr	r2, [r3, #68]	@ 0x44
 8002046:	2380      	movs	r3, #128	@ 0x80
 8002048:	035b      	lsls	r3, r3, #13
 800204a:	429a      	cmp	r2, r3
 800204c:	d10b      	bne.n	8002066 <UART_AdvFeatureConfig+0x11a>
    {
      assert_param(IS_UART_ADVFEATURE_AUTOBAUDRATEMODE(huart->AdvancedInit.AutoBaudRateMode));
      MODIFY_REG(huart->Instance->CR2, USART_CR2_ABRMODE, huart->AdvancedInit.AutoBaudRateMode);
 800204e:	687b      	ldr	r3, [r7, #4]
 8002050:	681b      	ldr	r3, [r3, #0]
 8002052:	685b      	ldr	r3, [r3, #4]
 8002054:	4a15      	ldr	r2, [pc, #84]	@ (80020ac <UART_AdvFeatureConfig+0x160>)
 8002056:	4013      	ands	r3, r2
 8002058:	0019      	movs	r1, r3
 800205a:	687b      	ldr	r3, [r7, #4]
 800205c:	6c9a      	ldr	r2, [r3, #72]	@ 0x48
 800205e:	687b      	ldr	r3, [r7, #4]
 8002060:	681b      	ldr	r3, [r3, #0]
 8002062:	430a      	orrs	r2, r1
 8002064:	605a      	str	r2, [r3, #4]
    }
  }

  /* if required, configure MSB first on communication line */
  if (HAL_IS_BIT_SET(huart->AdvancedInit.AdvFeatureInit, UART_ADVFEATURE_MSBFIRST_INIT))
 8002066:	687b      	ldr	r3, [r7, #4]
 8002068:	6a9b      	ldr	r3, [r3, #40]	@ 0x28
 800206a:	2280      	movs	r2, #128	@ 0x80
 800206c:	4013      	ands	r3, r2
 800206e:	d00b      	beq.n	8002088 <UART_AdvFeatureConfig+0x13c>
  {
    assert_param(IS_UART_ADVFEATURE_MSBFIRST(huart->AdvancedInit.MSBFirst));
    MODIFY_REG(huart->Instance->CR2, USART_CR2_MSBFIRST, huart->AdvancedInit.MSBFirst);
 8002070:	687b      	ldr	r3, [r7, #4]
 8002072:	681b      	ldr	r3, [r3, #0]
 8002074:	685b      	ldr	r3, [r3, #4]
 8002076:	4a0e      	ldr	r2, [pc, #56]	@ (80020b0 <UART_AdvFeatureConfig+0x164>)
 8002078:	4013      	ands	r3, r2
 800207a:	0019      	movs	r1, r3
 800207c:	687b      	ldr	r3, [r7, #4]
 800207e:	6cda      	ldr	r2, [r3, #76]	@ 0x4c
 8002080:	687b      	ldr	r3, [r7, #4]
 8002082:	681b      	ldr	r3, [r3, #0]
 8002084:	430a      	orrs	r2, r1
 8002086:	605a      	str	r2, [r3, #4]
  }
}
 8002088:	46c0      	nop			@ (mov r8, r8)
 800208a:	46bd      	mov	sp, r7
 800208c:	b002      	add	sp, #8
 800208e:	bd80      	pop	{r7, pc}
 8002090:	ffff7fff 	.word	0xffff7fff
 8002094:	fffdffff 	.word	0xfffdffff
 8002098:	fffeffff 	.word	0xfffeffff
 800209c:	fffbffff 	.word	0xfffbffff
 80020a0:	ffffefff 	.word	0xffffefff
 80020a4:	ffffdfff 	.word	0xffffdfff
 80020a8:	ffefffff 	.word	0xffefffff
 80020ac:	ff9fffff 	.word	0xff9fffff
 80020b0:	fff7ffff 	.word	0xfff7ffff

080020b4 <UART_CheckIdleState>:
  * @brief Check the UART Idle State.
  * @param huart UART handle.
  * @retval HAL status
  */
HAL_StatusTypeDef UART_CheckIdleState(UART_HandleTypeDef *huart)
{
 80020b4:	b580      	push	{r7, lr}
 80020b6:	b092      	sub	sp, #72	@ 0x48
 80020b8:	af02      	add	r7, sp, #8
 80020ba:	6078      	str	r0, [r7, #4]
  uint32_t tickstart;

  /* Initialize the UART ErrorCode */
  huart->ErrorCode = HAL_UART_ERROR_NONE;
 80020bc:	687b      	ldr	r3, [r7, #4]
 80020be:	2290      	movs	r2, #144	@ 0x90
 80020c0:	2100      	movs	r1, #0
 80020c2:	5099      	str	r1, [r3, r2]

  /* Init tickstart for timeout management */
  tickstart = HAL_GetTick();
 80020c4:	f7fe fb26 	bl	8000714 <HAL_GetTick>
 80020c8:	0003      	movs	r3, r0
 80020ca:	63fb      	str	r3, [r7, #60]	@ 0x3c

  /* Check if the Transmitter is enabled */
  if ((huart->Instance->CR1 & USART_CR1_TE) == USART_CR1_TE)
 80020cc:	687b      	ldr	r3, [r7, #4]
 80020ce:	681b      	ldr	r3, [r3, #0]
 80020d0:	681b      	ldr	r3, [r3, #0]
 80020d2:	2208      	movs	r2, #8
 80020d4:	4013      	ands	r3, r2
 80020d6:	2b08      	cmp	r3, #8
 80020d8:	d12d      	bne.n	8002136 <UART_CheckIdleState+0x82>
  {
    /* Wait until TEACK flag is set */
    if (UART_WaitOnFlagUntilTimeout(huart, USART_ISR_TEACK, RESET, tickstart, HAL_UART_TIMEOUT_VALUE) != HAL_OK)
 80020da:	6bfb      	ldr	r3, [r7, #60]	@ 0x3c
 80020dc:	2280      	movs	r2, #128	@ 0x80
 80020de:	0391      	lsls	r1, r2, #14
 80020e0:	6878      	ldr	r0, [r7, #4]
 80020e2:	4a47      	ldr	r2, [pc, #284]	@ (8002200 <UART_CheckIdleState+0x14c>)
 80020e4:	9200      	str	r2, [sp, #0]
 80020e6:	2200      	movs	r2, #0
 80020e8:	f000 f88e 	bl	8002208 <UART_WaitOnFlagUntilTimeout>
 80020ec:	1e03      	subs	r3, r0, #0
 80020ee:	d022      	beq.n	8002136 <UART_CheckIdleState+0x82>
 */
__STATIC_FORCEINLINE uint32_t __get_PRIMASK(void)
{
  uint32_t result;

  __ASM volatile ("MRS %0, primask" : "=r" (result) :: "memory");
 80020f0:	f3ef 8310 	mrs	r3, PRIMASK
 80020f4:	627b      	str	r3, [r7, #36]	@ 0x24
  return(result);
 80020f6:	6a7b      	ldr	r3, [r7, #36]	@ 0x24
    {
      /* Disable TXE interrupt for the interrupt process */
      ATOMIC_CLEAR_BIT(huart->Instance->CR1, (USART_CR1_TXEIE_TXFNFIE));
 80020f8:	63bb      	str	r3, [r7, #56]	@ 0x38
 80020fa:	2301      	movs	r3, #1
 80020fc:	62bb      	str	r3, [r7, #40]	@ 0x28
  \details Assigns the given value to the Priority Mask Register.
  \param [in]    priMask  Priority Mask
 */
__STATIC_FORCEINLINE void __set_PRIMASK(uint32_t priMask)
{
  __ASM volatile ("MSR primask, %0" : : "r" (priMask) : "memory");
 80020fe:	6abb      	ldr	r3, [r7, #40]	@ 0x28
 8002100:	f383 8810 	msr	PRIMASK, r3
}
 8002104:	46c0      	nop			@ (mov r8, r8)
 8002106:	687b      	ldr	r3, [r7, #4]
 8002108:	681b      	ldr	r3, [r3, #0]
 800210a:	681a      	ldr	r2, [r3, #0]
 800210c:	687b      	ldr	r3, [r7, #4]
 800210e:	681b      	ldr	r3, [r3, #0]
 8002110:	2180      	movs	r1, #128	@ 0x80
 8002112:	438a      	bics	r2, r1
 8002114:	601a      	str	r2, [r3, #0]
 8002116:	6bbb      	ldr	r3, [r7, #56]	@ 0x38
 8002118:	62fb      	str	r3, [r7, #44]	@ 0x2c
  __ASM volatile ("MSR primask, %0" : : "r" (priMask) : "memory");
 800211a:	6afb      	ldr	r3, [r7, #44]	@ 0x2c
 800211c:	f383 8810 	msr	PRIMASK, r3
}
 8002120:	46c0      	nop			@ (mov r8, r8)

      huart->gState = HAL_UART_STATE_READY;
 8002122:	687b      	ldr	r3, [r7, #4]
 8002124:	2288      	movs	r2, #136	@ 0x88
 8002126:	2120      	movs	r1, #32
 8002128:	5099      	str	r1, [r3, r2]

      __HAL_UNLOCK(huart);
 800212a:	687b      	ldr	r3, [r7, #4]
 800212c:	2284      	movs	r2, #132	@ 0x84
 800212e:	2100      	movs	r1, #0
 8002130:	5499      	strb	r1, [r3, r2]

      /* Timeout occurred */
      return HAL_TIMEOUT;
 8002132:	2303      	movs	r3, #3
 8002134:	e060      	b.n	80021f8 <UART_CheckIdleState+0x144>
    }
  }

  /* Check if the Receiver is enabled */
  if ((huart->Instance->CR1 & USART_CR1_RE) == USART_CR1_RE)
 8002136:	687b      	ldr	r3, [r7, #4]
 8002138:	681b      	ldr	r3, [r3, #0]
 800213a:	681b      	ldr	r3, [r3, #0]
 800213c:	2204      	movs	r2, #4
 800213e:	4013      	ands	r3, r2
 8002140:	2b04      	cmp	r3, #4
 8002142:	d146      	bne.n	80021d2 <UART_CheckIdleState+0x11e>
  {
    /* Wait until REACK flag is set */
    if (UART_WaitOnFlagUntilTimeout(huart, USART_ISR_REACK, RESET, tickstart, HAL_UART_TIMEOUT_VALUE) != HAL_OK)
 8002144:	6bfb      	ldr	r3, [r7, #60]	@ 0x3c
 8002146:	2280      	movs	r2, #128	@ 0x80
 8002148:	03d1      	lsls	r1, r2, #15
 800214a:	6878      	ldr	r0, [r7, #4]
 800214c:	4a2c      	ldr	r2, [pc, #176]	@ (8002200 <UART_CheckIdleState+0x14c>)
 800214e:	9200      	str	r2, [sp, #0]
 8002150:	2200      	movs	r2, #0
 8002152:	f000 f859 	bl	8002208 <UART_WaitOnFlagUntilTimeout>
 8002156:	1e03      	subs	r3, r0, #0
 8002158:	d03b      	beq.n	80021d2 <UART_CheckIdleState+0x11e>
  __ASM volatile ("MRS %0, primask" : "=r" (result) :: "memory");
 800215a:	f3ef 8310 	mrs	r3, PRIMASK
 800215e:	60fb      	str	r3, [r7, #12]
  return(result);
 8002160:	68fb      	ldr	r3, [r7, #12]
    {
      /* Disable RXNE, PE and ERR (Frame error, noise error, overrun error)
      interrupts for the interrupt process */
      ATOMIC_CLEAR_BIT(huart->Instance->CR1, (USART_CR1_RXNEIE_RXFNEIE | USART_CR1_PEIE));
 8002162:	637b      	str	r3, [r7, #52]	@ 0x34
 8002164:	2301      	movs	r3, #1
 8002166:	613b      	str	r3, [r7, #16]
  __ASM volatile ("MSR primask, %0" : : "r" (priMask) : "memory");
 8002168:	693b      	ldr	r3, [r7, #16]
 800216a:	f383 8810 	msr	PRIMASK, r3
}
 800216e:	46c0      	nop			@ (mov r8, r8)
 8002170:	687b      	ldr	r3, [r7, #4]
 8002172:	681b      	ldr	r3, [r3, #0]
 8002174:	681a      	ldr	r2, [r3, #0]
 8002176:	687b      	ldr	r3, [r7, #4]
 8002178:	681b      	ldr	r3, [r3, #0]
 800217a:	4922      	ldr	r1, [pc, #136]	@ (8002204 <UART_CheckIdleState+0x150>)
 800217c:	400a      	ands	r2, r1
 800217e:	601a      	str	r2, [r3, #0]
 8002180:	6b7b      	ldr	r3, [r7, #52]	@ 0x34
 8002182:	617b      	str	r3, [r7, #20]
  __ASM volatile ("MSR primask, %0" : : "r" (priMask) : "memory");
 8002184:	697b      	ldr	r3, [r7, #20]
 8002186:	f383 8810 	msr	PRIMASK, r3
}
 800218a:	46c0      	nop			@ (mov r8, r8)
  __ASM volatile ("MRS %0, primask" : "=r" (result) :: "memory");
 800218c:	f3ef 8310 	mrs	r3, PRIMASK
 8002190:	61bb      	str	r3, [r7, #24]
  return(result);
 8002192:	69bb      	ldr	r3, [r7, #24]
      ATOMIC_CLEAR_BIT(huart->Instance->CR3, USART_CR3_EIE);
 8002194:	633b      	str	r3, [r7, #48]	@ 0x30
 8002196:	2301      	movs	r3, #1
 8002198:	61fb      	str	r3, [r7, #28]
  __ASM volatile ("MSR primask, %0" : : "r" (priMask) : "memory");
 800219a:	69fb      	ldr	r3, [r7, #28]
 800219c:	f383 8810 	msr	PRIMASK, r3
}
 80021a0:	46c0      	nop			@ (mov r8, r8)
 80021a2:	687b      	ldr	r3, [r7, #4]
 80021a4:	681b      	ldr	r3, [r3, #0]
 80021a6:	689a      	ldr	r2, [r3, #8]
 80021a8:	687b      	ldr	r3, [r7, #4]
 80021aa:	681b      	ldr	r3, [r3, #0]
 80021ac:	2101      	movs	r1, #1
 80021ae:	438a      	bics	r2, r1
 80021b0:	609a      	str	r2, [r3, #8]
 80021b2:	6b3b      	ldr	r3, [r7, #48]	@ 0x30
 80021b4:	623b      	str	r3, [r7, #32]
  __ASM volatile ("MSR primask, %0" : : "r" (priMask) : "memory");
 80021b6:	6a3b      	ldr	r3, [r7, #32]
 80021b8:	f383 8810 	msr	PRIMASK, r3
}
 80021bc:	46c0      	nop			@ (mov r8, r8)

      huart->RxState = HAL_UART_STATE_READY;
 80021be:	687b      	ldr	r3, [r7, #4]
 80021c0:	228c      	movs	r2, #140	@ 0x8c
 80021c2:	2120      	movs	r1, #32
 80021c4:	5099      	str	r1, [r3, r2]

      __HAL_UNLOCK(huart);
 80021c6:	687b      	ldr	r3, [r7, #4]
 80021c8:	2284      	movs	r2, #132	@ 0x84
 80021ca:	2100      	movs	r1, #0
 80021cc:	5499      	strb	r1, [r3, r2]

      /* Timeout occurred */
      return HAL_TIMEOUT;
 80021ce:	2303      	movs	r3, #3
 80021d0:	e012      	b.n	80021f8 <UART_CheckIdleState+0x144>
    }
  }

  /* Initialize the UART State */
  huart->gState = HAL_UART_STATE_READY;
 80021d2:	687b      	ldr	r3, [r7, #4]
 80021d4:	2288      	movs	r2, #136	@ 0x88
 80021d6:	2120      	movs	r1, #32
 80021d8:	5099      	str	r1, [r3, r2]
  huart->RxState = HAL_UART_STATE_READY;
 80021da:	687b      	ldr	r3, [r7, #4]
 80021dc:	228c      	movs	r2, #140	@ 0x8c
 80021de:	2120      	movs	r1, #32
 80021e0:	5099      	str	r1, [r3, r2]
  huart->ReceptionType = HAL_UART_RECEPTION_STANDARD;
 80021e2:	687b      	ldr	r3, [r7, #4]
 80021e4:	2200      	movs	r2, #0
 80021e6:	66da      	str	r2, [r3, #108]	@ 0x6c
  huart->RxEventType = HAL_UART_RXEVENT_TC;
 80021e8:	687b      	ldr	r3, [r7, #4]
 80021ea:	2200      	movs	r2, #0
 80021ec:	671a      	str	r2, [r3, #112]	@ 0x70

  __HAL_UNLOCK(huart);
 80021ee:	687b      	ldr	r3, [r7, #4]
 80021f0:	2284      	movs	r2, #132	@ 0x84
 80021f2:	2100      	movs	r1, #0
 80021f4:	5499      	strb	r1, [r3, r2]

  return HAL_OK;
 80021f6:	2300      	movs	r3, #0
}
 80021f8:	0018      	movs	r0, r3
 80021fa:	46bd      	mov	sp, r7
 80021fc:	b010      	add	sp, #64	@ 0x40
 80021fe:	bd80      	pop	{r7, pc}
 8002200:	01ffffff 	.word	0x01ffffff
 8002204:	fffffedf 	.word	0xfffffedf

08002208 <UART_WaitOnFlagUntilTimeout>:
  * @param Timeout   Timeout duration
  * @retval HAL status
  */
HAL_StatusTypeDef UART_WaitOnFlagUntilTimeout(UART_HandleTypeDef *huart, uint32_t Flag, FlagStatus Status,
                                              uint32_t Tickstart, uint32_t Timeout)
{
 8002208:	b580      	push	{r7, lr}
 800220a:	b084      	sub	sp, #16
 800220c:	af00      	add	r7, sp, #0
 800220e:	60f8      	str	r0, [r7, #12]
 8002210:	60b9      	str	r1, [r7, #8]
 8002212:	603b      	str	r3, [r7, #0]
 8002214:	1dfb      	adds	r3, r7, #7
 8002216:	701a      	strb	r2, [r3, #0]
  /* Wait until flag is set */
  while ((__HAL_UART_GET_FLAG(huart, Flag) ? SET : RESET) == Status)
 8002218:	e051      	b.n	80022be <UART_WaitOnFlagUntilTimeout+0xb6>
  {
    /* Check for the Timeout */
    if (Timeout != HAL_MAX_DELAY)
 800221a:	69bb      	ldr	r3, [r7, #24]
 800221c:	3301      	adds	r3, #1
 800221e:	d04e      	beq.n	80022be <UART_WaitOnFlagUntilTimeout+0xb6>
    {
      if (((HAL_GetTick() - Tickstart) > Timeout) || (Timeout == 0U))
 8002220:	f7fe fa78 	bl	8000714 <HAL_GetTick>
 8002224:	0002      	movs	r2, r0
 8002226:	683b      	ldr	r3, [r7, #0]
 8002228:	1ad3      	subs	r3, r2, r3
 800222a:	69ba      	ldr	r2, [r7, #24]
 800222c:	429a      	cmp	r2, r3
 800222e:	d302      	bcc.n	8002236 <UART_WaitOnFlagUntilTimeout+0x2e>
 8002230:	69bb      	ldr	r3, [r7, #24]
 8002232:	2b00      	cmp	r3, #0
 8002234:	d101      	bne.n	800223a <UART_WaitOnFlagUntilTimeout+0x32>
      {

        return HAL_TIMEOUT;
 8002236:	2303      	movs	r3, #3
 8002238:	e051      	b.n	80022de <UART_WaitOnFlagUntilTimeout+0xd6>
      }

      if ((READ_BIT(huart->Instance->CR1, USART_CR1_RE) != 0U) && (Flag != UART_FLAG_TXE) && (Flag != UART_FLAG_TC))
 800223a:	68fb      	ldr	r3, [r7, #12]
 800223c:	681b      	ldr	r3, [r3, #0]
 800223e:	681b      	ldr	r3, [r3, #0]
 8002240:	2204      	movs	r2, #4
 8002242:	4013      	ands	r3, r2
 8002244:	d03b      	beq.n	80022be <UART_WaitOnFlagUntilTimeout+0xb6>
 8002246:	68bb      	ldr	r3, [r7, #8]
 8002248:	2b80      	cmp	r3, #128	@ 0x80
 800224a:	d038      	beq.n	80022be <UART_WaitOnFlagUntilTimeout+0xb6>
 800224c:	68bb      	ldr	r3, [r7, #8]
 800224e:	2b40      	cmp	r3, #64	@ 0x40
 8002250:	d035      	beq.n	80022be <UART_WaitOnFlagUntilTimeout+0xb6>
      {
        if (__HAL_UART_GET_FLAG(huart, UART_FLAG_ORE) == SET)
 8002252:	68fb      	ldr	r3, [r7, #12]
 8002254:	681b      	ldr	r3, [r3, #0]
 8002256:	69db      	ldr	r3, [r3, #28]
 8002258:	2208      	movs	r2, #8
 800225a:	4013      	ands	r3, r2
 800225c:	2b08      	cmp	r3, #8
 800225e:	d111      	bne.n	8002284 <UART_WaitOnFlagUntilTimeout+0x7c>
        {
          /* Clear Overrun Error flag*/
          __HAL_UART_CLEAR_FLAG(huart, UART_CLEAR_OREF);
 8002260:	68fb      	ldr	r3, [r7, #12]
 8002262:	681b      	ldr	r3, [r3, #0]
 8002264:	2208      	movs	r2, #8
 8002266:	621a      	str	r2, [r3, #32]

          /* Blocking error : transfer is aborted
          Set the UART state ready to be able to start again the process,
          Disable Rx Interrupts if ongoing */
          UART_EndRxTransfer(huart);
 8002268:	68fb      	ldr	r3, [r7, #12]
 800226a:	0018      	movs	r0, r3
 800226c:	f000 f83c 	bl	80022e8 <UART_EndRxTransfer>

          huart->ErrorCode = HAL_UART_ERROR_ORE;
 8002270:	68fb      	ldr	r3, [r7, #12]
 8002272:	2290      	movs	r2, #144	@ 0x90
 8002274:	2108      	movs	r1, #8
 8002276:	5099      	str	r1, [r3, r2]

          /* Process Unlocked */
          __HAL_UNLOCK(huart);
 8002278:	68fb      	ldr	r3, [r7, #12]
 800227a:	2284      	movs	r2, #132	@ 0x84
 800227c:	2100      	movs	r1, #0
 800227e:	5499      	strb	r1, [r3, r2]

          return HAL_ERROR;
 8002280:	2301      	movs	r3, #1
 8002282:	e02c      	b.n	80022de <UART_WaitOnFlagUntilTimeout+0xd6>
        }
        if (__HAL_UART_GET_FLAG(huart, UART_FLAG_RTOF) == SET)
 8002284:	68fb      	ldr	r3, [r7, #12]
 8002286:	681b      	ldr	r3, [r3, #0]
 8002288:	69da      	ldr	r2, [r3, #28]
 800228a:	2380      	movs	r3, #128	@ 0x80
 800228c:	011b      	lsls	r3, r3, #4
 800228e:	401a      	ands	r2, r3
 8002290:	2380      	movs	r3, #128	@ 0x80
 8002292:	011b      	lsls	r3, r3, #4
 8002294:	429a      	cmp	r2, r3
 8002296:	d112      	bne.n	80022be <UART_WaitOnFlagUntilTimeout+0xb6>
        {
          /* Clear Receiver Timeout flag*/
          __HAL_UART_CLEAR_FLAG(huart, UART_CLEAR_RTOF);
 8002298:	68fb      	ldr	r3, [r7, #12]
 800229a:	681b      	ldr	r3, [r3, #0]
 800229c:	2280      	movs	r2, #128	@ 0x80
 800229e:	0112      	lsls	r2, r2, #4
 80022a0:	621a      	str	r2, [r3, #32]

          /* Blocking error : transfer is aborted
          Set the UART state ready to be able to start again the process,
          Disable Rx Interrupts if ongoing */
          UART_EndRxTransfer(huart);
 80022a2:	68fb      	ldr	r3, [r7, #12]
 80022a4:	0018      	movs	r0, r3
 80022a6:	f000 f81f 	bl	80022e8 <UART_EndRxTransfer>

          huart->ErrorCode = HAL_UART_ERROR_RTO;
 80022aa:	68fb      	ldr	r3, [r7, #12]
 80022ac:	2290      	movs	r2, #144	@ 0x90
 80022ae:	2120      	movs	r1, #32
 80022b0:	5099      	str	r1, [r3, r2]

          /* Process Unlocked */
          __HAL_UNLOCK(huart);
 80022b2:	68fb      	ldr	r3, [r7, #12]
 80022b4:	2284      	movs	r2, #132	@ 0x84
 80022b6:	2100      	movs	r1, #0
 80022b8:	5499      	strb	r1, [r3, r2]

          return HAL_TIMEOUT;
 80022ba:	2303      	movs	r3, #3
 80022bc:	e00f      	b.n	80022de <UART_WaitOnFlagUntilTimeout+0xd6>
  while ((__HAL_UART_GET_FLAG(huart, Flag) ? SET : RESET) == Status)
 80022be:	68fb      	ldr	r3, [r7, #12]
 80022c0:	681b      	ldr	r3, [r3, #0]
 80022c2:	69db      	ldr	r3, [r3, #28]
 80022c4:	68ba      	ldr	r2, [r7, #8]
 80022c6:	4013      	ands	r3, r2
 80022c8:	68ba      	ldr	r2, [r7, #8]
 80022ca:	1ad3      	subs	r3, r2, r3
 80022cc:	425a      	negs	r2, r3
 80022ce:	4153      	adcs	r3, r2
 80022d0:	b2db      	uxtb	r3, r3
 80022d2:	001a      	movs	r2, r3
 80022d4:	1dfb      	adds	r3, r7, #7
 80022d6:	781b      	ldrb	r3, [r3, #0]
 80022d8:	429a      	cmp	r2, r3
 80022da:	d09e      	beq.n	800221a <UART_WaitOnFlagUntilTimeout+0x12>
        }
      }
    }
  }
  return HAL_OK;
 80022dc:	2300      	movs	r3, #0
}
 80022de:	0018      	movs	r0, r3
 80022e0:	46bd      	mov	sp, r7
 80022e2:	b004      	add	sp, #16
 80022e4:	bd80      	pop	{r7, pc}
	...

080022e8 <UART_EndRxTransfer>:
  * @brief  End ongoing Rx transfer on UART peripheral (following error detection or Reception completion).
  * @param  huart UART handle.
  * @retval None
  */
static void UART_EndRxTransfer(UART_HandleTypeDef *huart)
{
 80022e8:	b580      	push	{r7, lr}
 80022ea:	b08e      	sub	sp, #56	@ 0x38
 80022ec:	af00      	add	r7, sp, #0
 80022ee:	6078      	str	r0, [r7, #4]
  __ASM volatile ("MRS %0, primask" : "=r" (result) :: "memory");
 80022f0:	f3ef 8310 	mrs	r3, PRIMASK
 80022f4:	617b      	str	r3, [r7, #20]
  return(result);
 80022f6:	697b      	ldr	r3, [r7, #20]
  /* Disable RXNE, PE and ERR (Frame error, noise error, overrun error) interrupts */
  ATOMIC_CLEAR_BIT(huart->Instance->CR1, (USART_CR1_RXNEIE_RXFNEIE | USART_CR1_PEIE));
 80022f8:	637b      	str	r3, [r7, #52]	@ 0x34
 80022fa:	2301      	movs	r3, #1
 80022fc:	61bb      	str	r3, [r7, #24]
  __ASM volatile ("MSR primask, %0" : : "r" (priMask) : "memory");
 80022fe:	69bb      	ldr	r3, [r7, #24]
 8002300:	f383 8810 	msr	PRIMASK, r3
}
 8002304:	46c0      	nop			@ (mov r8, r8)
 8002306:	687b      	ldr	r3, [r7, #4]
 8002308:	681b      	ldr	r3, [r3, #0]
 800230a:	681a      	ldr	r2, [r3, #0]
 800230c:	687b      	ldr	r3, [r7, #4]
 800230e:	681b      	ldr	r3, [r3, #0]
 8002310:	4926      	ldr	r1, [pc, #152]	@ (80023ac <UART_EndRxTransfer+0xc4>)
 8002312:	400a      	ands	r2, r1
 8002314:	601a      	str	r2, [r3, #0]
 8002316:	6b7b      	ldr	r3, [r7, #52]	@ 0x34
 8002318:	61fb      	str	r3, [r7, #28]
  __ASM volatile ("MSR primask, %0" : : "r" (priMask) : "memory");
 800231a:	69fb      	ldr	r3, [r7, #28]
 800231c:	f383 8810 	msr	PRIMASK, r3
}
 8002320:	46c0      	nop			@ (mov r8, r8)
  __ASM volatile ("MRS %0, primask" : "=r" (result) :: "memory");
 8002322:	f3ef 8310 	mrs	r3, PRIMASK
 8002326:	623b      	str	r3, [r7, #32]
  return(result);
 8002328:	6a3b      	ldr	r3, [r7, #32]
  ATOMIC_CLEAR_BIT(huart->Instance->CR3, (USART_CR3_EIE | USART_CR3_RXFTIE));
 800232a:	633b      	str	r3, [r7, #48]	@ 0x30
 800232c:	2301      	movs	r3, #1
 800232e:	627b      	str	r3, [r7, #36]	@ 0x24
  __ASM volatile ("MSR primask, %0" : : "r" (priMask) : "memory");
 8002330:	6a7b      	ldr	r3, [r7, #36]	@ 0x24
 8002332:	f383 8810 	msr	PRIMASK, r3
}
 8002336:	46c0      	nop			@ (mov r8, r8)
 8002338:	687b      	ldr	r3, [r7, #4]
 800233a:	681b      	ldr	r3, [r3, #0]
 800233c:	689a      	ldr	r2, [r3, #8]
 800233e:	687b      	ldr	r3, [r7, #4]
 8002340:	681b      	ldr	r3, [r3, #0]
 8002342:	491b      	ldr	r1, [pc, #108]	@ (80023b0 <UART_EndRxTransfer+0xc8>)
 8002344:	400a      	ands	r2, r1
 8002346:	609a      	str	r2, [r3, #8]
 8002348:	6b3b      	ldr	r3, [r7, #48]	@ 0x30
 800234a:	62bb      	str	r3, [r7, #40]	@ 0x28
  __ASM volatile ("MSR primask, %0" : : "r" (priMask) : "memory");
 800234c:	6abb      	ldr	r3, [r7, #40]	@ 0x28
 800234e:	f383 8810 	msr	PRIMASK, r3
}
 8002352:	46c0      	nop			@ (mov r8, r8)

  /* In case of reception waiting for IDLE event, disable also the IDLE IE interrupt source */
  if (huart->ReceptionType == HAL_UART_RECEPTION_TOIDLE)
 8002354:	687b      	ldr	r3, [r7, #4]
 8002356:	6edb      	ldr	r3, [r3, #108]	@ 0x6c
 8002358:	2b01      	cmp	r3, #1
 800235a:	d118      	bne.n	800238e <UART_EndRxTransfer+0xa6>
  __ASM volatile ("MRS %0, primask" : "=r" (result) :: "memory");
 800235c:	f3ef 8310 	mrs	r3, PRIMASK
 8002360:	60bb      	str	r3, [r7, #8]
  return(result);
 8002362:	68bb      	ldr	r3, [r7, #8]
  {
    ATOMIC_CLEAR_BIT(huart->Instance->CR1, USART_CR1_IDLEIE);
 8002364:	62fb      	str	r3, [r7, #44]	@ 0x2c
 8002366:	2301      	movs	r3, #1
 8002368:	60fb      	str	r3, [r7, #12]
  __ASM volatile ("MSR primask, %0" : : "r" (priMask) : "memory");
 800236a:	68fb      	ldr	r3, [r7, #12]
 800236c:	f383 8810 	msr	PRIMASK, r3
}
 8002370:	46c0      	nop			@ (mov r8, r8)
 8002372:	687b      	ldr	r3, [r7, #4]
 8002374:	681b      	ldr	r3, [r3, #0]
 8002376:	681a      	ldr	r2, [r3, #0]
 8002378:	687b      	ldr	r3, [r7, #4]
 800237a:	681b      	ldr	r3, [r3, #0]
 800237c:	2110      	movs	r1, #16
 800237e:	438a      	bics	r2, r1
 8002380:	601a      	str	r2, [r3, #0]
 8002382:	6afb      	ldr	r3, [r7, #44]	@ 0x2c
 8002384:	613b      	str	r3, [r7, #16]
  __ASM volatile ("MSR primask, %0" : : "r" (priMask) : "memory");
 8002386:	693b      	ldr	r3, [r7, #16]
 8002388:	f383 8810 	msr	PRIMASK, r3
}
 800238c:	46c0      	nop			@ (mov r8, r8)
  }

  /* At end of Rx process, restore huart->RxState to Ready */
  huart->RxState = HAL_UART_STATE_READY;
 800238e:	687b      	ldr	r3, [r7, #4]
 8002390:	228c      	movs	r2, #140	@ 0x8c
 8002392:	2120      	movs	r1, #32
 8002394:	5099      	str	r1, [r3, r2]
  huart->ReceptionType = HAL_UART_RECEPTION_STANDARD;
 8002396:	687b      	ldr	r3, [r7, #4]
 8002398:	2200      	movs	r2, #0
 800239a:	66da      	str	r2, [r3, #108]	@ 0x6c

  /* Reset RxIsr function pointer */
  huart->RxISR = NULL;
 800239c:	687b      	ldr	r3, [r7, #4]
 800239e:	2200      	movs	r2, #0
 80023a0:	675a      	str	r2, [r3, #116]	@ 0x74
}
 80023a2:	46c0      	nop			@ (mov r8, r8)
 80023a4:	46bd      	mov	sp, r7
 80023a6:	b00e      	add	sp, #56	@ 0x38
 80023a8:	bd80      	pop	{r7, pc}
 80023aa:	46c0      	nop			@ (mov r8, r8)
 80023ac:	fffffedf 	.word	0xfffffedf
 80023b0:	effffffe 	.word	0xeffffffe

080023b4 <HAL_UARTEx_DisableFifoMode>:
  * @brief  Disable the FIFO mode.
  * @param huart      UART handle.
  * @retval HAL status
  */
HAL_StatusTypeDef HAL_UARTEx_DisableFifoMode(UART_HandleTypeDef *huart)
{
 80023b4:	b580      	push	{r7, lr}
 80023b6:	b084      	sub	sp, #16
 80023b8:	af00      	add	r7, sp, #0
 80023ba:	6078      	str	r0, [r7, #4]

  /* Check parameters */
  assert_param(IS_UART_FIFO_INSTANCE(huart->Instance));

  /* Process Locked */
  __HAL_LOCK(huart);
 80023bc:	687b      	ldr	r3, [r7, #4]
 80023be:	2284      	movs	r2, #132	@ 0x84
 80023c0:	5c9b      	ldrb	r3, [r3, r2]
 80023c2:	2b01      	cmp	r3, #1
 80023c4:	d101      	bne.n	80023ca <HAL_UARTEx_DisableFifoMode+0x16>
 80023c6:	2302      	movs	r3, #2
 80023c8:	e027      	b.n	800241a <HAL_UARTEx_DisableFifoMode+0x66>
 80023ca:	687b      	ldr	r3, [r7, #4]
 80023cc:	2284      	movs	r2, #132	@ 0x84
 80023ce:	2101      	movs	r1, #1
 80023d0:	5499      	strb	r1, [r3, r2]

  huart->gState = HAL_UART_STATE_BUSY;
 80023d2:	687b      	ldr	r3, [r7, #4]
 80023d4:	2288      	movs	r2, #136	@ 0x88
 80023d6:	2124      	movs	r1, #36	@ 0x24
 80023d8:	5099      	str	r1, [r3, r2]

  /* Save actual UART configuration */
  tmpcr1 = READ_REG(huart->Instance->CR1);
 80023da:	687b      	ldr	r3, [r7, #4]
 80023dc:	681b      	ldr	r3, [r3, #0]
 80023de:	681b      	ldr	r3, [r3, #0]
 80023e0:	60fb      	str	r3, [r7, #12]

  /* Disable UART */
  __HAL_UART_DISABLE(huart);
 80023e2:	687b      	ldr	r3, [r7, #4]
 80023e4:	681b      	ldr	r3, [r3, #0]
 80023e6:	681a      	ldr	r2, [r3, #0]
 80023e8:	687b      	ldr	r3, [r7, #4]
 80023ea:	681b      	ldr	r3, [r3, #0]
 80023ec:	2101      	movs	r1, #1
 80023ee:	438a      	bics	r2, r1
 80023f0:	601a      	str	r2, [r3, #0]

  /* Enable FIFO mode */
  CLEAR_BIT(tmpcr1, USART_CR1_FIFOEN);
 80023f2:	68fb      	ldr	r3, [r7, #12]
 80023f4:	4a0b      	ldr	r2, [pc, #44]	@ (8002424 <HAL_UARTEx_DisableFifoMode+0x70>)
 80023f6:	4013      	ands	r3, r2
 80023f8:	60fb      	str	r3, [r7, #12]
  huart->FifoMode = UART_FIFOMODE_DISABLE;
 80023fa:	687b      	ldr	r3, [r7, #4]
 80023fc:	2200      	movs	r2, #0
 80023fe:	665a      	str	r2, [r3, #100]	@ 0x64

  /* Restore UART configuration */
  WRITE_REG(huart->Instance->CR1, tmpcr1);
 8002400:	687b      	ldr	r3, [r7, #4]
 8002402:	681b      	ldr	r3, [r3, #0]
 8002404:	68fa      	ldr	r2, [r7, #12]
 8002406:	601a      	str	r2, [r3, #0]

  huart->gState = HAL_UART_STATE_READY;
 8002408:	687b      	ldr	r3, [r7, #4]
 800240a:	2288      	movs	r2, #136	@ 0x88
 800240c:	2120      	movs	r1, #32
 800240e:	5099      	str	r1, [r3, r2]

  /* Process Unlocked */
  __HAL_UNLOCK(huart);
 8002410:	687b      	ldr	r3, [r7, #4]
 8002412:	2284      	movs	r2, #132	@ 0x84
 8002414:	2100      	movs	r1, #0
 8002416:	5499      	strb	r1, [r3, r2]

  return HAL_OK;
 8002418:	2300      	movs	r3, #0
}
 800241a:	0018      	movs	r0, r3
 800241c:	46bd      	mov	sp, r7
 800241e:	b004      	add	sp, #16
 8002420:	bd80      	pop	{r7, pc}
 8002422:	46c0      	nop			@ (mov r8, r8)
 8002424:	dfffffff 	.word	0xdfffffff

08002428 <HAL_UARTEx_SetTxFifoThreshold>:
  *            @arg @ref UART_TXFIFO_THRESHOLD_7_8
  *            @arg @ref UART_TXFIFO_THRESHOLD_8_8
  * @retval HAL status
  */
HAL_StatusTypeDef HAL_UARTEx_SetTxFifoThreshold(UART_HandleTypeDef *huart, uint32_t Threshold)
{
 8002428:	b580      	push	{r7, lr}
 800242a:	b084      	sub	sp, #16
 800242c:	af00      	add	r7, sp, #0
 800242e:	6078      	str	r0, [r7, #4]
 8002430:	6039      	str	r1, [r7, #0]
  /* Check parameters */
  assert_param(IS_UART_FIFO_INSTANCE(huart->Instance));
  assert_param(IS_UART_TXFIFO_THRESHOLD(Threshold));

  /* Process Locked */
  __HAL_LOCK(huart);
 8002432:	687b      	ldr	r3, [r7, #4]
 8002434:	2284      	movs	r2, #132	@ 0x84
 8002436:	5c9b      	ldrb	r3, [r3, r2]
 8002438:	2b01      	cmp	r3, #1
 800243a:	d101      	bne.n	8002440 <HAL_UARTEx_SetTxFifoThreshold+0x18>
 800243c:	2302      	movs	r3, #2
 800243e:	e02e      	b.n	800249e <HAL_UARTEx_SetTxFifoThreshold+0x76>
 8002440:	687b      	ldr	r3, [r7, #4]
 8002442:	2284      	movs	r2, #132	@ 0x84
 8002444:	2101      	movs	r1, #1
 8002446:	5499      	strb	r1, [r3, r2]

  huart->gState = HAL_UART_STATE_BUSY;
 8002448:	687b      	ldr	r3, [r7, #4]
 800244a:	2288      	movs	r2, #136	@ 0x88
 800244c:	2124      	movs	r1, #36	@ 0x24
 800244e:	5099      	str	r1, [r3, r2]

  /* Save actual UART configuration */
  tmpcr1 = READ_REG(huart->Instance->CR1);
 8002450:	687b      	ldr	r3, [r7, #4]
 8002452:	681b      	ldr	r3, [r3, #0]
 8002454:	681b      	ldr	r3, [r3, #0]
 8002456:	60fb      	str	r3, [r7, #12]

  /* Disable UART */
  __HAL_UART_DISABLE(huart);
 8002458:	687b      	ldr	r3, [r7, #4]
 800245a:	681b      	ldr	r3, [r3, #0]
 800245c:	681a      	ldr	r2, [r3, #0]
 800245e:	687b      	ldr	r3, [r7, #4]
 8002460:	681b      	ldr	r3, [r3, #0]
 8002462:	2101      	movs	r1, #1
 8002464:	438a      	bics	r2, r1
 8002466:	601a      	str	r2, [r3, #0]

  /* Update TX threshold configuration */
  MODIFY_REG(huart->Instance->CR3, USART_CR3_TXFTCFG, Threshold);
 8002468:	687b      	ldr	r3, [r7, #4]
 800246a:	681b      	ldr	r3, [r3, #0]
 800246c:	689b      	ldr	r3, [r3, #8]
 800246e:	00db      	lsls	r3, r3, #3
 8002470:	08d9      	lsrs	r1, r3, #3
 8002472:	687b      	ldr	r3, [r7, #4]
 8002474:	681b      	ldr	r3, [r3, #0]
 8002476:	683a      	ldr	r2, [r7, #0]
 8002478:	430a      	orrs	r2, r1
 800247a:	609a      	str	r2, [r3, #8]

  /* Determine the number of data to process during RX/TX ISR execution */
  UARTEx_SetNbDataToProcess(huart);
 800247c:	687b      	ldr	r3, [r7, #4]
 800247e:	0018      	movs	r0, r3
 8002480:	f000 f854 	bl	800252c <UARTEx_SetNbDataToProcess>

  /* Restore UART configuration */
  WRITE_REG(huart->Instance->CR1, tmpcr1);
 8002484:	687b      	ldr	r3, [r7, #4]
 8002486:	681b      	ldr	r3, [r3, #0]
 8002488:	68fa      	ldr	r2, [r7, #12]
 800248a:	601a      	str	r2, [r3, #0]

  huart->gState = HAL_UART_STATE_READY;
 800248c:	687b      	ldr	r3, [r7, #4]
 800248e:	2288      	movs	r2, #136	@ 0x88
 8002490:	2120      	movs	r1, #32
 8002492:	5099      	str	r1, [r3, r2]

  /* Process Unlocked */
  __HAL_UNLOCK(huart);
 8002494:	687b      	ldr	r3, [r7, #4]
 8002496:	2284      	movs	r2, #132	@ 0x84
 8002498:	2100      	movs	r1, #0
 800249a:	5499      	strb	r1, [r3, r2]

  return HAL_OK;
 800249c:	2300      	movs	r3, #0
}
 800249e:	0018      	movs	r0, r3
 80024a0:	46bd      	mov	sp, r7
 80024a2:	b004      	add	sp, #16
 80024a4:	bd80      	pop	{r7, pc}
	...

080024a8 <HAL_UARTEx_SetRxFifoThreshold>:
  *            @arg @ref UART_RXFIFO_THRESHOLD_7_8
  *            @arg @ref UART_RXFIFO_THRESHOLD_8_8
  * @retval HAL status
  */
HAL_StatusTypeDef HAL_UARTEx_SetRxFifoThreshold(UART_HandleTypeDef *huart, uint32_t Threshold)
{
 80024a8:	b580      	push	{r7, lr}
 80024aa:	b084      	sub	sp, #16
 80024ac:	af00      	add	r7, sp, #0
 80024ae:	6078      	str	r0, [r7, #4]
 80024b0:	6039      	str	r1, [r7, #0]
  /* Check the parameters */
  assert_param(IS_UART_FIFO_INSTANCE(huart->Instance));
  assert_param(IS_UART_RXFIFO_THRESHOLD(Threshold));

  /* Process Locked */
  __HAL_LOCK(huart);
 80024b2:	687b      	ldr	r3, [r7, #4]
 80024b4:	2284      	movs	r2, #132	@ 0x84
 80024b6:	5c9b      	ldrb	r3, [r3, r2]
 80024b8:	2b01      	cmp	r3, #1
 80024ba:	d101      	bne.n	80024c0 <HAL_UARTEx_SetRxFifoThreshold+0x18>
 80024bc:	2302      	movs	r3, #2
 80024be:	e02f      	b.n	8002520 <HAL_UARTEx_SetRxFifoThreshold+0x78>
 80024c0:	687b      	ldr	r3, [r7, #4]
 80024c2:	2284      	movs	r2, #132	@ 0x84
 80024c4:	2101      	movs	r1, #1
 80024c6:	5499      	strb	r1, [r3, r2]

  huart->gState = HAL_UART_STATE_BUSY;
 80024c8:	687b      	ldr	r3, [r7, #4]
 80024ca:	2288      	movs	r2, #136	@ 0x88
 80024cc:	2124      	movs	r1, #36	@ 0x24
 80024ce:	5099      	str	r1, [r3, r2]

  /* Save actual UART configuration */
  tmpcr1 = READ_REG(huart->Instance->CR1);
 80024d0:	687b      	ldr	r3, [r7, #4]
 80024d2:	681b      	ldr	r3, [r3, #0]
 80024d4:	681b      	ldr	r3, [r3, #0]
 80024d6:	60fb      	str	r3, [r7, #12]

  /* Disable UART */
  __HAL_UART_DISABLE(huart);
 80024d8:	687b      	ldr	r3, [r7, #4]
 80024da:	681b      	ldr	r3, [r3, #0]
 80024dc:	681a      	ldr	r2, [r3, #0]
 80024de:	687b      	ldr	r3, [r7, #4]
 80024e0:	681b      	ldr	r3, [r3, #0]
 80024e2:	2101      	movs	r1, #1
 80024e4:	438a      	bics	r2, r1
 80024e6:	601a      	str	r2, [r3, #0]

  /* Update RX threshold configuration */
  MODIFY_REG(huart->Instance->CR3, USART_CR3_RXFTCFG, Threshold);
 80024e8:	687b      	ldr	r3, [r7, #4]
 80024ea:	681b      	ldr	r3, [r3, #0]
 80024ec:	689b      	ldr	r3, [r3, #8]
 80024ee:	4a0e      	ldr	r2, [pc, #56]	@ (8002528 <HAL_UARTEx_SetRxFifoThreshold+0x80>)
 80024f0:	4013      	ands	r3, r2
 80024f2:	0019      	movs	r1, r3
 80024f4:	687b      	ldr	r3, [r7, #4]
 80024f6:	681b      	ldr	r3, [r3, #0]
 80024f8:	683a      	ldr	r2, [r7, #0]
 80024fa:	430a      	orrs	r2, r1
 80024fc:	609a      	str	r2, [r3, #8]

  /* Determine the number of data to process during RX/TX ISR execution */
  UARTEx_SetNbDataToProcess(huart);
 80024fe:	687b      	ldr	r3, [r7, #4]
 8002500:	0018      	movs	r0, r3
 8002502:	f000 f813 	bl	800252c <UARTEx_SetNbDataToProcess>

  /* Restore UART configuration */
  WRITE_REG(huart->Instance->CR1, tmpcr1);
 8002506:	687b      	ldr	r3, [r7, #4]
 8002508:	681b      	ldr	r3, [r3, #0]
 800250a:	68fa      	ldr	r2, [r7, #12]
 800250c:	601a      	str	r2, [r3, #0]

  huart->gState = HAL_UART_STATE_READY;
 800250e:	687b      	ldr	r3, [r7, #4]
 8002510:	2288      	movs	r2, #136	@ 0x88
 8002512:	2120      	movs	r1, #32
 8002514:	5099      	str	r1, [r3, r2]

  /* Process Unlocked */
  __HAL_UNLOCK(huart);
 8002516:	687b      	ldr	r3, [r7, #4]
 8002518:	2284      	movs	r2, #132	@ 0x84
 800251a:	2100      	movs	r1, #0
 800251c:	5499      	strb	r1, [r3, r2]

  return HAL_OK;
 800251e:	2300      	movs	r3, #0
}
 8002520:	0018      	movs	r0, r3
 8002522:	46bd      	mov	sp, r7
 8002524:	b004      	add	sp, #16
 8002526:	bd80      	pop	{r7, pc}
 8002528:	f1ffffff 	.word	0xf1ffffff

0800252c <UARTEx_SetNbDataToProcess>:
  *       the UART configuration registers.
  * @param huart UART handle.
  * @retval None
  */
static void UARTEx_SetNbDataToProcess(UART_HandleTypeDef *huart)
{
 800252c:	b5f0      	push	{r4, r5, r6, r7, lr}
 800252e:	b085      	sub	sp, #20
 8002530:	af00      	add	r7, sp, #0
 8002532:	6078      	str	r0, [r7, #4]
  uint8_t rx_fifo_threshold;
  uint8_t tx_fifo_threshold;
  static const uint8_t numerator[] = {1U, 1U, 1U, 3U, 7U, 1U, 0U, 0U};
  static const uint8_t denominator[] = {8U, 4U, 2U, 4U, 8U, 1U, 1U, 1U};

  if (huart->FifoMode == UART_FIFOMODE_DISABLE)
 8002534:	687b      	ldr	r3, [r7, #4]
 8002536:	6e5b      	ldr	r3, [r3, #100]	@ 0x64
 8002538:	2b00      	cmp	r3, #0
 800253a:	d108      	bne.n	800254e <UARTEx_SetNbDataToProcess+0x22>
  {
    huart->NbTxDataToProcess = 1U;
 800253c:	687b      	ldr	r3, [r7, #4]
 800253e:	226a      	movs	r2, #106	@ 0x6a
 8002540:	2101      	movs	r1, #1
 8002542:	5299      	strh	r1, [r3, r2]
    huart->NbRxDataToProcess = 1U;
 8002544:	687b      	ldr	r3, [r7, #4]
 8002546:	2268      	movs	r2, #104	@ 0x68
 8002548:	2101      	movs	r1, #1
 800254a:	5299      	strh	r1, [r3, r2]
    huart->NbTxDataToProcess = ((uint16_t)tx_fifo_depth * numerator[tx_fifo_threshold]) /
                               (uint16_t)denominator[tx_fifo_threshold];
    huart->NbRxDataToProcess = ((uint16_t)rx_fifo_depth * numerator[rx_fifo_threshold]) /
                               (uint16_t)denominator[rx_fifo_threshold];
  }
}
 800254c:	e043      	b.n	80025d6 <UARTEx_SetNbDataToProcess+0xaa>
    rx_fifo_depth = RX_FIFO_DEPTH;
 800254e:	260f      	movs	r6, #15
 8002550:	19bb      	adds	r3, r7, r6
 8002552:	2208      	movs	r2, #8
 8002554:	701a      	strb	r2, [r3, #0]
    tx_fifo_depth = TX_FIFO_DEPTH;
 8002556:	200e      	movs	r0, #14
 8002558:	183b      	adds	r3, r7, r0
 800255a:	2208      	movs	r2, #8
 800255c:	701a      	strb	r2, [r3, #0]
    rx_fifo_threshold = (uint8_t)(READ_BIT(huart->Instance->CR3, USART_CR3_RXFTCFG) >> USART_CR3_RXFTCFG_Pos);
 800255e:	687b      	ldr	r3, [r7, #4]
 8002560:	681b      	ldr	r3, [r3, #0]
 8002562:	689b      	ldr	r3, [r3, #8]
 8002564:	0e5b      	lsrs	r3, r3, #25
 8002566:	b2da      	uxtb	r2, r3
 8002568:	240d      	movs	r4, #13
 800256a:	193b      	adds	r3, r7, r4
 800256c:	2107      	movs	r1, #7
 800256e:	400a      	ands	r2, r1
 8002570:	701a      	strb	r2, [r3, #0]
    tx_fifo_threshold = (uint8_t)(READ_BIT(huart->Instance->CR3, USART_CR3_TXFTCFG) >> USART_CR3_TXFTCFG_Pos);
 8002572:	687b      	ldr	r3, [r7, #4]
 8002574:	681b      	ldr	r3, [r3, #0]
 8002576:	689b      	ldr	r3, [r3, #8]
 8002578:	0f5b      	lsrs	r3, r3, #29
 800257a:	b2da      	uxtb	r2, r3
 800257c:	250c      	movs	r5, #12
 800257e:	197b      	adds	r3, r7, r5
 8002580:	2107      	movs	r1, #7
 8002582:	400a      	ands	r2, r1
 8002584:	701a      	strb	r2, [r3, #0]
    huart->NbTxDataToProcess = ((uint16_t)tx_fifo_depth * numerator[tx_fifo_threshold]) /
 8002586:	183b      	adds	r3, r7, r0
 8002588:	781b      	ldrb	r3, [r3, #0]
 800258a:	197a      	adds	r2, r7, r5
 800258c:	7812      	ldrb	r2, [r2, #0]
 800258e:	4914      	ldr	r1, [pc, #80]	@ (80025e0 <UARTEx_SetNbDataToProcess+0xb4>)
 8002590:	5c8a      	ldrb	r2, [r1, r2]
 8002592:	435a      	muls	r2, r3
 8002594:	0010      	movs	r0, r2
                               (uint16_t)denominator[tx_fifo_threshold];
 8002596:	197b      	adds	r3, r7, r5
 8002598:	781b      	ldrb	r3, [r3, #0]
 800259a:	4a12      	ldr	r2, [pc, #72]	@ (80025e4 <UARTEx_SetNbDataToProcess+0xb8>)
 800259c:	5cd3      	ldrb	r3, [r2, r3]
    huart->NbTxDataToProcess = ((uint16_t)tx_fifo_depth * numerator[tx_fifo_threshold]) /
 800259e:	0019      	movs	r1, r3
 80025a0:	f7fd fe3a 	bl	8000218 <__divsi3>
 80025a4:	0003      	movs	r3, r0
 80025a6:	b299      	uxth	r1, r3
 80025a8:	687b      	ldr	r3, [r7, #4]
 80025aa:	226a      	movs	r2, #106	@ 0x6a
 80025ac:	5299      	strh	r1, [r3, r2]
    huart->NbRxDataToProcess = ((uint16_t)rx_fifo_depth * numerator[rx_fifo_threshold]) /
 80025ae:	19bb      	adds	r3, r7, r6
 80025b0:	781b      	ldrb	r3, [r3, #0]
 80025b2:	193a      	adds	r2, r7, r4
 80025b4:	7812      	ldrb	r2, [r2, #0]
 80025b6:	490a      	ldr	r1, [pc, #40]	@ (80025e0 <UARTEx_SetNbDataToProcess+0xb4>)
 80025b8:	5c8a      	ldrb	r2, [r1, r2]
 80025ba:	435a      	muls	r2, r3
 80025bc:	0010      	movs	r0, r2
                               (uint16_t)denominator[rx_fifo_threshold];
 80025be:	193b      	adds	r3, r7, r4
 80025c0:	781b      	ldrb	r3, [r3, #0]
 80025c2:	4a08      	ldr	r2, [pc, #32]	@ (80025e4 <UARTEx_SetNbDataToProcess+0xb8>)
 80025c4:	5cd3      	ldrb	r3, [r2, r3]
    huart->NbRxDataToProcess = ((uint16_t)rx_fifo_depth * numerator[rx_fifo_threshold]) /
 80025c6:	0019      	movs	r1, r3
 80025c8:	f7fd fe26 	bl	8000218 <__divsi3>
 80025cc:	0003      	movs	r3, r0
 80025ce:	b299      	uxth	r1, r3
 80025d0:	687b      	ldr	r3, [r7, #4]
 80025d2:	2268      	movs	r2, #104	@ 0x68
 80025d4:	5299      	strh	r1, [r3, r2]
}
 80025d6:	46c0      	nop			@ (mov r8, r8)
 80025d8:	46bd      	mov	sp, r7
 80025da:	b005      	add	sp, #20
 80025dc:	bdf0      	pop	{r4, r5, r6, r7, pc}
 80025de:	46c0      	nop			@ (mov r8, r8)
 80025e0:	08002b38 	.word	0x08002b38
 80025e4:	08002b40 	.word	0x08002b40

080025e8 <MX_GPIO_Init>:
/* USER CODE END 1 */

/** Configure pins
*/
void MX_GPIO_Init(void)
{
 80025e8:	b590      	push	{r4, r7, lr}
 80025ea:	b089      	sub	sp, #36	@ 0x24
 80025ec:	af00      	add	r7, sp, #0

  GPIO_InitTypeDef GPIO_InitStruct = {0};
 80025ee:	240c      	movs	r4, #12
 80025f0:	193b      	adds	r3, r7, r4
 80025f2:	0018      	movs	r0, r3
 80025f4:	2314      	movs	r3, #20
 80025f6:	001a      	movs	r2, r3
 80025f8:	2100      	movs	r1, #0
 80025fa:	f000 fa58 	bl	8002aae <memset>

  /* GPIO Ports Clock Enable */
  __HAL_RCC_GPIOC_CLK_ENABLE();
 80025fe:	4b23      	ldr	r3, [pc, #140]	@ (800268c <MX_GPIO_Init+0xa4>)
 8002600:	6b5a      	ldr	r2, [r3, #52]	@ 0x34
 8002602:	4b22      	ldr	r3, [pc, #136]	@ (800268c <MX_GPIO_Init+0xa4>)
 8002604:	2104      	movs	r1, #4
 8002606:	430a      	orrs	r2, r1
 8002608:	635a      	str	r2, [r3, #52]	@ 0x34
 800260a:	4b20      	ldr	r3, [pc, #128]	@ (800268c <MX_GPIO_Init+0xa4>)
 800260c:	6b5b      	ldr	r3, [r3, #52]	@ 0x34
 800260e:	2204      	movs	r2, #4
 8002610:	4013      	ands	r3, r2
 8002612:	60bb      	str	r3, [r7, #8]
 8002614:	68bb      	ldr	r3, [r7, #8]
  __HAL_RCC_GPIOA_CLK_ENABLE();
 8002616:	4b1d      	ldr	r3, [pc, #116]	@ (800268c <MX_GPIO_Init+0xa4>)
 8002618:	6b5a      	ldr	r2, [r3, #52]	@ 0x34
 800261a:	4b1c      	ldr	r3, [pc, #112]	@ (800268c <MX_GPIO_Init+0xa4>)
 800261c:	2101      	movs	r1, #1
 800261e:	430a      	orrs	r2, r1
 8002620:	635a      	str	r2, [r3, #52]	@ 0x34
 8002622:	4b1a      	ldr	r3, [pc, #104]	@ (800268c <MX_GPIO_Init+0xa4>)
 8002624:	6b5b      	ldr	r3, [r3, #52]	@ 0x34
 8002626:	2201      	movs	r2, #1
 8002628:	4013      	ands	r3, r2
 800262a:	607b      	str	r3, [r7, #4]
 800262c:	687b      	ldr	r3, [r7, #4]

  /*Configure GPIO pin Output Level */
  HAL_GPIO_WritePin(LED_GREEN_GPIO_Port, LED_GREEN_Pin, GPIO_PIN_RESET);
 800262e:	23a0      	movs	r3, #160	@ 0xa0
 8002630:	05db      	lsls	r3, r3, #23
 8002632:	2200      	movs	r2, #0
 8002634:	2120      	movs	r1, #32
 8002636:	0018      	movs	r0, r3
 8002638:	f7fe fa8e 	bl	8000b58 <HAL_GPIO_WritePin>

  /*Configure GPIO pin : BUTTON_BLUE_Pin */
  GPIO_InitStruct.Pin = BUTTON_BLUE_Pin;
 800263c:	193b      	adds	r3, r7, r4
 800263e:	2280      	movs	r2, #128	@ 0x80
 8002640:	0192      	lsls	r2, r2, #6
 8002642:	601a      	str	r2, [r3, #0]
  GPIO_InitStruct.Mode = GPIO_MODE_INPUT;
 8002644:	193b      	adds	r3, r7, r4
 8002646:	2200      	movs	r2, #0
 8002648:	605a      	str	r2, [r3, #4]
  GPIO_InitStruct.Pull = GPIO_NOPULL;
 800264a:	193b      	adds	r3, r7, r4
 800264c:	2200      	movs	r2, #0
 800264e:	609a      	str	r2, [r3, #8]
  HAL_GPIO_Init(BUTTON_BLUE_GPIO_Port, &GPIO_InitStruct);
 8002650:	193b      	adds	r3, r7, r4
 8002652:	4a0f      	ldr	r2, [pc, #60]	@ (8002690 <MX_GPIO_Init+0xa8>)
 8002654:	0019      	movs	r1, r3
 8002656:	0010      	movs	r0, r2
 8002658:	f7fe f91a 	bl	8000890 <HAL_GPIO_Init>

  /*Configure GPIO pin : LED_GREEN_Pin */
  GPIO_InitStruct.Pin = LED_GREEN_Pin;
 800265c:	0021      	movs	r1, r4
 800265e:	187b      	adds	r3, r7, r1
 8002660:	2220      	movs	r2, #32
 8002662:	601a      	str	r2, [r3, #0]
  GPIO_InitStruct.Mode = GPIO_MODE_OUTPUT_PP;
 8002664:	187b      	adds	r3, r7, r1
 8002666:	2201      	movs	r2, #1
 8002668:	605a      	str	r2, [r3, #4]
  GPIO_InitStruct.Pull = GPIO_NOPULL;
 800266a:	187b      	adds	r3, r7, r1
 800266c:	2200      	movs	r2, #0
 800266e:	609a      	str	r2, [r3, #8]
  GPIO_InitStruct.Speed = GPIO_SPEED_FREQ_LOW;
 8002670:	187b      	adds	r3, r7, r1
 8002672:	2200      	movs	r2, #0
 8002674:	60da      	str	r2, [r3, #12]
  HAL_GPIO_Init(LED_GREEN_GPIO_Port, &GPIO_InitStruct);
 8002676:	187a      	adds	r2, r7, r1
 8002678:	23a0      	movs	r3, #160	@ 0xa0
 800267a:	05db      	lsls	r3, r3, #23
 800267c:	0011      	movs	r1, r2
 800267e:	0018      	movs	r0, r3
 8002680:	f7fe f906 	bl	8000890 <HAL_GPIO_Init>

}
 8002684:	46c0      	nop			@ (mov r8, r8)
 8002686:	46bd      	mov	sp, r7
 8002688:	b009      	add	sp, #36	@ 0x24
 800268a:	bd90      	pop	{r4, r7, pc}
 800268c:	40021000 	.word	0x40021000
 8002690:	50000800 	.word	0x50000800

08002694 <main>:
/**
  * @brief  The application entry point.
  * @retval int
  */
int main(void)
{
 8002694:	b580      	push	{r7, lr}
 8002696:	af00      	add	r7, sp, #0
  /* USER CODE END 1 */

  /* MCU Configuration--------------------------------------------------------*/

  /* Reset of all peripherals, Initializes the Flash interface and the Systick. */
  HAL_Init();
 8002698:	f7fd ffc0 	bl	800061c <HAL_Init>
  /* USER CODE BEGIN Init */

  /* USER CODE END Init */

  /* Configure the system clock */
  SystemClock_Config();
 800269c:	f000 f808 	bl	80026b0 <SystemClock_Config>
  /* USER CODE BEGIN SysInit */

  /* USER CODE END SysInit */

  /* Initialize all configured peripherals */
  MX_GPIO_Init();
 80026a0:	f7ff ffa2 	bl	80025e8 <MX_GPIO_Init>
  MX_USART1_UART_Init();
 80026a4:	f000 f894 	bl	80027d0 <MX_USART1_UART_Init>
  MX_USART2_UART_Init();
 80026a8:	f000 f8e0 	bl	800286c <MX_USART2_UART_Init>

  /* USER CODE END 2 */

  /* Infinite loop */
  /* USER CODE BEGIN WHILE */
  while (1)
 80026ac:	46c0      	nop			@ (mov r8, r8)
 80026ae:	e7fd      	b.n	80026ac <main+0x18>

080026b0 <SystemClock_Config>:
/**
  * @brief System Clock Configuration
  * @retval None
  */
void SystemClock_Config(void)
{
 80026b0:	b590      	push	{r4, r7, lr}
 80026b2:	b093      	sub	sp, #76	@ 0x4c
 80026b4:	af00      	add	r7, sp, #0
  RCC_OscInitTypeDef RCC_OscInitStruct = {0};
 80026b6:	2410      	movs	r4, #16
 80026b8:	193b      	adds	r3, r7, r4
 80026ba:	0018      	movs	r0, r3
 80026bc:	2338      	movs	r3, #56	@ 0x38
 80026be:	001a      	movs	r2, r3
 80026c0:	2100      	movs	r1, #0
 80026c2:	f000 f9f4 	bl	8002aae <memset>
  RCC_ClkInitTypeDef RCC_ClkInitStruct = {0};
 80026c6:	003b      	movs	r3, r7
 80026c8:	0018      	movs	r0, r3
 80026ca:	2310      	movs	r3, #16
 80026cc:	001a      	movs	r2, r3
 80026ce:	2100      	movs	r1, #0
 80026d0:	f000 f9ed 	bl	8002aae <memset>

  /** Configure the main internal regulator output voltage
  */
  HAL_PWREx_ControlVoltageScaling(PWR_REGULATOR_VOLTAGE_SCALE1);
 80026d4:	2380      	movs	r3, #128	@ 0x80
 80026d6:	009b      	lsls	r3, r3, #2
 80026d8:	0018      	movs	r0, r3
 80026da:	f7fe fa5b 	bl	8000b94 <HAL_PWREx_ControlVoltageScaling>

  /** Initializes the RCC Oscillators according to the specified parameters
  * in the RCC_OscInitTypeDef structure.
  */
  RCC_OscInitStruct.OscillatorType = RCC_OSCILLATORTYPE_HSI;
 80026de:	193b      	adds	r3, r7, r4
 80026e0:	2202      	movs	r2, #2
 80026e2:	601a      	str	r2, [r3, #0]
  RCC_OscInitStruct.HSIState = RCC_HSI_ON;
 80026e4:	193b      	adds	r3, r7, r4
 80026e6:	2280      	movs	r2, #128	@ 0x80
 80026e8:	0052      	lsls	r2, r2, #1
 80026ea:	60da      	str	r2, [r3, #12]
  RCC_OscInitStruct.HSIDiv = RCC_HSI_DIV1;
 80026ec:	193b      	adds	r3, r7, r4
 80026ee:	2200      	movs	r2, #0
 80026f0:	611a      	str	r2, [r3, #16]
  RCC_OscInitStruct.HSICalibrationValue = RCC_HSICALIBRATION_DEFAULT;
 80026f2:	193b      	adds	r3, r7, r4
 80026f4:	2240      	movs	r2, #64	@ 0x40
 80026f6:	615a      	str	r2, [r3, #20]
  RCC_OscInitStruct.PLL.PLLState = RCC_PLL_NONE;
 80026f8:	193b      	adds	r3, r7, r4
 80026fa:	2200      	movs	r2, #0
 80026fc:	61da      	str	r2, [r3, #28]
  if (HAL_RCC_OscConfig(&RCC_OscInitStruct) != HAL_OK)
 80026fe:	193b      	adds	r3, r7, r4
 8002700:	0018      	movs	r0, r3
 8002702:	f7fe fa93 	bl	8000c2c <HAL_RCC_OscConfig>
 8002706:	1e03      	subs	r3, r0, #0
 8002708:	d001      	beq.n	800270e <SystemClock_Config+0x5e>
  {
    Error_Handler();
 800270a:	f000 f819 	bl	8002740 <Error_Handler>
  }

  /** Initializes the CPU, AHB and APB buses clocks
  */
  RCC_ClkInitStruct.ClockType = RCC_CLOCKTYPE_HCLK|RCC_CLOCKTYPE_SYSCLK
 800270e:	003b      	movs	r3, r7
 8002710:	2207      	movs	r2, #7
 8002712:	601a      	str	r2, [r3, #0]
                              |RCC_CLOCKTYPE_PCLK1;
  RCC_ClkInitStruct.SYSCLKSource = RCC_SYSCLKSOURCE_HSI;
 8002714:	003b      	movs	r3, r7
 8002716:	2200      	movs	r2, #0
 8002718:	605a      	str	r2, [r3, #4]
  RCC_ClkInitStruct.AHBCLKDivider = RCC_SYSCLK_DIV1;
 800271a:	003b      	movs	r3, r7
 800271c:	2200      	movs	r2, #0
 800271e:	609a      	str	r2, [r3, #8]
  RCC_ClkInitStruct.APB1CLKDivider = RCC_HCLK_DIV1;
 8002720:	003b      	movs	r3, r7
 8002722:	2200      	movs	r2, #0
 8002724:	60da      	str	r2, [r3, #12]

  if (HAL_RCC_ClockConfig(&RCC_ClkInitStruct, FLASH_LATENCY_0) != HAL_OK)
 8002726:	003b      	movs	r3, r7
 8002728:	2100      	movs	r1, #0
 800272a:	0018      	movs	r0, r3
 800272c:	f7fe fd98 	bl	8001260 <HAL_RCC_ClockConfig>
 8002730:	1e03      	subs	r3, r0, #0
 8002732:	d001      	beq.n	8002738 <SystemClock_Config+0x88>
  {
    Error_Handler();
 8002734:	f000 f804 	bl	8002740 <Error_Handler>
  }
}
 8002738:	46c0      	nop			@ (mov r8, r8)
 800273a:	46bd      	mov	sp, r7
 800273c:	b013      	add	sp, #76	@ 0x4c
 800273e:	bd90      	pop	{r4, r7, pc}

08002740 <Error_Handler>:
/**
  * @brief  This function is executed in case of error occurrence.
  * @retval None
  */
void Error_Handler(void)
{
 8002740:	b580      	push	{r7, lr}
 8002742:	af00      	add	r7, sp, #0
  __ASM volatile ("cpsid i" : : : "memory");
 8002744:	b672      	cpsid	i
}
 8002746:	46c0      	nop			@ (mov r8, r8)
  /* USER CODE BEGIN Error_Handler_Debug */
  /* User can add his own implementation to report the HAL error return state */
  __disable_irq();
  while (1)
 8002748:	46c0      	nop			@ (mov r8, r8)
 800274a:	e7fd      	b.n	8002748 <Error_Handler+0x8>

0800274c <HAL_MspInit>:
/* USER CODE END 0 */
/**
  * Initializes the Global MSP.
  */
void HAL_MspInit(void)
{
 800274c:	b580      	push	{r7, lr}
 800274e:	b082      	sub	sp, #8
 8002750:	af00      	add	r7, sp, #0

  /* USER CODE BEGIN MspInit 0 */

  /* USER CODE END MspInit 0 */

  __HAL_RCC_SYSCFG_CLK_ENABLE();
 8002752:	4b0f      	ldr	r3, [pc, #60]	@ (8002790 <HAL_MspInit+0x44>)
 8002754:	6c1a      	ldr	r2, [r3, #64]	@ 0x40
 8002756:	4b0e      	ldr	r3, [pc, #56]	@ (8002790 <HAL_MspInit+0x44>)
 8002758:	2101      	movs	r1, #1
 800275a:	430a      	orrs	r2, r1
 800275c:	641a      	str	r2, [r3, #64]	@ 0x40
 800275e:	4b0c      	ldr	r3, [pc, #48]	@ (8002790 <HAL_MspInit+0x44>)
 8002760:	6c1b      	ldr	r3, [r3, #64]	@ 0x40
 8002762:	2201      	movs	r2, #1
 8002764:	4013      	ands	r3, r2
 8002766:	607b      	str	r3, [r7, #4]
 8002768:	687b      	ldr	r3, [r7, #4]
  __HAL_RCC_PWR_CLK_ENABLE();
 800276a:	4b09      	ldr	r3, [pc, #36]	@ (8002790 <HAL_MspInit+0x44>)
 800276c:	6bda      	ldr	r2, [r3, #60]	@ 0x3c
 800276e:	4b08      	ldr	r3, [pc, #32]	@ (8002790 <HAL_MspInit+0x44>)
 8002770:	2180      	movs	r1, #128	@ 0x80
 8002772:	0549      	lsls	r1, r1, #21
 8002774:	430a      	orrs	r2, r1
 8002776:	63da      	str	r2, [r3, #60]	@ 0x3c
 8002778:	4b05      	ldr	r3, [pc, #20]	@ (8002790 <HAL_MspInit+0x44>)
 800277a:	6bda      	ldr	r2, [r3, #60]	@ 0x3c
 800277c:	2380      	movs	r3, #128	@ 0x80
 800277e:	055b      	lsls	r3, r3, #21
 8002780:	4013      	ands	r3, r2
 8002782:	603b      	str	r3, [r7, #0]
 8002784:	683b      	ldr	r3, [r7, #0]
  /* System interrupt init*/

  /* USER CODE BEGIN MspInit 1 */

  /* USER CODE END MspInit 1 */
}
 8002786:	46c0      	nop			@ (mov r8, r8)
 8002788:	46bd      	mov	sp, r7
 800278a:	b002      	add	sp, #8
 800278c:	bd80      	pop	{r7, pc}
 800278e:	46c0      	nop			@ (mov r8, r8)
 8002790:	40021000 	.word	0x40021000

08002794 <NMI_Handler>:
/******************************************************************************/
/**
  * @brief This function handles Non maskable interrupt.
  */
void NMI_Handler(void)
{
 8002794:	b580      	push	{r7, lr}
 8002796:	af00      	add	r7, sp, #0
  /* USER CODE BEGIN NonMaskableInt_IRQn 0 */

  /* USER CODE END NonMaskableInt_IRQn 0 */
  /* USER CODE BEGIN NonMaskableInt_IRQn 1 */
   while (1)
 8002798:	46c0      	nop			@ (mov r8, r8)
 800279a:	e7fd      	b.n	8002798 <NMI_Handler+0x4>

0800279c <HardFault_Handler>:

/**
  * @brief This function handles Hard fault interrupt.
  */
void HardFault_Handler(void)
{
 800279c:	b580      	push	{r7, lr}
 800279e:	af00      	add	r7, sp, #0
  /* USER CODE BEGIN HardFault_IRQn 0 */

  /* USER CODE END HardFault_IRQn 0 */
  while (1)
 80027a0:	46c0      	nop			@ (mov r8, r8)
 80027a2:	e7fd      	b.n	80027a0 <HardFault_Handler+0x4>

080027a4 <SVC_Handler>:

/**
  * @brief This function handles System service call via SWI instruction.
  */
void SVC_Handler(void)
{
 80027a4:	b580      	push	{r7, lr}
 80027a6:	af00      	add	r7, sp, #0

  /* USER CODE END SVC_IRQn 0 */
  /* USER CODE BEGIN SVC_IRQn 1 */

  /* USER CODE END SVC_IRQn 1 */
}
 80027a8:	46c0      	nop			@ (mov r8, r8)
 80027aa:	46bd      	mov	sp, r7
 80027ac:	bd80      	pop	{r7, pc}

080027ae <PendSV_Handler>:

/**
  * @brief This function handles Pendable request for system service.
  */
void PendSV_Handler(void)
{
 80027ae:	b580      	push	{r7, lr}
 80027b0:	af00      	add	r7, sp, #0

  /* USER CODE END PendSV_IRQn 0 */
  /* USER CODE BEGIN PendSV_IRQn 1 */

  /* USER CODE END PendSV_IRQn 1 */
}
 80027b2:	46c0      	nop			@ (mov r8, r8)
 80027b4:	46bd      	mov	sp, r7
 80027b6:	bd80      	pop	{r7, pc}

080027b8 <SysTick_Handler>:

/**
  * @brief This function handles System tick timer.
  */
void SysTick_Handler(void)
{
 80027b8:	b580      	push	{r7, lr}
 80027ba:	af00      	add	r7, sp, #0
  /* USER CODE BEGIN SysTick_IRQn 0 */

  /* USER CODE END SysTick_IRQn 0 */
  HAL_IncTick();
 80027bc:	f7fd ff98 	bl	80006f0 <HAL_IncTick>
  /* USER CODE BEGIN SysTick_IRQn 1 */

  /* USER CODE END SysTick_IRQn 1 */
}
 80027c0:	46c0      	nop			@ (mov r8, r8)
 80027c2:	46bd      	mov	sp, r7
 80027c4:	bd80      	pop	{r7, pc}

080027c6 <SystemInit>:
  * @brief  Setup the microcontroller system.
  * @param  None
  * @retval None
  */
void SystemInit(void)
{
 80027c6:	b580      	push	{r7, lr}
 80027c8:	af00      	add	r7, sp, #0
  /* Configure the Vector Table location -------------------------------------*/
#if defined(USER_VECT_TAB_ADDRESS)
  SCB->VTOR = VECT_TAB_BASE_ADDRESS | VECT_TAB_OFFSET; /* Vector Table Relocation */
#endif /* USER_VECT_TAB_ADDRESS */
}
 80027ca:	46c0      	nop			@ (mov r8, r8)
 80027cc:	46bd      	mov	sp, r7
 80027ce:	bd80      	pop	{r7, pc}

080027d0 <MX_USART1_UART_Init>:
UART_HandleTypeDef huart2;

/* USART1 init function */

void MX_USART1_UART_Init(void)
{
 80027d0:	b580      	push	{r7, lr}
 80027d2:	af00      	add	r7, sp, #0
  /* USER CODE END USART1_Init 0 */

  /* USER CODE BEGIN USART1_Init 1 */

  /* USER CODE END USART1_Init 1 */
  huart1.Instance = USART1;
 80027d4:	4b23      	ldr	r3, [pc, #140]	@ (8002864 <MX_USART1_UART_Init+0x94>)
 80027d6:	4a24      	ldr	r2, [pc, #144]	@ (8002868 <MX_USART1_UART_Init+0x98>)
 80027d8:	601a      	str	r2, [r3, #0]
  huart1.Init.BaudRate = 115200;
 80027da:	4b22      	ldr	r3, [pc, #136]	@ (8002864 <MX_USART1_UART_Init+0x94>)
 80027dc:	22e1      	movs	r2, #225	@ 0xe1
 80027de:	0252      	lsls	r2, r2, #9
 80027e0:	605a      	str	r2, [r3, #4]
  huart1.Init.WordLength = UART_WORDLENGTH_8B;
 80027e2:	4b20      	ldr	r3, [pc, #128]	@ (8002864 <MX_USART1_UART_Init+0x94>)
 80027e4:	2200      	movs	r2, #0
 80027e6:	609a      	str	r2, [r3, #8]
  huart1.Init.StopBits = UART_STOPBITS_1;
 80027e8:	4b1e      	ldr	r3, [pc, #120]	@ (8002864 <MX_USART1_UART_Init+0x94>)
 80027ea:	2200      	movs	r2, #0
 80027ec:	60da      	str	r2, [r3, #12]
  huart1.Init.Parity = UART_PARITY_NONE;
 80027ee:	4b1d      	ldr	r3, [pc, #116]	@ (8002864 <MX_USART1_UART_Init+0x94>)
 80027f0:	2200      	movs	r2, #0
 80027f2:	611a      	str	r2, [r3, #16]
  huart1.Init.Mode = UART_MODE_TX_RX;
 80027f4:	4b1b      	ldr	r3, [pc, #108]	@ (8002864 <MX_USART1_UART_Init+0x94>)
 80027f6:	220c      	movs	r2, #12
 80027f8:	615a      	str	r2, [r3, #20]
  huart1.Init.HwFlowCtl = UART_HWCONTROL_NONE;
 80027fa:	4b1a      	ldr	r3, [pc, #104]	@ (8002864 <MX_USART1_UART_Init+0x94>)
 80027fc:	2200      	movs	r2, #0
 80027fe:	619a      	str	r2, [r3, #24]
  huart1.Init.OverSampling = UART_OVERSAMPLING_16;
 8002800:	4b18      	ldr	r3, [pc, #96]	@ (8002864 <MX_USART1_UART_Init+0x94>)
 8002802:	2200      	movs	r2, #0
 8002804:	61da      	str	r2, [r3, #28]
  huart1.Init.OneBitSampling = UART_ONE_BIT_SAMPLE_DISABLE;
 8002806:	4b17      	ldr	r3, [pc, #92]	@ (8002864 <MX_USART1_UART_Init+0x94>)
 8002808:	2200      	movs	r2, #0
 800280a:	621a      	str	r2, [r3, #32]
  huart1.Init.ClockPrescaler = UART_PRESCALER_DIV1;
 800280c:	4b15      	ldr	r3, [pc, #84]	@ (8002864 <MX_USART1_UART_Init+0x94>)
 800280e:	2200      	movs	r2, #0
 8002810:	625a      	str	r2, [r3, #36]	@ 0x24
  huart1.AdvancedInit.AdvFeatureInit = UART_ADVFEATURE_NO_INIT;
 8002812:	4b14      	ldr	r3, [pc, #80]	@ (8002864 <MX_USART1_UART_Init+0x94>)
 8002814:	2200      	movs	r2, #0
 8002816:	629a      	str	r2, [r3, #40]	@ 0x28
  if (HAL_UART_Init(&huart1) != HAL_OK)
 8002818:	4b12      	ldr	r3, [pc, #72]	@ (8002864 <MX_USART1_UART_Init+0x94>)
 800281a:	0018      	movs	r0, r3
 800281c:	f7ff f882 	bl	8001924 <HAL_UART_Init>
 8002820:	1e03      	subs	r3, r0, #0
 8002822:	d001      	beq.n	8002828 <MX_USART1_UART_Init+0x58>
  {
    Error_Handler();
 8002824:	f7ff ff8c 	bl	8002740 <Error_Handler>
  }
  if (HAL_UARTEx_SetTxFifoThreshold(&huart1, UART_TXFIFO_THRESHOLD_1_8) != HAL_OK)
 8002828:	4b0e      	ldr	r3, [pc, #56]	@ (8002864 <MX_USART1_UART_Init+0x94>)
 800282a:	2100      	movs	r1, #0
 800282c:	0018      	movs	r0, r3
 800282e:	f7ff fdfb 	bl	8002428 <HAL_UARTEx_SetTxFifoThreshold>
 8002832:	1e03      	subs	r3, r0, #0
 8002834:	d001      	beq.n	800283a <MX_USART1_UART_Init+0x6a>
  {
    Error_Handler();
 8002836:	f7ff ff83 	bl	8002740 <Error_Handler>
  }
  if (HAL_UARTEx_SetRxFifoThreshold(&huart1, UART_RXFIFO_THRESHOLD_1_8) != HAL_OK)
 800283a:	4b0a      	ldr	r3, [pc, #40]	@ (8002864 <MX_USART1_UART_Init+0x94>)
 800283c:	2100      	movs	r1, #0
 800283e:	0018      	movs	r0, r3
 8002840:	f7ff fe32 	bl	80024a8 <HAL_UARTEx_SetRxFifoThreshold>
 8002844:	1e03      	subs	r3, r0, #0
 8002846:	d001      	beq.n	800284c <MX_USART1_UART_Init+0x7c>
  {
    Error_Handler();
 8002848:	f7ff ff7a 	bl	8002740 <Error_Handler>
  }
  if (HAL_UARTEx_DisableFifoMode(&huart1) != HAL_OK)
 800284c:	4b05      	ldr	r3, [pc, #20]	@ (8002864 <MX_USART1_UART_Init+0x94>)
 800284e:	0018      	movs	r0, r3
 8002850:	f7ff fdb0 	bl	80023b4 <HAL_UARTEx_DisableFifoMode>
 8002854:	1e03      	subs	r3, r0, #0
 8002856:	d001      	beq.n	800285c <MX_USART1_UART_Init+0x8c>
  {
    Error_Handler();
 8002858:	f7ff ff72 	bl	8002740 <Error_Handler>
  }
  /* USER CODE BEGIN USART1_Init 2 */

  /* USER CODE END USART1_Init 2 */

}
 800285c:	46c0      	nop			@ (mov r8, r8)
 800285e:	46bd      	mov	sp, r7
 8002860:	bd80      	pop	{r7, pc}
 8002862:	46c0      	nop			@ (mov r8, r8)
 8002864:	2000002c 	.word	0x2000002c
 8002868:	40013800 	.word	0x40013800

0800286c <MX_USART2_UART_Init>:
/* USART2 init function */

void MX_USART2_UART_Init(void)
{
 800286c:	b580      	push	{r7, lr}
 800286e:	af00      	add	r7, sp, #0
  /* USER CODE END USART2_Init 0 */

  /* USER CODE BEGIN USART2_Init 1 */

  /* USER CODE END USART2_Init 1 */
  huart2.Instance = USART2;
 8002870:	4b23      	ldr	r3, [pc, #140]	@ (8002900 <MX_USART2_UART_Init+0x94>)
 8002872:	4a24      	ldr	r2, [pc, #144]	@ (8002904 <MX_USART2_UART_Init+0x98>)
 8002874:	601a      	str	r2, [r3, #0]
  huart2.Init.BaudRate = 115200;
 8002876:	4b22      	ldr	r3, [pc, #136]	@ (8002900 <MX_USART2_UART_Init+0x94>)
 8002878:	22e1      	movs	r2, #225	@ 0xe1
 800287a:	0252      	lsls	r2, r2, #9
 800287c:	605a      	str	r2, [r3, #4]
  huart2.Init.WordLength = UART_WORDLENGTH_8B;
 800287e:	4b20      	ldr	r3, [pc, #128]	@ (8002900 <MX_USART2_UART_Init+0x94>)
 8002880:	2200      	movs	r2, #0
 8002882:	609a      	str	r2, [r3, #8]
  huart2.Init.StopBits = UART_STOPBITS_1;
 8002884:	4b1e      	ldr	r3, [pc, #120]	@ (8002900 <MX_USART2_UART_Init+0x94>)
 8002886:	2200      	movs	r2, #0
 8002888:	60da      	str	r2, [r3, #12]
  huart2.Init.Parity = UART_PARITY_NONE;
 800288a:	4b1d      	ldr	r3, [pc, #116]	@ (8002900 <MX_USART2_UART_Init+0x94>)
 800288c:	2200      	movs	r2, #0
 800288e:	611a      	str	r2, [r3, #16]
  huart2.Init.Mode = UART_MODE_TX_RX;
 8002890:	4b1b      	ldr	r3, [pc, #108]	@ (8002900 <MX_USART2_UART_Init+0x94>)
 8002892:	220c      	movs	r2, #12
 8002894:	615a      	str	r2, [r3, #20]
  huart2.Init.HwFlowCtl = UART_HWCONTROL_NONE;
 8002896:	4b1a      	ldr	r3, [pc, #104]	@ (8002900 <MX_USART2_UART_Init+0x94>)
 8002898:	2200      	movs	r2, #0
 800289a:	619a      	str	r2, [r3, #24]
  huart2.Init.OverSampling = UART_OVERSAMPLING_16;
 800289c:	4b18      	ldr	r3, [pc, #96]	@ (8002900 <MX_USART2_UART_Init+0x94>)
 800289e:	2200      	movs	r2, #0
 80028a0:	61da      	str	r2, [r3, #28]
  huart2.Init.OneBitSampling = UART_ONE_BIT_SAMPLE_DISABLE;
 80028a2:	4b17      	ldr	r3, [pc, #92]	@ (8002900 <MX_USART2_UART_Init+0x94>)
 80028a4:	2200      	movs	r2, #0
 80028a6:	621a      	str	r2, [r3, #32]
  huart2.Init.ClockPrescaler = UART_PRESCALER_DIV1;
 80028a8:	4b15      	ldr	r3, [pc, #84]	@ (8002900 <MX_USART2_UART_Init+0x94>)
 80028aa:	2200      	movs	r2, #0
 80028ac:	625a      	str	r2, [r3, #36]	@ 0x24
  huart2.AdvancedInit.AdvFeatureInit = UART_ADVFEATURE_NO_INIT;
 80028ae:	4b14      	ldr	r3, [pc, #80]	@ (8002900 <MX_USART2_UART_Init+0x94>)
 80028b0:	2200      	movs	r2, #0
 80028b2:	629a      	str	r2, [r3, #40]	@ 0x28
  if (HAL_UART_Init(&huart2) != HAL_OK)
 80028b4:	4b12      	ldr	r3, [pc, #72]	@ (8002900 <MX_USART2_UART_Init+0x94>)
 80028b6:	0018      	movs	r0, r3
 80028b8:	f7ff f834 	bl	8001924 <HAL_UART_Init>
 80028bc:	1e03      	subs	r3, r0, #0
 80028be:	d001      	beq.n	80028c4 <MX_USART2_UART_Init+0x58>
  {
    Error_Handler();
 80028c0:	f7ff ff3e 	bl	8002740 <Error_Handler>
  }
  if (HAL_UARTEx_SetTxFifoThreshold(&huart2, UART_TXFIFO_THRESHOLD_1_8) != HAL_OK)
 80028c4:	4b0e      	ldr	r3, [pc, #56]	@ (8002900 <MX_USART2_UART_Init+0x94>)
 80028c6:	2100      	movs	r1, #0
 80028c8:	0018      	movs	r0, r3
 80028ca:	f7ff fdad 	bl	8002428 <HAL_UARTEx_SetTxFifoThreshold>
 80028ce:	1e03      	subs	r3, r0, #0
 80028d0:	d001      	beq.n	80028d6 <MX_USART2_UART_Init+0x6a>
  {
    Error_Handler();
 80028d2:	f7ff ff35 	bl	8002740 <Error_Handler>
  }
  if (HAL_UARTEx_SetRxFifoThreshold(&huart2, UART_RXFIFO_THRESHOLD_1_8) != HAL_OK)
 80028d6:	4b0a      	ldr	r3, [pc, #40]	@ (8002900 <MX_USART2_UART_Init+0x94>)
 80028d8:	2100      	movs	r1, #0
 80028da:	0018      	movs	r0, r3
 80028dc:	f7ff fde4 	bl	80024a8 <HAL_UARTEx_SetRxFifoThreshold>
 80028e0:	1e03      	subs	r3, r0, #0
 80028e2:	d001      	beq.n	80028e8 <MX_USART2_UART_Init+0x7c>
  {
    Error_Handler();
 80028e4:	f7ff ff2c 	bl	8002740 <Error_Handler>
  }
  if (HAL_UARTEx_DisableFifoMode(&huart2) != HAL_OK)
 80028e8:	4b05      	ldr	r3, [pc, #20]	@ (8002900 <MX_USART2_UART_Init+0x94>)
 80028ea:	0018      	movs	r0, r3
 80028ec:	f7ff fd62 	bl	80023b4 <HAL_UARTEx_DisableFifoMode>
 80028f0:	1e03      	subs	r3, r0, #0
 80028f2:	d001      	beq.n	80028f8 <MX_USART2_UART_Init+0x8c>
  {
    Error_Handler();
 80028f4:	f7ff ff24 	bl	8002740 <Error_Handler>
  }
  /* USER CODE BEGIN USART2_Init 2 */

  /* USER CODE END USART2_Init 2 */

}
 80028f8:	46c0      	nop			@ (mov r8, r8)
 80028fa:	46bd      	mov	sp, r7
 80028fc:	bd80      	pop	{r7, pc}
 80028fe:	46c0      	nop			@ (mov r8, r8)
 8002900:	200000c0 	.word	0x200000c0
 8002904:	40004400 	.word	0x40004400

08002908 <HAL_UART_MspInit>:

void HAL_UART_MspInit(UART_HandleTypeDef* uartHandle)
{
 8002908:	b590      	push	{r4, r7, lr}
 800290a:	b099      	sub	sp, #100	@ 0x64
 800290c:	af00      	add	r7, sp, #0
 800290e:	6078      	str	r0, [r7, #4]

  GPIO_InitTypeDef GPIO_InitStruct = {0};
 8002910:	234c      	movs	r3, #76	@ 0x4c
 8002912:	18fb      	adds	r3, r7, r3
 8002914:	0018      	movs	r0, r3
 8002916:	2314      	movs	r3, #20
 8002918:	001a      	movs	r2, r3
 800291a:	2100      	movs	r1, #0
 800291c:	f000 f8c7 	bl	8002aae <memset>
  RCC_PeriphCLKInitTypeDef PeriphClkInit = {0};
 8002920:	2418      	movs	r4, #24
 8002922:	193b      	adds	r3, r7, r4
 8002924:	0018      	movs	r0, r3
 8002926:	2334      	movs	r3, #52	@ 0x34
 8002928:	001a      	movs	r2, r3
 800292a:	2100      	movs	r1, #0
 800292c:	f000 f8bf 	bl	8002aae <memset>
  if(uartHandle->Instance==USART1)
 8002930:	687b      	ldr	r3, [r7, #4]
 8002932:	681b      	ldr	r3, [r3, #0]
 8002934:	4a45      	ldr	r2, [pc, #276]	@ (8002a4c <HAL_UART_MspInit+0x144>)
 8002936:	4293      	cmp	r3, r2
 8002938:	d13e      	bne.n	80029b8 <HAL_UART_MspInit+0xb0>

  /* USER CODE END USART1_MspInit 0 */

  /** Initializes the peripherals clocks
  */
    PeriphClkInit.PeriphClockSelection = RCC_PERIPHCLK_USART1;
 800293a:	193b      	adds	r3, r7, r4
 800293c:	2201      	movs	r2, #1
 800293e:	601a      	str	r2, [r3, #0]
    PeriphClkInit.Usart1ClockSelection = RCC_USART1CLKSOURCE_PCLK1;
 8002940:	193b      	adds	r3, r7, r4
 8002942:	2200      	movs	r2, #0
 8002944:	605a      	str	r2, [r3, #4]
    if (HAL_RCCEx_PeriphCLKConfig(&PeriphClkInit) != HAL_OK)
 8002946:	193b      	adds	r3, r7, r4
 8002948:	0018      	movs	r0, r3
 800294a:	f7fe fe33 	bl	80015b4 <HAL_RCCEx_PeriphCLKConfig>
 800294e:	1e03      	subs	r3, r0, #0
 8002950:	d001      	beq.n	8002956 <HAL_UART_MspInit+0x4e>
    {
      Error_Handler();
 8002952:	f7ff fef5 	bl	8002740 <Error_Handler>
    }

    /* USART1 clock enable */
    __HAL_RCC_USART1_CLK_ENABLE();
 8002956:	4b3e      	ldr	r3, [pc, #248]	@ (8002a50 <HAL_UART_MspInit+0x148>)
 8002958:	6c1a      	ldr	r2, [r3, #64]	@ 0x40
 800295a:	4b3d      	ldr	r3, [pc, #244]	@ (8002a50 <HAL_UART_MspInit+0x148>)
 800295c:	2180      	movs	r1, #128	@ 0x80
 800295e:	01c9      	lsls	r1, r1, #7
 8002960:	430a      	orrs	r2, r1
 8002962:	641a      	str	r2, [r3, #64]	@ 0x40
 8002964:	4b3a      	ldr	r3, [pc, #232]	@ (8002a50 <HAL_UART_MspInit+0x148>)
 8002966:	6c1a      	ldr	r2, [r3, #64]	@ 0x40
 8002968:	2380      	movs	r3, #128	@ 0x80
 800296a:	01db      	lsls	r3, r3, #7
 800296c:	4013      	ands	r3, r2
 800296e:	617b      	str	r3, [r7, #20]
 8002970:	697b      	ldr	r3, [r7, #20]

    __HAL_RCC_GPIOC_CLK_ENABLE();
 8002972:	4b37      	ldr	r3, [pc, #220]	@ (8002a50 <HAL_UART_MspInit+0x148>)
 8002974:	6b5a      	ldr	r2, [r3, #52]	@ 0x34
 8002976:	4b36      	ldr	r3, [pc, #216]	@ (8002a50 <HAL_UART_MspInit+0x148>)
 8002978:	2104      	movs	r1, #4
 800297a:	430a      	orrs	r2, r1
 800297c:	635a      	str	r2, [r3, #52]	@ 0x34
 800297e:	4b34      	ldr	r3, [pc, #208]	@ (8002a50 <HAL_UART_MspInit+0x148>)
 8002980:	6b5b      	ldr	r3, [r3, #52]	@ 0x34
 8002982:	2204      	movs	r2, #4
 8002984:	4013      	ands	r3, r2
 8002986:	613b      	str	r3, [r7, #16]
 8002988:	693b      	ldr	r3, [r7, #16]
    /**USART1 GPIO Configuration
    PC4     ------> USART1_TX
    PC5     ------> USART1_RX
    */
    GPIO_InitStruct.Pin = ESP_TX_Pin|ESP_RX_Pin;
 800298a:	214c      	movs	r1, #76	@ 0x4c
 800298c:	187b      	adds	r3, r7, r1
 800298e:	2230      	movs	r2, #48	@ 0x30
 8002990:	601a      	str	r2, [r3, #0]
    GPIO_InitStruct.Mode = GPIO_MODE_AF_PP;
 8002992:	187b      	adds	r3, r7, r1
 8002994:	2202      	movs	r2, #2
 8002996:	605a      	str	r2, [r3, #4]
    GPIO_InitStruct.Pull = GPIO_NOPULL;
 8002998:	187b      	adds	r3, r7, r1
 800299a:	2200      	movs	r2, #0
 800299c:	609a      	str	r2, [r3, #8]
    GPIO_InitStruct.Speed = GPIO_SPEED_FREQ_LOW;
 800299e:	187b      	adds	r3, r7, r1
 80029a0:	2200      	movs	r2, #0
 80029a2:	60da      	str	r2, [r3, #12]
    GPIO_InitStruct.Alternate = GPIO_AF1_USART1;
 80029a4:	187b      	adds	r3, r7, r1
 80029a6:	2201      	movs	r2, #1
 80029a8:	611a      	str	r2, [r3, #16]
    HAL_GPIO_Init(GPIOC, &GPIO_InitStruct);
 80029aa:	187b      	adds	r3, r7, r1
 80029ac:	4a29      	ldr	r2, [pc, #164]	@ (8002a54 <HAL_UART_MspInit+0x14c>)
 80029ae:	0019      	movs	r1, r3
 80029b0:	0010      	movs	r0, r2
 80029b2:	f7fd ff6d 	bl	8000890 <HAL_GPIO_Init>

  /* USER CODE BEGIN USART2_MspInit 1 */

  /* USER CODE END USART2_MspInit 1 */
  }
}
 80029b6:	e044      	b.n	8002a42 <HAL_UART_MspInit+0x13a>
  else if(uartHandle->Instance==USART2)
 80029b8:	687b      	ldr	r3, [r7, #4]
 80029ba:	681b      	ldr	r3, [r3, #0]
 80029bc:	4a26      	ldr	r2, [pc, #152]	@ (8002a58 <HAL_UART_MspInit+0x150>)
 80029be:	4293      	cmp	r3, r2
 80029c0:	d13f      	bne.n	8002a42 <HAL_UART_MspInit+0x13a>
    PeriphClkInit.PeriphClockSelection = RCC_PERIPHCLK_USART2;
 80029c2:	2118      	movs	r1, #24
 80029c4:	187b      	adds	r3, r7, r1
 80029c6:	2202      	movs	r2, #2
 80029c8:	601a      	str	r2, [r3, #0]
    PeriphClkInit.Usart2ClockSelection = RCC_USART2CLKSOURCE_PCLK1;
 80029ca:	187b      	adds	r3, r7, r1
 80029cc:	2200      	movs	r2, #0
 80029ce:	609a      	str	r2, [r3, #8]
    if (HAL_RCCEx_PeriphCLKConfig(&PeriphClkInit) != HAL_OK)
 80029d0:	187b      	adds	r3, r7, r1
 80029d2:	0018      	movs	r0, r3
 80029d4:	f7fe fdee 	bl	80015b4 <HAL_RCCEx_PeriphCLKConfig>
 80029d8:	1e03      	subs	r3, r0, #0
 80029da:	d001      	beq.n	80029e0 <HAL_UART_MspInit+0xd8>
      Error_Handler();
 80029dc:	f7ff feb0 	bl	8002740 <Error_Handler>
    __HAL_RCC_USART2_CLK_ENABLE();
 80029e0:	4b1b      	ldr	r3, [pc, #108]	@ (8002a50 <HAL_UART_MspInit+0x148>)
 80029e2:	6bda      	ldr	r2, [r3, #60]	@ 0x3c
 80029e4:	4b1a      	ldr	r3, [pc, #104]	@ (8002a50 <HAL_UART_MspInit+0x148>)
 80029e6:	2180      	movs	r1, #128	@ 0x80
 80029e8:	0289      	lsls	r1, r1, #10
 80029ea:	430a      	orrs	r2, r1
 80029ec:	63da      	str	r2, [r3, #60]	@ 0x3c
 80029ee:	4b18      	ldr	r3, [pc, #96]	@ (8002a50 <HAL_UART_MspInit+0x148>)
 80029f0:	6bda      	ldr	r2, [r3, #60]	@ 0x3c
 80029f2:	2380      	movs	r3, #128	@ 0x80
 80029f4:	029b      	lsls	r3, r3, #10
 80029f6:	4013      	ands	r3, r2
 80029f8:	60fb      	str	r3, [r7, #12]
 80029fa:	68fb      	ldr	r3, [r7, #12]
    __HAL_RCC_GPIOA_CLK_ENABLE();
 80029fc:	4b14      	ldr	r3, [pc, #80]	@ (8002a50 <HAL_UART_MspInit+0x148>)
 80029fe:	6b5a      	ldr	r2, [r3, #52]	@ 0x34
 8002a00:	4b13      	ldr	r3, [pc, #76]	@ (8002a50 <HAL_UART_MspInit+0x148>)
 8002a02:	2101      	movs	r1, #1
 8002a04:	430a      	orrs	r2, r1
 8002a06:	635a      	str	r2, [r3, #52]	@ 0x34
 8002a08:	4b11      	ldr	r3, [pc, #68]	@ (8002a50 <HAL_UART_MspInit+0x148>)
 8002a0a:	6b5b      	ldr	r3, [r3, #52]	@ 0x34
 8002a0c:	2201      	movs	r2, #1
 8002a0e:	4013      	ands	r3, r2
 8002a10:	60bb      	str	r3, [r7, #8]
 8002a12:	68bb      	ldr	r3, [r7, #8]
    GPIO_InitStruct.Pin = GPIO_PIN_2|GPIO_PIN_3;
 8002a14:	214c      	movs	r1, #76	@ 0x4c
 8002a16:	187b      	adds	r3, r7, r1
 8002a18:	220c      	movs	r2, #12
 8002a1a:	601a      	str	r2, [r3, #0]
    GPIO_InitStruct.Mode = GPIO_MODE_AF_PP;
 8002a1c:	187b      	adds	r3, r7, r1
 8002a1e:	2202      	movs	r2, #2
 8002a20:	605a      	str	r2, [r3, #4]
    GPIO_InitStruct.Pull = GPIO_NOPULL;
 8002a22:	187b      	adds	r3, r7, r1
 8002a24:	2200      	movs	r2, #0
 8002a26:	609a      	str	r2, [r3, #8]
    GPIO_InitStruct.Speed = GPIO_SPEED_FREQ_LOW;
 8002a28:	187b      	adds	r3, r7, r1
 8002a2a:	2200      	movs	r2, #0
 8002a2c:	60da      	str	r2, [r3, #12]
    GPIO_InitStruct.Alternate = GPIO_AF1_USART2;
 8002a2e:	187b      	adds	r3, r7, r1
 8002a30:	2201      	movs	r2, #1
 8002a32:	611a      	str	r2, [r3, #16]
    HAL_GPIO_Init(GPIOA, &GPIO_InitStruct);
 8002a34:	187a      	adds	r2, r7, r1
 8002a36:	23a0      	movs	r3, #160	@ 0xa0
 8002a38:	05db      	lsls	r3, r3, #23
 8002a3a:	0011      	movs	r1, r2
 8002a3c:	0018      	movs	r0, r3
 8002a3e:	f7fd ff27 	bl	8000890 <HAL_GPIO_Init>
}
 8002a42:	46c0      	nop			@ (mov r8, r8)
 8002a44:	46bd      	mov	sp, r7
 8002a46:	b019      	add	sp, #100	@ 0x64
 8002a48:	bd90      	pop	{r4, r7, pc}
 8002a4a:	46c0      	nop			@ (mov r8, r8)
 8002a4c:	40013800 	.word	0x40013800
 8002a50:	40021000 	.word	0x40021000
 8002a54:	50000800 	.word	0x50000800
 8002a58:	40004400 	.word	0x40004400

08002a5c <Reset_Handler>:

  .section .text.Reset_Handler
  .weak Reset_Handler
  .type Reset_Handler, %function
Reset_Handler:
  ldr   r0, =_estack
 8002a5c:	480d      	ldr	r0, [pc, #52]	@ (8002a94 <LoopForever+0x2>)
  mov   sp, r0          /* set stack pointer */
 8002a5e:	4685      	mov	sp, r0

/* Call the clock system initialization function.*/
  bl  SystemInit
 8002a60:	f7ff feb1 	bl	80027c6 <SystemInit>

/* Copy the data segment initializers from flash to SRAM */
  ldr r0, =_sdata
 8002a64:	480c      	ldr	r0, [pc, #48]	@ (8002a98 <LoopForever+0x6>)
  ldr r1, =_edata
 8002a66:	490d      	ldr	r1, [pc, #52]	@ (8002a9c <LoopForever+0xa>)
  ldr r2, =_sidata
 8002a68:	4a0d      	ldr	r2, [pc, #52]	@ (8002aa0 <LoopForever+0xe>)
  movs r3, #0
 8002a6a:	2300      	movs	r3, #0
  b LoopCopyDataInit
 8002a6c:	e002      	b.n	8002a74 <LoopCopyDataInit>

08002a6e <CopyDataInit>:

CopyDataInit:
  ldr r4, [r2, r3]
 8002a6e:	58d4      	ldr	r4, [r2, r3]
  str r4, [r0, r3]
 8002a70:	50c4      	str	r4, [r0, r3]
  adds r3, r3, #4
 8002a72:	3304      	adds	r3, #4

08002a74 <LoopCopyDataInit>:

LoopCopyDataInit:
  adds r4, r0, r3
 8002a74:	18c4      	adds	r4, r0, r3
  cmp r4, r1
 8002a76:	428c      	cmp	r4, r1
  bcc CopyDataInit
 8002a78:	d3f9      	bcc.n	8002a6e <CopyDataInit>

/* Zero fill the bss segment. */
  ldr r2, =_sbss
 8002a7a:	4a0a      	ldr	r2, [pc, #40]	@ (8002aa4 <LoopForever+0x12>)
  ldr r4, =_ebss
 8002a7c:	4c0a      	ldr	r4, [pc, #40]	@ (8002aa8 <LoopForever+0x16>)
  movs r3, #0
 8002a7e:	2300      	movs	r3, #0
  b LoopFillZerobss
 8002a80:	e001      	b.n	8002a86 <LoopFillZerobss>

08002a82 <FillZerobss>:

FillZerobss:
  str  r3, [r2]
 8002a82:	6013      	str	r3, [r2, #0]
  adds r2, r2, #4
 8002a84:	3204      	adds	r2, #4

08002a86 <LoopFillZerobss>:

LoopFillZerobss:
  cmp r2, r4
 8002a86:	42a2      	cmp	r2, r4
  bcc FillZerobss
 8002a88:	d3fb      	bcc.n	8002a82 <FillZerobss>

/* Call static constructors */
  bl __libc_init_array
 8002a8a:	f000 f819 	bl	8002ac0 <__libc_init_array>
/* Call the application s entry point.*/
  bl main
 8002a8e:	f7ff fe01 	bl	8002694 <main>

08002a92 <LoopForever>:

LoopForever:
  b LoopForever
 8002a92:	e7fe      	b.n	8002a92 <LoopForever>
  ldr   r0, =_estack
 8002a94:	20009000 	.word	0x20009000
  ldr r0, =_sdata
 8002a98:	20000000 	.word	0x20000000
  ldr r1, =_edata
 8002a9c:	2000000c 	.word	0x2000000c
  ldr r2, =_sidata
 8002aa0:	08002bb8 	.word	0x08002bb8
  ldr r2, =_sbss
 8002aa4:	2000000c 	.word	0x2000000c
  ldr r4, =_ebss
 8002aa8:	20000154 	.word	0x20000154

08002aac <ADC1_COMP_IRQHandler>:
 * @retval None
*/
  .section .text.Default_Handler,"ax",%progbits
Default_Handler:
Infinite_Loop:
  b Infinite_Loop
 8002aac:	e7fe      	b.n	8002aac <ADC1_COMP_IRQHandler>

08002aae <memset>:
 8002aae:	0003      	movs	r3, r0
 8002ab0:	1882      	adds	r2, r0, r2
 8002ab2:	4293      	cmp	r3, r2
 8002ab4:	d100      	bne.n	8002ab8 <memset+0xa>
 8002ab6:	4770      	bx	lr
 8002ab8:	7019      	strb	r1, [r3, #0]
 8002aba:	3301      	adds	r3, #1
 8002abc:	e7f9      	b.n	8002ab2 <memset+0x4>
	...

08002ac0 <__libc_init_array>:
 8002ac0:	b570      	push	{r4, r5, r6, lr}
 8002ac2:	2600      	movs	r6, #0
 8002ac4:	4c0c      	ldr	r4, [pc, #48]	@ (8002af8 <__libc_init_array+0x38>)
 8002ac6:	4d0d      	ldr	r5, [pc, #52]	@ (8002afc <__libc_init_array+0x3c>)
 8002ac8:	1b64      	subs	r4, r4, r5
 8002aca:	10a4      	asrs	r4, r4, #2
 8002acc:	42a6      	cmp	r6, r4
 8002ace:	d109      	bne.n	8002ae4 <__libc_init_array+0x24>
 8002ad0:	2600      	movs	r6, #0
 8002ad2:	f000 f819 	bl	8002b08 <_init>
 8002ad6:	4c0a      	ldr	r4, [pc, #40]	@ (8002b00 <__libc_init_array+0x40>)
 8002ad8:	4d0a      	ldr	r5, [pc, #40]	@ (8002b04 <__libc_init_array+0x44>)
 8002ada:	1b64      	subs	r4, r4, r5
 8002adc:	10a4      	asrs	r4, r4, #2
 8002ade:	42a6      	cmp	r6, r4
 8002ae0:	d105      	bne.n	8002aee <__libc_init_array+0x2e>
 8002ae2:	bd70      	pop	{r4, r5, r6, pc}
 8002ae4:	00b3      	lsls	r3, r6, #2
 8002ae6:	58eb      	ldr	r3, [r5, r3]
 8002ae8:	4798      	blx	r3
 8002aea:	3601      	adds	r6, #1
 8002aec:	e7ee      	b.n	8002acc <__libc_init_array+0xc>
 8002aee:	00b3      	lsls	r3, r6, #2
 8002af0:	58eb      	ldr	r3, [r5, r3]
 8002af2:	4798      	blx	r3
 8002af4:	3601      	adds	r6, #1
 8002af6:	e7f2      	b.n	8002ade <__libc_init_array+0x1e>
 8002af8:	08002bb0 	.word	0x08002bb0
 8002afc:	08002bb0 	.word	0x08002bb0
 8002b00:	08002bb4 	.word	0x08002bb4
 8002b04:	08002bb0 	.word	0x08002bb0

08002b08 <_init>:
 8002b08:	b5f8      	push	{r3, r4, r5, r6, r7, lr}
 8002b0a:	46c0      	nop			@ (mov r8, r8)
 8002b0c:	bcf8      	pop	{r3, r4, r5, r6, r7}
 8002b0e:	bc08      	pop	{r3}
 8002b10:	469e      	mov	lr, r3
 8002b12:	4770      	bx	lr

08002b14 <_fini>:
 8002b14:	b5f8      	push	{r3, r4, r5, r6, r7, lr}
 8002b16:	46c0      	nop			@ (mov r8, r8)
 8002b18:	bcf8      	pop	{r3, r4, r5, r6, r7}
 8002b1a:	bc08      	pop	{r3}
 8002b1c:	469e      	mov	lr, r3
 8002b1e:	4770      	bx	lr
