
airMouse-firmware.elf:     file format elf32-littlearm

Sections:
Idx Name          Size      VMA       LMA       File off  Algn
  0 .isr_vector   000000bc  08000000  08000000  00001000  2**0
                  CONTENTS, ALLOC, LOAD, READONLY, DATA
  1 .text         00007de0  080000bc  080000bc  000010bc  2**2
                  CONTENTS, ALLOC, LOAD, READONLY, CODE
  2 .rodata       00000170  08007ea0  08007ea0  00008ea0  2**3
                  CONTENTS, ALLOC, LOAD, READONLY, DATA
  3 .ARM.extab    00000000  08008010  08008010  0000a070  2**0
                  CONTENTS
  4 .ARM          00000008  08008010  08008010  00009010  2**2
                  CONTENTS, ALLOC, LOAD, READONLY, DATA
  5 .preinit_array 00000000  08008018  08008018  0000a070  2**0
                  CONTENTS, ALLOC, LOAD, DATA
  6 .init_array   00000004  08008018  08008018  00009018  2**2
                  CONTENTS, ALLOC, LOAD, READONLY, DATA
  7 .fini_array   00000004  0800801c  0800801c  0000901c  2**2
                  CONTENTS, ALLOC, LOAD, READONLY, DATA
  8 .data         00000070  20000000  08008020  0000a000  2**3
                  CONTENTS, ALLOC, LOAD, DATA
  9 .bss          000002fc  20000070  08008090  0000a070  2**2
                  ALLOC
 10 ._user_heap_stack 00000604  2000036c  08008090  0000a36c  2**0
                  ALLOC
 11 .ARM.attributes 00000028  00000000  00000000  0000a070  2**0
                  CONTENTS, READONLY
 12 .debug_info   000106b3  00000000  00000000  0000a098  2**0
                  CONTENTS, READONLY, DEBUGGING, OCTETS
 13 .debug_abbrev 0000280f  00000000  00000000  0001a74b  2**0
                  CONTENTS, READONLY, DEBUGGING, OCTETS
 14 .debug_aranges 00000c58  00000000  00000000  0001cf60  2**3
                  CONTENTS, READONLY, DEBUGGING, OCTETS
 15 .debug_rnglists 0000098d  00000000  00000000  0001dbb8  2**0
                  CONTENTS, READONLY, DEBUGGING, OCTETS
 16 .debug_macro  000191ee  00000000  00000000  0001e545  2**0
                  CONTENTS, READONLY, DEBUGGING, OCTETS
 17 .debug_line   00011634  00000000  00000000  00037733  2**0
                  CONTENTS, READONLY, DEBUGGING, OCTETS
 18 .debug_str    0009ab99  00000000  00000000  00048d67  2**0
                  CONTENTS, READONLY, DEBUGGING, OCTETS
 19 .comment      00000043  00000000  00000000  000e3900  2**0
                  CONTENTS, READONLY
 20 .debug_frame  0000322c  00000000  00000000  000e3944  2**2
                  CONTENTS, READONLY, DEBUGGING, OCTETS
 21 .debug_line_str 00000069  00000000  00000000  000e6b70  2**0
                  CONTENTS, READONLY, DEBUGGING, OCTETS

Disassembly of section .text:

080000bc <__do_global_dtors_aux>:
 80000bc:	b510      	push	{r4, lr}
 80000be:	4c06      	ldr	r4, [pc, #24]	@ (80000d8 <__do_global_dtors_aux+0x1c>)
 80000c0:	7823      	ldrb	r3, [r4, #0]
 80000c2:	2b00      	cmp	r3, #0
 80000c4:	d107      	bne.n	80000d6 <__do_global_dtors_aux+0x1a>
 80000c6:	4b05      	ldr	r3, [pc, #20]	@ (80000dc <__do_global_dtors_aux+0x20>)
 80000c8:	2b00      	cmp	r3, #0
 80000ca:	d002      	beq.n	80000d2 <__do_global_dtors_aux+0x16>
 80000cc:	4804      	ldr	r0, [pc, #16]	@ (80000e0 <__do_global_dtors_aux+0x24>)
 80000ce:	e000      	b.n	80000d2 <__do_global_dtors_aux+0x16>
 80000d0:	bf00      	nop
 80000d2:	2301      	movs	r3, #1
 80000d4:	7023      	strb	r3, [r4, #0]
 80000d6:	bd10      	pop	{r4, pc}
 80000d8:	20000070 	.word	0x20000070
 80000dc:	00000000 	.word	0x00000000
 80000e0:	08007e84 	.word	0x08007e84

080000e4 <frame_dummy>:
 80000e4:	4b04      	ldr	r3, [pc, #16]	@ (80000f8 <frame_dummy+0x14>)
 80000e6:	b510      	push	{r4, lr}
 80000e8:	2b00      	cmp	r3, #0
 80000ea:	d003      	beq.n	80000f4 <frame_dummy+0x10>
 80000ec:	4903      	ldr	r1, [pc, #12]	@ (80000fc <frame_dummy+0x18>)
 80000ee:	4804      	ldr	r0, [pc, #16]	@ (8000100 <frame_dummy+0x1c>)
 80000f0:	e000      	b.n	80000f4 <frame_dummy+0x10>
 80000f2:	bf00      	nop
 80000f4:	bd10      	pop	{r4, pc}
 80000f6:	46c0      	nop			@ (mov r8, r8)
 80000f8:	00000000 	.word	0x00000000
 80000fc:	20000074 	.word	0x20000074
 8000100:	08007e84 	.word	0x08007e84

08000104 <strlen>:
 8000104:	2300      	movs	r3, #0
 8000106:	5cc2      	ldrb	r2, [r0, r3]
 8000108:	3301      	adds	r3, #1
 800010a:	2a00      	cmp	r2, #0
 800010c:	d1fb      	bne.n	8000106 <strlen+0x2>
 800010e:	1e58      	subs	r0, r3, #1
 8000110:	4770      	bx	lr
	...

08000114 <__udivsi3>:
 8000114:	2200      	movs	r2, #0
 8000116:	0843      	lsrs	r3, r0, #1
 8000118:	428b      	cmp	r3, r1
 800011a:	d374      	bcc.n	8000206 <__udivsi3+0xf2>
 800011c:	0903      	lsrs	r3, r0, #4
 800011e:	428b      	cmp	r3, r1
 8000120:	d35f      	bcc.n	80001e2 <__udivsi3+0xce>
 8000122:	0a03      	lsrs	r3, r0, #8
 8000124:	428b      	cmp	r3, r1
 8000126:	d344      	bcc.n	80001b2 <__udivsi3+0x9e>
 8000128:	0b03      	lsrs	r3, r0, #12
 800012a:	428b      	cmp	r3, r1
 800012c:	d328      	bcc.n	8000180 <__udivsi3+0x6c>
 800012e:	0c03      	lsrs	r3, r0, #16
 8000130:	428b      	cmp	r3, r1
 8000132:	d30d      	bcc.n	8000150 <__udivsi3+0x3c>
 8000134:	22ff      	movs	r2, #255	@ 0xff
 8000136:	0209      	lsls	r1, r1, #8
 8000138:	ba12      	rev	r2, r2
 800013a:	0c03      	lsrs	r3, r0, #16
 800013c:	428b      	cmp	r3, r1
 800013e:	d302      	bcc.n	8000146 <__udivsi3+0x32>
 8000140:	1212      	asrs	r2, r2, #8
 8000142:	0209      	lsls	r1, r1, #8
 8000144:	d065      	beq.n	8000212 <__udivsi3+0xfe>
 8000146:	0b03      	lsrs	r3, r0, #12
 8000148:	428b      	cmp	r3, r1
 800014a:	d319      	bcc.n	8000180 <__udivsi3+0x6c>
 800014c:	e000      	b.n	8000150 <__udivsi3+0x3c>
 800014e:	0a09      	lsrs	r1, r1, #8
 8000150:	0bc3      	lsrs	r3, r0, #15
 8000152:	428b      	cmp	r3, r1
 8000154:	d301      	bcc.n	800015a <__udivsi3+0x46>
 8000156:	03cb      	lsls	r3, r1, #15
 8000158:	1ac0      	subs	r0, r0, r3
 800015a:	4152      	adcs	r2, r2
 800015c:	0b83      	lsrs	r3, r0, #14
 800015e:	428b      	cmp	r3, r1
 8000160:	d301      	bcc.n	8000166 <__udivsi3+0x52>
 8000162:	038b      	lsls	r3, r1, #14
 8000164:	1ac0      	subs	r0, r0, r3
 8000166:	4152      	adcs	r2, r2
 8000168:	0b43      	lsrs	r3, r0, #13
 800016a:	428b      	cmp	r3, r1
 800016c:	d301      	bcc.n	8000172 <__udivsi3+0x5e>
 800016e:	034b      	lsls	r3, r1, #13
 8000170:	1ac0      	subs	r0, r0, r3
 8000172:	4152      	adcs	r2, r2
 8000174:	0b03      	lsrs	r3, r0, #12
 8000176:	428b      	cmp	r3, r1
 8000178:	d301      	bcc.n	800017e <__udivsi3+0x6a>
 800017a:	030b      	lsls	r3, r1, #12
 800017c:	1ac0      	subs	r0, r0, r3
 800017e:	4152      	adcs	r2, r2
 8000180:	0ac3      	lsrs	r3, r0, #11
 8000182:	428b      	cmp	r3, r1
 8000184:	d301      	bcc.n	800018a <__udivsi3+0x76>
 8000186:	02cb      	lsls	r3, r1, #11
 8000188:	1ac0      	subs	r0, r0, r3
 800018a:	4152      	adcs	r2, r2
 800018c:	0a83      	lsrs	r3, r0, #10
 800018e:	428b      	cmp	r3, r1
 8000190:	d301      	bcc.n	8000196 <__udivsi3+0x82>
 8000192:	028b      	lsls	r3, r1, #10
 8000194:	1ac0      	subs	r0, r0, r3
 8000196:	4152      	adcs	r2, r2
 8000198:	0a43      	lsrs	r3, r0, #9
 800019a:	428b      	cmp	r3, r1
 800019c:	d301      	bcc.n	80001a2 <__udivsi3+0x8e>
 800019e:	024b      	lsls	r3, r1, #9
 80001a0:	1ac0      	subs	r0, r0, r3
 80001a2:	4152      	adcs	r2, r2
 80001a4:	0a03      	lsrs	r3, r0, #8
 80001a6:	428b      	cmp	r3, r1
 80001a8:	d301      	bcc.n	80001ae <__udivsi3+0x9a>
 80001aa:	020b      	lsls	r3, r1, #8
 80001ac:	1ac0      	subs	r0, r0, r3
 80001ae:	4152      	adcs	r2, r2
 80001b0:	d2cd      	bcs.n	800014e <__udivsi3+0x3a>
 80001b2:	09c3      	lsrs	r3, r0, #7
 80001b4:	428b      	cmp	r3, r1
 80001b6:	d301      	bcc.n	80001bc <__udivsi3+0xa8>
 80001b8:	01cb      	lsls	r3, r1, #7
 80001ba:	1ac0      	subs	r0, r0, r3
 80001bc:	4152      	adcs	r2, r2
 80001be:	0983      	lsrs	r3, r0, #6
 80001c0:	428b      	cmp	r3, r1
 80001c2:	d301      	bcc.n	80001c8 <__udivsi3+0xb4>
 80001c4:	018b      	lsls	r3, r1, #6
 80001c6:	1ac0      	subs	r0, r0, r3
 80001c8:	4152      	adcs	r2, r2
 80001ca:	0943      	lsrs	r3, r0, #5
 80001cc:	428b      	cmp	r3, r1
 80001ce:	d301      	bcc.n	80001d4 <__udivsi3+0xc0>
 80001d0:	014b      	lsls	r3, r1, #5
 80001d2:	1ac0      	subs	r0, r0, r3
 80001d4:	4152      	adcs	r2, r2
 80001d6:	0903      	lsrs	r3, r0, #4
 80001d8:	428b      	cmp	r3, r1
 80001da:	d301      	bcc.n	80001e0 <__udivsi3+0xcc>
 80001dc:	010b      	lsls	r3, r1, #4
 80001de:	1ac0      	subs	r0, r0, r3
 80001e0:	4152      	adcs	r2, r2
 80001e2:	08c3      	lsrs	r3, r0, #3
 80001e4:	428b      	cmp	r3, r1
 80001e6:	d301      	bcc.n	80001ec <__udivsi3+0xd8>
 80001e8:	00cb      	lsls	r3, r1, #3
 80001ea:	1ac0      	subs	r0, r0, r3
 80001ec:	4152      	adcs	r2, r2
 80001ee:	0883      	lsrs	r3, r0, #2
 80001f0:	428b      	cmp	r3, r1
 80001f2:	d301      	bcc.n	80001f8 <__udivsi3+0xe4>
 80001f4:	008b      	lsls	r3, r1, #2
 80001f6:	1ac0      	subs	r0, r0, r3
 80001f8:	4152      	adcs	r2, r2
 80001fa:	0843      	lsrs	r3, r0, #1
 80001fc:	428b      	cmp	r3, r1
 80001fe:	d301      	bcc.n	8000204 <__udivsi3+0xf0>
 8000200:	004b      	lsls	r3, r1, #1
 8000202:	1ac0      	subs	r0, r0, r3
 8000204:	4152      	adcs	r2, r2
 8000206:	1a41      	subs	r1, r0, r1
 8000208:	d200      	bcs.n	800020c <__udivsi3+0xf8>
 800020a:	4601      	mov	r1, r0
 800020c:	4152      	adcs	r2, r2
 800020e:	4610      	mov	r0, r2
 8000210:	4770      	bx	lr
 8000212:	e7ff      	b.n	8000214 <__udivsi3+0x100>
 8000214:	b501      	push	{r0, lr}
 8000216:	2000      	movs	r0, #0
 8000218:	f000 f8f0 	bl	80003fc <__aeabi_idiv0>
 800021c:	bd02      	pop	{r1, pc}
 800021e:	46c0      	nop			@ (mov r8, r8)

08000220 <__aeabi_uidivmod>:
 8000220:	2900      	cmp	r1, #0
 8000222:	d0f7      	beq.n	8000214 <__udivsi3+0x100>
 8000224:	e776      	b.n	8000114 <__udivsi3>
 8000226:	4770      	bx	lr

08000228 <__divsi3>:
 8000228:	4603      	mov	r3, r0
 800022a:	430b      	orrs	r3, r1
 800022c:	d47f      	bmi.n	800032e <__divsi3+0x106>
 800022e:	2200      	movs	r2, #0
 8000230:	0843      	lsrs	r3, r0, #1
 8000232:	428b      	cmp	r3, r1
 8000234:	d374      	bcc.n	8000320 <__divsi3+0xf8>
 8000236:	0903      	lsrs	r3, r0, #4
 8000238:	428b      	cmp	r3, r1
 800023a:	d35f      	bcc.n	80002fc <__divsi3+0xd4>
 800023c:	0a03      	lsrs	r3, r0, #8
 800023e:	428b      	cmp	r3, r1
 8000240:	d344      	bcc.n	80002cc <__divsi3+0xa4>
 8000242:	0b03      	lsrs	r3, r0, #12
 8000244:	428b      	cmp	r3, r1
 8000246:	d328      	bcc.n	800029a <__divsi3+0x72>
 8000248:	0c03      	lsrs	r3, r0, #16
 800024a:	428b      	cmp	r3, r1
 800024c:	d30d      	bcc.n	800026a <__divsi3+0x42>
 800024e:	22ff      	movs	r2, #255	@ 0xff
 8000250:	0209      	lsls	r1, r1, #8
 8000252:	ba12      	rev	r2, r2
 8000254:	0c03      	lsrs	r3, r0, #16
 8000256:	428b      	cmp	r3, r1
 8000258:	d302      	bcc.n	8000260 <__divsi3+0x38>
 800025a:	1212      	asrs	r2, r2, #8
 800025c:	0209      	lsls	r1, r1, #8
 800025e:	d065      	beq.n	800032c <__divsi3+0x104>
 8000260:	0b03      	lsrs	r3, r0, #12
 8000262:	428b      	cmp	r3, r1
 8000264:	d319      	bcc.n	800029a <__divsi3+0x72>
 8000266:	e000      	b.n	800026a <__divsi3+0x42>
 8000268:	0a09      	lsrs	r1, r1, #8
 800026a:	0bc3      	lsrs	r3, r0, #15
 800026c:	428b      	cmp	r3, r1
 800026e:	d301      	bcc.n	8000274 <__divsi3+0x4c>
 8000270:	03cb      	lsls	r3, r1, #15
 8000272:	1ac0      	subs	r0, r0, r3
 8000274:	4152      	adcs	r2, r2
 8000276:	0b83      	lsrs	r3, r0, #14
 8000278:	428b      	cmp	r3, r1
 800027a:	d301      	bcc.n	8000280 <__divsi3+0x58>
 800027c:	038b      	lsls	r3, r1, #14
 800027e:	1ac0      	subs	r0, r0, r3
 8000280:	4152      	adcs	r2, r2
 8000282:	0b43      	lsrs	r3, r0, #13
 8000284:	428b      	cmp	r3, r1
 8000286:	d301      	bcc.n	800028c <__divsi3+0x64>
 8000288:	034b      	lsls	r3, r1, #13
 800028a:	1ac0      	subs	r0, r0, r3
 800028c:	4152      	adcs	r2, r2
 800028e:	0b03      	lsrs	r3, r0, #12
 8000290:	428b      	cmp	r3, r1
 8000292:	d301      	bcc.n	8000298 <__divsi3+0x70>
 8000294:	030b      	lsls	r3, r1, #12
 8000296:	1ac0      	subs	r0, r0, r3
 8000298:	4152      	adcs	r2, r2
 800029a:	0ac3      	lsrs	r3, r0, #11
 800029c:	428b      	cmp	r3, r1
 800029e:	d301      	bcc.n	80002a4 <__divsi3+0x7c>
 80002a0:	02cb      	lsls	r3, r1, #11
 80002a2:	1ac0      	subs	r0, r0, r3
 80002a4:	4152      	adcs	r2, r2
 80002a6:	0a83      	lsrs	r3, r0, #10
 80002a8:	428b      	cmp	r3, r1
 80002aa:	d301      	bcc.n	80002b0 <__divsi3+0x88>
 80002ac:	028b      	lsls	r3, r1, #10
 80002ae:	1ac0      	subs	r0, r0, r3
 80002b0:	4152      	adcs	r2, r2
 80002b2:	0a43      	lsrs	r3, r0, #9
 80002b4:	428b      	cmp	r3, r1
 80002b6:	d301      	bcc.n	80002bc <__divsi3+0x94>
 80002b8:	024b      	lsls	r3, r1, #9
 80002ba:	1ac0      	subs	r0, r0, r3
 80002bc:	4152      	adcs	r2, r2
 80002be:	0a03      	lsrs	r3, r0, #8
 80002c0:	428b      	cmp	r3, r1
 80002c2:	d301      	bcc.n	80002c8 <__divsi3+0xa0>
 80002c4:	020b      	lsls	r3, r1, #8
 80002c6:	1ac0      	subs	r0, r0, r3
 80002c8:	4152      	adcs	r2, r2
 80002ca:	d2cd      	bcs.n	8000268 <__divsi3+0x40>
 80002cc:	09c3      	lsrs	r3, r0, #7
 80002ce:	428b      	cmp	r3, r1
 80002d0:	d301      	bcc.n	80002d6 <__divsi3+0xae>
 80002d2:	01cb      	lsls	r3, r1, #7
 80002d4:	1ac0      	subs	r0, r0, r3
 80002d6:	4152      	adcs	r2, r2
 80002d8:	0983      	lsrs	r3, r0, #6
 80002da:	428b      	cmp	r3, r1
 80002dc:	d301      	bcc.n	80002e2 <__divsi3+0xba>
 80002de:	018b      	lsls	r3, r1, #6
 80002e0:	1ac0      	subs	r0, r0, r3
 80002e2:	4152      	adcs	r2, r2
 80002e4:	0943      	lsrs	r3, r0, #5
 80002e6:	428b      	cmp	r3, r1
 80002e8:	d301      	bcc.n	80002ee <__divsi3+0xc6>
 80002ea:	014b      	lsls	r3, r1, #5
 80002ec:	1ac0      	subs	r0, r0, r3
 80002ee:	4152      	adcs	r2, r2
 80002f0:	0903      	lsrs	r3, r0, #4
 80002f2:	428b      	cmp	r3, r1
 80002f4:	d301      	bcc.n	80002fa <__divsi3+0xd2>
 80002f6:	010b      	lsls	r3, r1, #4
 80002f8:	1ac0      	subs	r0, r0, r3
 80002fa:	4152      	adcs	r2, r2
 80002fc:	08c3      	lsrs	r3, r0, #3
 80002fe:	428b      	cmp	r3, r1
 8000300:	d301      	bcc.n	8000306 <__divsi3+0xde>
 8000302:	00cb      	lsls	r3, r1, #3
 8000304:	1ac0      	subs	r0, r0, r3
 8000306:	4152      	adcs	r2, r2
 8000308:	0883      	lsrs	r3, r0, #2
 800030a:	428b      	cmp	r3, r1
 800030c:	d301      	bcc.n	8000312 <__divsi3+0xea>
 800030e:	008b      	lsls	r3, r1, #2
 8000310:	1ac0      	subs	r0, r0, r3
 8000312:	4152      	adcs	r2, r2
 8000314:	0843      	lsrs	r3, r0, #1
 8000316:	428b      	cmp	r3, r1
 8000318:	d301      	bcc.n	800031e <__divsi3+0xf6>
 800031a:	004b      	lsls	r3, r1, #1
 800031c:	1ac0      	subs	r0, r0, r3
 800031e:	4152      	adcs	r2, r2
 8000320:	1a41      	subs	r1, r0, r1
 8000322:	d200      	bcs.n	8000326 <__divsi3+0xfe>
 8000324:	4601      	mov	r1, r0
 8000326:	4152      	adcs	r2, r2
 8000328:	4610      	mov	r0, r2
 800032a:	4770      	bx	lr
 800032c:	e05d      	b.n	80003ea <__divsi3+0x1c2>
 800032e:	0fca      	lsrs	r2, r1, #31
 8000330:	d000      	beq.n	8000334 <__divsi3+0x10c>
 8000332:	4249      	negs	r1, r1
 8000334:	1003      	asrs	r3, r0, #32
 8000336:	d300      	bcc.n	800033a <__divsi3+0x112>
 8000338:	4240      	negs	r0, r0
 800033a:	4053      	eors	r3, r2
 800033c:	2200      	movs	r2, #0
 800033e:	469c      	mov	ip, r3
 8000340:	0903      	lsrs	r3, r0, #4
 8000342:	428b      	cmp	r3, r1
 8000344:	d32d      	bcc.n	80003a2 <__divsi3+0x17a>
 8000346:	0a03      	lsrs	r3, r0, #8
 8000348:	428b      	cmp	r3, r1
 800034a:	d312      	bcc.n	8000372 <__divsi3+0x14a>
 800034c:	22fc      	movs	r2, #252	@ 0xfc
 800034e:	0189      	lsls	r1, r1, #6
 8000350:	ba12      	rev	r2, r2
 8000352:	0a03      	lsrs	r3, r0, #8
 8000354:	428b      	cmp	r3, r1
 8000356:	d30c      	bcc.n	8000372 <__divsi3+0x14a>
 8000358:	0189      	lsls	r1, r1, #6
 800035a:	1192      	asrs	r2, r2, #6
 800035c:	428b      	cmp	r3, r1
 800035e:	d308      	bcc.n	8000372 <__divsi3+0x14a>
 8000360:	0189      	lsls	r1, r1, #6
 8000362:	1192      	asrs	r2, r2, #6
 8000364:	428b      	cmp	r3, r1
 8000366:	d304      	bcc.n	8000372 <__divsi3+0x14a>
 8000368:	0189      	lsls	r1, r1, #6
 800036a:	d03a      	beq.n	80003e2 <__divsi3+0x1ba>
 800036c:	1192      	asrs	r2, r2, #6
 800036e:	e000      	b.n	8000372 <__divsi3+0x14a>
 8000370:	0989      	lsrs	r1, r1, #6
 8000372:	09c3      	lsrs	r3, r0, #7
 8000374:	428b      	cmp	r3, r1
 8000376:	d301      	bcc.n	800037c <__divsi3+0x154>
 8000378:	01cb      	lsls	r3, r1, #7
 800037a:	1ac0      	subs	r0, r0, r3
 800037c:	4152      	adcs	r2, r2
 800037e:	0983      	lsrs	r3, r0, #6
 8000380:	428b      	cmp	r3, r1
 8000382:	d301      	bcc.n	8000388 <__divsi3+0x160>
 8000384:	018b      	lsls	r3, r1, #6
 8000386:	1ac0      	subs	r0, r0, r3
 8000388:	4152      	adcs	r2, r2
 800038a:	0943      	lsrs	r3, r0, #5
 800038c:	428b      	cmp	r3, r1
 800038e:	d301      	bcc.n	8000394 <__divsi3+0x16c>
 8000390:	014b      	lsls	r3, r1, #5
 8000392:	1ac0      	subs	r0, r0, r3
 8000394:	4152      	adcs	r2, r2
 8000396:	0903      	lsrs	r3, r0, #4
 8000398:	428b      	cmp	r3, r1
 800039a:	d301      	bcc.n	80003a0 <__divsi3+0x178>
 800039c:	010b      	lsls	r3, r1, #4
 800039e:	1ac0      	subs	r0, r0, r3
 80003a0:	4152      	adcs	r2, r2
 80003a2:	08c3      	lsrs	r3, r0, #3
 80003a4:	428b      	cmp	r3, r1
 80003a6:	d301      	bcc.n	80003ac <__divsi3+0x184>
 80003a8:	00cb      	lsls	r3, r1, #3
 80003aa:	1ac0      	subs	r0, r0, r3
 80003ac:	4152      	adcs	r2, r2
 80003ae:	0883      	lsrs	r3, r0, #2
 80003b0:	428b      	cmp	r3, r1
 80003b2:	d301      	bcc.n	80003b8 <__divsi3+0x190>
 80003b4:	008b      	lsls	r3, r1, #2
 80003b6:	1ac0      	subs	r0, r0, r3
 80003b8:	4152      	adcs	r2, r2
 80003ba:	d2d9      	bcs.n	8000370 <__divsi3+0x148>
 80003bc:	0843      	lsrs	r3, r0, #1
 80003be:	428b      	cmp	r3, r1
 80003c0:	d301      	bcc.n	80003c6 <__divsi3+0x19e>
 80003c2:	004b      	lsls	r3, r1, #1
 80003c4:	1ac0      	subs	r0, r0, r3
 80003c6:	4152      	adcs	r2, r2
 80003c8:	1a41      	subs	r1, r0, r1
 80003ca:	d200      	bcs.n	80003ce <__divsi3+0x1a6>
 80003cc:	4601      	mov	r1, r0
 80003ce:	4663      	mov	r3, ip
 80003d0:	4152      	adcs	r2, r2
 80003d2:	105b      	asrs	r3, r3, #1
 80003d4:	4610      	mov	r0, r2
 80003d6:	d301      	bcc.n	80003dc <__divsi3+0x1b4>
 80003d8:	4240      	negs	r0, r0
 80003da:	2b00      	cmp	r3, #0
 80003dc:	d500      	bpl.n	80003e0 <__divsi3+0x1b8>
 80003de:	4249      	negs	r1, r1
 80003e0:	4770      	bx	lr
 80003e2:	4663      	mov	r3, ip
 80003e4:	105b      	asrs	r3, r3, #1
 80003e6:	d300      	bcc.n	80003ea <__divsi3+0x1c2>
 80003e8:	4240      	negs	r0, r0
 80003ea:	b501      	push	{r0, lr}
 80003ec:	2000      	movs	r0, #0
 80003ee:	f000 f805 	bl	80003fc <__aeabi_idiv0>
 80003f2:	bd02      	pop	{r1, pc}

080003f4 <__aeabi_idivmod>:
 80003f4:	2900      	cmp	r1, #0
 80003f6:	d0f8      	beq.n	80003ea <__divsi3+0x1c2>
 80003f8:	e716      	b.n	8000228 <__divsi3>
 80003fa:	4770      	bx	lr

080003fc <__aeabi_idiv0>:
 80003fc:	4770      	bx	lr
 80003fe:	46c0      	nop			@ (mov r8, r8)

08000400 <__aeabi_cdrcmple>:
 8000400:	4684      	mov	ip, r0
 8000402:	0010      	movs	r0, r2
 8000404:	4662      	mov	r2, ip
 8000406:	468c      	mov	ip, r1
 8000408:	0019      	movs	r1, r3
 800040a:	4663      	mov	r3, ip
 800040c:	e000      	b.n	8000410 <__aeabi_cdcmpeq>
 800040e:	46c0      	nop			@ (mov r8, r8)

08000410 <__aeabi_cdcmpeq>:
 8000410:	b51f      	push	{r0, r1, r2, r3, r4, lr}
 8000412:	f001 f9ff 	bl	8001814 <__ledf2>
 8000416:	2800      	cmp	r0, #0
 8000418:	d401      	bmi.n	800041e <__aeabi_cdcmpeq+0xe>
 800041a:	2100      	movs	r1, #0
 800041c:	42c8      	cmn	r0, r1
 800041e:	bd1f      	pop	{r0, r1, r2, r3, r4, pc}

08000420 <__aeabi_dcmpeq>:
 8000420:	b510      	push	{r4, lr}
 8000422:	f001 f93f 	bl	80016a4 <__eqdf2>
 8000426:	4240      	negs	r0, r0
 8000428:	3001      	adds	r0, #1
 800042a:	bd10      	pop	{r4, pc}

0800042c <__aeabi_dcmplt>:
 800042c:	b510      	push	{r4, lr}
 800042e:	f001 f9f1 	bl	8001814 <__ledf2>
 8000432:	2800      	cmp	r0, #0
 8000434:	db01      	blt.n	800043a <__aeabi_dcmplt+0xe>
 8000436:	2000      	movs	r0, #0
 8000438:	bd10      	pop	{r4, pc}
 800043a:	2001      	movs	r0, #1
 800043c:	bd10      	pop	{r4, pc}
 800043e:	46c0      	nop			@ (mov r8, r8)

08000440 <__aeabi_dcmple>:
 8000440:	b510      	push	{r4, lr}
 8000442:	f001 f9e7 	bl	8001814 <__ledf2>
 8000446:	2800      	cmp	r0, #0
 8000448:	dd01      	ble.n	800044e <__aeabi_dcmple+0xe>
 800044a:	2000      	movs	r0, #0
 800044c:	bd10      	pop	{r4, pc}
 800044e:	2001      	movs	r0, #1
 8000450:	bd10      	pop	{r4, pc}
 8000452:	46c0      	nop			@ (mov r8, r8)

08000454 <__aeabi_dcmpgt>:
 8000454:	b510      	push	{r4, lr}
 8000456:	f001 f969 	bl	800172c <__gedf2>
 800045a:	2800      	cmp	r0, #0
 800045c:	dc01      	bgt.n	8000462 <__aeabi_dcmpgt+0xe>
 800045e:	2000      	movs	r0, #0
 8000460:	bd10      	pop	{r4, pc}
 8000462:	2001      	movs	r0, #1
 8000464:	bd10      	pop	{r4, pc}
 8000466:	46c0      	nop			@ (mov r8, r8)

08000468 <__aeabi_dcmpge>:
 8000468:	b510      	push	{r4, lr}
 800046a:	f001 f95f 	bl	800172c <__gedf2>
 800046e:	2800      	cmp	r0, #0
 8000470:	da01      	bge.n	8000476 <__aeabi_dcmpge+0xe>
 8000472:	2000      	movs	r0, #0
 8000474:	bd10      	pop	{r4, pc}
 8000476:	2001      	movs	r0, #1
 8000478:	bd10      	pop	{r4, pc}
 800047a:	46c0      	nop			@ (mov r8, r8)

0800047c <__aeabi_uldivmod>:
 800047c:	2b00      	cmp	r3, #0
 800047e:	d111      	bne.n	80004a4 <__aeabi_uldivmod+0x28>
 8000480:	2a00      	cmp	r2, #0
 8000482:	d10f      	bne.n	80004a4 <__aeabi_uldivmod+0x28>
 8000484:	2900      	cmp	r1, #0
 8000486:	d100      	bne.n	800048a <__aeabi_uldivmod+0xe>
 8000488:	2800      	cmp	r0, #0
 800048a:	d002      	beq.n	8000492 <__aeabi_uldivmod+0x16>
 800048c:	2100      	movs	r1, #0
 800048e:	43c9      	mvns	r1, r1
 8000490:	0008      	movs	r0, r1
 8000492:	b407      	push	{r0, r1, r2}
 8000494:	4802      	ldr	r0, [pc, #8]	@ (80004a0 <__aeabi_uldivmod+0x24>)
 8000496:	a102      	add	r1, pc, #8	@ (adr r1, 80004a0 <__aeabi_uldivmod+0x24>)
 8000498:	1840      	adds	r0, r0, r1
 800049a:	9002      	str	r0, [sp, #8]
 800049c:	bd03      	pop	{r0, r1, pc}
 800049e:	46c0      	nop			@ (mov r8, r8)
 80004a0:	ffffff5d 	.word	0xffffff5d
 80004a4:	b403      	push	{r0, r1}
 80004a6:	4668      	mov	r0, sp
 80004a8:	b501      	push	{r0, lr}
 80004aa:	9802      	ldr	r0, [sp, #8]
 80004ac:	f000 f806 	bl	80004bc <__udivmoddi4>
 80004b0:	9b01      	ldr	r3, [sp, #4]
 80004b2:	469e      	mov	lr, r3
 80004b4:	b002      	add	sp, #8
 80004b6:	bc0c      	pop	{r2, r3}
 80004b8:	4770      	bx	lr
 80004ba:	46c0      	nop			@ (mov r8, r8)

080004bc <__udivmoddi4>:
 80004bc:	b5f0      	push	{r4, r5, r6, r7, lr}
 80004be:	4657      	mov	r7, sl
 80004c0:	464e      	mov	r6, r9
 80004c2:	4645      	mov	r5, r8
 80004c4:	46de      	mov	lr, fp
 80004c6:	b5e0      	push	{r5, r6, r7, lr}
 80004c8:	0004      	movs	r4, r0
 80004ca:	000d      	movs	r5, r1
 80004cc:	4692      	mov	sl, r2
 80004ce:	4699      	mov	r9, r3
 80004d0:	b083      	sub	sp, #12
 80004d2:	428b      	cmp	r3, r1
 80004d4:	d830      	bhi.n	8000538 <__udivmoddi4+0x7c>
 80004d6:	d02d      	beq.n	8000534 <__udivmoddi4+0x78>
 80004d8:	4649      	mov	r1, r9
 80004da:	4650      	mov	r0, sl
 80004dc:	f002 f962 	bl	80027a4 <__clzdi2>
 80004e0:	0029      	movs	r1, r5
 80004e2:	0006      	movs	r6, r0
 80004e4:	0020      	movs	r0, r4
 80004e6:	f002 f95d 	bl	80027a4 <__clzdi2>
 80004ea:	1a33      	subs	r3, r6, r0
 80004ec:	4698      	mov	r8, r3
 80004ee:	3b20      	subs	r3, #32
 80004f0:	d434      	bmi.n	800055c <__udivmoddi4+0xa0>
 80004f2:	469b      	mov	fp, r3
 80004f4:	4653      	mov	r3, sl
 80004f6:	465a      	mov	r2, fp
 80004f8:	4093      	lsls	r3, r2
 80004fa:	4642      	mov	r2, r8
 80004fc:	001f      	movs	r7, r3
 80004fe:	4653      	mov	r3, sl
 8000500:	4093      	lsls	r3, r2
 8000502:	001e      	movs	r6, r3
 8000504:	42af      	cmp	r7, r5
 8000506:	d83b      	bhi.n	8000580 <__udivmoddi4+0xc4>
 8000508:	42af      	cmp	r7, r5
 800050a:	d100      	bne.n	800050e <__udivmoddi4+0x52>
 800050c:	e079      	b.n	8000602 <__udivmoddi4+0x146>
 800050e:	465b      	mov	r3, fp
 8000510:	1ba4      	subs	r4, r4, r6
 8000512:	41bd      	sbcs	r5, r7
 8000514:	2b00      	cmp	r3, #0
 8000516:	da00      	bge.n	800051a <__udivmoddi4+0x5e>
 8000518:	e076      	b.n	8000608 <__udivmoddi4+0x14c>
 800051a:	2200      	movs	r2, #0
 800051c:	2300      	movs	r3, #0
 800051e:	9200      	str	r2, [sp, #0]
 8000520:	9301      	str	r3, [sp, #4]
 8000522:	2301      	movs	r3, #1
 8000524:	465a      	mov	r2, fp
 8000526:	4093      	lsls	r3, r2
 8000528:	9301      	str	r3, [sp, #4]
 800052a:	2301      	movs	r3, #1
 800052c:	4642      	mov	r2, r8
 800052e:	4093      	lsls	r3, r2
 8000530:	9300      	str	r3, [sp, #0]
 8000532:	e029      	b.n	8000588 <__udivmoddi4+0xcc>
 8000534:	4282      	cmp	r2, r0
 8000536:	d9cf      	bls.n	80004d8 <__udivmoddi4+0x1c>
 8000538:	2200      	movs	r2, #0
 800053a:	2300      	movs	r3, #0
 800053c:	9200      	str	r2, [sp, #0]
 800053e:	9301      	str	r3, [sp, #4]
 8000540:	9b0c      	ldr	r3, [sp, #48]	@ 0x30
 8000542:	2b00      	cmp	r3, #0
 8000544:	d001      	beq.n	800054a <__udivmoddi4+0x8e>
 8000546:	601c      	str	r4, [r3, #0]
 8000548:	605d      	str	r5, [r3, #4]
 800054a:	9800      	ldr	r0, [sp, #0]
 800054c:	9901      	ldr	r1, [sp, #4]
 800054e:	b003      	add	sp, #12
 8000550:	bcf0      	pop	{r4, r5, r6, r7}
 8000552:	46bb      	mov	fp, r7
 8000554:	46b2      	mov	sl, r6
 8000556:	46a9      	mov	r9, r5
 8000558:	46a0      	mov	r8, r4
 800055a:	bdf0      	pop	{r4, r5, r6, r7, pc}
 800055c:	4642      	mov	r2, r8
 800055e:	469b      	mov	fp, r3
 8000560:	2320      	movs	r3, #32
 8000562:	1a9b      	subs	r3, r3, r2
 8000564:	4652      	mov	r2, sl
 8000566:	40da      	lsrs	r2, r3
 8000568:	4641      	mov	r1, r8
 800056a:	0013      	movs	r3, r2
 800056c:	464a      	mov	r2, r9
 800056e:	408a      	lsls	r2, r1
 8000570:	0017      	movs	r7, r2
 8000572:	4642      	mov	r2, r8
 8000574:	431f      	orrs	r7, r3
 8000576:	4653      	mov	r3, sl
 8000578:	4093      	lsls	r3, r2
 800057a:	001e      	movs	r6, r3
 800057c:	42af      	cmp	r7, r5
 800057e:	d9c3      	bls.n	8000508 <__udivmoddi4+0x4c>
 8000580:	2200      	movs	r2, #0
 8000582:	2300      	movs	r3, #0
 8000584:	9200      	str	r2, [sp, #0]
 8000586:	9301      	str	r3, [sp, #4]
 8000588:	4643      	mov	r3, r8
 800058a:	2b00      	cmp	r3, #0
 800058c:	d0d8      	beq.n	8000540 <__udivmoddi4+0x84>
 800058e:	07fb      	lsls	r3, r7, #31
 8000590:	0872      	lsrs	r2, r6, #1
 8000592:	431a      	orrs	r2, r3
 8000594:	4646      	mov	r6, r8
 8000596:	087b      	lsrs	r3, r7, #1
 8000598:	e00e      	b.n	80005b8 <__udivmoddi4+0xfc>
 800059a:	42ab      	cmp	r3, r5
 800059c:	d101      	bne.n	80005a2 <__udivmoddi4+0xe6>
 800059e:	42a2      	cmp	r2, r4
 80005a0:	d80c      	bhi.n	80005bc <__udivmoddi4+0x100>
 80005a2:	1aa4      	subs	r4, r4, r2
 80005a4:	419d      	sbcs	r5, r3
 80005a6:	2001      	movs	r0, #1
 80005a8:	1924      	adds	r4, r4, r4
 80005aa:	416d      	adcs	r5, r5
 80005ac:	2100      	movs	r1, #0
 80005ae:	3e01      	subs	r6, #1
 80005b0:	1824      	adds	r4, r4, r0
 80005b2:	414d      	adcs	r5, r1
 80005b4:	2e00      	cmp	r6, #0
 80005b6:	d006      	beq.n	80005c6 <__udivmoddi4+0x10a>
 80005b8:	42ab      	cmp	r3, r5
 80005ba:	d9ee      	bls.n	800059a <__udivmoddi4+0xde>
 80005bc:	3e01      	subs	r6, #1
 80005be:	1924      	adds	r4, r4, r4
 80005c0:	416d      	adcs	r5, r5
 80005c2:	2e00      	cmp	r6, #0
 80005c4:	d1f8      	bne.n	80005b8 <__udivmoddi4+0xfc>
 80005c6:	9800      	ldr	r0, [sp, #0]
 80005c8:	9901      	ldr	r1, [sp, #4]
 80005ca:	465b      	mov	r3, fp
 80005cc:	1900      	adds	r0, r0, r4
 80005ce:	4169      	adcs	r1, r5
 80005d0:	2b00      	cmp	r3, #0
 80005d2:	db24      	blt.n	800061e <__udivmoddi4+0x162>
 80005d4:	002b      	movs	r3, r5
 80005d6:	465a      	mov	r2, fp
 80005d8:	4644      	mov	r4, r8
 80005da:	40d3      	lsrs	r3, r2
 80005dc:	002a      	movs	r2, r5
 80005de:	40e2      	lsrs	r2, r4
 80005e0:	001c      	movs	r4, r3
 80005e2:	465b      	mov	r3, fp
 80005e4:	0015      	movs	r5, r2
 80005e6:	2b00      	cmp	r3, #0
 80005e8:	db2a      	blt.n	8000640 <__udivmoddi4+0x184>
 80005ea:	0026      	movs	r6, r4
 80005ec:	409e      	lsls	r6, r3
 80005ee:	0033      	movs	r3, r6
 80005f0:	0026      	movs	r6, r4
 80005f2:	4647      	mov	r7, r8
 80005f4:	40be      	lsls	r6, r7
 80005f6:	0032      	movs	r2, r6
 80005f8:	1a80      	subs	r0, r0, r2
 80005fa:	4199      	sbcs	r1, r3
 80005fc:	9000      	str	r0, [sp, #0]
 80005fe:	9101      	str	r1, [sp, #4]
 8000600:	e79e      	b.n	8000540 <__udivmoddi4+0x84>
 8000602:	42a3      	cmp	r3, r4
 8000604:	d8bc      	bhi.n	8000580 <__udivmoddi4+0xc4>
 8000606:	e782      	b.n	800050e <__udivmoddi4+0x52>
 8000608:	4642      	mov	r2, r8
 800060a:	2320      	movs	r3, #32
 800060c:	2100      	movs	r1, #0
 800060e:	1a9b      	subs	r3, r3, r2
 8000610:	2200      	movs	r2, #0
 8000612:	9100      	str	r1, [sp, #0]
 8000614:	9201      	str	r2, [sp, #4]
 8000616:	2201      	movs	r2, #1
 8000618:	40da      	lsrs	r2, r3
 800061a:	9201      	str	r2, [sp, #4]
 800061c:	e785      	b.n	800052a <__udivmoddi4+0x6e>
 800061e:	4642      	mov	r2, r8
 8000620:	2320      	movs	r3, #32
 8000622:	1a9b      	subs	r3, r3, r2
 8000624:	002a      	movs	r2, r5
 8000626:	4646      	mov	r6, r8
 8000628:	409a      	lsls	r2, r3
 800062a:	0023      	movs	r3, r4
 800062c:	40f3      	lsrs	r3, r6
 800062e:	4644      	mov	r4, r8
 8000630:	4313      	orrs	r3, r2
 8000632:	002a      	movs	r2, r5
 8000634:	40e2      	lsrs	r2, r4
 8000636:	001c      	movs	r4, r3
 8000638:	465b      	mov	r3, fp
 800063a:	0015      	movs	r5, r2
 800063c:	2b00      	cmp	r3, #0
 800063e:	dad4      	bge.n	80005ea <__udivmoddi4+0x12e>
 8000640:	4642      	mov	r2, r8
 8000642:	002f      	movs	r7, r5
 8000644:	2320      	movs	r3, #32
 8000646:	0026      	movs	r6, r4
 8000648:	4097      	lsls	r7, r2
 800064a:	1a9b      	subs	r3, r3, r2
 800064c:	40de      	lsrs	r6, r3
 800064e:	003b      	movs	r3, r7
 8000650:	4333      	orrs	r3, r6
 8000652:	e7cd      	b.n	80005f0 <__udivmoddi4+0x134>

08000654 <__aeabi_fmul>:
 8000654:	b5f0      	push	{r4, r5, r6, r7, lr}
 8000656:	464f      	mov	r7, r9
 8000658:	4646      	mov	r6, r8
 800065a:	46d6      	mov	lr, sl
 800065c:	0243      	lsls	r3, r0, #9
 800065e:	0a5b      	lsrs	r3, r3, #9
 8000660:	0045      	lsls	r5, r0, #1
 8000662:	b5c0      	push	{r6, r7, lr}
 8000664:	4699      	mov	r9, r3
 8000666:	1c0f      	adds	r7, r1, #0
 8000668:	0e2d      	lsrs	r5, r5, #24
 800066a:	0fc6      	lsrs	r6, r0, #31
 800066c:	2d00      	cmp	r5, #0
 800066e:	d100      	bne.n	8000672 <__aeabi_fmul+0x1e>
 8000670:	e088      	b.n	8000784 <__aeabi_fmul+0x130>
 8000672:	2dff      	cmp	r5, #255	@ 0xff
 8000674:	d100      	bne.n	8000678 <__aeabi_fmul+0x24>
 8000676:	e08d      	b.n	8000794 <__aeabi_fmul+0x140>
 8000678:	2280      	movs	r2, #128	@ 0x80
 800067a:	00db      	lsls	r3, r3, #3
 800067c:	04d2      	lsls	r2, r2, #19
 800067e:	431a      	orrs	r2, r3
 8000680:	2300      	movs	r3, #0
 8000682:	4691      	mov	r9, r2
 8000684:	4698      	mov	r8, r3
 8000686:	469a      	mov	sl, r3
 8000688:	3d7f      	subs	r5, #127	@ 0x7f
 800068a:	027c      	lsls	r4, r7, #9
 800068c:	007b      	lsls	r3, r7, #1
 800068e:	0a64      	lsrs	r4, r4, #9
 8000690:	0e1b      	lsrs	r3, r3, #24
 8000692:	0fff      	lsrs	r7, r7, #31
 8000694:	2b00      	cmp	r3, #0
 8000696:	d068      	beq.n	800076a <__aeabi_fmul+0x116>
 8000698:	2bff      	cmp	r3, #255	@ 0xff
 800069a:	d021      	beq.n	80006e0 <__aeabi_fmul+0x8c>
 800069c:	2280      	movs	r2, #128	@ 0x80
 800069e:	00e4      	lsls	r4, r4, #3
 80006a0:	04d2      	lsls	r2, r2, #19
 80006a2:	4314      	orrs	r4, r2
 80006a4:	4642      	mov	r2, r8
 80006a6:	3b7f      	subs	r3, #127	@ 0x7f
 80006a8:	195b      	adds	r3, r3, r5
 80006aa:	2100      	movs	r1, #0
 80006ac:	1c5d      	adds	r5, r3, #1
 80006ae:	2a0a      	cmp	r2, #10
 80006b0:	dc2e      	bgt.n	8000710 <__aeabi_fmul+0xbc>
 80006b2:	407e      	eors	r6, r7
 80006b4:	4642      	mov	r2, r8
 80006b6:	2a02      	cmp	r2, #2
 80006b8:	dc23      	bgt.n	8000702 <__aeabi_fmul+0xae>
 80006ba:	3a01      	subs	r2, #1
 80006bc:	2a01      	cmp	r2, #1
 80006be:	d900      	bls.n	80006c2 <__aeabi_fmul+0x6e>
 80006c0:	e0bd      	b.n	800083e <__aeabi_fmul+0x1ea>
 80006c2:	2902      	cmp	r1, #2
 80006c4:	d06e      	beq.n	80007a4 <__aeabi_fmul+0x150>
 80006c6:	2901      	cmp	r1, #1
 80006c8:	d12c      	bne.n	8000724 <__aeabi_fmul+0xd0>
 80006ca:	2000      	movs	r0, #0
 80006cc:	2200      	movs	r2, #0
 80006ce:	05c0      	lsls	r0, r0, #23
 80006d0:	07f6      	lsls	r6, r6, #31
 80006d2:	4310      	orrs	r0, r2
 80006d4:	4330      	orrs	r0, r6
 80006d6:	bce0      	pop	{r5, r6, r7}
 80006d8:	46ba      	mov	sl, r7
 80006da:	46b1      	mov	r9, r6
 80006dc:	46a8      	mov	r8, r5
 80006de:	bdf0      	pop	{r4, r5, r6, r7, pc}
 80006e0:	002b      	movs	r3, r5
 80006e2:	33ff      	adds	r3, #255	@ 0xff
 80006e4:	2c00      	cmp	r4, #0
 80006e6:	d065      	beq.n	80007b4 <__aeabi_fmul+0x160>
 80006e8:	2203      	movs	r2, #3
 80006ea:	4641      	mov	r1, r8
 80006ec:	4311      	orrs	r1, r2
 80006ee:	0032      	movs	r2, r6
 80006f0:	3501      	adds	r5, #1
 80006f2:	4688      	mov	r8, r1
 80006f4:	407a      	eors	r2, r7
 80006f6:	35ff      	adds	r5, #255	@ 0xff
 80006f8:	290a      	cmp	r1, #10
 80006fa:	dd00      	ble.n	80006fe <__aeabi_fmul+0xaa>
 80006fc:	e0d8      	b.n	80008b0 <__aeabi_fmul+0x25c>
 80006fe:	0016      	movs	r6, r2
 8000700:	2103      	movs	r1, #3
 8000702:	4640      	mov	r0, r8
 8000704:	2201      	movs	r2, #1
 8000706:	4082      	lsls	r2, r0
 8000708:	20a6      	movs	r0, #166	@ 0xa6
 800070a:	00c0      	lsls	r0, r0, #3
 800070c:	4202      	tst	r2, r0
 800070e:	d020      	beq.n	8000752 <__aeabi_fmul+0xfe>
 8000710:	4653      	mov	r3, sl
 8000712:	2b02      	cmp	r3, #2
 8000714:	d046      	beq.n	80007a4 <__aeabi_fmul+0x150>
 8000716:	2b03      	cmp	r3, #3
 8000718:	d100      	bne.n	800071c <__aeabi_fmul+0xc8>
 800071a:	e0bb      	b.n	8000894 <__aeabi_fmul+0x240>
 800071c:	4651      	mov	r1, sl
 800071e:	464c      	mov	r4, r9
 8000720:	2901      	cmp	r1, #1
 8000722:	d0d2      	beq.n	80006ca <__aeabi_fmul+0x76>
 8000724:	002b      	movs	r3, r5
 8000726:	337f      	adds	r3, #127	@ 0x7f
 8000728:	2b00      	cmp	r3, #0
 800072a:	dd70      	ble.n	800080e <__aeabi_fmul+0x1ba>
 800072c:	0762      	lsls	r2, r4, #29
 800072e:	d004      	beq.n	800073a <__aeabi_fmul+0xe6>
 8000730:	220f      	movs	r2, #15
 8000732:	4022      	ands	r2, r4
 8000734:	2a04      	cmp	r2, #4
 8000736:	d000      	beq.n	800073a <__aeabi_fmul+0xe6>
 8000738:	3404      	adds	r4, #4
 800073a:	0122      	lsls	r2, r4, #4
 800073c:	d503      	bpl.n	8000746 <__aeabi_fmul+0xf2>
 800073e:	4b63      	ldr	r3, [pc, #396]	@ (80008cc <__aeabi_fmul+0x278>)
 8000740:	401c      	ands	r4, r3
 8000742:	002b      	movs	r3, r5
 8000744:	3380      	adds	r3, #128	@ 0x80
 8000746:	2bfe      	cmp	r3, #254	@ 0xfe
 8000748:	dc2c      	bgt.n	80007a4 <__aeabi_fmul+0x150>
 800074a:	01a2      	lsls	r2, r4, #6
 800074c:	0a52      	lsrs	r2, r2, #9
 800074e:	b2d8      	uxtb	r0, r3
 8000750:	e7bd      	b.n	80006ce <__aeabi_fmul+0x7a>
 8000752:	2090      	movs	r0, #144	@ 0x90
 8000754:	0080      	lsls	r0, r0, #2
 8000756:	4202      	tst	r2, r0
 8000758:	d127      	bne.n	80007aa <__aeabi_fmul+0x156>
 800075a:	38b9      	subs	r0, #185	@ 0xb9
 800075c:	38ff      	subs	r0, #255	@ 0xff
 800075e:	4210      	tst	r0, r2
 8000760:	d06d      	beq.n	800083e <__aeabi_fmul+0x1ea>
 8000762:	003e      	movs	r6, r7
 8000764:	46a1      	mov	r9, r4
 8000766:	468a      	mov	sl, r1
 8000768:	e7d2      	b.n	8000710 <__aeabi_fmul+0xbc>
 800076a:	2c00      	cmp	r4, #0
 800076c:	d141      	bne.n	80007f2 <__aeabi_fmul+0x19e>
 800076e:	2301      	movs	r3, #1
 8000770:	4642      	mov	r2, r8
 8000772:	431a      	orrs	r2, r3
 8000774:	4690      	mov	r8, r2
 8000776:	002b      	movs	r3, r5
 8000778:	4642      	mov	r2, r8
 800077a:	2101      	movs	r1, #1
 800077c:	1c5d      	adds	r5, r3, #1
 800077e:	2a0a      	cmp	r2, #10
 8000780:	dd97      	ble.n	80006b2 <__aeabi_fmul+0x5e>
 8000782:	e7c5      	b.n	8000710 <__aeabi_fmul+0xbc>
 8000784:	2b00      	cmp	r3, #0
 8000786:	d126      	bne.n	80007d6 <__aeabi_fmul+0x182>
 8000788:	2304      	movs	r3, #4
 800078a:	4698      	mov	r8, r3
 800078c:	3b03      	subs	r3, #3
 800078e:	2500      	movs	r5, #0
 8000790:	469a      	mov	sl, r3
 8000792:	e77a      	b.n	800068a <__aeabi_fmul+0x36>
 8000794:	2b00      	cmp	r3, #0
 8000796:	d118      	bne.n	80007ca <__aeabi_fmul+0x176>
 8000798:	2308      	movs	r3, #8
 800079a:	4698      	mov	r8, r3
 800079c:	3b06      	subs	r3, #6
 800079e:	25ff      	movs	r5, #255	@ 0xff
 80007a0:	469a      	mov	sl, r3
 80007a2:	e772      	b.n	800068a <__aeabi_fmul+0x36>
 80007a4:	20ff      	movs	r0, #255	@ 0xff
 80007a6:	2200      	movs	r2, #0
 80007a8:	e791      	b.n	80006ce <__aeabi_fmul+0x7a>
 80007aa:	2280      	movs	r2, #128	@ 0x80
 80007ac:	2600      	movs	r6, #0
 80007ae:	20ff      	movs	r0, #255	@ 0xff
 80007b0:	03d2      	lsls	r2, r2, #15
 80007b2:	e78c      	b.n	80006ce <__aeabi_fmul+0x7a>
 80007b4:	4641      	mov	r1, r8
 80007b6:	2202      	movs	r2, #2
 80007b8:	3501      	adds	r5, #1
 80007ba:	4311      	orrs	r1, r2
 80007bc:	4688      	mov	r8, r1
 80007be:	35ff      	adds	r5, #255	@ 0xff
 80007c0:	290a      	cmp	r1, #10
 80007c2:	dca5      	bgt.n	8000710 <__aeabi_fmul+0xbc>
 80007c4:	2102      	movs	r1, #2
 80007c6:	407e      	eors	r6, r7
 80007c8:	e774      	b.n	80006b4 <__aeabi_fmul+0x60>
 80007ca:	230c      	movs	r3, #12
 80007cc:	4698      	mov	r8, r3
 80007ce:	3b09      	subs	r3, #9
 80007d0:	25ff      	movs	r5, #255	@ 0xff
 80007d2:	469a      	mov	sl, r3
 80007d4:	e759      	b.n	800068a <__aeabi_fmul+0x36>
 80007d6:	0018      	movs	r0, r3
 80007d8:	f001 ffc6 	bl	8002768 <__clzsi2>
 80007dc:	464a      	mov	r2, r9
 80007de:	1f43      	subs	r3, r0, #5
 80007e0:	2576      	movs	r5, #118	@ 0x76
 80007e2:	409a      	lsls	r2, r3
 80007e4:	2300      	movs	r3, #0
 80007e6:	426d      	negs	r5, r5
 80007e8:	4691      	mov	r9, r2
 80007ea:	4698      	mov	r8, r3
 80007ec:	469a      	mov	sl, r3
 80007ee:	1a2d      	subs	r5, r5, r0
 80007f0:	e74b      	b.n	800068a <__aeabi_fmul+0x36>
 80007f2:	0020      	movs	r0, r4
 80007f4:	f001 ffb8 	bl	8002768 <__clzsi2>
 80007f8:	4642      	mov	r2, r8
 80007fa:	1f43      	subs	r3, r0, #5
 80007fc:	409c      	lsls	r4, r3
 80007fe:	1a2b      	subs	r3, r5, r0
 8000800:	3b76      	subs	r3, #118	@ 0x76
 8000802:	2100      	movs	r1, #0
 8000804:	1c5d      	adds	r5, r3, #1
 8000806:	2a0a      	cmp	r2, #10
 8000808:	dc00      	bgt.n	800080c <__aeabi_fmul+0x1b8>
 800080a:	e752      	b.n	80006b2 <__aeabi_fmul+0x5e>
 800080c:	e780      	b.n	8000710 <__aeabi_fmul+0xbc>
 800080e:	2201      	movs	r2, #1
 8000810:	1ad3      	subs	r3, r2, r3
 8000812:	2b1b      	cmp	r3, #27
 8000814:	dd00      	ble.n	8000818 <__aeabi_fmul+0x1c4>
 8000816:	e758      	b.n	80006ca <__aeabi_fmul+0x76>
 8000818:	359e      	adds	r5, #158	@ 0x9e
 800081a:	0022      	movs	r2, r4
 800081c:	40ac      	lsls	r4, r5
 800081e:	40da      	lsrs	r2, r3
 8000820:	1e63      	subs	r3, r4, #1
 8000822:	419c      	sbcs	r4, r3
 8000824:	4322      	orrs	r2, r4
 8000826:	0753      	lsls	r3, r2, #29
 8000828:	d004      	beq.n	8000834 <__aeabi_fmul+0x1e0>
 800082a:	230f      	movs	r3, #15
 800082c:	4013      	ands	r3, r2
 800082e:	2b04      	cmp	r3, #4
 8000830:	d000      	beq.n	8000834 <__aeabi_fmul+0x1e0>
 8000832:	3204      	adds	r2, #4
 8000834:	0153      	lsls	r3, r2, #5
 8000836:	d537      	bpl.n	80008a8 <__aeabi_fmul+0x254>
 8000838:	2001      	movs	r0, #1
 800083a:	2200      	movs	r2, #0
 800083c:	e747      	b.n	80006ce <__aeabi_fmul+0x7a>
 800083e:	0c21      	lsrs	r1, r4, #16
 8000840:	464a      	mov	r2, r9
 8000842:	0424      	lsls	r4, r4, #16
 8000844:	0c24      	lsrs	r4, r4, #16
 8000846:	0027      	movs	r7, r4
 8000848:	0c10      	lsrs	r0, r2, #16
 800084a:	0412      	lsls	r2, r2, #16
 800084c:	0c12      	lsrs	r2, r2, #16
 800084e:	4344      	muls	r4, r0
 8000850:	4357      	muls	r7, r2
 8000852:	4348      	muls	r0, r1
 8000854:	4351      	muls	r1, r2
 8000856:	0c3a      	lsrs	r2, r7, #16
 8000858:	1909      	adds	r1, r1, r4
 800085a:	1852      	adds	r2, r2, r1
 800085c:	4294      	cmp	r4, r2
 800085e:	d903      	bls.n	8000868 <__aeabi_fmul+0x214>
 8000860:	2180      	movs	r1, #128	@ 0x80
 8000862:	0249      	lsls	r1, r1, #9
 8000864:	468c      	mov	ip, r1
 8000866:	4460      	add	r0, ip
 8000868:	043f      	lsls	r7, r7, #16
 800086a:	0411      	lsls	r1, r2, #16
 800086c:	0c3f      	lsrs	r7, r7, #16
 800086e:	19c9      	adds	r1, r1, r7
 8000870:	018c      	lsls	r4, r1, #6
 8000872:	1e67      	subs	r7, r4, #1
 8000874:	41bc      	sbcs	r4, r7
 8000876:	0c12      	lsrs	r2, r2, #16
 8000878:	0e89      	lsrs	r1, r1, #26
 800087a:	1812      	adds	r2, r2, r0
 800087c:	430c      	orrs	r4, r1
 800087e:	0192      	lsls	r2, r2, #6
 8000880:	4314      	orrs	r4, r2
 8000882:	0112      	lsls	r2, r2, #4
 8000884:	d50e      	bpl.n	80008a4 <__aeabi_fmul+0x250>
 8000886:	2301      	movs	r3, #1
 8000888:	0862      	lsrs	r2, r4, #1
 800088a:	401c      	ands	r4, r3
 800088c:	4314      	orrs	r4, r2
 800088e:	e749      	b.n	8000724 <__aeabi_fmul+0xd0>
 8000890:	003e      	movs	r6, r7
 8000892:	46a1      	mov	r9, r4
 8000894:	2280      	movs	r2, #128	@ 0x80
 8000896:	464b      	mov	r3, r9
 8000898:	03d2      	lsls	r2, r2, #15
 800089a:	431a      	orrs	r2, r3
 800089c:	0252      	lsls	r2, r2, #9
 800089e:	20ff      	movs	r0, #255	@ 0xff
 80008a0:	0a52      	lsrs	r2, r2, #9
 80008a2:	e714      	b.n	80006ce <__aeabi_fmul+0x7a>
 80008a4:	001d      	movs	r5, r3
 80008a6:	e73d      	b.n	8000724 <__aeabi_fmul+0xd0>
 80008a8:	0192      	lsls	r2, r2, #6
 80008aa:	2000      	movs	r0, #0
 80008ac:	0a52      	lsrs	r2, r2, #9
 80008ae:	e70e      	b.n	80006ce <__aeabi_fmul+0x7a>
 80008b0:	290f      	cmp	r1, #15
 80008b2:	d1ed      	bne.n	8000890 <__aeabi_fmul+0x23c>
 80008b4:	2280      	movs	r2, #128	@ 0x80
 80008b6:	464b      	mov	r3, r9
 80008b8:	03d2      	lsls	r2, r2, #15
 80008ba:	4213      	tst	r3, r2
 80008bc:	d0ea      	beq.n	8000894 <__aeabi_fmul+0x240>
 80008be:	4214      	tst	r4, r2
 80008c0:	d1e8      	bne.n	8000894 <__aeabi_fmul+0x240>
 80008c2:	003e      	movs	r6, r7
 80008c4:	20ff      	movs	r0, #255	@ 0xff
 80008c6:	4322      	orrs	r2, r4
 80008c8:	e701      	b.n	80006ce <__aeabi_fmul+0x7a>
 80008ca:	46c0      	nop			@ (mov r8, r8)
 80008cc:	f7ffffff 	.word	0xf7ffffff

080008d0 <__aeabi_f2iz>:
 80008d0:	0241      	lsls	r1, r0, #9
 80008d2:	0042      	lsls	r2, r0, #1
 80008d4:	0fc3      	lsrs	r3, r0, #31
 80008d6:	0a49      	lsrs	r1, r1, #9
 80008d8:	2000      	movs	r0, #0
 80008da:	0e12      	lsrs	r2, r2, #24
 80008dc:	2a7e      	cmp	r2, #126	@ 0x7e
 80008de:	dd03      	ble.n	80008e8 <__aeabi_f2iz+0x18>
 80008e0:	2a9d      	cmp	r2, #157	@ 0x9d
 80008e2:	dd02      	ble.n	80008ea <__aeabi_f2iz+0x1a>
 80008e4:	4a09      	ldr	r2, [pc, #36]	@ (800090c <__aeabi_f2iz+0x3c>)
 80008e6:	1898      	adds	r0, r3, r2
 80008e8:	4770      	bx	lr
 80008ea:	2080      	movs	r0, #128	@ 0x80
 80008ec:	0400      	lsls	r0, r0, #16
 80008ee:	4301      	orrs	r1, r0
 80008f0:	2a95      	cmp	r2, #149	@ 0x95
 80008f2:	dc07      	bgt.n	8000904 <__aeabi_f2iz+0x34>
 80008f4:	2096      	movs	r0, #150	@ 0x96
 80008f6:	1a82      	subs	r2, r0, r2
 80008f8:	40d1      	lsrs	r1, r2
 80008fa:	4248      	negs	r0, r1
 80008fc:	2b00      	cmp	r3, #0
 80008fe:	d1f3      	bne.n	80008e8 <__aeabi_f2iz+0x18>
 8000900:	0008      	movs	r0, r1
 8000902:	e7f1      	b.n	80008e8 <__aeabi_f2iz+0x18>
 8000904:	3a96      	subs	r2, #150	@ 0x96
 8000906:	4091      	lsls	r1, r2
 8000908:	e7f7      	b.n	80008fa <__aeabi_f2iz+0x2a>
 800090a:	46c0      	nop			@ (mov r8, r8)
 800090c:	7fffffff 	.word	0x7fffffff

08000910 <__aeabi_i2f>:
 8000910:	b570      	push	{r4, r5, r6, lr}
 8000912:	2800      	cmp	r0, #0
 8000914:	d013      	beq.n	800093e <__aeabi_i2f+0x2e>
 8000916:	17c3      	asrs	r3, r0, #31
 8000918:	18c5      	adds	r5, r0, r3
 800091a:	405d      	eors	r5, r3
 800091c:	0fc4      	lsrs	r4, r0, #31
 800091e:	0028      	movs	r0, r5
 8000920:	f001 ff22 	bl	8002768 <__clzsi2>
 8000924:	239e      	movs	r3, #158	@ 0x9e
 8000926:	0001      	movs	r1, r0
 8000928:	1a1b      	subs	r3, r3, r0
 800092a:	2b96      	cmp	r3, #150	@ 0x96
 800092c:	dc0f      	bgt.n	800094e <__aeabi_i2f+0x3e>
 800092e:	2808      	cmp	r0, #8
 8000930:	d034      	beq.n	800099c <__aeabi_i2f+0x8c>
 8000932:	3908      	subs	r1, #8
 8000934:	408d      	lsls	r5, r1
 8000936:	026d      	lsls	r5, r5, #9
 8000938:	0a6d      	lsrs	r5, r5, #9
 800093a:	b2d8      	uxtb	r0, r3
 800093c:	e002      	b.n	8000944 <__aeabi_i2f+0x34>
 800093e:	2400      	movs	r4, #0
 8000940:	2000      	movs	r0, #0
 8000942:	2500      	movs	r5, #0
 8000944:	05c0      	lsls	r0, r0, #23
 8000946:	4328      	orrs	r0, r5
 8000948:	07e4      	lsls	r4, r4, #31
 800094a:	4320      	orrs	r0, r4
 800094c:	bd70      	pop	{r4, r5, r6, pc}
 800094e:	2b99      	cmp	r3, #153	@ 0x99
 8000950:	dc16      	bgt.n	8000980 <__aeabi_i2f+0x70>
 8000952:	1f42      	subs	r2, r0, #5
 8000954:	2805      	cmp	r0, #5
 8000956:	d000      	beq.n	800095a <__aeabi_i2f+0x4a>
 8000958:	4095      	lsls	r5, r2
 800095a:	002a      	movs	r2, r5
 800095c:	4811      	ldr	r0, [pc, #68]	@ (80009a4 <__aeabi_i2f+0x94>)
 800095e:	4002      	ands	r2, r0
 8000960:	076e      	lsls	r6, r5, #29
 8000962:	d009      	beq.n	8000978 <__aeabi_i2f+0x68>
 8000964:	260f      	movs	r6, #15
 8000966:	4035      	ands	r5, r6
 8000968:	2d04      	cmp	r5, #4
 800096a:	d005      	beq.n	8000978 <__aeabi_i2f+0x68>
 800096c:	3204      	adds	r2, #4
 800096e:	0155      	lsls	r5, r2, #5
 8000970:	d502      	bpl.n	8000978 <__aeabi_i2f+0x68>
 8000972:	239f      	movs	r3, #159	@ 0x9f
 8000974:	4002      	ands	r2, r0
 8000976:	1a5b      	subs	r3, r3, r1
 8000978:	0192      	lsls	r2, r2, #6
 800097a:	0a55      	lsrs	r5, r2, #9
 800097c:	b2d8      	uxtb	r0, r3
 800097e:	e7e1      	b.n	8000944 <__aeabi_i2f+0x34>
 8000980:	2205      	movs	r2, #5
 8000982:	1a12      	subs	r2, r2, r0
 8000984:	0028      	movs	r0, r5
 8000986:	40d0      	lsrs	r0, r2
 8000988:	0002      	movs	r2, r0
 800098a:	0008      	movs	r0, r1
 800098c:	301b      	adds	r0, #27
 800098e:	4085      	lsls	r5, r0
 8000990:	0028      	movs	r0, r5
 8000992:	1e45      	subs	r5, r0, #1
 8000994:	41a8      	sbcs	r0, r5
 8000996:	4302      	orrs	r2, r0
 8000998:	0015      	movs	r5, r2
 800099a:	e7de      	b.n	800095a <__aeabi_i2f+0x4a>
 800099c:	026d      	lsls	r5, r5, #9
 800099e:	2096      	movs	r0, #150	@ 0x96
 80009a0:	0a6d      	lsrs	r5, r5, #9
 80009a2:	e7cf      	b.n	8000944 <__aeabi_i2f+0x34>
 80009a4:	fbffffff 	.word	0xfbffffff

080009a8 <__aeabi_dadd>:
 80009a8:	b5f0      	push	{r4, r5, r6, r7, lr}
 80009aa:	4657      	mov	r7, sl
 80009ac:	464e      	mov	r6, r9
 80009ae:	4645      	mov	r5, r8
 80009b0:	46de      	mov	lr, fp
 80009b2:	b5e0      	push	{r5, r6, r7, lr}
 80009b4:	b083      	sub	sp, #12
 80009b6:	9000      	str	r0, [sp, #0]
 80009b8:	9101      	str	r1, [sp, #4]
 80009ba:	030c      	lsls	r4, r1, #12
 80009bc:	004f      	lsls	r7, r1, #1
 80009be:	0fce      	lsrs	r6, r1, #31
 80009c0:	0a61      	lsrs	r1, r4, #9
 80009c2:	9c00      	ldr	r4, [sp, #0]
 80009c4:	031d      	lsls	r5, r3, #12
 80009c6:	0f64      	lsrs	r4, r4, #29
 80009c8:	430c      	orrs	r4, r1
 80009ca:	9900      	ldr	r1, [sp, #0]
 80009cc:	9200      	str	r2, [sp, #0]
 80009ce:	9301      	str	r3, [sp, #4]
 80009d0:	00c8      	lsls	r0, r1, #3
 80009d2:	0059      	lsls	r1, r3, #1
 80009d4:	0d4b      	lsrs	r3, r1, #21
 80009d6:	4699      	mov	r9, r3
 80009d8:	9a00      	ldr	r2, [sp, #0]
 80009da:	9b01      	ldr	r3, [sp, #4]
 80009dc:	0a6d      	lsrs	r5, r5, #9
 80009de:	0fd9      	lsrs	r1, r3, #31
 80009e0:	0f53      	lsrs	r3, r2, #29
 80009e2:	432b      	orrs	r3, r5
 80009e4:	469a      	mov	sl, r3
 80009e6:	9b00      	ldr	r3, [sp, #0]
 80009e8:	0d7f      	lsrs	r7, r7, #21
 80009ea:	00da      	lsls	r2, r3, #3
 80009ec:	4694      	mov	ip, r2
 80009ee:	464a      	mov	r2, r9
 80009f0:	46b0      	mov	r8, r6
 80009f2:	1aba      	subs	r2, r7, r2
 80009f4:	428e      	cmp	r6, r1
 80009f6:	d100      	bne.n	80009fa <__aeabi_dadd+0x52>
 80009f8:	e0b0      	b.n	8000b5c <__aeabi_dadd+0x1b4>
 80009fa:	2a00      	cmp	r2, #0
 80009fc:	dc00      	bgt.n	8000a00 <__aeabi_dadd+0x58>
 80009fe:	e078      	b.n	8000af2 <__aeabi_dadd+0x14a>
 8000a00:	4649      	mov	r1, r9
 8000a02:	2900      	cmp	r1, #0
 8000a04:	d100      	bne.n	8000a08 <__aeabi_dadd+0x60>
 8000a06:	e0e9      	b.n	8000bdc <__aeabi_dadd+0x234>
 8000a08:	49c9      	ldr	r1, [pc, #804]	@ (8000d30 <__aeabi_dadd+0x388>)
 8000a0a:	428f      	cmp	r7, r1
 8000a0c:	d100      	bne.n	8000a10 <__aeabi_dadd+0x68>
 8000a0e:	e195      	b.n	8000d3c <__aeabi_dadd+0x394>
 8000a10:	2501      	movs	r5, #1
 8000a12:	2a38      	cmp	r2, #56	@ 0x38
 8000a14:	dc16      	bgt.n	8000a44 <__aeabi_dadd+0x9c>
 8000a16:	2180      	movs	r1, #128	@ 0x80
 8000a18:	4653      	mov	r3, sl
 8000a1a:	0409      	lsls	r1, r1, #16
 8000a1c:	430b      	orrs	r3, r1
 8000a1e:	469a      	mov	sl, r3
 8000a20:	2a1f      	cmp	r2, #31
 8000a22:	dd00      	ble.n	8000a26 <__aeabi_dadd+0x7e>
 8000a24:	e1e7      	b.n	8000df6 <__aeabi_dadd+0x44e>
 8000a26:	2120      	movs	r1, #32
 8000a28:	4655      	mov	r5, sl
 8000a2a:	1a8b      	subs	r3, r1, r2
 8000a2c:	4661      	mov	r1, ip
 8000a2e:	409d      	lsls	r5, r3
 8000a30:	40d1      	lsrs	r1, r2
 8000a32:	430d      	orrs	r5, r1
 8000a34:	4661      	mov	r1, ip
 8000a36:	4099      	lsls	r1, r3
 8000a38:	1e4b      	subs	r3, r1, #1
 8000a3a:	4199      	sbcs	r1, r3
 8000a3c:	4653      	mov	r3, sl
 8000a3e:	40d3      	lsrs	r3, r2
 8000a40:	430d      	orrs	r5, r1
 8000a42:	1ae4      	subs	r4, r4, r3
 8000a44:	1b45      	subs	r5, r0, r5
 8000a46:	42a8      	cmp	r0, r5
 8000a48:	4180      	sbcs	r0, r0
 8000a4a:	4240      	negs	r0, r0
 8000a4c:	1a24      	subs	r4, r4, r0
 8000a4e:	0223      	lsls	r3, r4, #8
 8000a50:	d400      	bmi.n	8000a54 <__aeabi_dadd+0xac>
 8000a52:	e10f      	b.n	8000c74 <__aeabi_dadd+0x2cc>
 8000a54:	0264      	lsls	r4, r4, #9
 8000a56:	0a64      	lsrs	r4, r4, #9
 8000a58:	2c00      	cmp	r4, #0
 8000a5a:	d100      	bne.n	8000a5e <__aeabi_dadd+0xb6>
 8000a5c:	e139      	b.n	8000cd2 <__aeabi_dadd+0x32a>
 8000a5e:	0020      	movs	r0, r4
 8000a60:	f001 fe82 	bl	8002768 <__clzsi2>
 8000a64:	0003      	movs	r3, r0
 8000a66:	3b08      	subs	r3, #8
 8000a68:	2120      	movs	r1, #32
 8000a6a:	0028      	movs	r0, r5
 8000a6c:	1aca      	subs	r2, r1, r3
 8000a6e:	40d0      	lsrs	r0, r2
 8000a70:	409c      	lsls	r4, r3
 8000a72:	0002      	movs	r2, r0
 8000a74:	409d      	lsls	r5, r3
 8000a76:	4322      	orrs	r2, r4
 8000a78:	429f      	cmp	r7, r3
 8000a7a:	dd00      	ble.n	8000a7e <__aeabi_dadd+0xd6>
 8000a7c:	e173      	b.n	8000d66 <__aeabi_dadd+0x3be>
 8000a7e:	1bd8      	subs	r0, r3, r7
 8000a80:	3001      	adds	r0, #1
 8000a82:	1a09      	subs	r1, r1, r0
 8000a84:	002c      	movs	r4, r5
 8000a86:	408d      	lsls	r5, r1
 8000a88:	40c4      	lsrs	r4, r0
 8000a8a:	1e6b      	subs	r3, r5, #1
 8000a8c:	419d      	sbcs	r5, r3
 8000a8e:	0013      	movs	r3, r2
 8000a90:	40c2      	lsrs	r2, r0
 8000a92:	408b      	lsls	r3, r1
 8000a94:	4325      	orrs	r5, r4
 8000a96:	2700      	movs	r7, #0
 8000a98:	0014      	movs	r4, r2
 8000a9a:	431d      	orrs	r5, r3
 8000a9c:	076b      	lsls	r3, r5, #29
 8000a9e:	d009      	beq.n	8000ab4 <__aeabi_dadd+0x10c>
 8000aa0:	230f      	movs	r3, #15
 8000aa2:	402b      	ands	r3, r5
 8000aa4:	2b04      	cmp	r3, #4
 8000aa6:	d005      	beq.n	8000ab4 <__aeabi_dadd+0x10c>
 8000aa8:	1d2b      	adds	r3, r5, #4
 8000aaa:	42ab      	cmp	r3, r5
 8000aac:	41ad      	sbcs	r5, r5
 8000aae:	426d      	negs	r5, r5
 8000ab0:	1964      	adds	r4, r4, r5
 8000ab2:	001d      	movs	r5, r3
 8000ab4:	0223      	lsls	r3, r4, #8
 8000ab6:	d400      	bmi.n	8000aba <__aeabi_dadd+0x112>
 8000ab8:	e12d      	b.n	8000d16 <__aeabi_dadd+0x36e>
 8000aba:	4a9d      	ldr	r2, [pc, #628]	@ (8000d30 <__aeabi_dadd+0x388>)
 8000abc:	3701      	adds	r7, #1
 8000abe:	4297      	cmp	r7, r2
 8000ac0:	d100      	bne.n	8000ac4 <__aeabi_dadd+0x11c>
 8000ac2:	e0d3      	b.n	8000c6c <__aeabi_dadd+0x2c4>
 8000ac4:	4646      	mov	r6, r8
 8000ac6:	499b      	ldr	r1, [pc, #620]	@ (8000d34 <__aeabi_dadd+0x38c>)
 8000ac8:	08ed      	lsrs	r5, r5, #3
 8000aca:	4021      	ands	r1, r4
 8000acc:	074a      	lsls	r2, r1, #29
 8000ace:	432a      	orrs	r2, r5
 8000ad0:	057c      	lsls	r4, r7, #21
 8000ad2:	024d      	lsls	r5, r1, #9
 8000ad4:	0b2d      	lsrs	r5, r5, #12
 8000ad6:	0d64      	lsrs	r4, r4, #21
 8000ad8:	0524      	lsls	r4, r4, #20
 8000ada:	432c      	orrs	r4, r5
 8000adc:	07f6      	lsls	r6, r6, #31
 8000ade:	4334      	orrs	r4, r6
 8000ae0:	0010      	movs	r0, r2
 8000ae2:	0021      	movs	r1, r4
 8000ae4:	b003      	add	sp, #12
 8000ae6:	bcf0      	pop	{r4, r5, r6, r7}
 8000ae8:	46bb      	mov	fp, r7
 8000aea:	46b2      	mov	sl, r6
 8000aec:	46a9      	mov	r9, r5
 8000aee:	46a0      	mov	r8, r4
 8000af0:	bdf0      	pop	{r4, r5, r6, r7, pc}
 8000af2:	2a00      	cmp	r2, #0
 8000af4:	d100      	bne.n	8000af8 <__aeabi_dadd+0x150>
 8000af6:	e084      	b.n	8000c02 <__aeabi_dadd+0x25a>
 8000af8:	464a      	mov	r2, r9
 8000afa:	1bd2      	subs	r2, r2, r7
 8000afc:	2f00      	cmp	r7, #0
 8000afe:	d000      	beq.n	8000b02 <__aeabi_dadd+0x15a>
 8000b00:	e16d      	b.n	8000dde <__aeabi_dadd+0x436>
 8000b02:	0025      	movs	r5, r4
 8000b04:	4305      	orrs	r5, r0
 8000b06:	d100      	bne.n	8000b0a <__aeabi_dadd+0x162>
 8000b08:	e127      	b.n	8000d5a <__aeabi_dadd+0x3b2>
 8000b0a:	1e56      	subs	r6, r2, #1
 8000b0c:	2a01      	cmp	r2, #1
 8000b0e:	d100      	bne.n	8000b12 <__aeabi_dadd+0x16a>
 8000b10:	e23b      	b.n	8000f8a <__aeabi_dadd+0x5e2>
 8000b12:	4d87      	ldr	r5, [pc, #540]	@ (8000d30 <__aeabi_dadd+0x388>)
 8000b14:	42aa      	cmp	r2, r5
 8000b16:	d100      	bne.n	8000b1a <__aeabi_dadd+0x172>
 8000b18:	e26a      	b.n	8000ff0 <__aeabi_dadd+0x648>
 8000b1a:	2501      	movs	r5, #1
 8000b1c:	2e38      	cmp	r6, #56	@ 0x38
 8000b1e:	dc12      	bgt.n	8000b46 <__aeabi_dadd+0x19e>
 8000b20:	0032      	movs	r2, r6
 8000b22:	2a1f      	cmp	r2, #31
 8000b24:	dd00      	ble.n	8000b28 <__aeabi_dadd+0x180>
 8000b26:	e1f8      	b.n	8000f1a <__aeabi_dadd+0x572>
 8000b28:	2620      	movs	r6, #32
 8000b2a:	0025      	movs	r5, r4
 8000b2c:	1ab6      	subs	r6, r6, r2
 8000b2e:	0007      	movs	r7, r0
 8000b30:	4653      	mov	r3, sl
 8000b32:	40b0      	lsls	r0, r6
 8000b34:	40d4      	lsrs	r4, r2
 8000b36:	40b5      	lsls	r5, r6
 8000b38:	40d7      	lsrs	r7, r2
 8000b3a:	1e46      	subs	r6, r0, #1
 8000b3c:	41b0      	sbcs	r0, r6
 8000b3e:	1b1b      	subs	r3, r3, r4
 8000b40:	469a      	mov	sl, r3
 8000b42:	433d      	orrs	r5, r7
 8000b44:	4305      	orrs	r5, r0
 8000b46:	4662      	mov	r2, ip
 8000b48:	1b55      	subs	r5, r2, r5
 8000b4a:	45ac      	cmp	ip, r5
 8000b4c:	4192      	sbcs	r2, r2
 8000b4e:	4653      	mov	r3, sl
 8000b50:	4252      	negs	r2, r2
 8000b52:	000e      	movs	r6, r1
 8000b54:	464f      	mov	r7, r9
 8000b56:	4688      	mov	r8, r1
 8000b58:	1a9c      	subs	r4, r3, r2
 8000b5a:	e778      	b.n	8000a4e <__aeabi_dadd+0xa6>
 8000b5c:	2a00      	cmp	r2, #0
 8000b5e:	dc00      	bgt.n	8000b62 <__aeabi_dadd+0x1ba>
 8000b60:	e08e      	b.n	8000c80 <__aeabi_dadd+0x2d8>
 8000b62:	4649      	mov	r1, r9
 8000b64:	2900      	cmp	r1, #0
 8000b66:	d175      	bne.n	8000c54 <__aeabi_dadd+0x2ac>
 8000b68:	4661      	mov	r1, ip
 8000b6a:	4653      	mov	r3, sl
 8000b6c:	4319      	orrs	r1, r3
 8000b6e:	d100      	bne.n	8000b72 <__aeabi_dadd+0x1ca>
 8000b70:	e0f6      	b.n	8000d60 <__aeabi_dadd+0x3b8>
 8000b72:	1e51      	subs	r1, r2, #1
 8000b74:	2a01      	cmp	r2, #1
 8000b76:	d100      	bne.n	8000b7a <__aeabi_dadd+0x1d2>
 8000b78:	e191      	b.n	8000e9e <__aeabi_dadd+0x4f6>
 8000b7a:	4d6d      	ldr	r5, [pc, #436]	@ (8000d30 <__aeabi_dadd+0x388>)
 8000b7c:	42aa      	cmp	r2, r5
 8000b7e:	d100      	bne.n	8000b82 <__aeabi_dadd+0x1da>
 8000b80:	e0dc      	b.n	8000d3c <__aeabi_dadd+0x394>
 8000b82:	2501      	movs	r5, #1
 8000b84:	2938      	cmp	r1, #56	@ 0x38
 8000b86:	dc14      	bgt.n	8000bb2 <__aeabi_dadd+0x20a>
 8000b88:	000a      	movs	r2, r1
 8000b8a:	2a1f      	cmp	r2, #31
 8000b8c:	dd00      	ble.n	8000b90 <__aeabi_dadd+0x1e8>
 8000b8e:	e1a2      	b.n	8000ed6 <__aeabi_dadd+0x52e>
 8000b90:	2120      	movs	r1, #32
 8000b92:	4653      	mov	r3, sl
 8000b94:	1a89      	subs	r1, r1, r2
 8000b96:	408b      	lsls	r3, r1
 8000b98:	001d      	movs	r5, r3
 8000b9a:	4663      	mov	r3, ip
 8000b9c:	40d3      	lsrs	r3, r2
 8000b9e:	431d      	orrs	r5, r3
 8000ba0:	4663      	mov	r3, ip
 8000ba2:	408b      	lsls	r3, r1
 8000ba4:	0019      	movs	r1, r3
 8000ba6:	1e4b      	subs	r3, r1, #1
 8000ba8:	4199      	sbcs	r1, r3
 8000baa:	4653      	mov	r3, sl
 8000bac:	40d3      	lsrs	r3, r2
 8000bae:	430d      	orrs	r5, r1
 8000bb0:	18e4      	adds	r4, r4, r3
 8000bb2:	182d      	adds	r5, r5, r0
 8000bb4:	4285      	cmp	r5, r0
 8000bb6:	4180      	sbcs	r0, r0
 8000bb8:	4240      	negs	r0, r0
 8000bba:	1824      	adds	r4, r4, r0
 8000bbc:	0223      	lsls	r3, r4, #8
 8000bbe:	d559      	bpl.n	8000c74 <__aeabi_dadd+0x2cc>
 8000bc0:	4b5b      	ldr	r3, [pc, #364]	@ (8000d30 <__aeabi_dadd+0x388>)
 8000bc2:	3701      	adds	r7, #1
 8000bc4:	429f      	cmp	r7, r3
 8000bc6:	d051      	beq.n	8000c6c <__aeabi_dadd+0x2c4>
 8000bc8:	2101      	movs	r1, #1
 8000bca:	4b5a      	ldr	r3, [pc, #360]	@ (8000d34 <__aeabi_dadd+0x38c>)
 8000bcc:	086a      	lsrs	r2, r5, #1
 8000bce:	401c      	ands	r4, r3
 8000bd0:	4029      	ands	r1, r5
 8000bd2:	430a      	orrs	r2, r1
 8000bd4:	07e5      	lsls	r5, r4, #31
 8000bd6:	4315      	orrs	r5, r2
 8000bd8:	0864      	lsrs	r4, r4, #1
 8000bda:	e75f      	b.n	8000a9c <__aeabi_dadd+0xf4>
 8000bdc:	4661      	mov	r1, ip
 8000bde:	4653      	mov	r3, sl
 8000be0:	4319      	orrs	r1, r3
 8000be2:	d100      	bne.n	8000be6 <__aeabi_dadd+0x23e>
 8000be4:	e0bc      	b.n	8000d60 <__aeabi_dadd+0x3b8>
 8000be6:	1e51      	subs	r1, r2, #1
 8000be8:	2a01      	cmp	r2, #1
 8000bea:	d100      	bne.n	8000bee <__aeabi_dadd+0x246>
 8000bec:	e164      	b.n	8000eb8 <__aeabi_dadd+0x510>
 8000bee:	4d50      	ldr	r5, [pc, #320]	@ (8000d30 <__aeabi_dadd+0x388>)
 8000bf0:	42aa      	cmp	r2, r5
 8000bf2:	d100      	bne.n	8000bf6 <__aeabi_dadd+0x24e>
 8000bf4:	e16a      	b.n	8000ecc <__aeabi_dadd+0x524>
 8000bf6:	2501      	movs	r5, #1
 8000bf8:	2938      	cmp	r1, #56	@ 0x38
 8000bfa:	dd00      	ble.n	8000bfe <__aeabi_dadd+0x256>
 8000bfc:	e722      	b.n	8000a44 <__aeabi_dadd+0x9c>
 8000bfe:	000a      	movs	r2, r1
 8000c00:	e70e      	b.n	8000a20 <__aeabi_dadd+0x78>
 8000c02:	4a4d      	ldr	r2, [pc, #308]	@ (8000d38 <__aeabi_dadd+0x390>)
 8000c04:	1c7d      	adds	r5, r7, #1
 8000c06:	4215      	tst	r5, r2
 8000c08:	d000      	beq.n	8000c0c <__aeabi_dadd+0x264>
 8000c0a:	e0d0      	b.n	8000dae <__aeabi_dadd+0x406>
 8000c0c:	0025      	movs	r5, r4
 8000c0e:	4662      	mov	r2, ip
 8000c10:	4653      	mov	r3, sl
 8000c12:	4305      	orrs	r5, r0
 8000c14:	431a      	orrs	r2, r3
 8000c16:	2f00      	cmp	r7, #0
 8000c18:	d000      	beq.n	8000c1c <__aeabi_dadd+0x274>
 8000c1a:	e137      	b.n	8000e8c <__aeabi_dadd+0x4e4>
 8000c1c:	2d00      	cmp	r5, #0
 8000c1e:	d100      	bne.n	8000c22 <__aeabi_dadd+0x27a>
 8000c20:	e1a8      	b.n	8000f74 <__aeabi_dadd+0x5cc>
 8000c22:	2a00      	cmp	r2, #0
 8000c24:	d100      	bne.n	8000c28 <__aeabi_dadd+0x280>
 8000c26:	e16a      	b.n	8000efe <__aeabi_dadd+0x556>
 8000c28:	4663      	mov	r3, ip
 8000c2a:	1ac5      	subs	r5, r0, r3
 8000c2c:	4653      	mov	r3, sl
 8000c2e:	1ae2      	subs	r2, r4, r3
 8000c30:	42a8      	cmp	r0, r5
 8000c32:	419b      	sbcs	r3, r3
 8000c34:	425b      	negs	r3, r3
 8000c36:	1ad3      	subs	r3, r2, r3
 8000c38:	021a      	lsls	r2, r3, #8
 8000c3a:	d400      	bmi.n	8000c3e <__aeabi_dadd+0x296>
 8000c3c:	e203      	b.n	8001046 <__aeabi_dadd+0x69e>
 8000c3e:	4663      	mov	r3, ip
 8000c40:	1a1d      	subs	r5, r3, r0
 8000c42:	45ac      	cmp	ip, r5
 8000c44:	4192      	sbcs	r2, r2
 8000c46:	4653      	mov	r3, sl
 8000c48:	4252      	negs	r2, r2
 8000c4a:	1b1c      	subs	r4, r3, r4
 8000c4c:	000e      	movs	r6, r1
 8000c4e:	4688      	mov	r8, r1
 8000c50:	1aa4      	subs	r4, r4, r2
 8000c52:	e723      	b.n	8000a9c <__aeabi_dadd+0xf4>
 8000c54:	4936      	ldr	r1, [pc, #216]	@ (8000d30 <__aeabi_dadd+0x388>)
 8000c56:	428f      	cmp	r7, r1
 8000c58:	d070      	beq.n	8000d3c <__aeabi_dadd+0x394>
 8000c5a:	2501      	movs	r5, #1
 8000c5c:	2a38      	cmp	r2, #56	@ 0x38
 8000c5e:	dca8      	bgt.n	8000bb2 <__aeabi_dadd+0x20a>
 8000c60:	2180      	movs	r1, #128	@ 0x80
 8000c62:	4653      	mov	r3, sl
 8000c64:	0409      	lsls	r1, r1, #16
 8000c66:	430b      	orrs	r3, r1
 8000c68:	469a      	mov	sl, r3
 8000c6a:	e78e      	b.n	8000b8a <__aeabi_dadd+0x1e2>
 8000c6c:	003c      	movs	r4, r7
 8000c6e:	2500      	movs	r5, #0
 8000c70:	2200      	movs	r2, #0
 8000c72:	e731      	b.n	8000ad8 <__aeabi_dadd+0x130>
 8000c74:	2307      	movs	r3, #7
 8000c76:	402b      	ands	r3, r5
 8000c78:	2b00      	cmp	r3, #0
 8000c7a:	d000      	beq.n	8000c7e <__aeabi_dadd+0x2d6>
 8000c7c:	e710      	b.n	8000aa0 <__aeabi_dadd+0xf8>
 8000c7e:	e093      	b.n	8000da8 <__aeabi_dadd+0x400>
 8000c80:	2a00      	cmp	r2, #0
 8000c82:	d074      	beq.n	8000d6e <__aeabi_dadd+0x3c6>
 8000c84:	464a      	mov	r2, r9
 8000c86:	1bd2      	subs	r2, r2, r7
 8000c88:	2f00      	cmp	r7, #0
 8000c8a:	d100      	bne.n	8000c8e <__aeabi_dadd+0x2e6>
 8000c8c:	e0c7      	b.n	8000e1e <__aeabi_dadd+0x476>
 8000c8e:	4928      	ldr	r1, [pc, #160]	@ (8000d30 <__aeabi_dadd+0x388>)
 8000c90:	4589      	cmp	r9, r1
 8000c92:	d100      	bne.n	8000c96 <__aeabi_dadd+0x2ee>
 8000c94:	e185      	b.n	8000fa2 <__aeabi_dadd+0x5fa>
 8000c96:	2501      	movs	r5, #1
 8000c98:	2a38      	cmp	r2, #56	@ 0x38
 8000c9a:	dc12      	bgt.n	8000cc2 <__aeabi_dadd+0x31a>
 8000c9c:	2180      	movs	r1, #128	@ 0x80
 8000c9e:	0409      	lsls	r1, r1, #16
 8000ca0:	430c      	orrs	r4, r1
 8000ca2:	2a1f      	cmp	r2, #31
 8000ca4:	dd00      	ble.n	8000ca8 <__aeabi_dadd+0x300>
 8000ca6:	e1ab      	b.n	8001000 <__aeabi_dadd+0x658>
 8000ca8:	2120      	movs	r1, #32
 8000caa:	0025      	movs	r5, r4
 8000cac:	1a89      	subs	r1, r1, r2
 8000cae:	0007      	movs	r7, r0
 8000cb0:	4088      	lsls	r0, r1
 8000cb2:	408d      	lsls	r5, r1
 8000cb4:	40d7      	lsrs	r7, r2
 8000cb6:	1e41      	subs	r1, r0, #1
 8000cb8:	4188      	sbcs	r0, r1
 8000cba:	40d4      	lsrs	r4, r2
 8000cbc:	433d      	orrs	r5, r7
 8000cbe:	4305      	orrs	r5, r0
 8000cc0:	44a2      	add	sl, r4
 8000cc2:	4465      	add	r5, ip
 8000cc4:	4565      	cmp	r5, ip
 8000cc6:	4192      	sbcs	r2, r2
 8000cc8:	4252      	negs	r2, r2
 8000cca:	4452      	add	r2, sl
 8000ccc:	0014      	movs	r4, r2
 8000cce:	464f      	mov	r7, r9
 8000cd0:	e774      	b.n	8000bbc <__aeabi_dadd+0x214>
 8000cd2:	0028      	movs	r0, r5
 8000cd4:	f001 fd48 	bl	8002768 <__clzsi2>
 8000cd8:	0003      	movs	r3, r0
 8000cda:	3318      	adds	r3, #24
 8000cdc:	2b1f      	cmp	r3, #31
 8000cde:	dc00      	bgt.n	8000ce2 <__aeabi_dadd+0x33a>
 8000ce0:	e6c2      	b.n	8000a68 <__aeabi_dadd+0xc0>
 8000ce2:	002a      	movs	r2, r5
 8000ce4:	3808      	subs	r0, #8
 8000ce6:	4082      	lsls	r2, r0
 8000ce8:	429f      	cmp	r7, r3
 8000cea:	dd00      	ble.n	8000cee <__aeabi_dadd+0x346>
 8000cec:	e0a9      	b.n	8000e42 <__aeabi_dadd+0x49a>
 8000cee:	1bdb      	subs	r3, r3, r7
 8000cf0:	1c58      	adds	r0, r3, #1
 8000cf2:	281f      	cmp	r0, #31
 8000cf4:	dc00      	bgt.n	8000cf8 <__aeabi_dadd+0x350>
 8000cf6:	e1ac      	b.n	8001052 <__aeabi_dadd+0x6aa>
 8000cf8:	0015      	movs	r5, r2
 8000cfa:	3b1f      	subs	r3, #31
 8000cfc:	40dd      	lsrs	r5, r3
 8000cfe:	2820      	cmp	r0, #32
 8000d00:	d005      	beq.n	8000d0e <__aeabi_dadd+0x366>
 8000d02:	2340      	movs	r3, #64	@ 0x40
 8000d04:	1a1b      	subs	r3, r3, r0
 8000d06:	409a      	lsls	r2, r3
 8000d08:	1e53      	subs	r3, r2, #1
 8000d0a:	419a      	sbcs	r2, r3
 8000d0c:	4315      	orrs	r5, r2
 8000d0e:	2307      	movs	r3, #7
 8000d10:	2700      	movs	r7, #0
 8000d12:	402b      	ands	r3, r5
 8000d14:	e7b0      	b.n	8000c78 <__aeabi_dadd+0x2d0>
 8000d16:	08ed      	lsrs	r5, r5, #3
 8000d18:	4b05      	ldr	r3, [pc, #20]	@ (8000d30 <__aeabi_dadd+0x388>)
 8000d1a:	0762      	lsls	r2, r4, #29
 8000d1c:	432a      	orrs	r2, r5
 8000d1e:	08e4      	lsrs	r4, r4, #3
 8000d20:	429f      	cmp	r7, r3
 8000d22:	d00f      	beq.n	8000d44 <__aeabi_dadd+0x39c>
 8000d24:	0324      	lsls	r4, r4, #12
 8000d26:	0b25      	lsrs	r5, r4, #12
 8000d28:	057c      	lsls	r4, r7, #21
 8000d2a:	0d64      	lsrs	r4, r4, #21
 8000d2c:	e6d4      	b.n	8000ad8 <__aeabi_dadd+0x130>
 8000d2e:	46c0      	nop			@ (mov r8, r8)
 8000d30:	000007ff 	.word	0x000007ff
 8000d34:	ff7fffff 	.word	0xff7fffff
 8000d38:	000007fe 	.word	0x000007fe
 8000d3c:	08c0      	lsrs	r0, r0, #3
 8000d3e:	0762      	lsls	r2, r4, #29
 8000d40:	4302      	orrs	r2, r0
 8000d42:	08e4      	lsrs	r4, r4, #3
 8000d44:	0013      	movs	r3, r2
 8000d46:	4323      	orrs	r3, r4
 8000d48:	d100      	bne.n	8000d4c <__aeabi_dadd+0x3a4>
 8000d4a:	e186      	b.n	800105a <__aeabi_dadd+0x6b2>
 8000d4c:	2580      	movs	r5, #128	@ 0x80
 8000d4e:	032d      	lsls	r5, r5, #12
 8000d50:	4325      	orrs	r5, r4
 8000d52:	032d      	lsls	r5, r5, #12
 8000d54:	4cc3      	ldr	r4, [pc, #780]	@ (8001064 <__aeabi_dadd+0x6bc>)
 8000d56:	0b2d      	lsrs	r5, r5, #12
 8000d58:	e6be      	b.n	8000ad8 <__aeabi_dadd+0x130>
 8000d5a:	4660      	mov	r0, ip
 8000d5c:	4654      	mov	r4, sl
 8000d5e:	000e      	movs	r6, r1
 8000d60:	0017      	movs	r7, r2
 8000d62:	08c5      	lsrs	r5, r0, #3
 8000d64:	e7d8      	b.n	8000d18 <__aeabi_dadd+0x370>
 8000d66:	4cc0      	ldr	r4, [pc, #768]	@ (8001068 <__aeabi_dadd+0x6c0>)
 8000d68:	1aff      	subs	r7, r7, r3
 8000d6a:	4014      	ands	r4, r2
 8000d6c:	e696      	b.n	8000a9c <__aeabi_dadd+0xf4>
 8000d6e:	4abf      	ldr	r2, [pc, #764]	@ (800106c <__aeabi_dadd+0x6c4>)
 8000d70:	1c79      	adds	r1, r7, #1
 8000d72:	4211      	tst	r1, r2
 8000d74:	d16b      	bne.n	8000e4e <__aeabi_dadd+0x4a6>
 8000d76:	0022      	movs	r2, r4
 8000d78:	4302      	orrs	r2, r0
 8000d7a:	2f00      	cmp	r7, #0
 8000d7c:	d000      	beq.n	8000d80 <__aeabi_dadd+0x3d8>
 8000d7e:	e0db      	b.n	8000f38 <__aeabi_dadd+0x590>
 8000d80:	2a00      	cmp	r2, #0
 8000d82:	d100      	bne.n	8000d86 <__aeabi_dadd+0x3de>
 8000d84:	e12d      	b.n	8000fe2 <__aeabi_dadd+0x63a>
 8000d86:	4662      	mov	r2, ip
 8000d88:	4653      	mov	r3, sl
 8000d8a:	431a      	orrs	r2, r3
 8000d8c:	d100      	bne.n	8000d90 <__aeabi_dadd+0x3e8>
 8000d8e:	e0b6      	b.n	8000efe <__aeabi_dadd+0x556>
 8000d90:	4663      	mov	r3, ip
 8000d92:	18c5      	adds	r5, r0, r3
 8000d94:	4285      	cmp	r5, r0
 8000d96:	4180      	sbcs	r0, r0
 8000d98:	4454      	add	r4, sl
 8000d9a:	4240      	negs	r0, r0
 8000d9c:	1824      	adds	r4, r4, r0
 8000d9e:	0223      	lsls	r3, r4, #8
 8000da0:	d502      	bpl.n	8000da8 <__aeabi_dadd+0x400>
 8000da2:	000f      	movs	r7, r1
 8000da4:	4bb0      	ldr	r3, [pc, #704]	@ (8001068 <__aeabi_dadd+0x6c0>)
 8000da6:	401c      	ands	r4, r3
 8000da8:	003a      	movs	r2, r7
 8000daa:	0028      	movs	r0, r5
 8000dac:	e7d8      	b.n	8000d60 <__aeabi_dadd+0x3b8>
 8000dae:	4662      	mov	r2, ip
 8000db0:	1a85      	subs	r5, r0, r2
 8000db2:	42a8      	cmp	r0, r5
 8000db4:	4192      	sbcs	r2, r2
 8000db6:	4653      	mov	r3, sl
 8000db8:	4252      	negs	r2, r2
 8000dba:	4691      	mov	r9, r2
 8000dbc:	1ae3      	subs	r3, r4, r3
 8000dbe:	001a      	movs	r2, r3
 8000dc0:	464b      	mov	r3, r9
 8000dc2:	1ad2      	subs	r2, r2, r3
 8000dc4:	0013      	movs	r3, r2
 8000dc6:	4691      	mov	r9, r2
 8000dc8:	021a      	lsls	r2, r3, #8
 8000dca:	d454      	bmi.n	8000e76 <__aeabi_dadd+0x4ce>
 8000dcc:	464a      	mov	r2, r9
 8000dce:	464c      	mov	r4, r9
 8000dd0:	432a      	orrs	r2, r5
 8000dd2:	d000      	beq.n	8000dd6 <__aeabi_dadd+0x42e>
 8000dd4:	e640      	b.n	8000a58 <__aeabi_dadd+0xb0>
 8000dd6:	2600      	movs	r6, #0
 8000dd8:	2400      	movs	r4, #0
 8000dda:	2500      	movs	r5, #0
 8000ddc:	e67c      	b.n	8000ad8 <__aeabi_dadd+0x130>
 8000dde:	4da1      	ldr	r5, [pc, #644]	@ (8001064 <__aeabi_dadd+0x6bc>)
 8000de0:	45a9      	cmp	r9, r5
 8000de2:	d100      	bne.n	8000de6 <__aeabi_dadd+0x43e>
 8000de4:	e090      	b.n	8000f08 <__aeabi_dadd+0x560>
 8000de6:	2501      	movs	r5, #1
 8000de8:	2a38      	cmp	r2, #56	@ 0x38
 8000dea:	dd00      	ble.n	8000dee <__aeabi_dadd+0x446>
 8000dec:	e6ab      	b.n	8000b46 <__aeabi_dadd+0x19e>
 8000dee:	2580      	movs	r5, #128	@ 0x80
 8000df0:	042d      	lsls	r5, r5, #16
 8000df2:	432c      	orrs	r4, r5
 8000df4:	e695      	b.n	8000b22 <__aeabi_dadd+0x17a>
 8000df6:	0011      	movs	r1, r2
 8000df8:	4655      	mov	r5, sl
 8000dfa:	3920      	subs	r1, #32
 8000dfc:	40cd      	lsrs	r5, r1
 8000dfe:	46a9      	mov	r9, r5
 8000e00:	2a20      	cmp	r2, #32
 8000e02:	d006      	beq.n	8000e12 <__aeabi_dadd+0x46a>
 8000e04:	2140      	movs	r1, #64	@ 0x40
 8000e06:	4653      	mov	r3, sl
 8000e08:	1a8a      	subs	r2, r1, r2
 8000e0a:	4093      	lsls	r3, r2
 8000e0c:	4662      	mov	r2, ip
 8000e0e:	431a      	orrs	r2, r3
 8000e10:	4694      	mov	ip, r2
 8000e12:	4665      	mov	r5, ip
 8000e14:	1e6b      	subs	r3, r5, #1
 8000e16:	419d      	sbcs	r5, r3
 8000e18:	464b      	mov	r3, r9
 8000e1a:	431d      	orrs	r5, r3
 8000e1c:	e612      	b.n	8000a44 <__aeabi_dadd+0x9c>
 8000e1e:	0021      	movs	r1, r4
 8000e20:	4301      	orrs	r1, r0
 8000e22:	d100      	bne.n	8000e26 <__aeabi_dadd+0x47e>
 8000e24:	e0c4      	b.n	8000fb0 <__aeabi_dadd+0x608>
 8000e26:	1e51      	subs	r1, r2, #1
 8000e28:	2a01      	cmp	r2, #1
 8000e2a:	d100      	bne.n	8000e2e <__aeabi_dadd+0x486>
 8000e2c:	e0fb      	b.n	8001026 <__aeabi_dadd+0x67e>
 8000e2e:	4d8d      	ldr	r5, [pc, #564]	@ (8001064 <__aeabi_dadd+0x6bc>)
 8000e30:	42aa      	cmp	r2, r5
 8000e32:	d100      	bne.n	8000e36 <__aeabi_dadd+0x48e>
 8000e34:	e0b5      	b.n	8000fa2 <__aeabi_dadd+0x5fa>
 8000e36:	2501      	movs	r5, #1
 8000e38:	2938      	cmp	r1, #56	@ 0x38
 8000e3a:	dd00      	ble.n	8000e3e <__aeabi_dadd+0x496>
 8000e3c:	e741      	b.n	8000cc2 <__aeabi_dadd+0x31a>
 8000e3e:	000a      	movs	r2, r1
 8000e40:	e72f      	b.n	8000ca2 <__aeabi_dadd+0x2fa>
 8000e42:	4c89      	ldr	r4, [pc, #548]	@ (8001068 <__aeabi_dadd+0x6c0>)
 8000e44:	1aff      	subs	r7, r7, r3
 8000e46:	4014      	ands	r4, r2
 8000e48:	0762      	lsls	r2, r4, #29
 8000e4a:	08e4      	lsrs	r4, r4, #3
 8000e4c:	e76a      	b.n	8000d24 <__aeabi_dadd+0x37c>
 8000e4e:	4a85      	ldr	r2, [pc, #532]	@ (8001064 <__aeabi_dadd+0x6bc>)
 8000e50:	4291      	cmp	r1, r2
 8000e52:	d100      	bne.n	8000e56 <__aeabi_dadd+0x4ae>
 8000e54:	e0e3      	b.n	800101e <__aeabi_dadd+0x676>
 8000e56:	4663      	mov	r3, ip
 8000e58:	18c2      	adds	r2, r0, r3
 8000e5a:	4282      	cmp	r2, r0
 8000e5c:	4180      	sbcs	r0, r0
 8000e5e:	0023      	movs	r3, r4
 8000e60:	4240      	negs	r0, r0
 8000e62:	4453      	add	r3, sl
 8000e64:	181b      	adds	r3, r3, r0
 8000e66:	07dd      	lsls	r5, r3, #31
 8000e68:	085c      	lsrs	r4, r3, #1
 8000e6a:	2307      	movs	r3, #7
 8000e6c:	0852      	lsrs	r2, r2, #1
 8000e6e:	4315      	orrs	r5, r2
 8000e70:	000f      	movs	r7, r1
 8000e72:	402b      	ands	r3, r5
 8000e74:	e700      	b.n	8000c78 <__aeabi_dadd+0x2d0>
 8000e76:	4663      	mov	r3, ip
 8000e78:	1a1d      	subs	r5, r3, r0
 8000e7a:	45ac      	cmp	ip, r5
 8000e7c:	4192      	sbcs	r2, r2
 8000e7e:	4653      	mov	r3, sl
 8000e80:	4252      	negs	r2, r2
 8000e82:	1b1c      	subs	r4, r3, r4
 8000e84:	000e      	movs	r6, r1
 8000e86:	4688      	mov	r8, r1
 8000e88:	1aa4      	subs	r4, r4, r2
 8000e8a:	e5e5      	b.n	8000a58 <__aeabi_dadd+0xb0>
 8000e8c:	2d00      	cmp	r5, #0
 8000e8e:	d000      	beq.n	8000e92 <__aeabi_dadd+0x4ea>
 8000e90:	e091      	b.n	8000fb6 <__aeabi_dadd+0x60e>
 8000e92:	2a00      	cmp	r2, #0
 8000e94:	d138      	bne.n	8000f08 <__aeabi_dadd+0x560>
 8000e96:	2480      	movs	r4, #128	@ 0x80
 8000e98:	2600      	movs	r6, #0
 8000e9a:	0324      	lsls	r4, r4, #12
 8000e9c:	e756      	b.n	8000d4c <__aeabi_dadd+0x3a4>
 8000e9e:	4663      	mov	r3, ip
 8000ea0:	18c5      	adds	r5, r0, r3
 8000ea2:	4285      	cmp	r5, r0
 8000ea4:	4180      	sbcs	r0, r0
 8000ea6:	4454      	add	r4, sl
 8000ea8:	4240      	negs	r0, r0
 8000eaa:	1824      	adds	r4, r4, r0
 8000eac:	2701      	movs	r7, #1
 8000eae:	0223      	lsls	r3, r4, #8
 8000eb0:	d400      	bmi.n	8000eb4 <__aeabi_dadd+0x50c>
 8000eb2:	e6df      	b.n	8000c74 <__aeabi_dadd+0x2cc>
 8000eb4:	2702      	movs	r7, #2
 8000eb6:	e687      	b.n	8000bc8 <__aeabi_dadd+0x220>
 8000eb8:	4663      	mov	r3, ip
 8000eba:	1ac5      	subs	r5, r0, r3
 8000ebc:	42a8      	cmp	r0, r5
 8000ebe:	4180      	sbcs	r0, r0
 8000ec0:	4653      	mov	r3, sl
 8000ec2:	4240      	negs	r0, r0
 8000ec4:	1ae4      	subs	r4, r4, r3
 8000ec6:	2701      	movs	r7, #1
 8000ec8:	1a24      	subs	r4, r4, r0
 8000eca:	e5c0      	b.n	8000a4e <__aeabi_dadd+0xa6>
 8000ecc:	0762      	lsls	r2, r4, #29
 8000ece:	08c0      	lsrs	r0, r0, #3
 8000ed0:	4302      	orrs	r2, r0
 8000ed2:	08e4      	lsrs	r4, r4, #3
 8000ed4:	e736      	b.n	8000d44 <__aeabi_dadd+0x39c>
 8000ed6:	0011      	movs	r1, r2
 8000ed8:	4653      	mov	r3, sl
 8000eda:	3920      	subs	r1, #32
 8000edc:	40cb      	lsrs	r3, r1
 8000ede:	4699      	mov	r9, r3
 8000ee0:	2a20      	cmp	r2, #32
 8000ee2:	d006      	beq.n	8000ef2 <__aeabi_dadd+0x54a>
 8000ee4:	2140      	movs	r1, #64	@ 0x40
 8000ee6:	4653      	mov	r3, sl
 8000ee8:	1a8a      	subs	r2, r1, r2
 8000eea:	4093      	lsls	r3, r2
 8000eec:	4662      	mov	r2, ip
 8000eee:	431a      	orrs	r2, r3
 8000ef0:	4694      	mov	ip, r2
 8000ef2:	4665      	mov	r5, ip
 8000ef4:	1e6b      	subs	r3, r5, #1
 8000ef6:	419d      	sbcs	r5, r3
 8000ef8:	464b      	mov	r3, r9
 8000efa:	431d      	orrs	r5, r3
 8000efc:	e659      	b.n	8000bb2 <__aeabi_dadd+0x20a>
 8000efe:	0762      	lsls	r2, r4, #29
 8000f00:	08c0      	lsrs	r0, r0, #3
 8000f02:	4302      	orrs	r2, r0
 8000f04:	08e4      	lsrs	r4, r4, #3
 8000f06:	e70d      	b.n	8000d24 <__aeabi_dadd+0x37c>
 8000f08:	4653      	mov	r3, sl
 8000f0a:	075a      	lsls	r2, r3, #29
 8000f0c:	4663      	mov	r3, ip
 8000f0e:	08d8      	lsrs	r0, r3, #3
 8000f10:	4653      	mov	r3, sl
 8000f12:	000e      	movs	r6, r1
 8000f14:	4302      	orrs	r2, r0
 8000f16:	08dc      	lsrs	r4, r3, #3
 8000f18:	e714      	b.n	8000d44 <__aeabi_dadd+0x39c>
 8000f1a:	0015      	movs	r5, r2
 8000f1c:	0026      	movs	r6, r4
 8000f1e:	3d20      	subs	r5, #32
 8000f20:	40ee      	lsrs	r6, r5
 8000f22:	2a20      	cmp	r2, #32
 8000f24:	d003      	beq.n	8000f2e <__aeabi_dadd+0x586>
 8000f26:	2540      	movs	r5, #64	@ 0x40
 8000f28:	1aaa      	subs	r2, r5, r2
 8000f2a:	4094      	lsls	r4, r2
 8000f2c:	4320      	orrs	r0, r4
 8000f2e:	1e42      	subs	r2, r0, #1
 8000f30:	4190      	sbcs	r0, r2
 8000f32:	0005      	movs	r5, r0
 8000f34:	4335      	orrs	r5, r6
 8000f36:	e606      	b.n	8000b46 <__aeabi_dadd+0x19e>
 8000f38:	2a00      	cmp	r2, #0
 8000f3a:	d07c      	beq.n	8001036 <__aeabi_dadd+0x68e>
 8000f3c:	4662      	mov	r2, ip
 8000f3e:	4653      	mov	r3, sl
 8000f40:	08c0      	lsrs	r0, r0, #3
 8000f42:	431a      	orrs	r2, r3
 8000f44:	d100      	bne.n	8000f48 <__aeabi_dadd+0x5a0>
 8000f46:	e6fa      	b.n	8000d3e <__aeabi_dadd+0x396>
 8000f48:	0762      	lsls	r2, r4, #29
 8000f4a:	4310      	orrs	r0, r2
 8000f4c:	2280      	movs	r2, #128	@ 0x80
 8000f4e:	08e4      	lsrs	r4, r4, #3
 8000f50:	0312      	lsls	r2, r2, #12
 8000f52:	4214      	tst	r4, r2
 8000f54:	d008      	beq.n	8000f68 <__aeabi_dadd+0x5c0>
 8000f56:	08d9      	lsrs	r1, r3, #3
 8000f58:	4211      	tst	r1, r2
 8000f5a:	d105      	bne.n	8000f68 <__aeabi_dadd+0x5c0>
 8000f5c:	4663      	mov	r3, ip
 8000f5e:	08d8      	lsrs	r0, r3, #3
 8000f60:	4653      	mov	r3, sl
 8000f62:	000c      	movs	r4, r1
 8000f64:	075b      	lsls	r3, r3, #29
 8000f66:	4318      	orrs	r0, r3
 8000f68:	0f42      	lsrs	r2, r0, #29
 8000f6a:	00c0      	lsls	r0, r0, #3
 8000f6c:	08c0      	lsrs	r0, r0, #3
 8000f6e:	0752      	lsls	r2, r2, #29
 8000f70:	4302      	orrs	r2, r0
 8000f72:	e6e7      	b.n	8000d44 <__aeabi_dadd+0x39c>
 8000f74:	2a00      	cmp	r2, #0
 8000f76:	d100      	bne.n	8000f7a <__aeabi_dadd+0x5d2>
 8000f78:	e72d      	b.n	8000dd6 <__aeabi_dadd+0x42e>
 8000f7a:	4663      	mov	r3, ip
 8000f7c:	08d8      	lsrs	r0, r3, #3
 8000f7e:	4653      	mov	r3, sl
 8000f80:	075a      	lsls	r2, r3, #29
 8000f82:	000e      	movs	r6, r1
 8000f84:	4302      	orrs	r2, r0
 8000f86:	08dc      	lsrs	r4, r3, #3
 8000f88:	e6cc      	b.n	8000d24 <__aeabi_dadd+0x37c>
 8000f8a:	4663      	mov	r3, ip
 8000f8c:	1a1d      	subs	r5, r3, r0
 8000f8e:	45ac      	cmp	ip, r5
 8000f90:	4192      	sbcs	r2, r2
 8000f92:	4653      	mov	r3, sl
 8000f94:	4252      	negs	r2, r2
 8000f96:	1b1c      	subs	r4, r3, r4
 8000f98:	000e      	movs	r6, r1
 8000f9a:	4688      	mov	r8, r1
 8000f9c:	1aa4      	subs	r4, r4, r2
 8000f9e:	3701      	adds	r7, #1
 8000fa0:	e555      	b.n	8000a4e <__aeabi_dadd+0xa6>
 8000fa2:	4663      	mov	r3, ip
 8000fa4:	08d9      	lsrs	r1, r3, #3
 8000fa6:	4653      	mov	r3, sl
 8000fa8:	075a      	lsls	r2, r3, #29
 8000faa:	430a      	orrs	r2, r1
 8000fac:	08dc      	lsrs	r4, r3, #3
 8000fae:	e6c9      	b.n	8000d44 <__aeabi_dadd+0x39c>
 8000fb0:	4660      	mov	r0, ip
 8000fb2:	4654      	mov	r4, sl
 8000fb4:	e6d4      	b.n	8000d60 <__aeabi_dadd+0x3b8>
 8000fb6:	08c0      	lsrs	r0, r0, #3
 8000fb8:	2a00      	cmp	r2, #0
 8000fba:	d100      	bne.n	8000fbe <__aeabi_dadd+0x616>
 8000fbc:	e6bf      	b.n	8000d3e <__aeabi_dadd+0x396>
 8000fbe:	0762      	lsls	r2, r4, #29
 8000fc0:	4310      	orrs	r0, r2
 8000fc2:	2280      	movs	r2, #128	@ 0x80
 8000fc4:	08e4      	lsrs	r4, r4, #3
 8000fc6:	0312      	lsls	r2, r2, #12
 8000fc8:	4214      	tst	r4, r2
 8000fca:	d0cd      	beq.n	8000f68 <__aeabi_dadd+0x5c0>
 8000fcc:	08dd      	lsrs	r5, r3, #3
 8000fce:	4215      	tst	r5, r2
 8000fd0:	d1ca      	bne.n	8000f68 <__aeabi_dadd+0x5c0>
 8000fd2:	4663      	mov	r3, ip
 8000fd4:	08d8      	lsrs	r0, r3, #3
 8000fd6:	4653      	mov	r3, sl
 8000fd8:	075b      	lsls	r3, r3, #29
 8000fda:	000e      	movs	r6, r1
 8000fdc:	002c      	movs	r4, r5
 8000fde:	4318      	orrs	r0, r3
 8000fe0:	e7c2      	b.n	8000f68 <__aeabi_dadd+0x5c0>
 8000fe2:	4663      	mov	r3, ip
 8000fe4:	08d9      	lsrs	r1, r3, #3
 8000fe6:	4653      	mov	r3, sl
 8000fe8:	075a      	lsls	r2, r3, #29
 8000fea:	430a      	orrs	r2, r1
 8000fec:	08dc      	lsrs	r4, r3, #3
 8000fee:	e699      	b.n	8000d24 <__aeabi_dadd+0x37c>
 8000ff0:	4663      	mov	r3, ip
 8000ff2:	08d8      	lsrs	r0, r3, #3
 8000ff4:	4653      	mov	r3, sl
 8000ff6:	075a      	lsls	r2, r3, #29
 8000ff8:	000e      	movs	r6, r1
 8000ffa:	4302      	orrs	r2, r0
 8000ffc:	08dc      	lsrs	r4, r3, #3
 8000ffe:	e6a1      	b.n	8000d44 <__aeabi_dadd+0x39c>
 8001000:	0011      	movs	r1, r2
 8001002:	0027      	movs	r7, r4
 8001004:	3920      	subs	r1, #32
 8001006:	40cf      	lsrs	r7, r1
 8001008:	2a20      	cmp	r2, #32
 800100a:	d003      	beq.n	8001014 <__aeabi_dadd+0x66c>
 800100c:	2140      	movs	r1, #64	@ 0x40
 800100e:	1a8a      	subs	r2, r1, r2
 8001010:	4094      	lsls	r4, r2
 8001012:	4320      	orrs	r0, r4
 8001014:	1e42      	subs	r2, r0, #1
 8001016:	4190      	sbcs	r0, r2
 8001018:	0005      	movs	r5, r0
 800101a:	433d      	orrs	r5, r7
 800101c:	e651      	b.n	8000cc2 <__aeabi_dadd+0x31a>
 800101e:	000c      	movs	r4, r1
 8001020:	2500      	movs	r5, #0
 8001022:	2200      	movs	r2, #0
 8001024:	e558      	b.n	8000ad8 <__aeabi_dadd+0x130>
 8001026:	4460      	add	r0, ip
 8001028:	4560      	cmp	r0, ip
 800102a:	4192      	sbcs	r2, r2
 800102c:	4454      	add	r4, sl
 800102e:	4252      	negs	r2, r2
 8001030:	0005      	movs	r5, r0
 8001032:	18a4      	adds	r4, r4, r2
 8001034:	e73a      	b.n	8000eac <__aeabi_dadd+0x504>
 8001036:	4653      	mov	r3, sl
 8001038:	075a      	lsls	r2, r3, #29
 800103a:	4663      	mov	r3, ip
 800103c:	08d9      	lsrs	r1, r3, #3
 800103e:	4653      	mov	r3, sl
 8001040:	430a      	orrs	r2, r1
 8001042:	08dc      	lsrs	r4, r3, #3
 8001044:	e67e      	b.n	8000d44 <__aeabi_dadd+0x39c>
 8001046:	001a      	movs	r2, r3
 8001048:	001c      	movs	r4, r3
 800104a:	432a      	orrs	r2, r5
 800104c:	d000      	beq.n	8001050 <__aeabi_dadd+0x6a8>
 800104e:	e6ab      	b.n	8000da8 <__aeabi_dadd+0x400>
 8001050:	e6c1      	b.n	8000dd6 <__aeabi_dadd+0x42e>
 8001052:	2120      	movs	r1, #32
 8001054:	2500      	movs	r5, #0
 8001056:	1a09      	subs	r1, r1, r0
 8001058:	e519      	b.n	8000a8e <__aeabi_dadd+0xe6>
 800105a:	2200      	movs	r2, #0
 800105c:	2500      	movs	r5, #0
 800105e:	4c01      	ldr	r4, [pc, #4]	@ (8001064 <__aeabi_dadd+0x6bc>)
 8001060:	e53a      	b.n	8000ad8 <__aeabi_dadd+0x130>
 8001062:	46c0      	nop			@ (mov r8, r8)
 8001064:	000007ff 	.word	0x000007ff
 8001068:	ff7fffff 	.word	0xff7fffff
 800106c:	000007fe 	.word	0x000007fe

08001070 <__aeabi_ddiv>:
 8001070:	b5f0      	push	{r4, r5, r6, r7, lr}
 8001072:	46de      	mov	lr, fp
 8001074:	4645      	mov	r5, r8
 8001076:	4657      	mov	r7, sl
 8001078:	464e      	mov	r6, r9
 800107a:	b5e0      	push	{r5, r6, r7, lr}
 800107c:	b087      	sub	sp, #28
 800107e:	9200      	str	r2, [sp, #0]
 8001080:	9301      	str	r3, [sp, #4]
 8001082:	030b      	lsls	r3, r1, #12
 8001084:	0b1b      	lsrs	r3, r3, #12
 8001086:	469b      	mov	fp, r3
 8001088:	0fca      	lsrs	r2, r1, #31
 800108a:	004b      	lsls	r3, r1, #1
 800108c:	0004      	movs	r4, r0
 800108e:	4680      	mov	r8, r0
 8001090:	0d5b      	lsrs	r3, r3, #21
 8001092:	9202      	str	r2, [sp, #8]
 8001094:	d100      	bne.n	8001098 <__aeabi_ddiv+0x28>
 8001096:	e16a      	b.n	800136e <__aeabi_ddiv+0x2fe>
 8001098:	4ad4      	ldr	r2, [pc, #848]	@ (80013ec <__aeabi_ddiv+0x37c>)
 800109a:	4293      	cmp	r3, r2
 800109c:	d100      	bne.n	80010a0 <__aeabi_ddiv+0x30>
 800109e:	e18c      	b.n	80013ba <__aeabi_ddiv+0x34a>
 80010a0:	4659      	mov	r1, fp
 80010a2:	0f42      	lsrs	r2, r0, #29
 80010a4:	00c9      	lsls	r1, r1, #3
 80010a6:	430a      	orrs	r2, r1
 80010a8:	2180      	movs	r1, #128	@ 0x80
 80010aa:	0409      	lsls	r1, r1, #16
 80010ac:	4311      	orrs	r1, r2
 80010ae:	00c2      	lsls	r2, r0, #3
 80010b0:	4690      	mov	r8, r2
 80010b2:	4acf      	ldr	r2, [pc, #828]	@ (80013f0 <__aeabi_ddiv+0x380>)
 80010b4:	4689      	mov	r9, r1
 80010b6:	4692      	mov	sl, r2
 80010b8:	449a      	add	sl, r3
 80010ba:	2300      	movs	r3, #0
 80010bc:	2400      	movs	r4, #0
 80010be:	9303      	str	r3, [sp, #12]
 80010c0:	9e00      	ldr	r6, [sp, #0]
 80010c2:	9f01      	ldr	r7, [sp, #4]
 80010c4:	033b      	lsls	r3, r7, #12
 80010c6:	0b1b      	lsrs	r3, r3, #12
 80010c8:	469b      	mov	fp, r3
 80010ca:	007b      	lsls	r3, r7, #1
 80010cc:	0030      	movs	r0, r6
 80010ce:	0d5b      	lsrs	r3, r3, #21
 80010d0:	0ffd      	lsrs	r5, r7, #31
 80010d2:	2b00      	cmp	r3, #0
 80010d4:	d100      	bne.n	80010d8 <__aeabi_ddiv+0x68>
 80010d6:	e128      	b.n	800132a <__aeabi_ddiv+0x2ba>
 80010d8:	4ac4      	ldr	r2, [pc, #784]	@ (80013ec <__aeabi_ddiv+0x37c>)
 80010da:	4293      	cmp	r3, r2
 80010dc:	d100      	bne.n	80010e0 <__aeabi_ddiv+0x70>
 80010de:	e177      	b.n	80013d0 <__aeabi_ddiv+0x360>
 80010e0:	4659      	mov	r1, fp
 80010e2:	0f72      	lsrs	r2, r6, #29
 80010e4:	00c9      	lsls	r1, r1, #3
 80010e6:	430a      	orrs	r2, r1
 80010e8:	2180      	movs	r1, #128	@ 0x80
 80010ea:	0409      	lsls	r1, r1, #16
 80010ec:	4311      	orrs	r1, r2
 80010ee:	468b      	mov	fp, r1
 80010f0:	49bf      	ldr	r1, [pc, #764]	@ (80013f0 <__aeabi_ddiv+0x380>)
 80010f2:	00f2      	lsls	r2, r6, #3
 80010f4:	468c      	mov	ip, r1
 80010f6:	4651      	mov	r1, sl
 80010f8:	4463      	add	r3, ip
 80010fa:	1acb      	subs	r3, r1, r3
 80010fc:	469a      	mov	sl, r3
 80010fe:	2300      	movs	r3, #0
 8001100:	9e02      	ldr	r6, [sp, #8]
 8001102:	406e      	eors	r6, r5
 8001104:	2c0f      	cmp	r4, #15
 8001106:	d827      	bhi.n	8001158 <__aeabi_ddiv+0xe8>
 8001108:	49ba      	ldr	r1, [pc, #744]	@ (80013f4 <__aeabi_ddiv+0x384>)
 800110a:	00a4      	lsls	r4, r4, #2
 800110c:	5909      	ldr	r1, [r1, r4]
 800110e:	468f      	mov	pc, r1
 8001110:	46cb      	mov	fp, r9
 8001112:	4642      	mov	r2, r8
 8001114:	9e02      	ldr	r6, [sp, #8]
 8001116:	9b03      	ldr	r3, [sp, #12]
 8001118:	2b02      	cmp	r3, #2
 800111a:	d016      	beq.n	800114a <__aeabi_ddiv+0xda>
 800111c:	2b03      	cmp	r3, #3
 800111e:	d100      	bne.n	8001122 <__aeabi_ddiv+0xb2>
 8001120:	e2a6      	b.n	8001670 <__aeabi_ddiv+0x600>
 8001122:	2b01      	cmp	r3, #1
 8001124:	d000      	beq.n	8001128 <__aeabi_ddiv+0xb8>
 8001126:	e0df      	b.n	80012e8 <__aeabi_ddiv+0x278>
 8001128:	2200      	movs	r2, #0
 800112a:	2300      	movs	r3, #0
 800112c:	2400      	movs	r4, #0
 800112e:	4690      	mov	r8, r2
 8001130:	051b      	lsls	r3, r3, #20
 8001132:	4323      	orrs	r3, r4
 8001134:	07f6      	lsls	r6, r6, #31
 8001136:	4333      	orrs	r3, r6
 8001138:	4640      	mov	r0, r8
 800113a:	0019      	movs	r1, r3
 800113c:	b007      	add	sp, #28
 800113e:	bcf0      	pop	{r4, r5, r6, r7}
 8001140:	46bb      	mov	fp, r7
 8001142:	46b2      	mov	sl, r6
 8001144:	46a9      	mov	r9, r5
 8001146:	46a0      	mov	r8, r4
 8001148:	bdf0      	pop	{r4, r5, r6, r7, pc}
 800114a:	2200      	movs	r2, #0
 800114c:	2400      	movs	r4, #0
 800114e:	4690      	mov	r8, r2
 8001150:	4ba6      	ldr	r3, [pc, #664]	@ (80013ec <__aeabi_ddiv+0x37c>)
 8001152:	e7ed      	b.n	8001130 <__aeabi_ddiv+0xc0>
 8001154:	002e      	movs	r6, r5
 8001156:	e7df      	b.n	8001118 <__aeabi_ddiv+0xa8>
 8001158:	45cb      	cmp	fp, r9
 800115a:	d200      	bcs.n	800115e <__aeabi_ddiv+0xee>
 800115c:	e1d4      	b.n	8001508 <__aeabi_ddiv+0x498>
 800115e:	d100      	bne.n	8001162 <__aeabi_ddiv+0xf2>
 8001160:	e1cf      	b.n	8001502 <__aeabi_ddiv+0x492>
 8001162:	2301      	movs	r3, #1
 8001164:	425b      	negs	r3, r3
 8001166:	469c      	mov	ip, r3
 8001168:	4644      	mov	r4, r8
 800116a:	4648      	mov	r0, r9
 800116c:	2700      	movs	r7, #0
 800116e:	44e2      	add	sl, ip
 8001170:	465b      	mov	r3, fp
 8001172:	0e15      	lsrs	r5, r2, #24
 8001174:	021b      	lsls	r3, r3, #8
 8001176:	431d      	orrs	r5, r3
 8001178:	0c19      	lsrs	r1, r3, #16
 800117a:	042b      	lsls	r3, r5, #16
 800117c:	0212      	lsls	r2, r2, #8
 800117e:	9500      	str	r5, [sp, #0]
 8001180:	0c1d      	lsrs	r5, r3, #16
 8001182:	4691      	mov	r9, r2
 8001184:	9102      	str	r1, [sp, #8]
 8001186:	9503      	str	r5, [sp, #12]
 8001188:	f7ff f84a 	bl	8000220 <__aeabi_uidivmod>
 800118c:	0002      	movs	r2, r0
 800118e:	436a      	muls	r2, r5
 8001190:	040b      	lsls	r3, r1, #16
 8001192:	0c21      	lsrs	r1, r4, #16
 8001194:	4680      	mov	r8, r0
 8001196:	4319      	orrs	r1, r3
 8001198:	428a      	cmp	r2, r1
 800119a:	d909      	bls.n	80011b0 <__aeabi_ddiv+0x140>
 800119c:	9d00      	ldr	r5, [sp, #0]
 800119e:	2301      	movs	r3, #1
 80011a0:	46ac      	mov	ip, r5
 80011a2:	425b      	negs	r3, r3
 80011a4:	4461      	add	r1, ip
 80011a6:	469c      	mov	ip, r3
 80011a8:	44e0      	add	r8, ip
 80011aa:	428d      	cmp	r5, r1
 80011ac:	d800      	bhi.n	80011b0 <__aeabi_ddiv+0x140>
 80011ae:	e1fb      	b.n	80015a8 <__aeabi_ddiv+0x538>
 80011b0:	1a88      	subs	r0, r1, r2
 80011b2:	9902      	ldr	r1, [sp, #8]
 80011b4:	f7ff f834 	bl	8000220 <__aeabi_uidivmod>
 80011b8:	9a03      	ldr	r2, [sp, #12]
 80011ba:	0424      	lsls	r4, r4, #16
 80011bc:	4342      	muls	r2, r0
 80011be:	0409      	lsls	r1, r1, #16
 80011c0:	0c24      	lsrs	r4, r4, #16
 80011c2:	0003      	movs	r3, r0
 80011c4:	430c      	orrs	r4, r1
 80011c6:	42a2      	cmp	r2, r4
 80011c8:	d906      	bls.n	80011d8 <__aeabi_ddiv+0x168>
 80011ca:	9900      	ldr	r1, [sp, #0]
 80011cc:	3b01      	subs	r3, #1
 80011ce:	468c      	mov	ip, r1
 80011d0:	4464      	add	r4, ip
 80011d2:	42a1      	cmp	r1, r4
 80011d4:	d800      	bhi.n	80011d8 <__aeabi_ddiv+0x168>
 80011d6:	e1e1      	b.n	800159c <__aeabi_ddiv+0x52c>
 80011d8:	1aa0      	subs	r0, r4, r2
 80011da:	4642      	mov	r2, r8
 80011dc:	0412      	lsls	r2, r2, #16
 80011de:	431a      	orrs	r2, r3
 80011e0:	4693      	mov	fp, r2
 80011e2:	464b      	mov	r3, r9
 80011e4:	4659      	mov	r1, fp
 80011e6:	0c1b      	lsrs	r3, r3, #16
 80011e8:	001d      	movs	r5, r3
 80011ea:	9304      	str	r3, [sp, #16]
 80011ec:	040b      	lsls	r3, r1, #16
 80011ee:	4649      	mov	r1, r9
 80011f0:	0409      	lsls	r1, r1, #16
 80011f2:	0c09      	lsrs	r1, r1, #16
 80011f4:	000c      	movs	r4, r1
 80011f6:	0c1b      	lsrs	r3, r3, #16
 80011f8:	435c      	muls	r4, r3
 80011fa:	0c12      	lsrs	r2, r2, #16
 80011fc:	436b      	muls	r3, r5
 80011fe:	4688      	mov	r8, r1
 8001200:	4351      	muls	r1, r2
 8001202:	436a      	muls	r2, r5
 8001204:	0c25      	lsrs	r5, r4, #16
 8001206:	46ac      	mov	ip, r5
 8001208:	185b      	adds	r3, r3, r1
 800120a:	4463      	add	r3, ip
 800120c:	4299      	cmp	r1, r3
 800120e:	d903      	bls.n	8001218 <__aeabi_ddiv+0x1a8>
 8001210:	2180      	movs	r1, #128	@ 0x80
 8001212:	0249      	lsls	r1, r1, #9
 8001214:	468c      	mov	ip, r1
 8001216:	4462      	add	r2, ip
 8001218:	0c19      	lsrs	r1, r3, #16
 800121a:	0424      	lsls	r4, r4, #16
 800121c:	041b      	lsls	r3, r3, #16
 800121e:	0c24      	lsrs	r4, r4, #16
 8001220:	188a      	adds	r2, r1, r2
 8001222:	191c      	adds	r4, r3, r4
 8001224:	4290      	cmp	r0, r2
 8001226:	d302      	bcc.n	800122e <__aeabi_ddiv+0x1be>
 8001228:	d116      	bne.n	8001258 <__aeabi_ddiv+0x1e8>
 800122a:	42a7      	cmp	r7, r4
 800122c:	d214      	bcs.n	8001258 <__aeabi_ddiv+0x1e8>
 800122e:	465b      	mov	r3, fp
 8001230:	9d00      	ldr	r5, [sp, #0]
 8001232:	3b01      	subs	r3, #1
 8001234:	444f      	add	r7, r9
 8001236:	9305      	str	r3, [sp, #20]
 8001238:	454f      	cmp	r7, r9
 800123a:	419b      	sbcs	r3, r3
 800123c:	46ac      	mov	ip, r5
 800123e:	425b      	negs	r3, r3
 8001240:	4463      	add	r3, ip
 8001242:	18c0      	adds	r0, r0, r3
 8001244:	4285      	cmp	r5, r0
 8001246:	d300      	bcc.n	800124a <__aeabi_ddiv+0x1da>
 8001248:	e1a1      	b.n	800158e <__aeabi_ddiv+0x51e>
 800124a:	4282      	cmp	r2, r0
 800124c:	d900      	bls.n	8001250 <__aeabi_ddiv+0x1e0>
 800124e:	e1f6      	b.n	800163e <__aeabi_ddiv+0x5ce>
 8001250:	d100      	bne.n	8001254 <__aeabi_ddiv+0x1e4>
 8001252:	e1f1      	b.n	8001638 <__aeabi_ddiv+0x5c8>
 8001254:	9b05      	ldr	r3, [sp, #20]
 8001256:	469b      	mov	fp, r3
 8001258:	1b3c      	subs	r4, r7, r4
 800125a:	42a7      	cmp	r7, r4
 800125c:	41bf      	sbcs	r7, r7
 800125e:	9d00      	ldr	r5, [sp, #0]
 8001260:	1a80      	subs	r0, r0, r2
 8001262:	427f      	negs	r7, r7
 8001264:	1bc0      	subs	r0, r0, r7
 8001266:	4285      	cmp	r5, r0
 8001268:	d100      	bne.n	800126c <__aeabi_ddiv+0x1fc>
 800126a:	e1d0      	b.n	800160e <__aeabi_ddiv+0x59e>
 800126c:	9902      	ldr	r1, [sp, #8]
 800126e:	f7fe ffd7 	bl	8000220 <__aeabi_uidivmod>
 8001272:	9a03      	ldr	r2, [sp, #12]
 8001274:	040b      	lsls	r3, r1, #16
 8001276:	4342      	muls	r2, r0
 8001278:	0c21      	lsrs	r1, r4, #16
 800127a:	0007      	movs	r7, r0
 800127c:	4319      	orrs	r1, r3
 800127e:	428a      	cmp	r2, r1
 8001280:	d900      	bls.n	8001284 <__aeabi_ddiv+0x214>
 8001282:	e178      	b.n	8001576 <__aeabi_ddiv+0x506>
 8001284:	1a88      	subs	r0, r1, r2
 8001286:	9902      	ldr	r1, [sp, #8]
 8001288:	f7fe ffca 	bl	8000220 <__aeabi_uidivmod>
 800128c:	9a03      	ldr	r2, [sp, #12]
 800128e:	0424      	lsls	r4, r4, #16
 8001290:	4342      	muls	r2, r0
 8001292:	0409      	lsls	r1, r1, #16
 8001294:	0c24      	lsrs	r4, r4, #16
 8001296:	0003      	movs	r3, r0
 8001298:	430c      	orrs	r4, r1
 800129a:	42a2      	cmp	r2, r4
 800129c:	d900      	bls.n	80012a0 <__aeabi_ddiv+0x230>
 800129e:	e15d      	b.n	800155c <__aeabi_ddiv+0x4ec>
 80012a0:	4641      	mov	r1, r8
 80012a2:	1aa4      	subs	r4, r4, r2
 80012a4:	043a      	lsls	r2, r7, #16
 80012a6:	431a      	orrs	r2, r3
 80012a8:	9d04      	ldr	r5, [sp, #16]
 80012aa:	0413      	lsls	r3, r2, #16
 80012ac:	0c1b      	lsrs	r3, r3, #16
 80012ae:	4359      	muls	r1, r3
 80012b0:	4647      	mov	r7, r8
 80012b2:	436b      	muls	r3, r5
 80012b4:	469c      	mov	ip, r3
 80012b6:	0c10      	lsrs	r0, r2, #16
 80012b8:	4347      	muls	r7, r0
 80012ba:	0c0b      	lsrs	r3, r1, #16
 80012bc:	44bc      	add	ip, r7
 80012be:	4463      	add	r3, ip
 80012c0:	4368      	muls	r0, r5
 80012c2:	429f      	cmp	r7, r3
 80012c4:	d903      	bls.n	80012ce <__aeabi_ddiv+0x25e>
 80012c6:	2580      	movs	r5, #128	@ 0x80
 80012c8:	026d      	lsls	r5, r5, #9
 80012ca:	46ac      	mov	ip, r5
 80012cc:	4460      	add	r0, ip
 80012ce:	0c1f      	lsrs	r7, r3, #16
 80012d0:	0409      	lsls	r1, r1, #16
 80012d2:	041b      	lsls	r3, r3, #16
 80012d4:	0c09      	lsrs	r1, r1, #16
 80012d6:	183f      	adds	r7, r7, r0
 80012d8:	185b      	adds	r3, r3, r1
 80012da:	42bc      	cmp	r4, r7
 80012dc:	d200      	bcs.n	80012e0 <__aeabi_ddiv+0x270>
 80012de:	e102      	b.n	80014e6 <__aeabi_ddiv+0x476>
 80012e0:	d100      	bne.n	80012e4 <__aeabi_ddiv+0x274>
 80012e2:	e0fd      	b.n	80014e0 <__aeabi_ddiv+0x470>
 80012e4:	2301      	movs	r3, #1
 80012e6:	431a      	orrs	r2, r3
 80012e8:	4b43      	ldr	r3, [pc, #268]	@ (80013f8 <__aeabi_ddiv+0x388>)
 80012ea:	4453      	add	r3, sl
 80012ec:	2b00      	cmp	r3, #0
 80012ee:	dc00      	bgt.n	80012f2 <__aeabi_ddiv+0x282>
 80012f0:	e0ae      	b.n	8001450 <__aeabi_ddiv+0x3e0>
 80012f2:	0751      	lsls	r1, r2, #29
 80012f4:	d000      	beq.n	80012f8 <__aeabi_ddiv+0x288>
 80012f6:	e198      	b.n	800162a <__aeabi_ddiv+0x5ba>
 80012f8:	4659      	mov	r1, fp
 80012fa:	01c9      	lsls	r1, r1, #7
 80012fc:	d506      	bpl.n	800130c <__aeabi_ddiv+0x29c>
 80012fe:	4659      	mov	r1, fp
 8001300:	4b3e      	ldr	r3, [pc, #248]	@ (80013fc <__aeabi_ddiv+0x38c>)
 8001302:	4019      	ands	r1, r3
 8001304:	2380      	movs	r3, #128	@ 0x80
 8001306:	468b      	mov	fp, r1
 8001308:	00db      	lsls	r3, r3, #3
 800130a:	4453      	add	r3, sl
 800130c:	493c      	ldr	r1, [pc, #240]	@ (8001400 <__aeabi_ddiv+0x390>)
 800130e:	428b      	cmp	r3, r1
 8001310:	dd00      	ble.n	8001314 <__aeabi_ddiv+0x2a4>
 8001312:	e71a      	b.n	800114a <__aeabi_ddiv+0xda>
 8001314:	4659      	mov	r1, fp
 8001316:	08d2      	lsrs	r2, r2, #3
 8001318:	0749      	lsls	r1, r1, #29
 800131a:	4311      	orrs	r1, r2
 800131c:	465a      	mov	r2, fp
 800131e:	055b      	lsls	r3, r3, #21
 8001320:	0254      	lsls	r4, r2, #9
 8001322:	4688      	mov	r8, r1
 8001324:	0b24      	lsrs	r4, r4, #12
 8001326:	0d5b      	lsrs	r3, r3, #21
 8001328:	e702      	b.n	8001130 <__aeabi_ddiv+0xc0>
 800132a:	465a      	mov	r2, fp
 800132c:	9b00      	ldr	r3, [sp, #0]
 800132e:	431a      	orrs	r2, r3
 8001330:	d100      	bne.n	8001334 <__aeabi_ddiv+0x2c4>
 8001332:	e07e      	b.n	8001432 <__aeabi_ddiv+0x3c2>
 8001334:	465b      	mov	r3, fp
 8001336:	2b00      	cmp	r3, #0
 8001338:	d100      	bne.n	800133c <__aeabi_ddiv+0x2cc>
 800133a:	e100      	b.n	800153e <__aeabi_ddiv+0x4ce>
 800133c:	4658      	mov	r0, fp
 800133e:	f001 fa13 	bl	8002768 <__clzsi2>
 8001342:	0002      	movs	r2, r0
 8001344:	0003      	movs	r3, r0
 8001346:	3a0b      	subs	r2, #11
 8001348:	271d      	movs	r7, #29
 800134a:	9e00      	ldr	r6, [sp, #0]
 800134c:	1aba      	subs	r2, r7, r2
 800134e:	0019      	movs	r1, r3
 8001350:	4658      	mov	r0, fp
 8001352:	40d6      	lsrs	r6, r2
 8001354:	3908      	subs	r1, #8
 8001356:	4088      	lsls	r0, r1
 8001358:	0032      	movs	r2, r6
 800135a:	4302      	orrs	r2, r0
 800135c:	4693      	mov	fp, r2
 800135e:	9a00      	ldr	r2, [sp, #0]
 8001360:	408a      	lsls	r2, r1
 8001362:	4928      	ldr	r1, [pc, #160]	@ (8001404 <__aeabi_ddiv+0x394>)
 8001364:	4453      	add	r3, sl
 8001366:	468a      	mov	sl, r1
 8001368:	449a      	add	sl, r3
 800136a:	2300      	movs	r3, #0
 800136c:	e6c8      	b.n	8001100 <__aeabi_ddiv+0x90>
 800136e:	465b      	mov	r3, fp
 8001370:	4303      	orrs	r3, r0
 8001372:	4699      	mov	r9, r3
 8001374:	d056      	beq.n	8001424 <__aeabi_ddiv+0x3b4>
 8001376:	465b      	mov	r3, fp
 8001378:	2b00      	cmp	r3, #0
 800137a:	d100      	bne.n	800137e <__aeabi_ddiv+0x30e>
 800137c:	e0cd      	b.n	800151a <__aeabi_ddiv+0x4aa>
 800137e:	4658      	mov	r0, fp
 8001380:	f001 f9f2 	bl	8002768 <__clzsi2>
 8001384:	230b      	movs	r3, #11
 8001386:	425b      	negs	r3, r3
 8001388:	469c      	mov	ip, r3
 800138a:	0002      	movs	r2, r0
 800138c:	4484      	add	ip, r0
 800138e:	4666      	mov	r6, ip
 8001390:	231d      	movs	r3, #29
 8001392:	1b9b      	subs	r3, r3, r6
 8001394:	0026      	movs	r6, r4
 8001396:	0011      	movs	r1, r2
 8001398:	4658      	mov	r0, fp
 800139a:	40de      	lsrs	r6, r3
 800139c:	3908      	subs	r1, #8
 800139e:	4088      	lsls	r0, r1
 80013a0:	0033      	movs	r3, r6
 80013a2:	4303      	orrs	r3, r0
 80013a4:	4699      	mov	r9, r3
 80013a6:	0023      	movs	r3, r4
 80013a8:	408b      	lsls	r3, r1
 80013aa:	4698      	mov	r8, r3
 80013ac:	4b16      	ldr	r3, [pc, #88]	@ (8001408 <__aeabi_ddiv+0x398>)
 80013ae:	2400      	movs	r4, #0
 80013b0:	1a9b      	subs	r3, r3, r2
 80013b2:	469a      	mov	sl, r3
 80013b4:	2300      	movs	r3, #0
 80013b6:	9303      	str	r3, [sp, #12]
 80013b8:	e682      	b.n	80010c0 <__aeabi_ddiv+0x50>
 80013ba:	465a      	mov	r2, fp
 80013bc:	4302      	orrs	r2, r0
 80013be:	4691      	mov	r9, r2
 80013c0:	d12a      	bne.n	8001418 <__aeabi_ddiv+0x3a8>
 80013c2:	2200      	movs	r2, #0
 80013c4:	469a      	mov	sl, r3
 80013c6:	2302      	movs	r3, #2
 80013c8:	4690      	mov	r8, r2
 80013ca:	2408      	movs	r4, #8
 80013cc:	9303      	str	r3, [sp, #12]
 80013ce:	e677      	b.n	80010c0 <__aeabi_ddiv+0x50>
 80013d0:	465a      	mov	r2, fp
 80013d2:	9b00      	ldr	r3, [sp, #0]
 80013d4:	431a      	orrs	r2, r3
 80013d6:	4b0d      	ldr	r3, [pc, #52]	@ (800140c <__aeabi_ddiv+0x39c>)
 80013d8:	469c      	mov	ip, r3
 80013da:	44e2      	add	sl, ip
 80013dc:	2a00      	cmp	r2, #0
 80013de:	d117      	bne.n	8001410 <__aeabi_ddiv+0x3a0>
 80013e0:	2302      	movs	r3, #2
 80013e2:	431c      	orrs	r4, r3
 80013e4:	2300      	movs	r3, #0
 80013e6:	469b      	mov	fp, r3
 80013e8:	3302      	adds	r3, #2
 80013ea:	e689      	b.n	8001100 <__aeabi_ddiv+0x90>
 80013ec:	000007ff 	.word	0x000007ff
 80013f0:	fffffc01 	.word	0xfffffc01
 80013f4:	08007ef0 	.word	0x08007ef0
 80013f8:	000003ff 	.word	0x000003ff
 80013fc:	feffffff 	.word	0xfeffffff
 8001400:	000007fe 	.word	0x000007fe
 8001404:	000003f3 	.word	0x000003f3
 8001408:	fffffc0d 	.word	0xfffffc0d
 800140c:	fffff801 	.word	0xfffff801
 8001410:	2303      	movs	r3, #3
 8001412:	0032      	movs	r2, r6
 8001414:	431c      	orrs	r4, r3
 8001416:	e673      	b.n	8001100 <__aeabi_ddiv+0x90>
 8001418:	469a      	mov	sl, r3
 800141a:	2303      	movs	r3, #3
 800141c:	46d9      	mov	r9, fp
 800141e:	240c      	movs	r4, #12
 8001420:	9303      	str	r3, [sp, #12]
 8001422:	e64d      	b.n	80010c0 <__aeabi_ddiv+0x50>
 8001424:	2300      	movs	r3, #0
 8001426:	4698      	mov	r8, r3
 8001428:	469a      	mov	sl, r3
 800142a:	3301      	adds	r3, #1
 800142c:	2404      	movs	r4, #4
 800142e:	9303      	str	r3, [sp, #12]
 8001430:	e646      	b.n	80010c0 <__aeabi_ddiv+0x50>
 8001432:	2301      	movs	r3, #1
 8001434:	431c      	orrs	r4, r3
 8001436:	2300      	movs	r3, #0
 8001438:	469b      	mov	fp, r3
 800143a:	3301      	adds	r3, #1
 800143c:	e660      	b.n	8001100 <__aeabi_ddiv+0x90>
 800143e:	2300      	movs	r3, #0
 8001440:	2480      	movs	r4, #128	@ 0x80
 8001442:	4698      	mov	r8, r3
 8001444:	2600      	movs	r6, #0
 8001446:	4b92      	ldr	r3, [pc, #584]	@ (8001690 <__aeabi_ddiv+0x620>)
 8001448:	0324      	lsls	r4, r4, #12
 800144a:	e671      	b.n	8001130 <__aeabi_ddiv+0xc0>
 800144c:	2201      	movs	r2, #1
 800144e:	4252      	negs	r2, r2
 8001450:	2101      	movs	r1, #1
 8001452:	1ac9      	subs	r1, r1, r3
 8001454:	2938      	cmp	r1, #56	@ 0x38
 8001456:	dd00      	ble.n	800145a <__aeabi_ddiv+0x3ea>
 8001458:	e666      	b.n	8001128 <__aeabi_ddiv+0xb8>
 800145a:	291f      	cmp	r1, #31
 800145c:	dc00      	bgt.n	8001460 <__aeabi_ddiv+0x3f0>
 800145e:	e0ab      	b.n	80015b8 <__aeabi_ddiv+0x548>
 8001460:	201f      	movs	r0, #31
 8001462:	4240      	negs	r0, r0
 8001464:	1ac3      	subs	r3, r0, r3
 8001466:	4658      	mov	r0, fp
 8001468:	40d8      	lsrs	r0, r3
 800146a:	0003      	movs	r3, r0
 800146c:	2920      	cmp	r1, #32
 800146e:	d004      	beq.n	800147a <__aeabi_ddiv+0x40a>
 8001470:	4658      	mov	r0, fp
 8001472:	4988      	ldr	r1, [pc, #544]	@ (8001694 <__aeabi_ddiv+0x624>)
 8001474:	4451      	add	r1, sl
 8001476:	4088      	lsls	r0, r1
 8001478:	4302      	orrs	r2, r0
 800147a:	1e51      	subs	r1, r2, #1
 800147c:	418a      	sbcs	r2, r1
 800147e:	431a      	orrs	r2, r3
 8001480:	2307      	movs	r3, #7
 8001482:	0019      	movs	r1, r3
 8001484:	2400      	movs	r4, #0
 8001486:	4011      	ands	r1, r2
 8001488:	4213      	tst	r3, r2
 800148a:	d00c      	beq.n	80014a6 <__aeabi_ddiv+0x436>
 800148c:	230f      	movs	r3, #15
 800148e:	4013      	ands	r3, r2
 8001490:	2b04      	cmp	r3, #4
 8001492:	d100      	bne.n	8001496 <__aeabi_ddiv+0x426>
 8001494:	e0f9      	b.n	800168a <__aeabi_ddiv+0x61a>
 8001496:	1d11      	adds	r1, r2, #4
 8001498:	4291      	cmp	r1, r2
 800149a:	419b      	sbcs	r3, r3
 800149c:	000a      	movs	r2, r1
 800149e:	425b      	negs	r3, r3
 80014a0:	0759      	lsls	r1, r3, #29
 80014a2:	025b      	lsls	r3, r3, #9
 80014a4:	0b1c      	lsrs	r4, r3, #12
 80014a6:	08d2      	lsrs	r2, r2, #3
 80014a8:	430a      	orrs	r2, r1
 80014aa:	4690      	mov	r8, r2
 80014ac:	2300      	movs	r3, #0
 80014ae:	e63f      	b.n	8001130 <__aeabi_ddiv+0xc0>
 80014b0:	2480      	movs	r4, #128	@ 0x80
 80014b2:	464b      	mov	r3, r9
 80014b4:	0324      	lsls	r4, r4, #12
 80014b6:	4223      	tst	r3, r4
 80014b8:	d009      	beq.n	80014ce <__aeabi_ddiv+0x45e>
 80014ba:	465b      	mov	r3, fp
 80014bc:	4223      	tst	r3, r4
 80014be:	d106      	bne.n	80014ce <__aeabi_ddiv+0x45e>
 80014c0:	431c      	orrs	r4, r3
 80014c2:	0324      	lsls	r4, r4, #12
 80014c4:	002e      	movs	r6, r5
 80014c6:	4690      	mov	r8, r2
 80014c8:	4b71      	ldr	r3, [pc, #452]	@ (8001690 <__aeabi_ddiv+0x620>)
 80014ca:	0b24      	lsrs	r4, r4, #12
 80014cc:	e630      	b.n	8001130 <__aeabi_ddiv+0xc0>
 80014ce:	2480      	movs	r4, #128	@ 0x80
 80014d0:	464b      	mov	r3, r9
 80014d2:	0324      	lsls	r4, r4, #12
 80014d4:	431c      	orrs	r4, r3
 80014d6:	0324      	lsls	r4, r4, #12
 80014d8:	9e02      	ldr	r6, [sp, #8]
 80014da:	4b6d      	ldr	r3, [pc, #436]	@ (8001690 <__aeabi_ddiv+0x620>)
 80014dc:	0b24      	lsrs	r4, r4, #12
 80014de:	e627      	b.n	8001130 <__aeabi_ddiv+0xc0>
 80014e0:	2b00      	cmp	r3, #0
 80014e2:	d100      	bne.n	80014e6 <__aeabi_ddiv+0x476>
 80014e4:	e700      	b.n	80012e8 <__aeabi_ddiv+0x278>
 80014e6:	9800      	ldr	r0, [sp, #0]
 80014e8:	1e51      	subs	r1, r2, #1
 80014ea:	4684      	mov	ip, r0
 80014ec:	4464      	add	r4, ip
 80014ee:	4284      	cmp	r4, r0
 80014f0:	d200      	bcs.n	80014f4 <__aeabi_ddiv+0x484>
 80014f2:	e084      	b.n	80015fe <__aeabi_ddiv+0x58e>
 80014f4:	42bc      	cmp	r4, r7
 80014f6:	d200      	bcs.n	80014fa <__aeabi_ddiv+0x48a>
 80014f8:	e0ae      	b.n	8001658 <__aeabi_ddiv+0x5e8>
 80014fa:	d100      	bne.n	80014fe <__aeabi_ddiv+0x48e>
 80014fc:	e0c1      	b.n	8001682 <__aeabi_ddiv+0x612>
 80014fe:	000a      	movs	r2, r1
 8001500:	e6f0      	b.n	80012e4 <__aeabi_ddiv+0x274>
 8001502:	4542      	cmp	r2, r8
 8001504:	d900      	bls.n	8001508 <__aeabi_ddiv+0x498>
 8001506:	e62c      	b.n	8001162 <__aeabi_ddiv+0xf2>
 8001508:	464b      	mov	r3, r9
 800150a:	07dc      	lsls	r4, r3, #31
 800150c:	0858      	lsrs	r0, r3, #1
 800150e:	4643      	mov	r3, r8
 8001510:	085b      	lsrs	r3, r3, #1
 8001512:	431c      	orrs	r4, r3
 8001514:	4643      	mov	r3, r8
 8001516:	07df      	lsls	r7, r3, #31
 8001518:	e62a      	b.n	8001170 <__aeabi_ddiv+0x100>
 800151a:	f001 f925 	bl	8002768 <__clzsi2>
 800151e:	2315      	movs	r3, #21
 8001520:	469c      	mov	ip, r3
 8001522:	4484      	add	ip, r0
 8001524:	0002      	movs	r2, r0
 8001526:	4663      	mov	r3, ip
 8001528:	3220      	adds	r2, #32
 800152a:	2b1c      	cmp	r3, #28
 800152c:	dc00      	bgt.n	8001530 <__aeabi_ddiv+0x4c0>
 800152e:	e72e      	b.n	800138e <__aeabi_ddiv+0x31e>
 8001530:	0023      	movs	r3, r4
 8001532:	3808      	subs	r0, #8
 8001534:	4083      	lsls	r3, r0
 8001536:	4699      	mov	r9, r3
 8001538:	2300      	movs	r3, #0
 800153a:	4698      	mov	r8, r3
 800153c:	e736      	b.n	80013ac <__aeabi_ddiv+0x33c>
 800153e:	f001 f913 	bl	8002768 <__clzsi2>
 8001542:	0002      	movs	r2, r0
 8001544:	0003      	movs	r3, r0
 8001546:	3215      	adds	r2, #21
 8001548:	3320      	adds	r3, #32
 800154a:	2a1c      	cmp	r2, #28
 800154c:	dc00      	bgt.n	8001550 <__aeabi_ddiv+0x4e0>
 800154e:	e6fb      	b.n	8001348 <__aeabi_ddiv+0x2d8>
 8001550:	9900      	ldr	r1, [sp, #0]
 8001552:	3808      	subs	r0, #8
 8001554:	4081      	lsls	r1, r0
 8001556:	2200      	movs	r2, #0
 8001558:	468b      	mov	fp, r1
 800155a:	e702      	b.n	8001362 <__aeabi_ddiv+0x2f2>
 800155c:	9900      	ldr	r1, [sp, #0]
 800155e:	3b01      	subs	r3, #1
 8001560:	468c      	mov	ip, r1
 8001562:	4464      	add	r4, ip
 8001564:	42a1      	cmp	r1, r4
 8001566:	d900      	bls.n	800156a <__aeabi_ddiv+0x4fa>
 8001568:	e69a      	b.n	80012a0 <__aeabi_ddiv+0x230>
 800156a:	42a2      	cmp	r2, r4
 800156c:	d800      	bhi.n	8001570 <__aeabi_ddiv+0x500>
 800156e:	e697      	b.n	80012a0 <__aeabi_ddiv+0x230>
 8001570:	1e83      	subs	r3, r0, #2
 8001572:	4464      	add	r4, ip
 8001574:	e694      	b.n	80012a0 <__aeabi_ddiv+0x230>
 8001576:	46ac      	mov	ip, r5
 8001578:	4461      	add	r1, ip
 800157a:	3f01      	subs	r7, #1
 800157c:	428d      	cmp	r5, r1
 800157e:	d900      	bls.n	8001582 <__aeabi_ddiv+0x512>
 8001580:	e680      	b.n	8001284 <__aeabi_ddiv+0x214>
 8001582:	428a      	cmp	r2, r1
 8001584:	d800      	bhi.n	8001588 <__aeabi_ddiv+0x518>
 8001586:	e67d      	b.n	8001284 <__aeabi_ddiv+0x214>
 8001588:	1e87      	subs	r7, r0, #2
 800158a:	4461      	add	r1, ip
 800158c:	e67a      	b.n	8001284 <__aeabi_ddiv+0x214>
 800158e:	4285      	cmp	r5, r0
 8001590:	d000      	beq.n	8001594 <__aeabi_ddiv+0x524>
 8001592:	e65f      	b.n	8001254 <__aeabi_ddiv+0x1e4>
 8001594:	45b9      	cmp	r9, r7
 8001596:	d900      	bls.n	800159a <__aeabi_ddiv+0x52a>
 8001598:	e65c      	b.n	8001254 <__aeabi_ddiv+0x1e4>
 800159a:	e656      	b.n	800124a <__aeabi_ddiv+0x1da>
 800159c:	42a2      	cmp	r2, r4
 800159e:	d800      	bhi.n	80015a2 <__aeabi_ddiv+0x532>
 80015a0:	e61a      	b.n	80011d8 <__aeabi_ddiv+0x168>
 80015a2:	1e83      	subs	r3, r0, #2
 80015a4:	4464      	add	r4, ip
 80015a6:	e617      	b.n	80011d8 <__aeabi_ddiv+0x168>
 80015a8:	428a      	cmp	r2, r1
 80015aa:	d800      	bhi.n	80015ae <__aeabi_ddiv+0x53e>
 80015ac:	e600      	b.n	80011b0 <__aeabi_ddiv+0x140>
 80015ae:	46ac      	mov	ip, r5
 80015b0:	1e83      	subs	r3, r0, #2
 80015b2:	4698      	mov	r8, r3
 80015b4:	4461      	add	r1, ip
 80015b6:	e5fb      	b.n	80011b0 <__aeabi_ddiv+0x140>
 80015b8:	4837      	ldr	r0, [pc, #220]	@ (8001698 <__aeabi_ddiv+0x628>)
 80015ba:	0014      	movs	r4, r2
 80015bc:	4450      	add	r0, sl
 80015be:	4082      	lsls	r2, r0
 80015c0:	465b      	mov	r3, fp
 80015c2:	0017      	movs	r7, r2
 80015c4:	4083      	lsls	r3, r0
 80015c6:	40cc      	lsrs	r4, r1
 80015c8:	1e7a      	subs	r2, r7, #1
 80015ca:	4197      	sbcs	r7, r2
 80015cc:	4323      	orrs	r3, r4
 80015ce:	433b      	orrs	r3, r7
 80015d0:	001a      	movs	r2, r3
 80015d2:	465b      	mov	r3, fp
 80015d4:	40cb      	lsrs	r3, r1
 80015d6:	0751      	lsls	r1, r2, #29
 80015d8:	d009      	beq.n	80015ee <__aeabi_ddiv+0x57e>
 80015da:	210f      	movs	r1, #15
 80015dc:	4011      	ands	r1, r2
 80015de:	2904      	cmp	r1, #4
 80015e0:	d005      	beq.n	80015ee <__aeabi_ddiv+0x57e>
 80015e2:	1d11      	adds	r1, r2, #4
 80015e4:	4291      	cmp	r1, r2
 80015e6:	4192      	sbcs	r2, r2
 80015e8:	4252      	negs	r2, r2
 80015ea:	189b      	adds	r3, r3, r2
 80015ec:	000a      	movs	r2, r1
 80015ee:	0219      	lsls	r1, r3, #8
 80015f0:	d400      	bmi.n	80015f4 <__aeabi_ddiv+0x584>
 80015f2:	e755      	b.n	80014a0 <__aeabi_ddiv+0x430>
 80015f4:	2200      	movs	r2, #0
 80015f6:	2301      	movs	r3, #1
 80015f8:	2400      	movs	r4, #0
 80015fa:	4690      	mov	r8, r2
 80015fc:	e598      	b.n	8001130 <__aeabi_ddiv+0xc0>
 80015fe:	000a      	movs	r2, r1
 8001600:	42bc      	cmp	r4, r7
 8001602:	d000      	beq.n	8001606 <__aeabi_ddiv+0x596>
 8001604:	e66e      	b.n	80012e4 <__aeabi_ddiv+0x274>
 8001606:	454b      	cmp	r3, r9
 8001608:	d000      	beq.n	800160c <__aeabi_ddiv+0x59c>
 800160a:	e66b      	b.n	80012e4 <__aeabi_ddiv+0x274>
 800160c:	e66c      	b.n	80012e8 <__aeabi_ddiv+0x278>
 800160e:	4b23      	ldr	r3, [pc, #140]	@ (800169c <__aeabi_ddiv+0x62c>)
 8001610:	4a23      	ldr	r2, [pc, #140]	@ (80016a0 <__aeabi_ddiv+0x630>)
 8001612:	4453      	add	r3, sl
 8001614:	4592      	cmp	sl, r2
 8001616:	da00      	bge.n	800161a <__aeabi_ddiv+0x5aa>
 8001618:	e718      	b.n	800144c <__aeabi_ddiv+0x3dc>
 800161a:	2101      	movs	r1, #1
 800161c:	4249      	negs	r1, r1
 800161e:	1d0a      	adds	r2, r1, #4
 8001620:	428a      	cmp	r2, r1
 8001622:	4189      	sbcs	r1, r1
 8001624:	4249      	negs	r1, r1
 8001626:	448b      	add	fp, r1
 8001628:	e666      	b.n	80012f8 <__aeabi_ddiv+0x288>
 800162a:	210f      	movs	r1, #15
 800162c:	4011      	ands	r1, r2
 800162e:	2904      	cmp	r1, #4
 8001630:	d100      	bne.n	8001634 <__aeabi_ddiv+0x5c4>
 8001632:	e661      	b.n	80012f8 <__aeabi_ddiv+0x288>
 8001634:	0011      	movs	r1, r2
 8001636:	e7f2      	b.n	800161e <__aeabi_ddiv+0x5ae>
 8001638:	42bc      	cmp	r4, r7
 800163a:	d800      	bhi.n	800163e <__aeabi_ddiv+0x5ce>
 800163c:	e60a      	b.n	8001254 <__aeabi_ddiv+0x1e4>
 800163e:	2302      	movs	r3, #2
 8001640:	425b      	negs	r3, r3
 8001642:	469c      	mov	ip, r3
 8001644:	9900      	ldr	r1, [sp, #0]
 8001646:	444f      	add	r7, r9
 8001648:	454f      	cmp	r7, r9
 800164a:	419b      	sbcs	r3, r3
 800164c:	44e3      	add	fp, ip
 800164e:	468c      	mov	ip, r1
 8001650:	425b      	negs	r3, r3
 8001652:	4463      	add	r3, ip
 8001654:	18c0      	adds	r0, r0, r3
 8001656:	e5ff      	b.n	8001258 <__aeabi_ddiv+0x1e8>
 8001658:	4649      	mov	r1, r9
 800165a:	9d00      	ldr	r5, [sp, #0]
 800165c:	0048      	lsls	r0, r1, #1
 800165e:	4548      	cmp	r0, r9
 8001660:	4189      	sbcs	r1, r1
 8001662:	46ac      	mov	ip, r5
 8001664:	4249      	negs	r1, r1
 8001666:	4461      	add	r1, ip
 8001668:	4681      	mov	r9, r0
 800166a:	3a02      	subs	r2, #2
 800166c:	1864      	adds	r4, r4, r1
 800166e:	e7c7      	b.n	8001600 <__aeabi_ddiv+0x590>
 8001670:	2480      	movs	r4, #128	@ 0x80
 8001672:	465b      	mov	r3, fp
 8001674:	0324      	lsls	r4, r4, #12
 8001676:	431c      	orrs	r4, r3
 8001678:	0324      	lsls	r4, r4, #12
 800167a:	4690      	mov	r8, r2
 800167c:	4b04      	ldr	r3, [pc, #16]	@ (8001690 <__aeabi_ddiv+0x620>)
 800167e:	0b24      	lsrs	r4, r4, #12
 8001680:	e556      	b.n	8001130 <__aeabi_ddiv+0xc0>
 8001682:	4599      	cmp	r9, r3
 8001684:	d3e8      	bcc.n	8001658 <__aeabi_ddiv+0x5e8>
 8001686:	000a      	movs	r2, r1
 8001688:	e7bd      	b.n	8001606 <__aeabi_ddiv+0x596>
 800168a:	2300      	movs	r3, #0
 800168c:	e708      	b.n	80014a0 <__aeabi_ddiv+0x430>
 800168e:	46c0      	nop			@ (mov r8, r8)
 8001690:	000007ff 	.word	0x000007ff
 8001694:	0000043e 	.word	0x0000043e
 8001698:	0000041e 	.word	0x0000041e
 800169c:	000003ff 	.word	0x000003ff
 80016a0:	fffffc02 	.word	0xfffffc02

080016a4 <__eqdf2>:
 80016a4:	b5f0      	push	{r4, r5, r6, r7, lr}
 80016a6:	4657      	mov	r7, sl
 80016a8:	46de      	mov	lr, fp
 80016aa:	464e      	mov	r6, r9
 80016ac:	4645      	mov	r5, r8
 80016ae:	b5e0      	push	{r5, r6, r7, lr}
 80016b0:	000d      	movs	r5, r1
 80016b2:	0004      	movs	r4, r0
 80016b4:	0fe8      	lsrs	r0, r5, #31
 80016b6:	4683      	mov	fp, r0
 80016b8:	0309      	lsls	r1, r1, #12
 80016ba:	0fd8      	lsrs	r0, r3, #31
 80016bc:	0b09      	lsrs	r1, r1, #12
 80016be:	4682      	mov	sl, r0
 80016c0:	4819      	ldr	r0, [pc, #100]	@ (8001728 <__eqdf2+0x84>)
 80016c2:	468c      	mov	ip, r1
 80016c4:	031f      	lsls	r7, r3, #12
 80016c6:	0069      	lsls	r1, r5, #1
 80016c8:	005e      	lsls	r6, r3, #1
 80016ca:	0d49      	lsrs	r1, r1, #21
 80016cc:	0b3f      	lsrs	r7, r7, #12
 80016ce:	0d76      	lsrs	r6, r6, #21
 80016d0:	4281      	cmp	r1, r0
 80016d2:	d018      	beq.n	8001706 <__eqdf2+0x62>
 80016d4:	4286      	cmp	r6, r0
 80016d6:	d00f      	beq.n	80016f8 <__eqdf2+0x54>
 80016d8:	2001      	movs	r0, #1
 80016da:	42b1      	cmp	r1, r6
 80016dc:	d10d      	bne.n	80016fa <__eqdf2+0x56>
 80016de:	45bc      	cmp	ip, r7
 80016e0:	d10b      	bne.n	80016fa <__eqdf2+0x56>
 80016e2:	4294      	cmp	r4, r2
 80016e4:	d109      	bne.n	80016fa <__eqdf2+0x56>
 80016e6:	45d3      	cmp	fp, sl
 80016e8:	d01c      	beq.n	8001724 <__eqdf2+0x80>
 80016ea:	2900      	cmp	r1, #0
 80016ec:	d105      	bne.n	80016fa <__eqdf2+0x56>
 80016ee:	4660      	mov	r0, ip
 80016f0:	4320      	orrs	r0, r4
 80016f2:	1e43      	subs	r3, r0, #1
 80016f4:	4198      	sbcs	r0, r3
 80016f6:	e000      	b.n	80016fa <__eqdf2+0x56>
 80016f8:	2001      	movs	r0, #1
 80016fa:	bcf0      	pop	{r4, r5, r6, r7}
 80016fc:	46bb      	mov	fp, r7
 80016fe:	46b2      	mov	sl, r6
 8001700:	46a9      	mov	r9, r5
 8001702:	46a0      	mov	r8, r4
 8001704:	bdf0      	pop	{r4, r5, r6, r7, pc}
 8001706:	2001      	movs	r0, #1
 8001708:	428e      	cmp	r6, r1
 800170a:	d1f6      	bne.n	80016fa <__eqdf2+0x56>
 800170c:	4661      	mov	r1, ip
 800170e:	4339      	orrs	r1, r7
 8001710:	000f      	movs	r7, r1
 8001712:	4317      	orrs	r7, r2
 8001714:	4327      	orrs	r7, r4
 8001716:	d1f0      	bne.n	80016fa <__eqdf2+0x56>
 8001718:	465b      	mov	r3, fp
 800171a:	4652      	mov	r2, sl
 800171c:	1a98      	subs	r0, r3, r2
 800171e:	1e43      	subs	r3, r0, #1
 8001720:	4198      	sbcs	r0, r3
 8001722:	e7ea      	b.n	80016fa <__eqdf2+0x56>
 8001724:	2000      	movs	r0, #0
 8001726:	e7e8      	b.n	80016fa <__eqdf2+0x56>
 8001728:	000007ff 	.word	0x000007ff

0800172c <__gedf2>:
 800172c:	b5f0      	push	{r4, r5, r6, r7, lr}
 800172e:	4657      	mov	r7, sl
 8001730:	464e      	mov	r6, r9
 8001732:	4645      	mov	r5, r8
 8001734:	46de      	mov	lr, fp
 8001736:	b5e0      	push	{r5, r6, r7, lr}
 8001738:	000d      	movs	r5, r1
 800173a:	030f      	lsls	r7, r1, #12
 800173c:	0b39      	lsrs	r1, r7, #12
 800173e:	b083      	sub	sp, #12
 8001740:	0004      	movs	r4, r0
 8001742:	4680      	mov	r8, r0
 8001744:	9101      	str	r1, [sp, #4]
 8001746:	0058      	lsls	r0, r3, #1
 8001748:	0fe9      	lsrs	r1, r5, #31
 800174a:	4f31      	ldr	r7, [pc, #196]	@ (8001810 <__gedf2+0xe4>)
 800174c:	0d40      	lsrs	r0, r0, #21
 800174e:	468c      	mov	ip, r1
 8001750:	006e      	lsls	r6, r5, #1
 8001752:	0319      	lsls	r1, r3, #12
 8001754:	4682      	mov	sl, r0
 8001756:	4691      	mov	r9, r2
 8001758:	0d76      	lsrs	r6, r6, #21
 800175a:	0b09      	lsrs	r1, r1, #12
 800175c:	0fd8      	lsrs	r0, r3, #31
 800175e:	42be      	cmp	r6, r7
 8001760:	d01f      	beq.n	80017a2 <__gedf2+0x76>
 8001762:	45ba      	cmp	sl, r7
 8001764:	d00f      	beq.n	8001786 <__gedf2+0x5a>
 8001766:	2e00      	cmp	r6, #0
 8001768:	d12f      	bne.n	80017ca <__gedf2+0x9e>
 800176a:	4655      	mov	r5, sl
 800176c:	9e01      	ldr	r6, [sp, #4]
 800176e:	4334      	orrs	r4, r6
 8001770:	2d00      	cmp	r5, #0
 8001772:	d127      	bne.n	80017c4 <__gedf2+0x98>
 8001774:	430a      	orrs	r2, r1
 8001776:	d03a      	beq.n	80017ee <__gedf2+0xc2>
 8001778:	2c00      	cmp	r4, #0
 800177a:	d145      	bne.n	8001808 <__gedf2+0xdc>
 800177c:	2800      	cmp	r0, #0
 800177e:	d11a      	bne.n	80017b6 <__gedf2+0x8a>
 8001780:	2001      	movs	r0, #1
 8001782:	4240      	negs	r0, r0
 8001784:	e017      	b.n	80017b6 <__gedf2+0x8a>
 8001786:	4311      	orrs	r1, r2
 8001788:	d13b      	bne.n	8001802 <__gedf2+0xd6>
 800178a:	2e00      	cmp	r6, #0
 800178c:	d102      	bne.n	8001794 <__gedf2+0x68>
 800178e:	9f01      	ldr	r7, [sp, #4]
 8001790:	4327      	orrs	r7, r4
 8001792:	d0f3      	beq.n	800177c <__gedf2+0x50>
 8001794:	4584      	cmp	ip, r0
 8001796:	d109      	bne.n	80017ac <__gedf2+0x80>
 8001798:	4663      	mov	r3, ip
 800179a:	2b00      	cmp	r3, #0
 800179c:	d0f0      	beq.n	8001780 <__gedf2+0x54>
 800179e:	4660      	mov	r0, ip
 80017a0:	e009      	b.n	80017b6 <__gedf2+0x8a>
 80017a2:	9f01      	ldr	r7, [sp, #4]
 80017a4:	4327      	orrs	r7, r4
 80017a6:	d12c      	bne.n	8001802 <__gedf2+0xd6>
 80017a8:	45b2      	cmp	sl, r6
 80017aa:	d024      	beq.n	80017f6 <__gedf2+0xca>
 80017ac:	4663      	mov	r3, ip
 80017ae:	2002      	movs	r0, #2
 80017b0:	3b01      	subs	r3, #1
 80017b2:	4018      	ands	r0, r3
 80017b4:	3801      	subs	r0, #1
 80017b6:	b003      	add	sp, #12
 80017b8:	bcf0      	pop	{r4, r5, r6, r7}
 80017ba:	46bb      	mov	fp, r7
 80017bc:	46b2      	mov	sl, r6
 80017be:	46a9      	mov	r9, r5
 80017c0:	46a0      	mov	r8, r4
 80017c2:	bdf0      	pop	{r4, r5, r6, r7, pc}
 80017c4:	2c00      	cmp	r4, #0
 80017c6:	d0d9      	beq.n	800177c <__gedf2+0x50>
 80017c8:	e7e4      	b.n	8001794 <__gedf2+0x68>
 80017ca:	4654      	mov	r4, sl
 80017cc:	2c00      	cmp	r4, #0
 80017ce:	d0ed      	beq.n	80017ac <__gedf2+0x80>
 80017d0:	4584      	cmp	ip, r0
 80017d2:	d1eb      	bne.n	80017ac <__gedf2+0x80>
 80017d4:	4556      	cmp	r6, sl
 80017d6:	dce9      	bgt.n	80017ac <__gedf2+0x80>
 80017d8:	dbde      	blt.n	8001798 <__gedf2+0x6c>
 80017da:	9b01      	ldr	r3, [sp, #4]
 80017dc:	428b      	cmp	r3, r1
 80017de:	d8e5      	bhi.n	80017ac <__gedf2+0x80>
 80017e0:	d1da      	bne.n	8001798 <__gedf2+0x6c>
 80017e2:	45c8      	cmp	r8, r9
 80017e4:	d8e2      	bhi.n	80017ac <__gedf2+0x80>
 80017e6:	2000      	movs	r0, #0
 80017e8:	45c8      	cmp	r8, r9
 80017ea:	d2e4      	bcs.n	80017b6 <__gedf2+0x8a>
 80017ec:	e7d4      	b.n	8001798 <__gedf2+0x6c>
 80017ee:	2000      	movs	r0, #0
 80017f0:	2c00      	cmp	r4, #0
 80017f2:	d0e0      	beq.n	80017b6 <__gedf2+0x8a>
 80017f4:	e7da      	b.n	80017ac <__gedf2+0x80>
 80017f6:	4311      	orrs	r1, r2
 80017f8:	d103      	bne.n	8001802 <__gedf2+0xd6>
 80017fa:	4584      	cmp	ip, r0
 80017fc:	d1d6      	bne.n	80017ac <__gedf2+0x80>
 80017fe:	2000      	movs	r0, #0
 8001800:	e7d9      	b.n	80017b6 <__gedf2+0x8a>
 8001802:	2002      	movs	r0, #2
 8001804:	4240      	negs	r0, r0
 8001806:	e7d6      	b.n	80017b6 <__gedf2+0x8a>
 8001808:	4584      	cmp	ip, r0
 800180a:	d0e6      	beq.n	80017da <__gedf2+0xae>
 800180c:	e7ce      	b.n	80017ac <__gedf2+0x80>
 800180e:	46c0      	nop			@ (mov r8, r8)
 8001810:	000007ff 	.word	0x000007ff

08001814 <__ledf2>:
 8001814:	b5f0      	push	{r4, r5, r6, r7, lr}
 8001816:	4657      	mov	r7, sl
 8001818:	464e      	mov	r6, r9
 800181a:	4645      	mov	r5, r8
 800181c:	46de      	mov	lr, fp
 800181e:	b5e0      	push	{r5, r6, r7, lr}
 8001820:	000d      	movs	r5, r1
 8001822:	030f      	lsls	r7, r1, #12
 8001824:	0004      	movs	r4, r0
 8001826:	4680      	mov	r8, r0
 8001828:	0fe8      	lsrs	r0, r5, #31
 800182a:	0b39      	lsrs	r1, r7, #12
 800182c:	4684      	mov	ip, r0
 800182e:	b083      	sub	sp, #12
 8001830:	0058      	lsls	r0, r3, #1
 8001832:	4f30      	ldr	r7, [pc, #192]	@ (80018f4 <__ledf2+0xe0>)
 8001834:	0d40      	lsrs	r0, r0, #21
 8001836:	9101      	str	r1, [sp, #4]
 8001838:	031e      	lsls	r6, r3, #12
 800183a:	0069      	lsls	r1, r5, #1
 800183c:	4682      	mov	sl, r0
 800183e:	4691      	mov	r9, r2
 8001840:	0d49      	lsrs	r1, r1, #21
 8001842:	0b36      	lsrs	r6, r6, #12
 8001844:	0fd8      	lsrs	r0, r3, #31
 8001846:	42b9      	cmp	r1, r7
 8001848:	d020      	beq.n	800188c <__ledf2+0x78>
 800184a:	45ba      	cmp	sl, r7
 800184c:	d00f      	beq.n	800186e <__ledf2+0x5a>
 800184e:	2900      	cmp	r1, #0
 8001850:	d12b      	bne.n	80018aa <__ledf2+0x96>
 8001852:	9901      	ldr	r1, [sp, #4]
 8001854:	430c      	orrs	r4, r1
 8001856:	4651      	mov	r1, sl
 8001858:	2900      	cmp	r1, #0
 800185a:	d137      	bne.n	80018cc <__ledf2+0xb8>
 800185c:	4332      	orrs	r2, r6
 800185e:	d038      	beq.n	80018d2 <__ledf2+0xbe>
 8001860:	2c00      	cmp	r4, #0
 8001862:	d144      	bne.n	80018ee <__ledf2+0xda>
 8001864:	2800      	cmp	r0, #0
 8001866:	d119      	bne.n	800189c <__ledf2+0x88>
 8001868:	2001      	movs	r0, #1
 800186a:	4240      	negs	r0, r0
 800186c:	e016      	b.n	800189c <__ledf2+0x88>
 800186e:	4316      	orrs	r6, r2
 8001870:	d113      	bne.n	800189a <__ledf2+0x86>
 8001872:	2900      	cmp	r1, #0
 8001874:	d102      	bne.n	800187c <__ledf2+0x68>
 8001876:	9f01      	ldr	r7, [sp, #4]
 8001878:	4327      	orrs	r7, r4
 800187a:	d0f3      	beq.n	8001864 <__ledf2+0x50>
 800187c:	4584      	cmp	ip, r0
 800187e:	d020      	beq.n	80018c2 <__ledf2+0xae>
 8001880:	4663      	mov	r3, ip
 8001882:	2002      	movs	r0, #2
 8001884:	3b01      	subs	r3, #1
 8001886:	4018      	ands	r0, r3
 8001888:	3801      	subs	r0, #1
 800188a:	e007      	b.n	800189c <__ledf2+0x88>
 800188c:	9f01      	ldr	r7, [sp, #4]
 800188e:	4327      	orrs	r7, r4
 8001890:	d103      	bne.n	800189a <__ledf2+0x86>
 8001892:	458a      	cmp	sl, r1
 8001894:	d1f4      	bne.n	8001880 <__ledf2+0x6c>
 8001896:	4316      	orrs	r6, r2
 8001898:	d01f      	beq.n	80018da <__ledf2+0xc6>
 800189a:	2002      	movs	r0, #2
 800189c:	b003      	add	sp, #12
 800189e:	bcf0      	pop	{r4, r5, r6, r7}
 80018a0:	46bb      	mov	fp, r7
 80018a2:	46b2      	mov	sl, r6
 80018a4:	46a9      	mov	r9, r5
 80018a6:	46a0      	mov	r8, r4
 80018a8:	bdf0      	pop	{r4, r5, r6, r7, pc}
 80018aa:	4654      	mov	r4, sl
 80018ac:	2c00      	cmp	r4, #0
 80018ae:	d0e7      	beq.n	8001880 <__ledf2+0x6c>
 80018b0:	4584      	cmp	ip, r0
 80018b2:	d1e5      	bne.n	8001880 <__ledf2+0x6c>
 80018b4:	4551      	cmp	r1, sl
 80018b6:	dce3      	bgt.n	8001880 <__ledf2+0x6c>
 80018b8:	db03      	blt.n	80018c2 <__ledf2+0xae>
 80018ba:	9b01      	ldr	r3, [sp, #4]
 80018bc:	42b3      	cmp	r3, r6
 80018be:	d8df      	bhi.n	8001880 <__ledf2+0x6c>
 80018c0:	d00f      	beq.n	80018e2 <__ledf2+0xce>
 80018c2:	4663      	mov	r3, ip
 80018c4:	2b00      	cmp	r3, #0
 80018c6:	d0cf      	beq.n	8001868 <__ledf2+0x54>
 80018c8:	4660      	mov	r0, ip
 80018ca:	e7e7      	b.n	800189c <__ledf2+0x88>
 80018cc:	2c00      	cmp	r4, #0
 80018ce:	d0c9      	beq.n	8001864 <__ledf2+0x50>
 80018d0:	e7d4      	b.n	800187c <__ledf2+0x68>
 80018d2:	2000      	movs	r0, #0
 80018d4:	2c00      	cmp	r4, #0
 80018d6:	d0e1      	beq.n	800189c <__ledf2+0x88>
 80018d8:	e7d2      	b.n	8001880 <__ledf2+0x6c>
 80018da:	4584      	cmp	ip, r0
 80018dc:	d1d0      	bne.n	8001880 <__ledf2+0x6c>
 80018de:	2000      	movs	r0, #0
 80018e0:	e7dc      	b.n	800189c <__ledf2+0x88>
 80018e2:	45c8      	cmp	r8, r9
 80018e4:	d8cc      	bhi.n	8001880 <__ledf2+0x6c>
 80018e6:	2000      	movs	r0, #0
 80018e8:	45c8      	cmp	r8, r9
 80018ea:	d2d7      	bcs.n	800189c <__ledf2+0x88>
 80018ec:	e7e9      	b.n	80018c2 <__ledf2+0xae>
 80018ee:	4584      	cmp	ip, r0
 80018f0:	d0e3      	beq.n	80018ba <__ledf2+0xa6>
 80018f2:	e7c5      	b.n	8001880 <__ledf2+0x6c>
 80018f4:	000007ff 	.word	0x000007ff

080018f8 <__aeabi_dmul>:
 80018f8:	b5f0      	push	{r4, r5, r6, r7, lr}
 80018fa:	4657      	mov	r7, sl
 80018fc:	46de      	mov	lr, fp
 80018fe:	464e      	mov	r6, r9
 8001900:	4645      	mov	r5, r8
 8001902:	b5e0      	push	{r5, r6, r7, lr}
 8001904:	001f      	movs	r7, r3
 8001906:	030b      	lsls	r3, r1, #12
 8001908:	0b1b      	lsrs	r3, r3, #12
 800190a:	0016      	movs	r6, r2
 800190c:	469a      	mov	sl, r3
 800190e:	0fca      	lsrs	r2, r1, #31
 8001910:	004b      	lsls	r3, r1, #1
 8001912:	0004      	movs	r4, r0
 8001914:	4693      	mov	fp, r2
 8001916:	b087      	sub	sp, #28
 8001918:	0d5b      	lsrs	r3, r3, #21
 800191a:	d100      	bne.n	800191e <__aeabi_dmul+0x26>
 800191c:	e0d5      	b.n	8001aca <__aeabi_dmul+0x1d2>
 800191e:	4abb      	ldr	r2, [pc, #748]	@ (8001c0c <__aeabi_dmul+0x314>)
 8001920:	4293      	cmp	r3, r2
 8001922:	d100      	bne.n	8001926 <__aeabi_dmul+0x2e>
 8001924:	e0f8      	b.n	8001b18 <__aeabi_dmul+0x220>
 8001926:	4651      	mov	r1, sl
 8001928:	0f42      	lsrs	r2, r0, #29
 800192a:	00c9      	lsls	r1, r1, #3
 800192c:	430a      	orrs	r2, r1
 800192e:	2180      	movs	r1, #128	@ 0x80
 8001930:	0409      	lsls	r1, r1, #16
 8001932:	4311      	orrs	r1, r2
 8001934:	00c2      	lsls	r2, r0, #3
 8001936:	4691      	mov	r9, r2
 8001938:	4ab5      	ldr	r2, [pc, #724]	@ (8001c10 <__aeabi_dmul+0x318>)
 800193a:	468a      	mov	sl, r1
 800193c:	189d      	adds	r5, r3, r2
 800193e:	2300      	movs	r3, #0
 8001940:	4698      	mov	r8, r3
 8001942:	9302      	str	r3, [sp, #8]
 8001944:	033c      	lsls	r4, r7, #12
 8001946:	007b      	lsls	r3, r7, #1
 8001948:	0ffa      	lsrs	r2, r7, #31
 800194a:	0030      	movs	r0, r6
 800194c:	0b24      	lsrs	r4, r4, #12
 800194e:	0d5b      	lsrs	r3, r3, #21
 8001950:	9200      	str	r2, [sp, #0]
 8001952:	d100      	bne.n	8001956 <__aeabi_dmul+0x5e>
 8001954:	e096      	b.n	8001a84 <__aeabi_dmul+0x18c>
 8001956:	4aad      	ldr	r2, [pc, #692]	@ (8001c0c <__aeabi_dmul+0x314>)
 8001958:	4293      	cmp	r3, r2
 800195a:	d031      	beq.n	80019c0 <__aeabi_dmul+0xc8>
 800195c:	0f72      	lsrs	r2, r6, #29
 800195e:	00e4      	lsls	r4, r4, #3
 8001960:	4322      	orrs	r2, r4
 8001962:	2480      	movs	r4, #128	@ 0x80
 8001964:	0424      	lsls	r4, r4, #16
 8001966:	4314      	orrs	r4, r2
 8001968:	4aa9      	ldr	r2, [pc, #676]	@ (8001c10 <__aeabi_dmul+0x318>)
 800196a:	00f0      	lsls	r0, r6, #3
 800196c:	4694      	mov	ip, r2
 800196e:	4463      	add	r3, ip
 8001970:	195b      	adds	r3, r3, r5
 8001972:	1c5a      	adds	r2, r3, #1
 8001974:	9201      	str	r2, [sp, #4]
 8001976:	4642      	mov	r2, r8
 8001978:	2600      	movs	r6, #0
 800197a:	2a0a      	cmp	r2, #10
 800197c:	dc42      	bgt.n	8001a04 <__aeabi_dmul+0x10c>
 800197e:	465a      	mov	r2, fp
 8001980:	9900      	ldr	r1, [sp, #0]
 8001982:	404a      	eors	r2, r1
 8001984:	4693      	mov	fp, r2
 8001986:	4642      	mov	r2, r8
 8001988:	2a02      	cmp	r2, #2
 800198a:	dc32      	bgt.n	80019f2 <__aeabi_dmul+0xfa>
 800198c:	3a01      	subs	r2, #1
 800198e:	2a01      	cmp	r2, #1
 8001990:	d900      	bls.n	8001994 <__aeabi_dmul+0x9c>
 8001992:	e149      	b.n	8001c28 <__aeabi_dmul+0x330>
 8001994:	2e02      	cmp	r6, #2
 8001996:	d100      	bne.n	800199a <__aeabi_dmul+0xa2>
 8001998:	e0ca      	b.n	8001b30 <__aeabi_dmul+0x238>
 800199a:	2e01      	cmp	r6, #1
 800199c:	d13d      	bne.n	8001a1a <__aeabi_dmul+0x122>
 800199e:	2300      	movs	r3, #0
 80019a0:	2400      	movs	r4, #0
 80019a2:	2200      	movs	r2, #0
 80019a4:	0010      	movs	r0, r2
 80019a6:	465a      	mov	r2, fp
 80019a8:	051b      	lsls	r3, r3, #20
 80019aa:	4323      	orrs	r3, r4
 80019ac:	07d2      	lsls	r2, r2, #31
 80019ae:	4313      	orrs	r3, r2
 80019b0:	0019      	movs	r1, r3
 80019b2:	b007      	add	sp, #28
 80019b4:	bcf0      	pop	{r4, r5, r6, r7}
 80019b6:	46bb      	mov	fp, r7
 80019b8:	46b2      	mov	sl, r6
 80019ba:	46a9      	mov	r9, r5
 80019bc:	46a0      	mov	r8, r4
 80019be:	bdf0      	pop	{r4, r5, r6, r7, pc}
 80019c0:	4b92      	ldr	r3, [pc, #584]	@ (8001c0c <__aeabi_dmul+0x314>)
 80019c2:	4326      	orrs	r6, r4
 80019c4:	18eb      	adds	r3, r5, r3
 80019c6:	2e00      	cmp	r6, #0
 80019c8:	d100      	bne.n	80019cc <__aeabi_dmul+0xd4>
 80019ca:	e0bb      	b.n	8001b44 <__aeabi_dmul+0x24c>
 80019cc:	2203      	movs	r2, #3
 80019ce:	4641      	mov	r1, r8
 80019d0:	4311      	orrs	r1, r2
 80019d2:	465a      	mov	r2, fp
 80019d4:	4688      	mov	r8, r1
 80019d6:	9900      	ldr	r1, [sp, #0]
 80019d8:	404a      	eors	r2, r1
 80019da:	2180      	movs	r1, #128	@ 0x80
 80019dc:	0109      	lsls	r1, r1, #4
 80019de:	468c      	mov	ip, r1
 80019e0:	0029      	movs	r1, r5
 80019e2:	4461      	add	r1, ip
 80019e4:	9101      	str	r1, [sp, #4]
 80019e6:	4641      	mov	r1, r8
 80019e8:	290a      	cmp	r1, #10
 80019ea:	dd00      	ble.n	80019ee <__aeabi_dmul+0xf6>
 80019ec:	e233      	b.n	8001e56 <__aeabi_dmul+0x55e>
 80019ee:	4693      	mov	fp, r2
 80019f0:	2603      	movs	r6, #3
 80019f2:	4642      	mov	r2, r8
 80019f4:	2701      	movs	r7, #1
 80019f6:	4097      	lsls	r7, r2
 80019f8:	21a6      	movs	r1, #166	@ 0xa6
 80019fa:	003a      	movs	r2, r7
 80019fc:	00c9      	lsls	r1, r1, #3
 80019fe:	400a      	ands	r2, r1
 8001a00:	420f      	tst	r7, r1
 8001a02:	d031      	beq.n	8001a68 <__aeabi_dmul+0x170>
 8001a04:	9e02      	ldr	r6, [sp, #8]
 8001a06:	2e02      	cmp	r6, #2
 8001a08:	d100      	bne.n	8001a0c <__aeabi_dmul+0x114>
 8001a0a:	e235      	b.n	8001e78 <__aeabi_dmul+0x580>
 8001a0c:	2e03      	cmp	r6, #3
 8001a0e:	d100      	bne.n	8001a12 <__aeabi_dmul+0x11a>
 8001a10:	e1d2      	b.n	8001db8 <__aeabi_dmul+0x4c0>
 8001a12:	4654      	mov	r4, sl
 8001a14:	4648      	mov	r0, r9
 8001a16:	2e01      	cmp	r6, #1
 8001a18:	d0c1      	beq.n	800199e <__aeabi_dmul+0xa6>
 8001a1a:	9a01      	ldr	r2, [sp, #4]
 8001a1c:	4b7d      	ldr	r3, [pc, #500]	@ (8001c14 <__aeabi_dmul+0x31c>)
 8001a1e:	4694      	mov	ip, r2
 8001a20:	4463      	add	r3, ip
 8001a22:	2b00      	cmp	r3, #0
 8001a24:	dc00      	bgt.n	8001a28 <__aeabi_dmul+0x130>
 8001a26:	e0c0      	b.n	8001baa <__aeabi_dmul+0x2b2>
 8001a28:	0742      	lsls	r2, r0, #29
 8001a2a:	d009      	beq.n	8001a40 <__aeabi_dmul+0x148>
 8001a2c:	220f      	movs	r2, #15
 8001a2e:	4002      	ands	r2, r0
 8001a30:	2a04      	cmp	r2, #4
 8001a32:	d005      	beq.n	8001a40 <__aeabi_dmul+0x148>
 8001a34:	1d02      	adds	r2, r0, #4
 8001a36:	4282      	cmp	r2, r0
 8001a38:	4180      	sbcs	r0, r0
 8001a3a:	4240      	negs	r0, r0
 8001a3c:	1824      	adds	r4, r4, r0
 8001a3e:	0010      	movs	r0, r2
 8001a40:	01e2      	lsls	r2, r4, #7
 8001a42:	d506      	bpl.n	8001a52 <__aeabi_dmul+0x15a>
 8001a44:	4b74      	ldr	r3, [pc, #464]	@ (8001c18 <__aeabi_dmul+0x320>)
 8001a46:	9a01      	ldr	r2, [sp, #4]
 8001a48:	401c      	ands	r4, r3
 8001a4a:	2380      	movs	r3, #128	@ 0x80
 8001a4c:	4694      	mov	ip, r2
 8001a4e:	00db      	lsls	r3, r3, #3
 8001a50:	4463      	add	r3, ip
 8001a52:	4a72      	ldr	r2, [pc, #456]	@ (8001c1c <__aeabi_dmul+0x324>)
 8001a54:	4293      	cmp	r3, r2
 8001a56:	dc6b      	bgt.n	8001b30 <__aeabi_dmul+0x238>
 8001a58:	0762      	lsls	r2, r4, #29
 8001a5a:	08c0      	lsrs	r0, r0, #3
 8001a5c:	0264      	lsls	r4, r4, #9
 8001a5e:	055b      	lsls	r3, r3, #21
 8001a60:	4302      	orrs	r2, r0
 8001a62:	0b24      	lsrs	r4, r4, #12
 8001a64:	0d5b      	lsrs	r3, r3, #21
 8001a66:	e79d      	b.n	80019a4 <__aeabi_dmul+0xac>
 8001a68:	2190      	movs	r1, #144	@ 0x90
 8001a6a:	0089      	lsls	r1, r1, #2
 8001a6c:	420f      	tst	r7, r1
 8001a6e:	d163      	bne.n	8001b38 <__aeabi_dmul+0x240>
 8001a70:	2288      	movs	r2, #136	@ 0x88
 8001a72:	423a      	tst	r2, r7
 8001a74:	d100      	bne.n	8001a78 <__aeabi_dmul+0x180>
 8001a76:	e0d7      	b.n	8001c28 <__aeabi_dmul+0x330>
 8001a78:	9b00      	ldr	r3, [sp, #0]
 8001a7a:	46a2      	mov	sl, r4
 8001a7c:	469b      	mov	fp, r3
 8001a7e:	4681      	mov	r9, r0
 8001a80:	9602      	str	r6, [sp, #8]
 8001a82:	e7bf      	b.n	8001a04 <__aeabi_dmul+0x10c>
 8001a84:	0023      	movs	r3, r4
 8001a86:	4333      	orrs	r3, r6
 8001a88:	d100      	bne.n	8001a8c <__aeabi_dmul+0x194>
 8001a8a:	e07f      	b.n	8001b8c <__aeabi_dmul+0x294>
 8001a8c:	2c00      	cmp	r4, #0
 8001a8e:	d100      	bne.n	8001a92 <__aeabi_dmul+0x19a>
 8001a90:	e1ad      	b.n	8001dee <__aeabi_dmul+0x4f6>
 8001a92:	0020      	movs	r0, r4
 8001a94:	f000 fe68 	bl	8002768 <__clzsi2>
 8001a98:	0002      	movs	r2, r0
 8001a9a:	0003      	movs	r3, r0
 8001a9c:	3a0b      	subs	r2, #11
 8001a9e:	201d      	movs	r0, #29
 8001aa0:	0019      	movs	r1, r3
 8001aa2:	1a82      	subs	r2, r0, r2
 8001aa4:	0030      	movs	r0, r6
 8001aa6:	3908      	subs	r1, #8
 8001aa8:	40d0      	lsrs	r0, r2
 8001aaa:	408c      	lsls	r4, r1
 8001aac:	4304      	orrs	r4, r0
 8001aae:	0030      	movs	r0, r6
 8001ab0:	4088      	lsls	r0, r1
 8001ab2:	4a5b      	ldr	r2, [pc, #364]	@ (8001c20 <__aeabi_dmul+0x328>)
 8001ab4:	1aeb      	subs	r3, r5, r3
 8001ab6:	4694      	mov	ip, r2
 8001ab8:	4463      	add	r3, ip
 8001aba:	1c5a      	adds	r2, r3, #1
 8001abc:	9201      	str	r2, [sp, #4]
 8001abe:	4642      	mov	r2, r8
 8001ac0:	2600      	movs	r6, #0
 8001ac2:	2a0a      	cmp	r2, #10
 8001ac4:	dc00      	bgt.n	8001ac8 <__aeabi_dmul+0x1d0>
 8001ac6:	e75a      	b.n	800197e <__aeabi_dmul+0x86>
 8001ac8:	e79c      	b.n	8001a04 <__aeabi_dmul+0x10c>
 8001aca:	4653      	mov	r3, sl
 8001acc:	4303      	orrs	r3, r0
 8001ace:	4699      	mov	r9, r3
 8001ad0:	d054      	beq.n	8001b7c <__aeabi_dmul+0x284>
 8001ad2:	4653      	mov	r3, sl
 8001ad4:	2b00      	cmp	r3, #0
 8001ad6:	d100      	bne.n	8001ada <__aeabi_dmul+0x1e2>
 8001ad8:	e177      	b.n	8001dca <__aeabi_dmul+0x4d2>
 8001ada:	4650      	mov	r0, sl
 8001adc:	f000 fe44 	bl	8002768 <__clzsi2>
 8001ae0:	230b      	movs	r3, #11
 8001ae2:	425b      	negs	r3, r3
 8001ae4:	469c      	mov	ip, r3
 8001ae6:	0002      	movs	r2, r0
 8001ae8:	4484      	add	ip, r0
 8001aea:	0011      	movs	r1, r2
 8001aec:	4650      	mov	r0, sl
 8001aee:	3908      	subs	r1, #8
 8001af0:	4088      	lsls	r0, r1
 8001af2:	231d      	movs	r3, #29
 8001af4:	4680      	mov	r8, r0
 8001af6:	4660      	mov	r0, ip
 8001af8:	1a1b      	subs	r3, r3, r0
 8001afa:	0020      	movs	r0, r4
 8001afc:	40d8      	lsrs	r0, r3
 8001afe:	0003      	movs	r3, r0
 8001b00:	4640      	mov	r0, r8
 8001b02:	4303      	orrs	r3, r0
 8001b04:	469a      	mov	sl, r3
 8001b06:	0023      	movs	r3, r4
 8001b08:	408b      	lsls	r3, r1
 8001b0a:	4699      	mov	r9, r3
 8001b0c:	2300      	movs	r3, #0
 8001b0e:	4d44      	ldr	r5, [pc, #272]	@ (8001c20 <__aeabi_dmul+0x328>)
 8001b10:	4698      	mov	r8, r3
 8001b12:	1aad      	subs	r5, r5, r2
 8001b14:	9302      	str	r3, [sp, #8]
 8001b16:	e715      	b.n	8001944 <__aeabi_dmul+0x4c>
 8001b18:	4652      	mov	r2, sl
 8001b1a:	4302      	orrs	r2, r0
 8001b1c:	4691      	mov	r9, r2
 8001b1e:	d126      	bne.n	8001b6e <__aeabi_dmul+0x276>
 8001b20:	2200      	movs	r2, #0
 8001b22:	001d      	movs	r5, r3
 8001b24:	2302      	movs	r3, #2
 8001b26:	4692      	mov	sl, r2
 8001b28:	3208      	adds	r2, #8
 8001b2a:	4690      	mov	r8, r2
 8001b2c:	9302      	str	r3, [sp, #8]
 8001b2e:	e709      	b.n	8001944 <__aeabi_dmul+0x4c>
 8001b30:	2400      	movs	r4, #0
 8001b32:	2200      	movs	r2, #0
 8001b34:	4b35      	ldr	r3, [pc, #212]	@ (8001c0c <__aeabi_dmul+0x314>)
 8001b36:	e735      	b.n	80019a4 <__aeabi_dmul+0xac>
 8001b38:	2300      	movs	r3, #0
 8001b3a:	2480      	movs	r4, #128	@ 0x80
 8001b3c:	469b      	mov	fp, r3
 8001b3e:	0324      	lsls	r4, r4, #12
 8001b40:	4b32      	ldr	r3, [pc, #200]	@ (8001c0c <__aeabi_dmul+0x314>)
 8001b42:	e72f      	b.n	80019a4 <__aeabi_dmul+0xac>
 8001b44:	2202      	movs	r2, #2
 8001b46:	4641      	mov	r1, r8
 8001b48:	4311      	orrs	r1, r2
 8001b4a:	2280      	movs	r2, #128	@ 0x80
 8001b4c:	0112      	lsls	r2, r2, #4
 8001b4e:	4694      	mov	ip, r2
 8001b50:	002a      	movs	r2, r5
 8001b52:	4462      	add	r2, ip
 8001b54:	4688      	mov	r8, r1
 8001b56:	9201      	str	r2, [sp, #4]
 8001b58:	290a      	cmp	r1, #10
 8001b5a:	dd00      	ble.n	8001b5e <__aeabi_dmul+0x266>
 8001b5c:	e752      	b.n	8001a04 <__aeabi_dmul+0x10c>
 8001b5e:	465a      	mov	r2, fp
 8001b60:	2000      	movs	r0, #0
 8001b62:	9900      	ldr	r1, [sp, #0]
 8001b64:	0004      	movs	r4, r0
 8001b66:	404a      	eors	r2, r1
 8001b68:	4693      	mov	fp, r2
 8001b6a:	2602      	movs	r6, #2
 8001b6c:	e70b      	b.n	8001986 <__aeabi_dmul+0x8e>
 8001b6e:	220c      	movs	r2, #12
 8001b70:	001d      	movs	r5, r3
 8001b72:	2303      	movs	r3, #3
 8001b74:	4681      	mov	r9, r0
 8001b76:	4690      	mov	r8, r2
 8001b78:	9302      	str	r3, [sp, #8]
 8001b7a:	e6e3      	b.n	8001944 <__aeabi_dmul+0x4c>
 8001b7c:	2300      	movs	r3, #0
 8001b7e:	469a      	mov	sl, r3
 8001b80:	3304      	adds	r3, #4
 8001b82:	4698      	mov	r8, r3
 8001b84:	3b03      	subs	r3, #3
 8001b86:	2500      	movs	r5, #0
 8001b88:	9302      	str	r3, [sp, #8]
 8001b8a:	e6db      	b.n	8001944 <__aeabi_dmul+0x4c>
 8001b8c:	4642      	mov	r2, r8
 8001b8e:	3301      	adds	r3, #1
 8001b90:	431a      	orrs	r2, r3
 8001b92:	002b      	movs	r3, r5
 8001b94:	4690      	mov	r8, r2
 8001b96:	1c5a      	adds	r2, r3, #1
 8001b98:	9201      	str	r2, [sp, #4]
 8001b9a:	4642      	mov	r2, r8
 8001b9c:	2400      	movs	r4, #0
 8001b9e:	2000      	movs	r0, #0
 8001ba0:	2601      	movs	r6, #1
 8001ba2:	2a0a      	cmp	r2, #10
 8001ba4:	dc00      	bgt.n	8001ba8 <__aeabi_dmul+0x2b0>
 8001ba6:	e6ea      	b.n	800197e <__aeabi_dmul+0x86>
 8001ba8:	e72c      	b.n	8001a04 <__aeabi_dmul+0x10c>
 8001baa:	2201      	movs	r2, #1
 8001bac:	1ad2      	subs	r2, r2, r3
 8001bae:	2a38      	cmp	r2, #56	@ 0x38
 8001bb0:	dd00      	ble.n	8001bb4 <__aeabi_dmul+0x2bc>
 8001bb2:	e6f4      	b.n	800199e <__aeabi_dmul+0xa6>
 8001bb4:	2a1f      	cmp	r2, #31
 8001bb6:	dc00      	bgt.n	8001bba <__aeabi_dmul+0x2c2>
 8001bb8:	e12a      	b.n	8001e10 <__aeabi_dmul+0x518>
 8001bba:	211f      	movs	r1, #31
 8001bbc:	4249      	negs	r1, r1
 8001bbe:	1acb      	subs	r3, r1, r3
 8001bc0:	0021      	movs	r1, r4
 8001bc2:	40d9      	lsrs	r1, r3
 8001bc4:	000b      	movs	r3, r1
 8001bc6:	2a20      	cmp	r2, #32
 8001bc8:	d005      	beq.n	8001bd6 <__aeabi_dmul+0x2de>
 8001bca:	4a16      	ldr	r2, [pc, #88]	@ (8001c24 <__aeabi_dmul+0x32c>)
 8001bcc:	9d01      	ldr	r5, [sp, #4]
 8001bce:	4694      	mov	ip, r2
 8001bd0:	4465      	add	r5, ip
 8001bd2:	40ac      	lsls	r4, r5
 8001bd4:	4320      	orrs	r0, r4
 8001bd6:	1e42      	subs	r2, r0, #1
 8001bd8:	4190      	sbcs	r0, r2
 8001bda:	4318      	orrs	r0, r3
 8001bdc:	2307      	movs	r3, #7
 8001bde:	0019      	movs	r1, r3
 8001be0:	2400      	movs	r4, #0
 8001be2:	4001      	ands	r1, r0
 8001be4:	4203      	tst	r3, r0
 8001be6:	d00c      	beq.n	8001c02 <__aeabi_dmul+0x30a>
 8001be8:	230f      	movs	r3, #15
 8001bea:	4003      	ands	r3, r0
 8001bec:	2b04      	cmp	r3, #4
 8001bee:	d100      	bne.n	8001bf2 <__aeabi_dmul+0x2fa>
 8001bf0:	e140      	b.n	8001e74 <__aeabi_dmul+0x57c>
 8001bf2:	1d03      	adds	r3, r0, #4
 8001bf4:	4283      	cmp	r3, r0
 8001bf6:	41a4      	sbcs	r4, r4
 8001bf8:	0018      	movs	r0, r3
 8001bfa:	4264      	negs	r4, r4
 8001bfc:	0761      	lsls	r1, r4, #29
 8001bfe:	0264      	lsls	r4, r4, #9
 8001c00:	0b24      	lsrs	r4, r4, #12
 8001c02:	08c2      	lsrs	r2, r0, #3
 8001c04:	2300      	movs	r3, #0
 8001c06:	430a      	orrs	r2, r1
 8001c08:	e6cc      	b.n	80019a4 <__aeabi_dmul+0xac>
 8001c0a:	46c0      	nop			@ (mov r8, r8)
 8001c0c:	000007ff 	.word	0x000007ff
 8001c10:	fffffc01 	.word	0xfffffc01
 8001c14:	000003ff 	.word	0x000003ff
 8001c18:	feffffff 	.word	0xfeffffff
 8001c1c:	000007fe 	.word	0x000007fe
 8001c20:	fffffc0d 	.word	0xfffffc0d
 8001c24:	0000043e 	.word	0x0000043e
 8001c28:	4649      	mov	r1, r9
 8001c2a:	464a      	mov	r2, r9
 8001c2c:	0409      	lsls	r1, r1, #16
 8001c2e:	0c09      	lsrs	r1, r1, #16
 8001c30:	000d      	movs	r5, r1
 8001c32:	0c16      	lsrs	r6, r2, #16
 8001c34:	0c02      	lsrs	r2, r0, #16
 8001c36:	0400      	lsls	r0, r0, #16
 8001c38:	0c00      	lsrs	r0, r0, #16
 8001c3a:	4345      	muls	r5, r0
 8001c3c:	46ac      	mov	ip, r5
 8001c3e:	0005      	movs	r5, r0
 8001c40:	4375      	muls	r5, r6
 8001c42:	46a8      	mov	r8, r5
 8001c44:	0015      	movs	r5, r2
 8001c46:	000f      	movs	r7, r1
 8001c48:	4375      	muls	r5, r6
 8001c4a:	9200      	str	r2, [sp, #0]
 8001c4c:	9502      	str	r5, [sp, #8]
 8001c4e:	002a      	movs	r2, r5
 8001c50:	9d00      	ldr	r5, [sp, #0]
 8001c52:	436f      	muls	r7, r5
 8001c54:	4665      	mov	r5, ip
 8001c56:	0c2d      	lsrs	r5, r5, #16
 8001c58:	46a9      	mov	r9, r5
 8001c5a:	4447      	add	r7, r8
 8001c5c:	444f      	add	r7, r9
 8001c5e:	45b8      	cmp	r8, r7
 8001c60:	d905      	bls.n	8001c6e <__aeabi_dmul+0x376>
 8001c62:	0015      	movs	r5, r2
 8001c64:	2280      	movs	r2, #128	@ 0x80
 8001c66:	0252      	lsls	r2, r2, #9
 8001c68:	4690      	mov	r8, r2
 8001c6a:	4445      	add	r5, r8
 8001c6c:	9502      	str	r5, [sp, #8]
 8001c6e:	0c3d      	lsrs	r5, r7, #16
 8001c70:	9503      	str	r5, [sp, #12]
 8001c72:	4665      	mov	r5, ip
 8001c74:	042d      	lsls	r5, r5, #16
 8001c76:	043f      	lsls	r7, r7, #16
 8001c78:	0c2d      	lsrs	r5, r5, #16
 8001c7a:	46ac      	mov	ip, r5
 8001c7c:	003d      	movs	r5, r7
 8001c7e:	4465      	add	r5, ip
 8001c80:	9504      	str	r5, [sp, #16]
 8001c82:	0c25      	lsrs	r5, r4, #16
 8001c84:	0424      	lsls	r4, r4, #16
 8001c86:	0c24      	lsrs	r4, r4, #16
 8001c88:	46ac      	mov	ip, r5
 8001c8a:	0025      	movs	r5, r4
 8001c8c:	4375      	muls	r5, r6
 8001c8e:	46a8      	mov	r8, r5
 8001c90:	4665      	mov	r5, ip
 8001c92:	000f      	movs	r7, r1
 8001c94:	4369      	muls	r1, r5
 8001c96:	4441      	add	r1, r8
 8001c98:	4689      	mov	r9, r1
 8001c9a:	4367      	muls	r7, r4
 8001c9c:	0c39      	lsrs	r1, r7, #16
 8001c9e:	4449      	add	r1, r9
 8001ca0:	436e      	muls	r6, r5
 8001ca2:	4588      	cmp	r8, r1
 8001ca4:	d903      	bls.n	8001cae <__aeabi_dmul+0x3b6>
 8001ca6:	2280      	movs	r2, #128	@ 0x80
 8001ca8:	0252      	lsls	r2, r2, #9
 8001caa:	4690      	mov	r8, r2
 8001cac:	4446      	add	r6, r8
 8001cae:	0c0d      	lsrs	r5, r1, #16
 8001cb0:	46a8      	mov	r8, r5
 8001cb2:	0035      	movs	r5, r6
 8001cb4:	4445      	add	r5, r8
 8001cb6:	9505      	str	r5, [sp, #20]
 8001cb8:	9d03      	ldr	r5, [sp, #12]
 8001cba:	043f      	lsls	r7, r7, #16
 8001cbc:	46a8      	mov	r8, r5
 8001cbe:	0c3f      	lsrs	r7, r7, #16
 8001cc0:	0409      	lsls	r1, r1, #16
 8001cc2:	19c9      	adds	r1, r1, r7
 8001cc4:	4488      	add	r8, r1
 8001cc6:	4645      	mov	r5, r8
 8001cc8:	9503      	str	r5, [sp, #12]
 8001cca:	4655      	mov	r5, sl
 8001ccc:	042e      	lsls	r6, r5, #16
 8001cce:	0c36      	lsrs	r6, r6, #16
 8001cd0:	0c2f      	lsrs	r7, r5, #16
 8001cd2:	0035      	movs	r5, r6
 8001cd4:	4345      	muls	r5, r0
 8001cd6:	4378      	muls	r0, r7
 8001cd8:	4681      	mov	r9, r0
 8001cda:	0038      	movs	r0, r7
 8001cdc:	46a8      	mov	r8, r5
 8001cde:	0c2d      	lsrs	r5, r5, #16
 8001ce0:	46aa      	mov	sl, r5
 8001ce2:	9a00      	ldr	r2, [sp, #0]
 8001ce4:	4350      	muls	r0, r2
 8001ce6:	4372      	muls	r2, r6
 8001ce8:	444a      	add	r2, r9
 8001cea:	4452      	add	r2, sl
 8001cec:	4591      	cmp	r9, r2
 8001cee:	d903      	bls.n	8001cf8 <__aeabi_dmul+0x400>
 8001cf0:	2580      	movs	r5, #128	@ 0x80
 8001cf2:	026d      	lsls	r5, r5, #9
 8001cf4:	46a9      	mov	r9, r5
 8001cf6:	4448      	add	r0, r9
 8001cf8:	0c15      	lsrs	r5, r2, #16
 8001cfa:	46a9      	mov	r9, r5
 8001cfc:	4645      	mov	r5, r8
 8001cfe:	042d      	lsls	r5, r5, #16
 8001d00:	0c2d      	lsrs	r5, r5, #16
 8001d02:	46a8      	mov	r8, r5
 8001d04:	4665      	mov	r5, ip
 8001d06:	437d      	muls	r5, r7
 8001d08:	0412      	lsls	r2, r2, #16
 8001d0a:	4448      	add	r0, r9
 8001d0c:	4490      	add	r8, r2
 8001d0e:	46a9      	mov	r9, r5
 8001d10:	0032      	movs	r2, r6
 8001d12:	4665      	mov	r5, ip
 8001d14:	4362      	muls	r2, r4
 8001d16:	436e      	muls	r6, r5
 8001d18:	437c      	muls	r4, r7
 8001d1a:	0c17      	lsrs	r7, r2, #16
 8001d1c:	1936      	adds	r6, r6, r4
 8001d1e:	19bf      	adds	r7, r7, r6
 8001d20:	42bc      	cmp	r4, r7
 8001d22:	d903      	bls.n	8001d2c <__aeabi_dmul+0x434>
 8001d24:	2480      	movs	r4, #128	@ 0x80
 8001d26:	0264      	lsls	r4, r4, #9
 8001d28:	46a4      	mov	ip, r4
 8001d2a:	44e1      	add	r9, ip
 8001d2c:	9c02      	ldr	r4, [sp, #8]
 8001d2e:	9e03      	ldr	r6, [sp, #12]
 8001d30:	46a4      	mov	ip, r4
 8001d32:	9d05      	ldr	r5, [sp, #20]
 8001d34:	4466      	add	r6, ip
 8001d36:	428e      	cmp	r6, r1
 8001d38:	4189      	sbcs	r1, r1
 8001d3a:	46ac      	mov	ip, r5
 8001d3c:	0412      	lsls	r2, r2, #16
 8001d3e:	043c      	lsls	r4, r7, #16
 8001d40:	0c12      	lsrs	r2, r2, #16
 8001d42:	18a2      	adds	r2, r4, r2
 8001d44:	4462      	add	r2, ip
 8001d46:	4249      	negs	r1, r1
 8001d48:	1854      	adds	r4, r2, r1
 8001d4a:	4446      	add	r6, r8
 8001d4c:	46a4      	mov	ip, r4
 8001d4e:	4546      	cmp	r6, r8
 8001d50:	41a4      	sbcs	r4, r4
 8001d52:	4682      	mov	sl, r0
 8001d54:	4264      	negs	r4, r4
 8001d56:	46a0      	mov	r8, r4
 8001d58:	42aa      	cmp	r2, r5
 8001d5a:	4192      	sbcs	r2, r2
 8001d5c:	458c      	cmp	ip, r1
 8001d5e:	4189      	sbcs	r1, r1
 8001d60:	44e2      	add	sl, ip
 8001d62:	44d0      	add	r8, sl
 8001d64:	4249      	negs	r1, r1
 8001d66:	4252      	negs	r2, r2
 8001d68:	430a      	orrs	r2, r1
 8001d6a:	45a0      	cmp	r8, r4
 8001d6c:	41a4      	sbcs	r4, r4
 8001d6e:	4582      	cmp	sl, r0
 8001d70:	4189      	sbcs	r1, r1
 8001d72:	4264      	negs	r4, r4
 8001d74:	4249      	negs	r1, r1
 8001d76:	430c      	orrs	r4, r1
 8001d78:	4641      	mov	r1, r8
 8001d7a:	0c3f      	lsrs	r7, r7, #16
 8001d7c:	19d2      	adds	r2, r2, r7
 8001d7e:	1912      	adds	r2, r2, r4
 8001d80:	0dcc      	lsrs	r4, r1, #23
 8001d82:	9904      	ldr	r1, [sp, #16]
 8001d84:	0270      	lsls	r0, r6, #9
 8001d86:	4308      	orrs	r0, r1
 8001d88:	1e41      	subs	r1, r0, #1
 8001d8a:	4188      	sbcs	r0, r1
 8001d8c:	4641      	mov	r1, r8
 8001d8e:	444a      	add	r2, r9
 8001d90:	0df6      	lsrs	r6, r6, #23
 8001d92:	0252      	lsls	r2, r2, #9
 8001d94:	4330      	orrs	r0, r6
 8001d96:	0249      	lsls	r1, r1, #9
 8001d98:	4314      	orrs	r4, r2
 8001d9a:	4308      	orrs	r0, r1
 8001d9c:	01d2      	lsls	r2, r2, #7
 8001d9e:	d535      	bpl.n	8001e0c <__aeabi_dmul+0x514>
 8001da0:	2201      	movs	r2, #1
 8001da2:	0843      	lsrs	r3, r0, #1
 8001da4:	4002      	ands	r2, r0
 8001da6:	4313      	orrs	r3, r2
 8001da8:	07e0      	lsls	r0, r4, #31
 8001daa:	4318      	orrs	r0, r3
 8001dac:	0864      	lsrs	r4, r4, #1
 8001dae:	e634      	b.n	8001a1a <__aeabi_dmul+0x122>
 8001db0:	9b00      	ldr	r3, [sp, #0]
 8001db2:	46a2      	mov	sl, r4
 8001db4:	469b      	mov	fp, r3
 8001db6:	4681      	mov	r9, r0
 8001db8:	2480      	movs	r4, #128	@ 0x80
 8001dba:	4653      	mov	r3, sl
 8001dbc:	0324      	lsls	r4, r4, #12
 8001dbe:	431c      	orrs	r4, r3
 8001dc0:	0324      	lsls	r4, r4, #12
 8001dc2:	464a      	mov	r2, r9
 8001dc4:	4b2e      	ldr	r3, [pc, #184]	@ (8001e80 <__aeabi_dmul+0x588>)
 8001dc6:	0b24      	lsrs	r4, r4, #12
 8001dc8:	e5ec      	b.n	80019a4 <__aeabi_dmul+0xac>
 8001dca:	f000 fccd 	bl	8002768 <__clzsi2>
 8001dce:	2315      	movs	r3, #21
 8001dd0:	469c      	mov	ip, r3
 8001dd2:	4484      	add	ip, r0
 8001dd4:	0002      	movs	r2, r0
 8001dd6:	4663      	mov	r3, ip
 8001dd8:	3220      	adds	r2, #32
 8001dda:	2b1c      	cmp	r3, #28
 8001ddc:	dc00      	bgt.n	8001de0 <__aeabi_dmul+0x4e8>
 8001dde:	e684      	b.n	8001aea <__aeabi_dmul+0x1f2>
 8001de0:	2300      	movs	r3, #0
 8001de2:	4699      	mov	r9, r3
 8001de4:	0023      	movs	r3, r4
 8001de6:	3808      	subs	r0, #8
 8001de8:	4083      	lsls	r3, r0
 8001dea:	469a      	mov	sl, r3
 8001dec:	e68e      	b.n	8001b0c <__aeabi_dmul+0x214>
 8001dee:	f000 fcbb 	bl	8002768 <__clzsi2>
 8001df2:	0002      	movs	r2, r0
 8001df4:	0003      	movs	r3, r0
 8001df6:	3215      	adds	r2, #21
 8001df8:	3320      	adds	r3, #32
 8001dfa:	2a1c      	cmp	r2, #28
 8001dfc:	dc00      	bgt.n	8001e00 <__aeabi_dmul+0x508>
 8001dfe:	e64e      	b.n	8001a9e <__aeabi_dmul+0x1a6>
 8001e00:	0002      	movs	r2, r0
 8001e02:	0034      	movs	r4, r6
 8001e04:	3a08      	subs	r2, #8
 8001e06:	2000      	movs	r0, #0
 8001e08:	4094      	lsls	r4, r2
 8001e0a:	e652      	b.n	8001ab2 <__aeabi_dmul+0x1ba>
 8001e0c:	9301      	str	r3, [sp, #4]
 8001e0e:	e604      	b.n	8001a1a <__aeabi_dmul+0x122>
 8001e10:	4b1c      	ldr	r3, [pc, #112]	@ (8001e84 <__aeabi_dmul+0x58c>)
 8001e12:	0021      	movs	r1, r4
 8001e14:	469c      	mov	ip, r3
 8001e16:	0003      	movs	r3, r0
 8001e18:	9d01      	ldr	r5, [sp, #4]
 8001e1a:	40d3      	lsrs	r3, r2
 8001e1c:	4465      	add	r5, ip
 8001e1e:	40a9      	lsls	r1, r5
 8001e20:	4319      	orrs	r1, r3
 8001e22:	0003      	movs	r3, r0
 8001e24:	40ab      	lsls	r3, r5
 8001e26:	1e58      	subs	r0, r3, #1
 8001e28:	4183      	sbcs	r3, r0
 8001e2a:	4319      	orrs	r1, r3
 8001e2c:	0008      	movs	r0, r1
 8001e2e:	40d4      	lsrs	r4, r2
 8001e30:	074b      	lsls	r3, r1, #29
 8001e32:	d009      	beq.n	8001e48 <__aeabi_dmul+0x550>
 8001e34:	230f      	movs	r3, #15
 8001e36:	400b      	ands	r3, r1
 8001e38:	2b04      	cmp	r3, #4
 8001e3a:	d005      	beq.n	8001e48 <__aeabi_dmul+0x550>
 8001e3c:	1d0b      	adds	r3, r1, #4
 8001e3e:	428b      	cmp	r3, r1
 8001e40:	4180      	sbcs	r0, r0
 8001e42:	4240      	negs	r0, r0
 8001e44:	1824      	adds	r4, r4, r0
 8001e46:	0018      	movs	r0, r3
 8001e48:	0223      	lsls	r3, r4, #8
 8001e4a:	d400      	bmi.n	8001e4e <__aeabi_dmul+0x556>
 8001e4c:	e6d6      	b.n	8001bfc <__aeabi_dmul+0x304>
 8001e4e:	2301      	movs	r3, #1
 8001e50:	2400      	movs	r4, #0
 8001e52:	2200      	movs	r2, #0
 8001e54:	e5a6      	b.n	80019a4 <__aeabi_dmul+0xac>
 8001e56:	290f      	cmp	r1, #15
 8001e58:	d1aa      	bne.n	8001db0 <__aeabi_dmul+0x4b8>
 8001e5a:	2380      	movs	r3, #128	@ 0x80
 8001e5c:	4652      	mov	r2, sl
 8001e5e:	031b      	lsls	r3, r3, #12
 8001e60:	421a      	tst	r2, r3
 8001e62:	d0a9      	beq.n	8001db8 <__aeabi_dmul+0x4c0>
 8001e64:	421c      	tst	r4, r3
 8001e66:	d1a7      	bne.n	8001db8 <__aeabi_dmul+0x4c0>
 8001e68:	431c      	orrs	r4, r3
 8001e6a:	9b00      	ldr	r3, [sp, #0]
 8001e6c:	0002      	movs	r2, r0
 8001e6e:	469b      	mov	fp, r3
 8001e70:	4b03      	ldr	r3, [pc, #12]	@ (8001e80 <__aeabi_dmul+0x588>)
 8001e72:	e597      	b.n	80019a4 <__aeabi_dmul+0xac>
 8001e74:	2400      	movs	r4, #0
 8001e76:	e6c1      	b.n	8001bfc <__aeabi_dmul+0x304>
 8001e78:	2400      	movs	r4, #0
 8001e7a:	4b01      	ldr	r3, [pc, #4]	@ (8001e80 <__aeabi_dmul+0x588>)
 8001e7c:	0022      	movs	r2, r4
 8001e7e:	e591      	b.n	80019a4 <__aeabi_dmul+0xac>
 8001e80:	000007ff 	.word	0x000007ff
 8001e84:	0000041e 	.word	0x0000041e

08001e88 <__aeabi_dsub>:
 8001e88:	b5f0      	push	{r4, r5, r6, r7, lr}
 8001e8a:	464e      	mov	r6, r9
 8001e8c:	4645      	mov	r5, r8
 8001e8e:	46de      	mov	lr, fp
 8001e90:	4657      	mov	r7, sl
 8001e92:	b5e0      	push	{r5, r6, r7, lr}
 8001e94:	b085      	sub	sp, #20
 8001e96:	9000      	str	r0, [sp, #0]
 8001e98:	9101      	str	r1, [sp, #4]
 8001e9a:	030c      	lsls	r4, r1, #12
 8001e9c:	004f      	lsls	r7, r1, #1
 8001e9e:	0fce      	lsrs	r6, r1, #31
 8001ea0:	0a61      	lsrs	r1, r4, #9
 8001ea2:	9c00      	ldr	r4, [sp, #0]
 8001ea4:	46b0      	mov	r8, r6
 8001ea6:	0f64      	lsrs	r4, r4, #29
 8001ea8:	430c      	orrs	r4, r1
 8001eaa:	9900      	ldr	r1, [sp, #0]
 8001eac:	0d7f      	lsrs	r7, r7, #21
 8001eae:	00c8      	lsls	r0, r1, #3
 8001eb0:	0011      	movs	r1, r2
 8001eb2:	001a      	movs	r2, r3
 8001eb4:	031b      	lsls	r3, r3, #12
 8001eb6:	469c      	mov	ip, r3
 8001eb8:	9100      	str	r1, [sp, #0]
 8001eba:	9201      	str	r2, [sp, #4]
 8001ebc:	0051      	lsls	r1, r2, #1
 8001ebe:	0d4b      	lsrs	r3, r1, #21
 8001ec0:	4699      	mov	r9, r3
 8001ec2:	9b01      	ldr	r3, [sp, #4]
 8001ec4:	9d00      	ldr	r5, [sp, #0]
 8001ec6:	0fd9      	lsrs	r1, r3, #31
 8001ec8:	4663      	mov	r3, ip
 8001eca:	0f6a      	lsrs	r2, r5, #29
 8001ecc:	0a5b      	lsrs	r3, r3, #9
 8001ece:	4313      	orrs	r3, r2
 8001ed0:	00ea      	lsls	r2, r5, #3
 8001ed2:	4694      	mov	ip, r2
 8001ed4:	4693      	mov	fp, r2
 8001ed6:	4ac1      	ldr	r2, [pc, #772]	@ (80021dc <__aeabi_dsub+0x354>)
 8001ed8:	9003      	str	r0, [sp, #12]
 8001eda:	9302      	str	r3, [sp, #8]
 8001edc:	4591      	cmp	r9, r2
 8001ede:	d100      	bne.n	8001ee2 <__aeabi_dsub+0x5a>
 8001ee0:	e0cd      	b.n	800207e <__aeabi_dsub+0x1f6>
 8001ee2:	2501      	movs	r5, #1
 8001ee4:	4069      	eors	r1, r5
 8001ee6:	464d      	mov	r5, r9
 8001ee8:	1b7d      	subs	r5, r7, r5
 8001eea:	46aa      	mov	sl, r5
 8001eec:	428e      	cmp	r6, r1
 8001eee:	d100      	bne.n	8001ef2 <__aeabi_dsub+0x6a>
 8001ef0:	e080      	b.n	8001ff4 <__aeabi_dsub+0x16c>
 8001ef2:	2d00      	cmp	r5, #0
 8001ef4:	dc00      	bgt.n	8001ef8 <__aeabi_dsub+0x70>
 8001ef6:	e335      	b.n	8002564 <__aeabi_dsub+0x6dc>
 8001ef8:	4649      	mov	r1, r9
 8001efa:	2900      	cmp	r1, #0
 8001efc:	d100      	bne.n	8001f00 <__aeabi_dsub+0x78>
 8001efe:	e0df      	b.n	80020c0 <__aeabi_dsub+0x238>
 8001f00:	4297      	cmp	r7, r2
 8001f02:	d100      	bne.n	8001f06 <__aeabi_dsub+0x7e>
 8001f04:	e194      	b.n	8002230 <__aeabi_dsub+0x3a8>
 8001f06:	4652      	mov	r2, sl
 8001f08:	2501      	movs	r5, #1
 8001f0a:	2a38      	cmp	r2, #56	@ 0x38
 8001f0c:	dc19      	bgt.n	8001f42 <__aeabi_dsub+0xba>
 8001f0e:	2280      	movs	r2, #128	@ 0x80
 8001f10:	9b02      	ldr	r3, [sp, #8]
 8001f12:	0412      	lsls	r2, r2, #16
 8001f14:	4313      	orrs	r3, r2
 8001f16:	9302      	str	r3, [sp, #8]
 8001f18:	4652      	mov	r2, sl
 8001f1a:	2a1f      	cmp	r2, #31
 8001f1c:	dd00      	ble.n	8001f20 <__aeabi_dsub+0x98>
 8001f1e:	e1e3      	b.n	80022e8 <__aeabi_dsub+0x460>
 8001f20:	4653      	mov	r3, sl
 8001f22:	2220      	movs	r2, #32
 8001f24:	4661      	mov	r1, ip
 8001f26:	9d02      	ldr	r5, [sp, #8]
 8001f28:	1ad2      	subs	r2, r2, r3
 8001f2a:	4095      	lsls	r5, r2
 8001f2c:	40d9      	lsrs	r1, r3
 8001f2e:	430d      	orrs	r5, r1
 8001f30:	4661      	mov	r1, ip
 8001f32:	4091      	lsls	r1, r2
 8001f34:	000a      	movs	r2, r1
 8001f36:	1e51      	subs	r1, r2, #1
 8001f38:	418a      	sbcs	r2, r1
 8001f3a:	4315      	orrs	r5, r2
 8001f3c:	9a02      	ldr	r2, [sp, #8]
 8001f3e:	40da      	lsrs	r2, r3
 8001f40:	1aa4      	subs	r4, r4, r2
 8001f42:	1b45      	subs	r5, r0, r5
 8001f44:	42a8      	cmp	r0, r5
 8001f46:	4180      	sbcs	r0, r0
 8001f48:	4240      	negs	r0, r0
 8001f4a:	1a24      	subs	r4, r4, r0
 8001f4c:	0223      	lsls	r3, r4, #8
 8001f4e:	d400      	bmi.n	8001f52 <__aeabi_dsub+0xca>
 8001f50:	e13d      	b.n	80021ce <__aeabi_dsub+0x346>
 8001f52:	0264      	lsls	r4, r4, #9
 8001f54:	0a64      	lsrs	r4, r4, #9
 8001f56:	2c00      	cmp	r4, #0
 8001f58:	d100      	bne.n	8001f5c <__aeabi_dsub+0xd4>
 8001f5a:	e147      	b.n	80021ec <__aeabi_dsub+0x364>
 8001f5c:	0020      	movs	r0, r4
 8001f5e:	f000 fc03 	bl	8002768 <__clzsi2>
 8001f62:	0003      	movs	r3, r0
 8001f64:	3b08      	subs	r3, #8
 8001f66:	2120      	movs	r1, #32
 8001f68:	0028      	movs	r0, r5
 8001f6a:	1aca      	subs	r2, r1, r3
 8001f6c:	40d0      	lsrs	r0, r2
 8001f6e:	409c      	lsls	r4, r3
 8001f70:	0002      	movs	r2, r0
 8001f72:	409d      	lsls	r5, r3
 8001f74:	4322      	orrs	r2, r4
 8001f76:	429f      	cmp	r7, r3
 8001f78:	dd00      	ble.n	8001f7c <__aeabi_dsub+0xf4>
 8001f7a:	e177      	b.n	800226c <__aeabi_dsub+0x3e4>
 8001f7c:	1bd8      	subs	r0, r3, r7
 8001f7e:	3001      	adds	r0, #1
 8001f80:	1a09      	subs	r1, r1, r0
 8001f82:	002c      	movs	r4, r5
 8001f84:	408d      	lsls	r5, r1
 8001f86:	40c4      	lsrs	r4, r0
 8001f88:	1e6b      	subs	r3, r5, #1
 8001f8a:	419d      	sbcs	r5, r3
 8001f8c:	0013      	movs	r3, r2
 8001f8e:	40c2      	lsrs	r2, r0
 8001f90:	408b      	lsls	r3, r1
 8001f92:	4325      	orrs	r5, r4
 8001f94:	2700      	movs	r7, #0
 8001f96:	0014      	movs	r4, r2
 8001f98:	431d      	orrs	r5, r3
 8001f9a:	076b      	lsls	r3, r5, #29
 8001f9c:	d009      	beq.n	8001fb2 <__aeabi_dsub+0x12a>
 8001f9e:	230f      	movs	r3, #15
 8001fa0:	402b      	ands	r3, r5
 8001fa2:	2b04      	cmp	r3, #4
 8001fa4:	d005      	beq.n	8001fb2 <__aeabi_dsub+0x12a>
 8001fa6:	1d2b      	adds	r3, r5, #4
 8001fa8:	42ab      	cmp	r3, r5
 8001faa:	41ad      	sbcs	r5, r5
 8001fac:	426d      	negs	r5, r5
 8001fae:	1964      	adds	r4, r4, r5
 8001fb0:	001d      	movs	r5, r3
 8001fb2:	0223      	lsls	r3, r4, #8
 8001fb4:	d400      	bmi.n	8001fb8 <__aeabi_dsub+0x130>
 8001fb6:	e140      	b.n	800223a <__aeabi_dsub+0x3b2>
 8001fb8:	4a88      	ldr	r2, [pc, #544]	@ (80021dc <__aeabi_dsub+0x354>)
 8001fba:	3701      	adds	r7, #1
 8001fbc:	4297      	cmp	r7, r2
 8001fbe:	d100      	bne.n	8001fc2 <__aeabi_dsub+0x13a>
 8001fc0:	e101      	b.n	80021c6 <__aeabi_dsub+0x33e>
 8001fc2:	2601      	movs	r6, #1
 8001fc4:	4643      	mov	r3, r8
 8001fc6:	4986      	ldr	r1, [pc, #536]	@ (80021e0 <__aeabi_dsub+0x358>)
 8001fc8:	08ed      	lsrs	r5, r5, #3
 8001fca:	4021      	ands	r1, r4
 8001fcc:	074a      	lsls	r2, r1, #29
 8001fce:	432a      	orrs	r2, r5
 8001fd0:	057c      	lsls	r4, r7, #21
 8001fd2:	024d      	lsls	r5, r1, #9
 8001fd4:	0b2d      	lsrs	r5, r5, #12
 8001fd6:	0d64      	lsrs	r4, r4, #21
 8001fd8:	401e      	ands	r6, r3
 8001fda:	0524      	lsls	r4, r4, #20
 8001fdc:	432c      	orrs	r4, r5
 8001fde:	07f6      	lsls	r6, r6, #31
 8001fe0:	4334      	orrs	r4, r6
 8001fe2:	0010      	movs	r0, r2
 8001fe4:	0021      	movs	r1, r4
 8001fe6:	b005      	add	sp, #20
 8001fe8:	bcf0      	pop	{r4, r5, r6, r7}
 8001fea:	46bb      	mov	fp, r7
 8001fec:	46b2      	mov	sl, r6
 8001fee:	46a9      	mov	r9, r5
 8001ff0:	46a0      	mov	r8, r4
 8001ff2:	bdf0      	pop	{r4, r5, r6, r7, pc}
 8001ff4:	2d00      	cmp	r5, #0
 8001ff6:	dc00      	bgt.n	8001ffa <__aeabi_dsub+0x172>
 8001ff8:	e2d0      	b.n	800259c <__aeabi_dsub+0x714>
 8001ffa:	4649      	mov	r1, r9
 8001ffc:	2900      	cmp	r1, #0
 8001ffe:	d000      	beq.n	8002002 <__aeabi_dsub+0x17a>
 8002000:	e0d4      	b.n	80021ac <__aeabi_dsub+0x324>
 8002002:	4661      	mov	r1, ip
 8002004:	9b02      	ldr	r3, [sp, #8]
 8002006:	4319      	orrs	r1, r3
 8002008:	d100      	bne.n	800200c <__aeabi_dsub+0x184>
 800200a:	e12b      	b.n	8002264 <__aeabi_dsub+0x3dc>
 800200c:	1e69      	subs	r1, r5, #1
 800200e:	2d01      	cmp	r5, #1
 8002010:	d100      	bne.n	8002014 <__aeabi_dsub+0x18c>
 8002012:	e1d9      	b.n	80023c8 <__aeabi_dsub+0x540>
 8002014:	4295      	cmp	r5, r2
 8002016:	d100      	bne.n	800201a <__aeabi_dsub+0x192>
 8002018:	e10a      	b.n	8002230 <__aeabi_dsub+0x3a8>
 800201a:	2501      	movs	r5, #1
 800201c:	2938      	cmp	r1, #56	@ 0x38
 800201e:	dc17      	bgt.n	8002050 <__aeabi_dsub+0x1c8>
 8002020:	468a      	mov	sl, r1
 8002022:	4653      	mov	r3, sl
 8002024:	2b1f      	cmp	r3, #31
 8002026:	dd00      	ble.n	800202a <__aeabi_dsub+0x1a2>
 8002028:	e1e7      	b.n	80023fa <__aeabi_dsub+0x572>
 800202a:	2220      	movs	r2, #32
 800202c:	1ad2      	subs	r2, r2, r3
 800202e:	9b02      	ldr	r3, [sp, #8]
 8002030:	4661      	mov	r1, ip
 8002032:	4093      	lsls	r3, r2
 8002034:	001d      	movs	r5, r3
 8002036:	4653      	mov	r3, sl
 8002038:	40d9      	lsrs	r1, r3
 800203a:	4663      	mov	r3, ip
 800203c:	4093      	lsls	r3, r2
 800203e:	001a      	movs	r2, r3
 8002040:	430d      	orrs	r5, r1
 8002042:	1e51      	subs	r1, r2, #1
 8002044:	418a      	sbcs	r2, r1
 8002046:	4653      	mov	r3, sl
 8002048:	4315      	orrs	r5, r2
 800204a:	9a02      	ldr	r2, [sp, #8]
 800204c:	40da      	lsrs	r2, r3
 800204e:	18a4      	adds	r4, r4, r2
 8002050:	182d      	adds	r5, r5, r0
 8002052:	4285      	cmp	r5, r0
 8002054:	4180      	sbcs	r0, r0
 8002056:	4240      	negs	r0, r0
 8002058:	1824      	adds	r4, r4, r0
 800205a:	0223      	lsls	r3, r4, #8
 800205c:	d400      	bmi.n	8002060 <__aeabi_dsub+0x1d8>
 800205e:	e0b6      	b.n	80021ce <__aeabi_dsub+0x346>
 8002060:	4b5e      	ldr	r3, [pc, #376]	@ (80021dc <__aeabi_dsub+0x354>)
 8002062:	3701      	adds	r7, #1
 8002064:	429f      	cmp	r7, r3
 8002066:	d100      	bne.n	800206a <__aeabi_dsub+0x1e2>
 8002068:	e0ad      	b.n	80021c6 <__aeabi_dsub+0x33e>
 800206a:	2101      	movs	r1, #1
 800206c:	4b5c      	ldr	r3, [pc, #368]	@ (80021e0 <__aeabi_dsub+0x358>)
 800206e:	086a      	lsrs	r2, r5, #1
 8002070:	401c      	ands	r4, r3
 8002072:	4029      	ands	r1, r5
 8002074:	430a      	orrs	r2, r1
 8002076:	07e5      	lsls	r5, r4, #31
 8002078:	4315      	orrs	r5, r2
 800207a:	0864      	lsrs	r4, r4, #1
 800207c:	e78d      	b.n	8001f9a <__aeabi_dsub+0x112>
 800207e:	4a59      	ldr	r2, [pc, #356]	@ (80021e4 <__aeabi_dsub+0x35c>)
 8002080:	9b02      	ldr	r3, [sp, #8]
 8002082:	4692      	mov	sl, r2
 8002084:	4662      	mov	r2, ip
 8002086:	44ba      	add	sl, r7
 8002088:	431a      	orrs	r2, r3
 800208a:	d02c      	beq.n	80020e6 <__aeabi_dsub+0x25e>
 800208c:	428e      	cmp	r6, r1
 800208e:	d02e      	beq.n	80020ee <__aeabi_dsub+0x266>
 8002090:	4652      	mov	r2, sl
 8002092:	2a00      	cmp	r2, #0
 8002094:	d060      	beq.n	8002158 <__aeabi_dsub+0x2d0>
 8002096:	2f00      	cmp	r7, #0
 8002098:	d100      	bne.n	800209c <__aeabi_dsub+0x214>
 800209a:	e0db      	b.n	8002254 <__aeabi_dsub+0x3cc>
 800209c:	4663      	mov	r3, ip
 800209e:	000e      	movs	r6, r1
 80020a0:	9c02      	ldr	r4, [sp, #8]
 80020a2:	08d8      	lsrs	r0, r3, #3
 80020a4:	0762      	lsls	r2, r4, #29
 80020a6:	4302      	orrs	r2, r0
 80020a8:	08e4      	lsrs	r4, r4, #3
 80020aa:	0013      	movs	r3, r2
 80020ac:	4323      	orrs	r3, r4
 80020ae:	d100      	bne.n	80020b2 <__aeabi_dsub+0x22a>
 80020b0:	e254      	b.n	800255c <__aeabi_dsub+0x6d4>
 80020b2:	2580      	movs	r5, #128	@ 0x80
 80020b4:	032d      	lsls	r5, r5, #12
 80020b6:	4325      	orrs	r5, r4
 80020b8:	032d      	lsls	r5, r5, #12
 80020ba:	4c48      	ldr	r4, [pc, #288]	@ (80021dc <__aeabi_dsub+0x354>)
 80020bc:	0b2d      	lsrs	r5, r5, #12
 80020be:	e78c      	b.n	8001fda <__aeabi_dsub+0x152>
 80020c0:	4661      	mov	r1, ip
 80020c2:	9b02      	ldr	r3, [sp, #8]
 80020c4:	4319      	orrs	r1, r3
 80020c6:	d100      	bne.n	80020ca <__aeabi_dsub+0x242>
 80020c8:	e0cc      	b.n	8002264 <__aeabi_dsub+0x3dc>
 80020ca:	0029      	movs	r1, r5
 80020cc:	3901      	subs	r1, #1
 80020ce:	2d01      	cmp	r5, #1
 80020d0:	d100      	bne.n	80020d4 <__aeabi_dsub+0x24c>
 80020d2:	e188      	b.n	80023e6 <__aeabi_dsub+0x55e>
 80020d4:	4295      	cmp	r5, r2
 80020d6:	d100      	bne.n	80020da <__aeabi_dsub+0x252>
 80020d8:	e0aa      	b.n	8002230 <__aeabi_dsub+0x3a8>
 80020da:	2501      	movs	r5, #1
 80020dc:	2938      	cmp	r1, #56	@ 0x38
 80020de:	dd00      	ble.n	80020e2 <__aeabi_dsub+0x25a>
 80020e0:	e72f      	b.n	8001f42 <__aeabi_dsub+0xba>
 80020e2:	468a      	mov	sl, r1
 80020e4:	e718      	b.n	8001f18 <__aeabi_dsub+0x90>
 80020e6:	2201      	movs	r2, #1
 80020e8:	4051      	eors	r1, r2
 80020ea:	428e      	cmp	r6, r1
 80020ec:	d1d0      	bne.n	8002090 <__aeabi_dsub+0x208>
 80020ee:	4653      	mov	r3, sl
 80020f0:	2b00      	cmp	r3, #0
 80020f2:	d100      	bne.n	80020f6 <__aeabi_dsub+0x26e>
 80020f4:	e0be      	b.n	8002274 <__aeabi_dsub+0x3ec>
 80020f6:	2f00      	cmp	r7, #0
 80020f8:	d000      	beq.n	80020fc <__aeabi_dsub+0x274>
 80020fa:	e138      	b.n	800236e <__aeabi_dsub+0x4e6>
 80020fc:	46ca      	mov	sl, r9
 80020fe:	0022      	movs	r2, r4
 8002100:	4302      	orrs	r2, r0
 8002102:	d100      	bne.n	8002106 <__aeabi_dsub+0x27e>
 8002104:	e1e2      	b.n	80024cc <__aeabi_dsub+0x644>
 8002106:	4653      	mov	r3, sl
 8002108:	1e59      	subs	r1, r3, #1
 800210a:	2b01      	cmp	r3, #1
 800210c:	d100      	bne.n	8002110 <__aeabi_dsub+0x288>
 800210e:	e20d      	b.n	800252c <__aeabi_dsub+0x6a4>
 8002110:	4a32      	ldr	r2, [pc, #200]	@ (80021dc <__aeabi_dsub+0x354>)
 8002112:	4592      	cmp	sl, r2
 8002114:	d100      	bne.n	8002118 <__aeabi_dsub+0x290>
 8002116:	e1d2      	b.n	80024be <__aeabi_dsub+0x636>
 8002118:	2701      	movs	r7, #1
 800211a:	2938      	cmp	r1, #56	@ 0x38
 800211c:	dc13      	bgt.n	8002146 <__aeabi_dsub+0x2be>
 800211e:	291f      	cmp	r1, #31
 8002120:	dd00      	ble.n	8002124 <__aeabi_dsub+0x29c>
 8002122:	e1ee      	b.n	8002502 <__aeabi_dsub+0x67a>
 8002124:	2220      	movs	r2, #32
 8002126:	9b02      	ldr	r3, [sp, #8]
 8002128:	1a52      	subs	r2, r2, r1
 800212a:	0025      	movs	r5, r4
 800212c:	0007      	movs	r7, r0
 800212e:	469a      	mov	sl, r3
 8002130:	40cc      	lsrs	r4, r1
 8002132:	4090      	lsls	r0, r2
 8002134:	4095      	lsls	r5, r2
 8002136:	40cf      	lsrs	r7, r1
 8002138:	44a2      	add	sl, r4
 800213a:	1e42      	subs	r2, r0, #1
 800213c:	4190      	sbcs	r0, r2
 800213e:	4653      	mov	r3, sl
 8002140:	432f      	orrs	r7, r5
 8002142:	4307      	orrs	r7, r0
 8002144:	9302      	str	r3, [sp, #8]
 8002146:	003d      	movs	r5, r7
 8002148:	4465      	add	r5, ip
 800214a:	4565      	cmp	r5, ip
 800214c:	4192      	sbcs	r2, r2
 800214e:	9b02      	ldr	r3, [sp, #8]
 8002150:	4252      	negs	r2, r2
 8002152:	464f      	mov	r7, r9
 8002154:	18d4      	adds	r4, r2, r3
 8002156:	e780      	b.n	800205a <__aeabi_dsub+0x1d2>
 8002158:	4a23      	ldr	r2, [pc, #140]	@ (80021e8 <__aeabi_dsub+0x360>)
 800215a:	1c7d      	adds	r5, r7, #1
 800215c:	4215      	tst	r5, r2
 800215e:	d000      	beq.n	8002162 <__aeabi_dsub+0x2da>
 8002160:	e0aa      	b.n	80022b8 <__aeabi_dsub+0x430>
 8002162:	4662      	mov	r2, ip
 8002164:	0025      	movs	r5, r4
 8002166:	9b02      	ldr	r3, [sp, #8]
 8002168:	4305      	orrs	r5, r0
 800216a:	431a      	orrs	r2, r3
 800216c:	2f00      	cmp	r7, #0
 800216e:	d000      	beq.n	8002172 <__aeabi_dsub+0x2ea>
 8002170:	e0f5      	b.n	800235e <__aeabi_dsub+0x4d6>
 8002172:	2d00      	cmp	r5, #0
 8002174:	d100      	bne.n	8002178 <__aeabi_dsub+0x2f0>
 8002176:	e16b      	b.n	8002450 <__aeabi_dsub+0x5c8>
 8002178:	2a00      	cmp	r2, #0
 800217a:	d100      	bne.n	800217e <__aeabi_dsub+0x2f6>
 800217c:	e152      	b.n	8002424 <__aeabi_dsub+0x59c>
 800217e:	4663      	mov	r3, ip
 8002180:	1ac5      	subs	r5, r0, r3
 8002182:	9b02      	ldr	r3, [sp, #8]
 8002184:	1ae2      	subs	r2, r4, r3
 8002186:	42a8      	cmp	r0, r5
 8002188:	419b      	sbcs	r3, r3
 800218a:	425b      	negs	r3, r3
 800218c:	1ad3      	subs	r3, r2, r3
 800218e:	021a      	lsls	r2, r3, #8
 8002190:	d400      	bmi.n	8002194 <__aeabi_dsub+0x30c>
 8002192:	e1d5      	b.n	8002540 <__aeabi_dsub+0x6b8>
 8002194:	4663      	mov	r3, ip
 8002196:	1a1d      	subs	r5, r3, r0
 8002198:	45ac      	cmp	ip, r5
 800219a:	4192      	sbcs	r2, r2
 800219c:	2601      	movs	r6, #1
 800219e:	9b02      	ldr	r3, [sp, #8]
 80021a0:	4252      	negs	r2, r2
 80021a2:	1b1c      	subs	r4, r3, r4
 80021a4:	4688      	mov	r8, r1
 80021a6:	1aa4      	subs	r4, r4, r2
 80021a8:	400e      	ands	r6, r1
 80021aa:	e6f6      	b.n	8001f9a <__aeabi_dsub+0x112>
 80021ac:	4297      	cmp	r7, r2
 80021ae:	d03f      	beq.n	8002230 <__aeabi_dsub+0x3a8>
 80021b0:	4652      	mov	r2, sl
 80021b2:	2501      	movs	r5, #1
 80021b4:	2a38      	cmp	r2, #56	@ 0x38
 80021b6:	dd00      	ble.n	80021ba <__aeabi_dsub+0x332>
 80021b8:	e74a      	b.n	8002050 <__aeabi_dsub+0x1c8>
 80021ba:	2280      	movs	r2, #128	@ 0x80
 80021bc:	9b02      	ldr	r3, [sp, #8]
 80021be:	0412      	lsls	r2, r2, #16
 80021c0:	4313      	orrs	r3, r2
 80021c2:	9302      	str	r3, [sp, #8]
 80021c4:	e72d      	b.n	8002022 <__aeabi_dsub+0x19a>
 80021c6:	003c      	movs	r4, r7
 80021c8:	2500      	movs	r5, #0
 80021ca:	2200      	movs	r2, #0
 80021cc:	e705      	b.n	8001fda <__aeabi_dsub+0x152>
 80021ce:	2307      	movs	r3, #7
 80021d0:	402b      	ands	r3, r5
 80021d2:	2b00      	cmp	r3, #0
 80021d4:	d000      	beq.n	80021d8 <__aeabi_dsub+0x350>
 80021d6:	e6e2      	b.n	8001f9e <__aeabi_dsub+0x116>
 80021d8:	e06b      	b.n	80022b2 <__aeabi_dsub+0x42a>
 80021da:	46c0      	nop			@ (mov r8, r8)
 80021dc:	000007ff 	.word	0x000007ff
 80021e0:	ff7fffff 	.word	0xff7fffff
 80021e4:	fffff801 	.word	0xfffff801
 80021e8:	000007fe 	.word	0x000007fe
 80021ec:	0028      	movs	r0, r5
 80021ee:	f000 fabb 	bl	8002768 <__clzsi2>
 80021f2:	0003      	movs	r3, r0
 80021f4:	3318      	adds	r3, #24
 80021f6:	2b1f      	cmp	r3, #31
 80021f8:	dc00      	bgt.n	80021fc <__aeabi_dsub+0x374>
 80021fa:	e6b4      	b.n	8001f66 <__aeabi_dsub+0xde>
 80021fc:	002a      	movs	r2, r5
 80021fe:	3808      	subs	r0, #8
 8002200:	4082      	lsls	r2, r0
 8002202:	429f      	cmp	r7, r3
 8002204:	dd00      	ble.n	8002208 <__aeabi_dsub+0x380>
 8002206:	e0b9      	b.n	800237c <__aeabi_dsub+0x4f4>
 8002208:	1bdb      	subs	r3, r3, r7
 800220a:	1c58      	adds	r0, r3, #1
 800220c:	281f      	cmp	r0, #31
 800220e:	dc00      	bgt.n	8002212 <__aeabi_dsub+0x38a>
 8002210:	e1a0      	b.n	8002554 <__aeabi_dsub+0x6cc>
 8002212:	0015      	movs	r5, r2
 8002214:	3b1f      	subs	r3, #31
 8002216:	40dd      	lsrs	r5, r3
 8002218:	2820      	cmp	r0, #32
 800221a:	d005      	beq.n	8002228 <__aeabi_dsub+0x3a0>
 800221c:	2340      	movs	r3, #64	@ 0x40
 800221e:	1a1b      	subs	r3, r3, r0
 8002220:	409a      	lsls	r2, r3
 8002222:	1e53      	subs	r3, r2, #1
 8002224:	419a      	sbcs	r2, r3
 8002226:	4315      	orrs	r5, r2
 8002228:	2307      	movs	r3, #7
 800222a:	2700      	movs	r7, #0
 800222c:	402b      	ands	r3, r5
 800222e:	e7d0      	b.n	80021d2 <__aeabi_dsub+0x34a>
 8002230:	08c0      	lsrs	r0, r0, #3
 8002232:	0762      	lsls	r2, r4, #29
 8002234:	4302      	orrs	r2, r0
 8002236:	08e4      	lsrs	r4, r4, #3
 8002238:	e737      	b.n	80020aa <__aeabi_dsub+0x222>
 800223a:	08ea      	lsrs	r2, r5, #3
 800223c:	0763      	lsls	r3, r4, #29
 800223e:	431a      	orrs	r2, r3
 8002240:	4bd3      	ldr	r3, [pc, #844]	@ (8002590 <__aeabi_dsub+0x708>)
 8002242:	08e4      	lsrs	r4, r4, #3
 8002244:	429f      	cmp	r7, r3
 8002246:	d100      	bne.n	800224a <__aeabi_dsub+0x3c2>
 8002248:	e72f      	b.n	80020aa <__aeabi_dsub+0x222>
 800224a:	0324      	lsls	r4, r4, #12
 800224c:	0b25      	lsrs	r5, r4, #12
 800224e:	057c      	lsls	r4, r7, #21
 8002250:	0d64      	lsrs	r4, r4, #21
 8002252:	e6c2      	b.n	8001fda <__aeabi_dsub+0x152>
 8002254:	46ca      	mov	sl, r9
 8002256:	0022      	movs	r2, r4
 8002258:	4302      	orrs	r2, r0
 800225a:	d158      	bne.n	800230e <__aeabi_dsub+0x486>
 800225c:	4663      	mov	r3, ip
 800225e:	000e      	movs	r6, r1
 8002260:	9c02      	ldr	r4, [sp, #8]
 8002262:	9303      	str	r3, [sp, #12]
 8002264:	9b03      	ldr	r3, [sp, #12]
 8002266:	4657      	mov	r7, sl
 8002268:	08da      	lsrs	r2, r3, #3
 800226a:	e7e7      	b.n	800223c <__aeabi_dsub+0x3b4>
 800226c:	4cc9      	ldr	r4, [pc, #804]	@ (8002594 <__aeabi_dsub+0x70c>)
 800226e:	1aff      	subs	r7, r7, r3
 8002270:	4014      	ands	r4, r2
 8002272:	e692      	b.n	8001f9a <__aeabi_dsub+0x112>
 8002274:	4dc8      	ldr	r5, [pc, #800]	@ (8002598 <__aeabi_dsub+0x710>)
 8002276:	1c7a      	adds	r2, r7, #1
 8002278:	422a      	tst	r2, r5
 800227a:	d000      	beq.n	800227e <__aeabi_dsub+0x3f6>
 800227c:	e084      	b.n	8002388 <__aeabi_dsub+0x500>
 800227e:	0022      	movs	r2, r4
 8002280:	4302      	orrs	r2, r0
 8002282:	2f00      	cmp	r7, #0
 8002284:	d000      	beq.n	8002288 <__aeabi_dsub+0x400>
 8002286:	e0ef      	b.n	8002468 <__aeabi_dsub+0x5e0>
 8002288:	2a00      	cmp	r2, #0
 800228a:	d100      	bne.n	800228e <__aeabi_dsub+0x406>
 800228c:	e0e5      	b.n	800245a <__aeabi_dsub+0x5d2>
 800228e:	4662      	mov	r2, ip
 8002290:	9902      	ldr	r1, [sp, #8]
 8002292:	430a      	orrs	r2, r1
 8002294:	d100      	bne.n	8002298 <__aeabi_dsub+0x410>
 8002296:	e0c5      	b.n	8002424 <__aeabi_dsub+0x59c>
 8002298:	4663      	mov	r3, ip
 800229a:	18c5      	adds	r5, r0, r3
 800229c:	468c      	mov	ip, r1
 800229e:	4285      	cmp	r5, r0
 80022a0:	4180      	sbcs	r0, r0
 80022a2:	4464      	add	r4, ip
 80022a4:	4240      	negs	r0, r0
 80022a6:	1824      	adds	r4, r4, r0
 80022a8:	0223      	lsls	r3, r4, #8
 80022aa:	d502      	bpl.n	80022b2 <__aeabi_dsub+0x42a>
 80022ac:	4bb9      	ldr	r3, [pc, #740]	@ (8002594 <__aeabi_dsub+0x70c>)
 80022ae:	3701      	adds	r7, #1
 80022b0:	401c      	ands	r4, r3
 80022b2:	46ba      	mov	sl, r7
 80022b4:	9503      	str	r5, [sp, #12]
 80022b6:	e7d5      	b.n	8002264 <__aeabi_dsub+0x3dc>
 80022b8:	4662      	mov	r2, ip
 80022ba:	1a85      	subs	r5, r0, r2
 80022bc:	42a8      	cmp	r0, r5
 80022be:	4192      	sbcs	r2, r2
 80022c0:	4252      	negs	r2, r2
 80022c2:	4691      	mov	r9, r2
 80022c4:	9b02      	ldr	r3, [sp, #8]
 80022c6:	1ae3      	subs	r3, r4, r3
 80022c8:	001a      	movs	r2, r3
 80022ca:	464b      	mov	r3, r9
 80022cc:	1ad2      	subs	r2, r2, r3
 80022ce:	0013      	movs	r3, r2
 80022d0:	4691      	mov	r9, r2
 80022d2:	021a      	lsls	r2, r3, #8
 80022d4:	d46c      	bmi.n	80023b0 <__aeabi_dsub+0x528>
 80022d6:	464a      	mov	r2, r9
 80022d8:	464c      	mov	r4, r9
 80022da:	432a      	orrs	r2, r5
 80022dc:	d000      	beq.n	80022e0 <__aeabi_dsub+0x458>
 80022de:	e63a      	b.n	8001f56 <__aeabi_dsub+0xce>
 80022e0:	2600      	movs	r6, #0
 80022e2:	2400      	movs	r4, #0
 80022e4:	2500      	movs	r5, #0
 80022e6:	e678      	b.n	8001fda <__aeabi_dsub+0x152>
 80022e8:	9902      	ldr	r1, [sp, #8]
 80022ea:	4653      	mov	r3, sl
 80022ec:	000d      	movs	r5, r1
 80022ee:	3a20      	subs	r2, #32
 80022f0:	40d5      	lsrs	r5, r2
 80022f2:	2b20      	cmp	r3, #32
 80022f4:	d006      	beq.n	8002304 <__aeabi_dsub+0x47c>
 80022f6:	2240      	movs	r2, #64	@ 0x40
 80022f8:	1ad2      	subs	r2, r2, r3
 80022fa:	000b      	movs	r3, r1
 80022fc:	4093      	lsls	r3, r2
 80022fe:	4662      	mov	r2, ip
 8002300:	431a      	orrs	r2, r3
 8002302:	4693      	mov	fp, r2
 8002304:	465b      	mov	r3, fp
 8002306:	1e5a      	subs	r2, r3, #1
 8002308:	4193      	sbcs	r3, r2
 800230a:	431d      	orrs	r5, r3
 800230c:	e619      	b.n	8001f42 <__aeabi_dsub+0xba>
 800230e:	4653      	mov	r3, sl
 8002310:	1e5a      	subs	r2, r3, #1
 8002312:	2b01      	cmp	r3, #1
 8002314:	d100      	bne.n	8002318 <__aeabi_dsub+0x490>
 8002316:	e0c6      	b.n	80024a6 <__aeabi_dsub+0x61e>
 8002318:	4e9d      	ldr	r6, [pc, #628]	@ (8002590 <__aeabi_dsub+0x708>)
 800231a:	45b2      	cmp	sl, r6
 800231c:	d100      	bne.n	8002320 <__aeabi_dsub+0x498>
 800231e:	e6bd      	b.n	800209c <__aeabi_dsub+0x214>
 8002320:	4688      	mov	r8, r1
 8002322:	000e      	movs	r6, r1
 8002324:	2501      	movs	r5, #1
 8002326:	2a38      	cmp	r2, #56	@ 0x38
 8002328:	dc10      	bgt.n	800234c <__aeabi_dsub+0x4c4>
 800232a:	2a1f      	cmp	r2, #31
 800232c:	dc7f      	bgt.n	800242e <__aeabi_dsub+0x5a6>
 800232e:	2120      	movs	r1, #32
 8002330:	0025      	movs	r5, r4
 8002332:	1a89      	subs	r1, r1, r2
 8002334:	0007      	movs	r7, r0
 8002336:	4088      	lsls	r0, r1
 8002338:	408d      	lsls	r5, r1
 800233a:	40d7      	lsrs	r7, r2
 800233c:	40d4      	lsrs	r4, r2
 800233e:	1e41      	subs	r1, r0, #1
 8002340:	4188      	sbcs	r0, r1
 8002342:	9b02      	ldr	r3, [sp, #8]
 8002344:	433d      	orrs	r5, r7
 8002346:	1b1b      	subs	r3, r3, r4
 8002348:	4305      	orrs	r5, r0
 800234a:	9302      	str	r3, [sp, #8]
 800234c:	4662      	mov	r2, ip
 800234e:	1b55      	subs	r5, r2, r5
 8002350:	45ac      	cmp	ip, r5
 8002352:	4192      	sbcs	r2, r2
 8002354:	9b02      	ldr	r3, [sp, #8]
 8002356:	4252      	negs	r2, r2
 8002358:	464f      	mov	r7, r9
 800235a:	1a9c      	subs	r4, r3, r2
 800235c:	e5f6      	b.n	8001f4c <__aeabi_dsub+0xc4>
 800235e:	2d00      	cmp	r5, #0
 8002360:	d000      	beq.n	8002364 <__aeabi_dsub+0x4dc>
 8002362:	e0b7      	b.n	80024d4 <__aeabi_dsub+0x64c>
 8002364:	2a00      	cmp	r2, #0
 8002366:	d100      	bne.n	800236a <__aeabi_dsub+0x4e2>
 8002368:	e0f0      	b.n	800254c <__aeabi_dsub+0x6c4>
 800236a:	2601      	movs	r6, #1
 800236c:	400e      	ands	r6, r1
 800236e:	4663      	mov	r3, ip
 8002370:	9802      	ldr	r0, [sp, #8]
 8002372:	08d9      	lsrs	r1, r3, #3
 8002374:	0742      	lsls	r2, r0, #29
 8002376:	430a      	orrs	r2, r1
 8002378:	08c4      	lsrs	r4, r0, #3
 800237a:	e696      	b.n	80020aa <__aeabi_dsub+0x222>
 800237c:	4c85      	ldr	r4, [pc, #532]	@ (8002594 <__aeabi_dsub+0x70c>)
 800237e:	1aff      	subs	r7, r7, r3
 8002380:	4014      	ands	r4, r2
 8002382:	0762      	lsls	r2, r4, #29
 8002384:	08e4      	lsrs	r4, r4, #3
 8002386:	e760      	b.n	800224a <__aeabi_dsub+0x3c2>
 8002388:	4981      	ldr	r1, [pc, #516]	@ (8002590 <__aeabi_dsub+0x708>)
 800238a:	428a      	cmp	r2, r1
 800238c:	d100      	bne.n	8002390 <__aeabi_dsub+0x508>
 800238e:	e0c9      	b.n	8002524 <__aeabi_dsub+0x69c>
 8002390:	4663      	mov	r3, ip
 8002392:	18c1      	adds	r1, r0, r3
 8002394:	4281      	cmp	r1, r0
 8002396:	4180      	sbcs	r0, r0
 8002398:	9b02      	ldr	r3, [sp, #8]
 800239a:	4240      	negs	r0, r0
 800239c:	18e3      	adds	r3, r4, r3
 800239e:	181b      	adds	r3, r3, r0
 80023a0:	07dd      	lsls	r5, r3, #31
 80023a2:	085c      	lsrs	r4, r3, #1
 80023a4:	2307      	movs	r3, #7
 80023a6:	0849      	lsrs	r1, r1, #1
 80023a8:	430d      	orrs	r5, r1
 80023aa:	0017      	movs	r7, r2
 80023ac:	402b      	ands	r3, r5
 80023ae:	e710      	b.n	80021d2 <__aeabi_dsub+0x34a>
 80023b0:	4663      	mov	r3, ip
 80023b2:	1a1d      	subs	r5, r3, r0
 80023b4:	45ac      	cmp	ip, r5
 80023b6:	4192      	sbcs	r2, r2
 80023b8:	2601      	movs	r6, #1
 80023ba:	9b02      	ldr	r3, [sp, #8]
 80023bc:	4252      	negs	r2, r2
 80023be:	1b1c      	subs	r4, r3, r4
 80023c0:	4688      	mov	r8, r1
 80023c2:	1aa4      	subs	r4, r4, r2
 80023c4:	400e      	ands	r6, r1
 80023c6:	e5c6      	b.n	8001f56 <__aeabi_dsub+0xce>
 80023c8:	4663      	mov	r3, ip
 80023ca:	18c5      	adds	r5, r0, r3
 80023cc:	9b02      	ldr	r3, [sp, #8]
 80023ce:	4285      	cmp	r5, r0
 80023d0:	4180      	sbcs	r0, r0
 80023d2:	469c      	mov	ip, r3
 80023d4:	4240      	negs	r0, r0
 80023d6:	4464      	add	r4, ip
 80023d8:	1824      	adds	r4, r4, r0
 80023da:	2701      	movs	r7, #1
 80023dc:	0223      	lsls	r3, r4, #8
 80023de:	d400      	bmi.n	80023e2 <__aeabi_dsub+0x55a>
 80023e0:	e6f5      	b.n	80021ce <__aeabi_dsub+0x346>
 80023e2:	2702      	movs	r7, #2
 80023e4:	e641      	b.n	800206a <__aeabi_dsub+0x1e2>
 80023e6:	4663      	mov	r3, ip
 80023e8:	1ac5      	subs	r5, r0, r3
 80023ea:	42a8      	cmp	r0, r5
 80023ec:	4180      	sbcs	r0, r0
 80023ee:	9b02      	ldr	r3, [sp, #8]
 80023f0:	4240      	negs	r0, r0
 80023f2:	1ae4      	subs	r4, r4, r3
 80023f4:	2701      	movs	r7, #1
 80023f6:	1a24      	subs	r4, r4, r0
 80023f8:	e5a8      	b.n	8001f4c <__aeabi_dsub+0xc4>
 80023fa:	9d02      	ldr	r5, [sp, #8]
 80023fc:	4652      	mov	r2, sl
 80023fe:	002b      	movs	r3, r5
 8002400:	3a20      	subs	r2, #32
 8002402:	40d3      	lsrs	r3, r2
 8002404:	0019      	movs	r1, r3
 8002406:	4653      	mov	r3, sl
 8002408:	2b20      	cmp	r3, #32
 800240a:	d006      	beq.n	800241a <__aeabi_dsub+0x592>
 800240c:	2240      	movs	r2, #64	@ 0x40
 800240e:	1ad2      	subs	r2, r2, r3
 8002410:	002b      	movs	r3, r5
 8002412:	4093      	lsls	r3, r2
 8002414:	4662      	mov	r2, ip
 8002416:	431a      	orrs	r2, r3
 8002418:	4693      	mov	fp, r2
 800241a:	465d      	mov	r5, fp
 800241c:	1e6b      	subs	r3, r5, #1
 800241e:	419d      	sbcs	r5, r3
 8002420:	430d      	orrs	r5, r1
 8002422:	e615      	b.n	8002050 <__aeabi_dsub+0x1c8>
 8002424:	0762      	lsls	r2, r4, #29
 8002426:	08c0      	lsrs	r0, r0, #3
 8002428:	4302      	orrs	r2, r0
 800242a:	08e4      	lsrs	r4, r4, #3
 800242c:	e70d      	b.n	800224a <__aeabi_dsub+0x3c2>
 800242e:	0011      	movs	r1, r2
 8002430:	0027      	movs	r7, r4
 8002432:	3920      	subs	r1, #32
 8002434:	40cf      	lsrs	r7, r1
 8002436:	2a20      	cmp	r2, #32
 8002438:	d005      	beq.n	8002446 <__aeabi_dsub+0x5be>
 800243a:	2140      	movs	r1, #64	@ 0x40
 800243c:	1a8a      	subs	r2, r1, r2
 800243e:	4094      	lsls	r4, r2
 8002440:	0025      	movs	r5, r4
 8002442:	4305      	orrs	r5, r0
 8002444:	9503      	str	r5, [sp, #12]
 8002446:	9d03      	ldr	r5, [sp, #12]
 8002448:	1e6a      	subs	r2, r5, #1
 800244a:	4195      	sbcs	r5, r2
 800244c:	433d      	orrs	r5, r7
 800244e:	e77d      	b.n	800234c <__aeabi_dsub+0x4c4>
 8002450:	2a00      	cmp	r2, #0
 8002452:	d100      	bne.n	8002456 <__aeabi_dsub+0x5ce>
 8002454:	e744      	b.n	80022e0 <__aeabi_dsub+0x458>
 8002456:	2601      	movs	r6, #1
 8002458:	400e      	ands	r6, r1
 800245a:	4663      	mov	r3, ip
 800245c:	08d9      	lsrs	r1, r3, #3
 800245e:	9b02      	ldr	r3, [sp, #8]
 8002460:	075a      	lsls	r2, r3, #29
 8002462:	430a      	orrs	r2, r1
 8002464:	08dc      	lsrs	r4, r3, #3
 8002466:	e6f0      	b.n	800224a <__aeabi_dsub+0x3c2>
 8002468:	2a00      	cmp	r2, #0
 800246a:	d028      	beq.n	80024be <__aeabi_dsub+0x636>
 800246c:	4662      	mov	r2, ip
 800246e:	9f02      	ldr	r7, [sp, #8]
 8002470:	08c0      	lsrs	r0, r0, #3
 8002472:	433a      	orrs	r2, r7
 8002474:	d100      	bne.n	8002478 <__aeabi_dsub+0x5f0>
 8002476:	e6dc      	b.n	8002232 <__aeabi_dsub+0x3aa>
 8002478:	0762      	lsls	r2, r4, #29
 800247a:	4310      	orrs	r0, r2
 800247c:	2280      	movs	r2, #128	@ 0x80
 800247e:	08e4      	lsrs	r4, r4, #3
 8002480:	0312      	lsls	r2, r2, #12
 8002482:	4214      	tst	r4, r2
 8002484:	d009      	beq.n	800249a <__aeabi_dsub+0x612>
 8002486:	08fd      	lsrs	r5, r7, #3
 8002488:	4215      	tst	r5, r2
 800248a:	d106      	bne.n	800249a <__aeabi_dsub+0x612>
 800248c:	4663      	mov	r3, ip
 800248e:	2601      	movs	r6, #1
 8002490:	002c      	movs	r4, r5
 8002492:	08d8      	lsrs	r0, r3, #3
 8002494:	077b      	lsls	r3, r7, #29
 8002496:	4318      	orrs	r0, r3
 8002498:	400e      	ands	r6, r1
 800249a:	0f42      	lsrs	r2, r0, #29
 800249c:	00c0      	lsls	r0, r0, #3
 800249e:	08c0      	lsrs	r0, r0, #3
 80024a0:	0752      	lsls	r2, r2, #29
 80024a2:	4302      	orrs	r2, r0
 80024a4:	e601      	b.n	80020aa <__aeabi_dsub+0x222>
 80024a6:	4663      	mov	r3, ip
 80024a8:	1a1d      	subs	r5, r3, r0
 80024aa:	45ac      	cmp	ip, r5
 80024ac:	4192      	sbcs	r2, r2
 80024ae:	9b02      	ldr	r3, [sp, #8]
 80024b0:	4252      	negs	r2, r2
 80024b2:	1b1c      	subs	r4, r3, r4
 80024b4:	000e      	movs	r6, r1
 80024b6:	4688      	mov	r8, r1
 80024b8:	2701      	movs	r7, #1
 80024ba:	1aa4      	subs	r4, r4, r2
 80024bc:	e546      	b.n	8001f4c <__aeabi_dsub+0xc4>
 80024be:	4663      	mov	r3, ip
 80024c0:	08d9      	lsrs	r1, r3, #3
 80024c2:	9b02      	ldr	r3, [sp, #8]
 80024c4:	075a      	lsls	r2, r3, #29
 80024c6:	430a      	orrs	r2, r1
 80024c8:	08dc      	lsrs	r4, r3, #3
 80024ca:	e5ee      	b.n	80020aa <__aeabi_dsub+0x222>
 80024cc:	4663      	mov	r3, ip
 80024ce:	9c02      	ldr	r4, [sp, #8]
 80024d0:	9303      	str	r3, [sp, #12]
 80024d2:	e6c7      	b.n	8002264 <__aeabi_dsub+0x3dc>
 80024d4:	08c0      	lsrs	r0, r0, #3
 80024d6:	2a00      	cmp	r2, #0
 80024d8:	d100      	bne.n	80024dc <__aeabi_dsub+0x654>
 80024da:	e6aa      	b.n	8002232 <__aeabi_dsub+0x3aa>
 80024dc:	0762      	lsls	r2, r4, #29
 80024de:	4310      	orrs	r0, r2
 80024e0:	2280      	movs	r2, #128	@ 0x80
 80024e2:	08e4      	lsrs	r4, r4, #3
 80024e4:	0312      	lsls	r2, r2, #12
 80024e6:	4214      	tst	r4, r2
 80024e8:	d0d7      	beq.n	800249a <__aeabi_dsub+0x612>
 80024ea:	9f02      	ldr	r7, [sp, #8]
 80024ec:	08fd      	lsrs	r5, r7, #3
 80024ee:	4215      	tst	r5, r2
 80024f0:	d1d3      	bne.n	800249a <__aeabi_dsub+0x612>
 80024f2:	4663      	mov	r3, ip
 80024f4:	2601      	movs	r6, #1
 80024f6:	08d8      	lsrs	r0, r3, #3
 80024f8:	077b      	lsls	r3, r7, #29
 80024fa:	002c      	movs	r4, r5
 80024fc:	4318      	orrs	r0, r3
 80024fe:	400e      	ands	r6, r1
 8002500:	e7cb      	b.n	800249a <__aeabi_dsub+0x612>
 8002502:	000a      	movs	r2, r1
 8002504:	0027      	movs	r7, r4
 8002506:	3a20      	subs	r2, #32
 8002508:	40d7      	lsrs	r7, r2
 800250a:	2920      	cmp	r1, #32
 800250c:	d005      	beq.n	800251a <__aeabi_dsub+0x692>
 800250e:	2240      	movs	r2, #64	@ 0x40
 8002510:	1a52      	subs	r2, r2, r1
 8002512:	4094      	lsls	r4, r2
 8002514:	0025      	movs	r5, r4
 8002516:	4305      	orrs	r5, r0
 8002518:	9503      	str	r5, [sp, #12]
 800251a:	9d03      	ldr	r5, [sp, #12]
 800251c:	1e6a      	subs	r2, r5, #1
 800251e:	4195      	sbcs	r5, r2
 8002520:	432f      	orrs	r7, r5
 8002522:	e610      	b.n	8002146 <__aeabi_dsub+0x2be>
 8002524:	0014      	movs	r4, r2
 8002526:	2500      	movs	r5, #0
 8002528:	2200      	movs	r2, #0
 800252a:	e556      	b.n	8001fda <__aeabi_dsub+0x152>
 800252c:	9b02      	ldr	r3, [sp, #8]
 800252e:	4460      	add	r0, ip
 8002530:	4699      	mov	r9, r3
 8002532:	4560      	cmp	r0, ip
 8002534:	4192      	sbcs	r2, r2
 8002536:	444c      	add	r4, r9
 8002538:	4252      	negs	r2, r2
 800253a:	0005      	movs	r5, r0
 800253c:	18a4      	adds	r4, r4, r2
 800253e:	e74c      	b.n	80023da <__aeabi_dsub+0x552>
 8002540:	001a      	movs	r2, r3
 8002542:	001c      	movs	r4, r3
 8002544:	432a      	orrs	r2, r5
 8002546:	d000      	beq.n	800254a <__aeabi_dsub+0x6c2>
 8002548:	e6b3      	b.n	80022b2 <__aeabi_dsub+0x42a>
 800254a:	e6c9      	b.n	80022e0 <__aeabi_dsub+0x458>
 800254c:	2480      	movs	r4, #128	@ 0x80
 800254e:	2600      	movs	r6, #0
 8002550:	0324      	lsls	r4, r4, #12
 8002552:	e5ae      	b.n	80020b2 <__aeabi_dsub+0x22a>
 8002554:	2120      	movs	r1, #32
 8002556:	2500      	movs	r5, #0
 8002558:	1a09      	subs	r1, r1, r0
 800255a:	e517      	b.n	8001f8c <__aeabi_dsub+0x104>
 800255c:	2200      	movs	r2, #0
 800255e:	2500      	movs	r5, #0
 8002560:	4c0b      	ldr	r4, [pc, #44]	@ (8002590 <__aeabi_dsub+0x708>)
 8002562:	e53a      	b.n	8001fda <__aeabi_dsub+0x152>
 8002564:	2d00      	cmp	r5, #0
 8002566:	d100      	bne.n	800256a <__aeabi_dsub+0x6e2>
 8002568:	e5f6      	b.n	8002158 <__aeabi_dsub+0x2d0>
 800256a:	464b      	mov	r3, r9
 800256c:	1bda      	subs	r2, r3, r7
 800256e:	4692      	mov	sl, r2
 8002570:	2f00      	cmp	r7, #0
 8002572:	d100      	bne.n	8002576 <__aeabi_dsub+0x6ee>
 8002574:	e66f      	b.n	8002256 <__aeabi_dsub+0x3ce>
 8002576:	2a38      	cmp	r2, #56	@ 0x38
 8002578:	dc05      	bgt.n	8002586 <__aeabi_dsub+0x6fe>
 800257a:	2680      	movs	r6, #128	@ 0x80
 800257c:	0436      	lsls	r6, r6, #16
 800257e:	4334      	orrs	r4, r6
 8002580:	4688      	mov	r8, r1
 8002582:	000e      	movs	r6, r1
 8002584:	e6d1      	b.n	800232a <__aeabi_dsub+0x4a2>
 8002586:	4688      	mov	r8, r1
 8002588:	000e      	movs	r6, r1
 800258a:	2501      	movs	r5, #1
 800258c:	e6de      	b.n	800234c <__aeabi_dsub+0x4c4>
 800258e:	46c0      	nop			@ (mov r8, r8)
 8002590:	000007ff 	.word	0x000007ff
 8002594:	ff7fffff 	.word	0xff7fffff
 8002598:	000007fe 	.word	0x000007fe
 800259c:	2d00      	cmp	r5, #0
 800259e:	d100      	bne.n	80025a2 <__aeabi_dsub+0x71a>
 80025a0:	e668      	b.n	8002274 <__aeabi_dsub+0x3ec>
 80025a2:	464b      	mov	r3, r9
 80025a4:	1bd9      	subs	r1, r3, r7
 80025a6:	2f00      	cmp	r7, #0
 80025a8:	d101      	bne.n	80025ae <__aeabi_dsub+0x726>
 80025aa:	468a      	mov	sl, r1
 80025ac:	e5a7      	b.n	80020fe <__aeabi_dsub+0x276>
 80025ae:	2701      	movs	r7, #1
 80025b0:	2938      	cmp	r1, #56	@ 0x38
 80025b2:	dd00      	ble.n	80025b6 <__aeabi_dsub+0x72e>
 80025b4:	e5c7      	b.n	8002146 <__aeabi_dsub+0x2be>
 80025b6:	2280      	movs	r2, #128	@ 0x80
 80025b8:	0412      	lsls	r2, r2, #16
 80025ba:	4314      	orrs	r4, r2
 80025bc:	e5af      	b.n	800211e <__aeabi_dsub+0x296>
 80025be:	46c0      	nop			@ (mov r8, r8)

080025c0 <__aeabi_dcmpun>:
 80025c0:	b5f0      	push	{r4, r5, r6, r7, lr}
 80025c2:	46c6      	mov	lr, r8
 80025c4:	031e      	lsls	r6, r3, #12
 80025c6:	0b36      	lsrs	r6, r6, #12
 80025c8:	46b0      	mov	r8, r6
 80025ca:	4e0d      	ldr	r6, [pc, #52]	@ (8002600 <__aeabi_dcmpun+0x40>)
 80025cc:	030c      	lsls	r4, r1, #12
 80025ce:	004d      	lsls	r5, r1, #1
 80025d0:	005f      	lsls	r7, r3, #1
 80025d2:	b500      	push	{lr}
 80025d4:	0b24      	lsrs	r4, r4, #12
 80025d6:	0d6d      	lsrs	r5, r5, #21
 80025d8:	0d7f      	lsrs	r7, r7, #21
 80025da:	42b5      	cmp	r5, r6
 80025dc:	d00b      	beq.n	80025f6 <__aeabi_dcmpun+0x36>
 80025de:	4908      	ldr	r1, [pc, #32]	@ (8002600 <__aeabi_dcmpun+0x40>)
 80025e0:	2000      	movs	r0, #0
 80025e2:	428f      	cmp	r7, r1
 80025e4:	d104      	bne.n	80025f0 <__aeabi_dcmpun+0x30>
 80025e6:	4646      	mov	r6, r8
 80025e8:	4316      	orrs	r6, r2
 80025ea:	0030      	movs	r0, r6
 80025ec:	1e43      	subs	r3, r0, #1
 80025ee:	4198      	sbcs	r0, r3
 80025f0:	bc80      	pop	{r7}
 80025f2:	46b8      	mov	r8, r7
 80025f4:	bdf0      	pop	{r4, r5, r6, r7, pc}
 80025f6:	4304      	orrs	r4, r0
 80025f8:	2001      	movs	r0, #1
 80025fa:	2c00      	cmp	r4, #0
 80025fc:	d1f8      	bne.n	80025f0 <__aeabi_dcmpun+0x30>
 80025fe:	e7ee      	b.n	80025de <__aeabi_dcmpun+0x1e>
 8002600:	000007ff 	.word	0x000007ff

08002604 <__aeabi_d2iz>:
 8002604:	000b      	movs	r3, r1
 8002606:	0002      	movs	r2, r0
 8002608:	b570      	push	{r4, r5, r6, lr}
 800260a:	4d16      	ldr	r5, [pc, #88]	@ (8002664 <__aeabi_d2iz+0x60>)
 800260c:	030c      	lsls	r4, r1, #12
 800260e:	b082      	sub	sp, #8
 8002610:	0049      	lsls	r1, r1, #1
 8002612:	2000      	movs	r0, #0
 8002614:	9200      	str	r2, [sp, #0]
 8002616:	9301      	str	r3, [sp, #4]
 8002618:	0b24      	lsrs	r4, r4, #12
 800261a:	0d49      	lsrs	r1, r1, #21
 800261c:	0fde      	lsrs	r6, r3, #31
 800261e:	42a9      	cmp	r1, r5
 8002620:	dd04      	ble.n	800262c <__aeabi_d2iz+0x28>
 8002622:	4811      	ldr	r0, [pc, #68]	@ (8002668 <__aeabi_d2iz+0x64>)
 8002624:	4281      	cmp	r1, r0
 8002626:	dd03      	ble.n	8002630 <__aeabi_d2iz+0x2c>
 8002628:	4b10      	ldr	r3, [pc, #64]	@ (800266c <__aeabi_d2iz+0x68>)
 800262a:	18f0      	adds	r0, r6, r3
 800262c:	b002      	add	sp, #8
 800262e:	bd70      	pop	{r4, r5, r6, pc}
 8002630:	2080      	movs	r0, #128	@ 0x80
 8002632:	0340      	lsls	r0, r0, #13
 8002634:	4320      	orrs	r0, r4
 8002636:	4c0e      	ldr	r4, [pc, #56]	@ (8002670 <__aeabi_d2iz+0x6c>)
 8002638:	1a64      	subs	r4, r4, r1
 800263a:	2c1f      	cmp	r4, #31
 800263c:	dd08      	ble.n	8002650 <__aeabi_d2iz+0x4c>
 800263e:	4b0d      	ldr	r3, [pc, #52]	@ (8002674 <__aeabi_d2iz+0x70>)
 8002640:	1a5b      	subs	r3, r3, r1
 8002642:	40d8      	lsrs	r0, r3
 8002644:	0003      	movs	r3, r0
 8002646:	4258      	negs	r0, r3
 8002648:	2e00      	cmp	r6, #0
 800264a:	d1ef      	bne.n	800262c <__aeabi_d2iz+0x28>
 800264c:	0018      	movs	r0, r3
 800264e:	e7ed      	b.n	800262c <__aeabi_d2iz+0x28>
 8002650:	4b09      	ldr	r3, [pc, #36]	@ (8002678 <__aeabi_d2iz+0x74>)
 8002652:	9a00      	ldr	r2, [sp, #0]
 8002654:	469c      	mov	ip, r3
 8002656:	0003      	movs	r3, r0
 8002658:	4461      	add	r1, ip
 800265a:	408b      	lsls	r3, r1
 800265c:	40e2      	lsrs	r2, r4
 800265e:	4313      	orrs	r3, r2
 8002660:	e7f1      	b.n	8002646 <__aeabi_d2iz+0x42>
 8002662:	46c0      	nop			@ (mov r8, r8)
 8002664:	000003fe 	.word	0x000003fe
 8002668:	0000041d 	.word	0x0000041d
 800266c:	7fffffff 	.word	0x7fffffff
 8002670:	00000433 	.word	0x00000433
 8002674:	00000413 	.word	0x00000413
 8002678:	fffffbed 	.word	0xfffffbed

0800267c <__aeabi_i2d>:
 800267c:	b570      	push	{r4, r5, r6, lr}
 800267e:	2800      	cmp	r0, #0
 8002680:	d016      	beq.n	80026b0 <__aeabi_i2d+0x34>
 8002682:	17c3      	asrs	r3, r0, #31
 8002684:	18c5      	adds	r5, r0, r3
 8002686:	405d      	eors	r5, r3
 8002688:	0fc4      	lsrs	r4, r0, #31
 800268a:	0028      	movs	r0, r5
 800268c:	f000 f86c 	bl	8002768 <__clzsi2>
 8002690:	4b10      	ldr	r3, [pc, #64]	@ (80026d4 <__aeabi_i2d+0x58>)
 8002692:	1a1b      	subs	r3, r3, r0
 8002694:	055b      	lsls	r3, r3, #21
 8002696:	0d5b      	lsrs	r3, r3, #21
 8002698:	280a      	cmp	r0, #10
 800269a:	dc14      	bgt.n	80026c6 <__aeabi_i2d+0x4a>
 800269c:	0002      	movs	r2, r0
 800269e:	002e      	movs	r6, r5
 80026a0:	3215      	adds	r2, #21
 80026a2:	4096      	lsls	r6, r2
 80026a4:	220b      	movs	r2, #11
 80026a6:	1a12      	subs	r2, r2, r0
 80026a8:	40d5      	lsrs	r5, r2
 80026aa:	032d      	lsls	r5, r5, #12
 80026ac:	0b2d      	lsrs	r5, r5, #12
 80026ae:	e003      	b.n	80026b8 <__aeabi_i2d+0x3c>
 80026b0:	2400      	movs	r4, #0
 80026b2:	2300      	movs	r3, #0
 80026b4:	2500      	movs	r5, #0
 80026b6:	2600      	movs	r6, #0
 80026b8:	051b      	lsls	r3, r3, #20
 80026ba:	432b      	orrs	r3, r5
 80026bc:	07e4      	lsls	r4, r4, #31
 80026be:	4323      	orrs	r3, r4
 80026c0:	0030      	movs	r0, r6
 80026c2:	0019      	movs	r1, r3
 80026c4:	bd70      	pop	{r4, r5, r6, pc}
 80026c6:	380b      	subs	r0, #11
 80026c8:	4085      	lsls	r5, r0
 80026ca:	032d      	lsls	r5, r5, #12
 80026cc:	2600      	movs	r6, #0
 80026ce:	0b2d      	lsrs	r5, r5, #12
 80026d0:	e7f2      	b.n	80026b8 <__aeabi_i2d+0x3c>
 80026d2:	46c0      	nop			@ (mov r8, r8)
 80026d4:	0000041e 	.word	0x0000041e

080026d8 <__aeabi_f2d>:
 80026d8:	b570      	push	{r4, r5, r6, lr}
 80026da:	0242      	lsls	r2, r0, #9
 80026dc:	0043      	lsls	r3, r0, #1
 80026de:	0fc4      	lsrs	r4, r0, #31
 80026e0:	20fe      	movs	r0, #254	@ 0xfe
 80026e2:	0e1b      	lsrs	r3, r3, #24
 80026e4:	1c59      	adds	r1, r3, #1
 80026e6:	0a55      	lsrs	r5, r2, #9
 80026e8:	4208      	tst	r0, r1
 80026ea:	d00c      	beq.n	8002706 <__aeabi_f2d+0x2e>
 80026ec:	21e0      	movs	r1, #224	@ 0xe0
 80026ee:	0089      	lsls	r1, r1, #2
 80026f0:	468c      	mov	ip, r1
 80026f2:	076d      	lsls	r5, r5, #29
 80026f4:	0b12      	lsrs	r2, r2, #12
 80026f6:	4463      	add	r3, ip
 80026f8:	051b      	lsls	r3, r3, #20
 80026fa:	4313      	orrs	r3, r2
 80026fc:	07e4      	lsls	r4, r4, #31
 80026fe:	4323      	orrs	r3, r4
 8002700:	0028      	movs	r0, r5
 8002702:	0019      	movs	r1, r3
 8002704:	bd70      	pop	{r4, r5, r6, pc}
 8002706:	2b00      	cmp	r3, #0
 8002708:	d114      	bne.n	8002734 <__aeabi_f2d+0x5c>
 800270a:	2d00      	cmp	r5, #0
 800270c:	d01b      	beq.n	8002746 <__aeabi_f2d+0x6e>
 800270e:	0028      	movs	r0, r5
 8002710:	f000 f82a 	bl	8002768 <__clzsi2>
 8002714:	280a      	cmp	r0, #10
 8002716:	dc1c      	bgt.n	8002752 <__aeabi_f2d+0x7a>
 8002718:	230b      	movs	r3, #11
 800271a:	002a      	movs	r2, r5
 800271c:	1a1b      	subs	r3, r3, r0
 800271e:	40da      	lsrs	r2, r3
 8002720:	0003      	movs	r3, r0
 8002722:	3315      	adds	r3, #21
 8002724:	409d      	lsls	r5, r3
 8002726:	4b0e      	ldr	r3, [pc, #56]	@ (8002760 <__aeabi_f2d+0x88>)
 8002728:	0312      	lsls	r2, r2, #12
 800272a:	1a1b      	subs	r3, r3, r0
 800272c:	055b      	lsls	r3, r3, #21
 800272e:	0b12      	lsrs	r2, r2, #12
 8002730:	0d5b      	lsrs	r3, r3, #21
 8002732:	e7e1      	b.n	80026f8 <__aeabi_f2d+0x20>
 8002734:	2d00      	cmp	r5, #0
 8002736:	d009      	beq.n	800274c <__aeabi_f2d+0x74>
 8002738:	0b13      	lsrs	r3, r2, #12
 800273a:	2280      	movs	r2, #128	@ 0x80
 800273c:	0312      	lsls	r2, r2, #12
 800273e:	431a      	orrs	r2, r3
 8002740:	076d      	lsls	r5, r5, #29
 8002742:	4b08      	ldr	r3, [pc, #32]	@ (8002764 <__aeabi_f2d+0x8c>)
 8002744:	e7d8      	b.n	80026f8 <__aeabi_f2d+0x20>
 8002746:	2300      	movs	r3, #0
 8002748:	2200      	movs	r2, #0
 800274a:	e7d5      	b.n	80026f8 <__aeabi_f2d+0x20>
 800274c:	2200      	movs	r2, #0
 800274e:	4b05      	ldr	r3, [pc, #20]	@ (8002764 <__aeabi_f2d+0x8c>)
 8002750:	e7d2      	b.n	80026f8 <__aeabi_f2d+0x20>
 8002752:	0003      	movs	r3, r0
 8002754:	002a      	movs	r2, r5
 8002756:	3b0b      	subs	r3, #11
 8002758:	409a      	lsls	r2, r3
 800275a:	2500      	movs	r5, #0
 800275c:	e7e3      	b.n	8002726 <__aeabi_f2d+0x4e>
 800275e:	46c0      	nop			@ (mov r8, r8)
 8002760:	00000389 	.word	0x00000389
 8002764:	000007ff 	.word	0x000007ff

08002768 <__clzsi2>:
 8002768:	211c      	movs	r1, #28
 800276a:	2301      	movs	r3, #1
 800276c:	041b      	lsls	r3, r3, #16
 800276e:	4298      	cmp	r0, r3
 8002770:	d301      	bcc.n	8002776 <__clzsi2+0xe>
 8002772:	0c00      	lsrs	r0, r0, #16
 8002774:	3910      	subs	r1, #16
 8002776:	0a1b      	lsrs	r3, r3, #8
 8002778:	4298      	cmp	r0, r3
 800277a:	d301      	bcc.n	8002780 <__clzsi2+0x18>
 800277c:	0a00      	lsrs	r0, r0, #8
 800277e:	3908      	subs	r1, #8
 8002780:	091b      	lsrs	r3, r3, #4
 8002782:	4298      	cmp	r0, r3
 8002784:	d301      	bcc.n	800278a <__clzsi2+0x22>
 8002786:	0900      	lsrs	r0, r0, #4
 8002788:	3904      	subs	r1, #4
 800278a:	a202      	add	r2, pc, #8	@ (adr r2, 8002794 <__clzsi2+0x2c>)
 800278c:	5c10      	ldrb	r0, [r2, r0]
 800278e:	1840      	adds	r0, r0, r1
 8002790:	4770      	bx	lr
 8002792:	46c0      	nop			@ (mov r8, r8)
 8002794:	02020304 	.word	0x02020304
 8002798:	01010101 	.word	0x01010101
	...

080027a4 <__clzdi2>:
 80027a4:	b510      	push	{r4, lr}
 80027a6:	2900      	cmp	r1, #0
 80027a8:	d103      	bne.n	80027b2 <__clzdi2+0xe>
 80027aa:	f7ff ffdd 	bl	8002768 <__clzsi2>
 80027ae:	3020      	adds	r0, #32
 80027b0:	e002      	b.n	80027b8 <__clzdi2+0x14>
 80027b2:	0008      	movs	r0, r1
 80027b4:	f7ff ffd8 	bl	8002768 <__clzsi2>
 80027b8:	bd10      	pop	{r4, pc}
 80027ba:	46c0      	nop			@ (mov r8, r8)

080027bc <HAL_Init>:
  *         each 1ms in the SysTick_Handler() interrupt handler.
  *
  * @retval HAL status
  */
HAL_StatusTypeDef HAL_Init(void)
{
 80027bc:	b580      	push	{r7, lr}
 80027be:	b082      	sub	sp, #8
 80027c0:	af00      	add	r7, sp, #0
  HAL_StatusTypeDef  status = HAL_OK;
 80027c2:	1dfb      	adds	r3, r7, #7
 80027c4:	2200      	movs	r2, #0
 80027c6:	701a      	strb	r2, [r3, #0]
#if (INSTRUCTION_CACHE_ENABLE == 0U)
  __HAL_FLASH_INSTRUCTION_CACHE_DISABLE();
#endif /* INSTRUCTION_CACHE_ENABLE */

#if (PREFETCH_ENABLE != 0U)
  __HAL_FLASH_PREFETCH_BUFFER_ENABLE();
 80027c8:	4b0b      	ldr	r3, [pc, #44]	@ (80027f8 <HAL_Init+0x3c>)
 80027ca:	681a      	ldr	r2, [r3, #0]
 80027cc:	4b0a      	ldr	r3, [pc, #40]	@ (80027f8 <HAL_Init+0x3c>)
 80027ce:	2180      	movs	r1, #128	@ 0x80
 80027d0:	0049      	lsls	r1, r1, #1
 80027d2:	430a      	orrs	r2, r1
 80027d4:	601a      	str	r2, [r3, #0]
#endif /* PREFETCH_ENABLE */

  /* Use SysTick as time base source and configure 1ms tick (default clock after Reset is HSI) */
  if (HAL_InitTick(TICK_INT_PRIORITY) != HAL_OK)
 80027d6:	2003      	movs	r0, #3
 80027d8:	f000 f810 	bl	80027fc <HAL_InitTick>
 80027dc:	1e03      	subs	r3, r0, #0
 80027de:	d003      	beq.n	80027e8 <HAL_Init+0x2c>
  {
    status = HAL_ERROR;
 80027e0:	1dfb      	adds	r3, r7, #7
 80027e2:	2201      	movs	r2, #1
 80027e4:	701a      	strb	r2, [r3, #0]
 80027e6:	e001      	b.n	80027ec <HAL_Init+0x30>
  }
  else
  {
  /* Init the low level hardware */
  HAL_MspInit();
 80027e8:	f004 f998 	bl	8006b1c <HAL_MspInit>
  }

  /* Return function status */
  return status;
 80027ec:	1dfb      	adds	r3, r7, #7
 80027ee:	781b      	ldrb	r3, [r3, #0]
}
 80027f0:	0018      	movs	r0, r3
 80027f2:	46bd      	mov	sp, r7
 80027f4:	b002      	add	sp, #8
 80027f6:	bd80      	pop	{r7, pc}
 80027f8:	40022000 	.word	0x40022000

080027fc <HAL_InitTick>:
  *       implementation  in user file.
  * @param TickPriority Tick interrupt priority.
  * @retval HAL status
  */
__weak HAL_StatusTypeDef HAL_InitTick(uint32_t TickPriority)
{
 80027fc:	b590      	push	{r4, r7, lr}
 80027fe:	b085      	sub	sp, #20
 8002800:	af00      	add	r7, sp, #0
 8002802:	6078      	str	r0, [r7, #4]
  HAL_StatusTypeDef  status = HAL_OK;
 8002804:	230f      	movs	r3, #15
 8002806:	18fb      	adds	r3, r7, r3
 8002808:	2200      	movs	r2, #0
 800280a:	701a      	strb	r2, [r3, #0]

  /* Check uwTickFreq for MisraC 2012 (even if uwTickFreq is a enum type that doesn't take the value zero)*/ 
  if ((uint32_t)uwTickFreq != 0U)
 800280c:	4b1d      	ldr	r3, [pc, #116]	@ (8002884 <HAL_InitTick+0x88>)
 800280e:	781b      	ldrb	r3, [r3, #0]
 8002810:	2b00      	cmp	r3, #0
 8002812:	d02b      	beq.n	800286c <HAL_InitTick+0x70>
  {
    /*Configure the SysTick to have interrupt in 1ms time basis*/
    if (HAL_SYSTICK_Config(SystemCoreClock / (1000U /(uint32_t)uwTickFreq)) == 0U)
 8002814:	4b1c      	ldr	r3, [pc, #112]	@ (8002888 <HAL_InitTick+0x8c>)
 8002816:	681c      	ldr	r4, [r3, #0]
 8002818:	4b1a      	ldr	r3, [pc, #104]	@ (8002884 <HAL_InitTick+0x88>)
 800281a:	781b      	ldrb	r3, [r3, #0]
 800281c:	0019      	movs	r1, r3
 800281e:	23fa      	movs	r3, #250	@ 0xfa
 8002820:	0098      	lsls	r0, r3, #2
 8002822:	f7fd fc77 	bl	8000114 <__udivsi3>
 8002826:	0003      	movs	r3, r0
 8002828:	0019      	movs	r1, r3
 800282a:	0020      	movs	r0, r4
 800282c:	f7fd fc72 	bl	8000114 <__udivsi3>
 8002830:	0003      	movs	r3, r0
 8002832:	0018      	movs	r0, r3
 8002834:	f000 f913 	bl	8002a5e <HAL_SYSTICK_Config>
 8002838:	1e03      	subs	r3, r0, #0
 800283a:	d112      	bne.n	8002862 <HAL_InitTick+0x66>
    {
      /* Configure the SysTick IRQ priority */
      if (TickPriority < (1UL << __NVIC_PRIO_BITS))
 800283c:	687b      	ldr	r3, [r7, #4]
 800283e:	2b03      	cmp	r3, #3
 8002840:	d80a      	bhi.n	8002858 <HAL_InitTick+0x5c>
      {
        HAL_NVIC_SetPriority(SysTick_IRQn, TickPriority, 0U);
 8002842:	6879      	ldr	r1, [r7, #4]
 8002844:	2301      	movs	r3, #1
 8002846:	425b      	negs	r3, r3
 8002848:	2200      	movs	r2, #0
 800284a:	0018      	movs	r0, r3
 800284c:	f000 f8f2 	bl	8002a34 <HAL_NVIC_SetPriority>
        uwTickPrio = TickPriority;
 8002850:	4b0e      	ldr	r3, [pc, #56]	@ (800288c <HAL_InitTick+0x90>)
 8002852:	687a      	ldr	r2, [r7, #4]
 8002854:	601a      	str	r2, [r3, #0]
 8002856:	e00d      	b.n	8002874 <HAL_InitTick+0x78>
      }
      else
      {
        status = HAL_ERROR;
 8002858:	230f      	movs	r3, #15
 800285a:	18fb      	adds	r3, r7, r3
 800285c:	2201      	movs	r2, #1
 800285e:	701a      	strb	r2, [r3, #0]
 8002860:	e008      	b.n	8002874 <HAL_InitTick+0x78>
      }
    }
    else
    {
      status = HAL_ERROR;
 8002862:	230f      	movs	r3, #15
 8002864:	18fb      	adds	r3, r7, r3
 8002866:	2201      	movs	r2, #1
 8002868:	701a      	strb	r2, [r3, #0]
 800286a:	e003      	b.n	8002874 <HAL_InitTick+0x78>
    }
  }
  else
  {
    status = HAL_ERROR;
 800286c:	230f      	movs	r3, #15
 800286e:	18fb      	adds	r3, r7, r3
 8002870:	2201      	movs	r2, #1
 8002872:	701a      	strb	r2, [r3, #0]
  }

  /* Return function status */
  return status;
 8002874:	230f      	movs	r3, #15
 8002876:	18fb      	adds	r3, r7, r3
 8002878:	781b      	ldrb	r3, [r3, #0]
}
 800287a:	0018      	movs	r0, r3
 800287c:	46bd      	mov	sp, r7
 800287e:	b005      	add	sp, #20
 8002880:	bd90      	pop	{r4, r7, pc}
 8002882:	46c0      	nop			@ (mov r8, r8)
 8002884:	20000004 	.word	0x20000004
 8002888:	20000008 	.word	0x20000008
 800288c:	20000000 	.word	0x20000000

08002890 <HAL_IncTick>:
  * @note This function is declared as __weak to be overwritten in case of other
  *      implementations in user file.
  * @retval None
  */
__weak void HAL_IncTick(void)
{
 8002890:	b580      	push	{r7, lr}
 8002892:	af00      	add	r7, sp, #0
  uwTick += (uint32_t)uwTickFreq;
 8002894:	4b05      	ldr	r3, [pc, #20]	@ (80028ac <HAL_IncTick+0x1c>)
 8002896:	781b      	ldrb	r3, [r3, #0]
 8002898:	001a      	movs	r2, r3
 800289a:	4b05      	ldr	r3, [pc, #20]	@ (80028b0 <HAL_IncTick+0x20>)
 800289c:	681b      	ldr	r3, [r3, #0]
 800289e:	18d2      	adds	r2, r2, r3
 80028a0:	4b03      	ldr	r3, [pc, #12]	@ (80028b0 <HAL_IncTick+0x20>)
 80028a2:	601a      	str	r2, [r3, #0]
}
 80028a4:	46c0      	nop			@ (mov r8, r8)
 80028a6:	46bd      	mov	sp, r7
 80028a8:	bd80      	pop	{r7, pc}
 80028aa:	46c0      	nop			@ (mov r8, r8)
 80028ac:	20000004 	.word	0x20000004
 80028b0:	2000008c 	.word	0x2000008c

080028b4 <HAL_GetTick>:
  * @note This function is declared as __weak to be overwritten in case of other
  *       implementations in user file.
  * @retval tick value
  */
__weak uint32_t HAL_GetTick(void)
{
 80028b4:	b580      	push	{r7, lr}
 80028b6:	af00      	add	r7, sp, #0
  return uwTick;
 80028b8:	4b02      	ldr	r3, [pc, #8]	@ (80028c4 <HAL_GetTick+0x10>)
 80028ba:	681b      	ldr	r3, [r3, #0]
}
 80028bc:	0018      	movs	r0, r3
 80028be:	46bd      	mov	sp, r7
 80028c0:	bd80      	pop	{r7, pc}
 80028c2:	46c0      	nop			@ (mov r8, r8)
 80028c4:	2000008c 	.word	0x2000008c

080028c8 <HAL_Delay>:
  *       implementations in user file.
  * @param Delay  specifies the delay time length, in milliseconds.
  * @retval None
  */
__weak void HAL_Delay(uint32_t Delay)
{
 80028c8:	b580      	push	{r7, lr}
 80028ca:	b084      	sub	sp, #16
 80028cc:	af00      	add	r7, sp, #0
 80028ce:	6078      	str	r0, [r7, #4]
  uint32_t tickstart = HAL_GetTick();
 80028d0:	f7ff fff0 	bl	80028b4 <HAL_GetTick>
 80028d4:	0003      	movs	r3, r0
 80028d6:	60bb      	str	r3, [r7, #8]
  uint32_t wait = Delay;
 80028d8:	687b      	ldr	r3, [r7, #4]
 80028da:	60fb      	str	r3, [r7, #12]

  /* Add a freq to guarantee minimum wait */
  if (wait < HAL_MAX_DELAY)
 80028dc:	68fb      	ldr	r3, [r7, #12]
 80028de:	3301      	adds	r3, #1
 80028e0:	d005      	beq.n	80028ee <HAL_Delay+0x26>
  {
    wait += (uint32_t)(uwTickFreq);
 80028e2:	4b0a      	ldr	r3, [pc, #40]	@ (800290c <HAL_Delay+0x44>)
 80028e4:	781b      	ldrb	r3, [r3, #0]
 80028e6:	001a      	movs	r2, r3
 80028e8:	68fb      	ldr	r3, [r7, #12]
 80028ea:	189b      	adds	r3, r3, r2
 80028ec:	60fb      	str	r3, [r7, #12]
  }

  while ((HAL_GetTick() - tickstart) < wait)
 80028ee:	46c0      	nop			@ (mov r8, r8)
 80028f0:	f7ff ffe0 	bl	80028b4 <HAL_GetTick>
 80028f4:	0002      	movs	r2, r0
 80028f6:	68bb      	ldr	r3, [r7, #8]
 80028f8:	1ad3      	subs	r3, r2, r3
 80028fa:	68fa      	ldr	r2, [r7, #12]
 80028fc:	429a      	cmp	r2, r3
 80028fe:	d8f7      	bhi.n	80028f0 <HAL_Delay+0x28>
  {
  }
}
 8002900:	46c0      	nop			@ (mov r8, r8)
 8002902:	46c0      	nop			@ (mov r8, r8)
 8002904:	46bd      	mov	sp, r7
 8002906:	b004      	add	sp, #16
 8002908:	bd80      	pop	{r7, pc}
 800290a:	46c0      	nop			@ (mov r8, r8)
 800290c:	20000004 	.word	0x20000004

08002910 <__NVIC_SetPriority>:
  \param [in]      IRQn  Interrupt number.
  \param [in]  priority  Priority to set.
  \note    The priority cannot be set for every processor exception.
 */
__STATIC_INLINE void __NVIC_SetPriority(IRQn_Type IRQn, uint32_t priority)
{
 8002910:	b590      	push	{r4, r7, lr}
 8002912:	b083      	sub	sp, #12
 8002914:	af00      	add	r7, sp, #0
 8002916:	0002      	movs	r2, r0
 8002918:	6039      	str	r1, [r7, #0]
 800291a:	1dfb      	adds	r3, r7, #7
 800291c:	701a      	strb	r2, [r3, #0]
  if ((int32_t)(IRQn) >= 0)
 800291e:	1dfb      	adds	r3, r7, #7
 8002920:	781b      	ldrb	r3, [r3, #0]
 8002922:	2b7f      	cmp	r3, #127	@ 0x7f
 8002924:	d828      	bhi.n	8002978 <__NVIC_SetPriority+0x68>
  {
    NVIC->IP[_IP_IDX(IRQn)]  = ((uint32_t)(NVIC->IP[_IP_IDX(IRQn)]  & ~(0xFFUL << _BIT_SHIFT(IRQn))) |
 8002926:	4a2f      	ldr	r2, [pc, #188]	@ (80029e4 <__NVIC_SetPriority+0xd4>)
 8002928:	1dfb      	adds	r3, r7, #7
 800292a:	781b      	ldrb	r3, [r3, #0]
 800292c:	b25b      	sxtb	r3, r3
 800292e:	089b      	lsrs	r3, r3, #2
 8002930:	33c0      	adds	r3, #192	@ 0xc0
 8002932:	009b      	lsls	r3, r3, #2
 8002934:	589b      	ldr	r3, [r3, r2]
 8002936:	1dfa      	adds	r2, r7, #7
 8002938:	7812      	ldrb	r2, [r2, #0]
 800293a:	0011      	movs	r1, r2
 800293c:	2203      	movs	r2, #3
 800293e:	400a      	ands	r2, r1
 8002940:	00d2      	lsls	r2, r2, #3
 8002942:	21ff      	movs	r1, #255	@ 0xff
 8002944:	4091      	lsls	r1, r2
 8002946:	000a      	movs	r2, r1
 8002948:	43d2      	mvns	r2, r2
 800294a:	401a      	ands	r2, r3
 800294c:	0011      	movs	r1, r2
       (((priority << (8U - __NVIC_PRIO_BITS)) & (uint32_t)0xFFUL) << _BIT_SHIFT(IRQn)));
 800294e:	683b      	ldr	r3, [r7, #0]
 8002950:	019b      	lsls	r3, r3, #6
 8002952:	22ff      	movs	r2, #255	@ 0xff
 8002954:	401a      	ands	r2, r3
 8002956:	1dfb      	adds	r3, r7, #7
 8002958:	781b      	ldrb	r3, [r3, #0]
 800295a:	0018      	movs	r0, r3
 800295c:	2303      	movs	r3, #3
 800295e:	4003      	ands	r3, r0
 8002960:	00db      	lsls	r3, r3, #3
 8002962:	409a      	lsls	r2, r3
    NVIC->IP[_IP_IDX(IRQn)]  = ((uint32_t)(NVIC->IP[_IP_IDX(IRQn)]  & ~(0xFFUL << _BIT_SHIFT(IRQn))) |
 8002964:	481f      	ldr	r0, [pc, #124]	@ (80029e4 <__NVIC_SetPriority+0xd4>)
 8002966:	1dfb      	adds	r3, r7, #7
 8002968:	781b      	ldrb	r3, [r3, #0]
 800296a:	b25b      	sxtb	r3, r3
 800296c:	089b      	lsrs	r3, r3, #2
 800296e:	430a      	orrs	r2, r1
 8002970:	33c0      	adds	r3, #192	@ 0xc0
 8002972:	009b      	lsls	r3, r3, #2
 8002974:	501a      	str	r2, [r3, r0]
  else
  {
    SCB->SHP[_SHP_IDX(IRQn)] = ((uint32_t)(SCB->SHP[_SHP_IDX(IRQn)] & ~(0xFFUL << _BIT_SHIFT(IRQn))) |
       (((priority << (8U - __NVIC_PRIO_BITS)) & (uint32_t)0xFFUL) << _BIT_SHIFT(IRQn)));
  }
}
 8002976:	e031      	b.n	80029dc <__NVIC_SetPriority+0xcc>
    SCB->SHP[_SHP_IDX(IRQn)] = ((uint32_t)(SCB->SHP[_SHP_IDX(IRQn)] & ~(0xFFUL << _BIT_SHIFT(IRQn))) |
 8002978:	4a1b      	ldr	r2, [pc, #108]	@ (80029e8 <__NVIC_SetPriority+0xd8>)
 800297a:	1dfb      	adds	r3, r7, #7
 800297c:	781b      	ldrb	r3, [r3, #0]
 800297e:	0019      	movs	r1, r3
 8002980:	230f      	movs	r3, #15
 8002982:	400b      	ands	r3, r1
 8002984:	3b08      	subs	r3, #8
 8002986:	089b      	lsrs	r3, r3, #2
 8002988:	3306      	adds	r3, #6
 800298a:	009b      	lsls	r3, r3, #2
 800298c:	18d3      	adds	r3, r2, r3
 800298e:	3304      	adds	r3, #4
 8002990:	681b      	ldr	r3, [r3, #0]
 8002992:	1dfa      	adds	r2, r7, #7
 8002994:	7812      	ldrb	r2, [r2, #0]
 8002996:	0011      	movs	r1, r2
 8002998:	2203      	movs	r2, #3
 800299a:	400a      	ands	r2, r1
 800299c:	00d2      	lsls	r2, r2, #3
 800299e:	21ff      	movs	r1, #255	@ 0xff
 80029a0:	4091      	lsls	r1, r2
 80029a2:	000a      	movs	r2, r1
 80029a4:	43d2      	mvns	r2, r2
 80029a6:	401a      	ands	r2, r3
 80029a8:	0011      	movs	r1, r2
       (((priority << (8U - __NVIC_PRIO_BITS)) & (uint32_t)0xFFUL) << _BIT_SHIFT(IRQn)));
 80029aa:	683b      	ldr	r3, [r7, #0]
 80029ac:	019b      	lsls	r3, r3, #6
 80029ae:	22ff      	movs	r2, #255	@ 0xff
 80029b0:	401a      	ands	r2, r3
 80029b2:	1dfb      	adds	r3, r7, #7
 80029b4:	781b      	ldrb	r3, [r3, #0]
 80029b6:	0018      	movs	r0, r3
 80029b8:	2303      	movs	r3, #3
 80029ba:	4003      	ands	r3, r0
 80029bc:	00db      	lsls	r3, r3, #3
 80029be:	409a      	lsls	r2, r3
    SCB->SHP[_SHP_IDX(IRQn)] = ((uint32_t)(SCB->SHP[_SHP_IDX(IRQn)] & ~(0xFFUL << _BIT_SHIFT(IRQn))) |
 80029c0:	4809      	ldr	r0, [pc, #36]	@ (80029e8 <__NVIC_SetPriority+0xd8>)
 80029c2:	1dfb      	adds	r3, r7, #7
 80029c4:	781b      	ldrb	r3, [r3, #0]
 80029c6:	001c      	movs	r4, r3
 80029c8:	230f      	movs	r3, #15
 80029ca:	4023      	ands	r3, r4
 80029cc:	3b08      	subs	r3, #8
 80029ce:	089b      	lsrs	r3, r3, #2
 80029d0:	430a      	orrs	r2, r1
 80029d2:	3306      	adds	r3, #6
 80029d4:	009b      	lsls	r3, r3, #2
 80029d6:	18c3      	adds	r3, r0, r3
 80029d8:	3304      	adds	r3, #4
 80029da:	601a      	str	r2, [r3, #0]
}
 80029dc:	46c0      	nop			@ (mov r8, r8)
 80029de:	46bd      	mov	sp, r7
 80029e0:	b003      	add	sp, #12
 80029e2:	bd90      	pop	{r4, r7, pc}
 80029e4:	e000e100 	.word	0xe000e100
 80029e8:	e000ed00 	.word	0xe000ed00

080029ec <SysTick_Config>:
  \note    When the variable <b>__Vendor_SysTickConfig</b> is set to 1, then the
           function <b>SysTick_Config</b> is not included. In this case, the file <b><i>device</i>.h</b>
           must contain a vendor-specific implementation of this function.
 */
__STATIC_INLINE uint32_t SysTick_Config(uint32_t ticks)
{
 80029ec:	b580      	push	{r7, lr}
 80029ee:	b082      	sub	sp, #8
 80029f0:	af00      	add	r7, sp, #0
 80029f2:	6078      	str	r0, [r7, #4]
  if ((ticks - 1UL) > SysTick_LOAD_RELOAD_Msk)
 80029f4:	687b      	ldr	r3, [r7, #4]
 80029f6:	1e5a      	subs	r2, r3, #1
 80029f8:	2380      	movs	r3, #128	@ 0x80
 80029fa:	045b      	lsls	r3, r3, #17
 80029fc:	429a      	cmp	r2, r3
 80029fe:	d301      	bcc.n	8002a04 <SysTick_Config+0x18>
  {
    return (1UL);                                                   /* Reload value impossible */
 8002a00:	2301      	movs	r3, #1
 8002a02:	e010      	b.n	8002a26 <SysTick_Config+0x3a>
  }

  SysTick->LOAD  = (uint32_t)(ticks - 1UL);                         /* set reload register */
 8002a04:	4b0a      	ldr	r3, [pc, #40]	@ (8002a30 <SysTick_Config+0x44>)
 8002a06:	687a      	ldr	r2, [r7, #4]
 8002a08:	3a01      	subs	r2, #1
 8002a0a:	605a      	str	r2, [r3, #4]
  NVIC_SetPriority (SysTick_IRQn, (1UL << __NVIC_PRIO_BITS) - 1UL); /* set Priority for Systick Interrupt */
 8002a0c:	2301      	movs	r3, #1
 8002a0e:	425b      	negs	r3, r3
 8002a10:	2103      	movs	r1, #3
 8002a12:	0018      	movs	r0, r3
 8002a14:	f7ff ff7c 	bl	8002910 <__NVIC_SetPriority>
  SysTick->VAL   = 0UL;                                             /* Load the SysTick Counter Value */
 8002a18:	4b05      	ldr	r3, [pc, #20]	@ (8002a30 <SysTick_Config+0x44>)
 8002a1a:	2200      	movs	r2, #0
 8002a1c:	609a      	str	r2, [r3, #8]
  SysTick->CTRL  = SysTick_CTRL_CLKSOURCE_Msk |
 8002a1e:	4b04      	ldr	r3, [pc, #16]	@ (8002a30 <SysTick_Config+0x44>)
 8002a20:	2207      	movs	r2, #7
 8002a22:	601a      	str	r2, [r3, #0]
                   SysTick_CTRL_TICKINT_Msk   |
                   SysTick_CTRL_ENABLE_Msk;                         /* Enable SysTick IRQ and SysTick Timer */
  return (0UL);                                                     /* Function successful */
 8002a24:	2300      	movs	r3, #0
}
 8002a26:	0018      	movs	r0, r3
 8002a28:	46bd      	mov	sp, r7
 8002a2a:	b002      	add	sp, #8
 8002a2c:	bd80      	pop	{r7, pc}
 8002a2e:	46c0      	nop			@ (mov r8, r8)
 8002a30:	e000e010 	.word	0xe000e010

08002a34 <HAL_NVIC_SetPriority>:
  *         with stm32g0xx devices, this parameter is a dummy value and it is ignored, because
  *         no subpriority supported in Cortex M0+ based products.
  * @retval None
  */
void HAL_NVIC_SetPriority(IRQn_Type IRQn, uint32_t PreemptPriority, uint32_t SubPriority)
{
 8002a34:	b580      	push	{r7, lr}
 8002a36:	b084      	sub	sp, #16
 8002a38:	af00      	add	r7, sp, #0
 8002a3a:	60b9      	str	r1, [r7, #8]
 8002a3c:	607a      	str	r2, [r7, #4]
 8002a3e:	210f      	movs	r1, #15
 8002a40:	187b      	adds	r3, r7, r1
 8002a42:	1c02      	adds	r2, r0, #0
 8002a44:	701a      	strb	r2, [r3, #0]
  /* Prevent unused argument(s) compilation warning */
  UNUSED(SubPriority);

  /* Check the parameters */
  assert_param(IS_NVIC_PREEMPTION_PRIORITY(PreemptPriority));
  NVIC_SetPriority(IRQn, PreemptPriority);
 8002a46:	68ba      	ldr	r2, [r7, #8]
 8002a48:	187b      	adds	r3, r7, r1
 8002a4a:	781b      	ldrb	r3, [r3, #0]
 8002a4c:	b25b      	sxtb	r3, r3
 8002a4e:	0011      	movs	r1, r2
 8002a50:	0018      	movs	r0, r3
 8002a52:	f7ff ff5d 	bl	8002910 <__NVIC_SetPriority>
}
 8002a56:	46c0      	nop			@ (mov r8, r8)
 8002a58:	46bd      	mov	sp, r7
 8002a5a:	b004      	add	sp, #16
 8002a5c:	bd80      	pop	{r7, pc}

08002a5e <HAL_SYSTICK_Config>:
  * @param  TicksNumb Specifies the ticks Number of ticks between two interrupts.
  * @retval status:  - 0  Function succeeded.
  *                  - 1  Function failed.
  */
uint32_t HAL_SYSTICK_Config(uint32_t TicksNumb)
{
 8002a5e:	b580      	push	{r7, lr}
 8002a60:	b082      	sub	sp, #8
 8002a62:	af00      	add	r7, sp, #0
 8002a64:	6078      	str	r0, [r7, #4]
  return SysTick_Config(TicksNumb);
 8002a66:	687b      	ldr	r3, [r7, #4]
 8002a68:	0018      	movs	r0, r3
 8002a6a:	f7ff ffbf 	bl	80029ec <SysTick_Config>
 8002a6e:	0003      	movs	r3, r0
}
 8002a70:	0018      	movs	r0, r3
 8002a72:	46bd      	mov	sp, r7
 8002a74:	b002      	add	sp, #8
 8002a76:	bd80      	pop	{r7, pc}

08002a78 <HAL_GPIO_Init>:
  * @param  GPIO_Init pointer to a GPIO_InitTypeDef structure that contains
  *         the configuration information for the specified GPIO peripheral.
  * @retval None
  */
void HAL_GPIO_Init(GPIO_TypeDef  *GPIOx, GPIO_InitTypeDef *GPIO_Init)
{
 8002a78:	b580      	push	{r7, lr}
 8002a7a:	b086      	sub	sp, #24
 8002a7c:	af00      	add	r7, sp, #0
 8002a7e:	6078      	str	r0, [r7, #4]
 8002a80:	6039      	str	r1, [r7, #0]
  uint32_t position = 0x00u;
 8002a82:	2300      	movs	r3, #0
 8002a84:	617b      	str	r3, [r7, #20]
  assert_param(IS_GPIO_ALL_INSTANCE(GPIOx));
  assert_param(IS_GPIO_PIN(GPIO_Init->Pin));
  assert_param(IS_GPIO_MODE(GPIO_Init->Mode));

  /* Configure the port pins */
  while (((GPIO_Init->Pin) >> position) != 0x00u)
 8002a86:	e147      	b.n	8002d18 <HAL_GPIO_Init+0x2a0>
  {
    /* Get current io position */
    iocurrent = (GPIO_Init->Pin) & (1uL << position);
 8002a88:	683b      	ldr	r3, [r7, #0]
 8002a8a:	681b      	ldr	r3, [r3, #0]
 8002a8c:	2101      	movs	r1, #1
 8002a8e:	697a      	ldr	r2, [r7, #20]
 8002a90:	4091      	lsls	r1, r2
 8002a92:	000a      	movs	r2, r1
 8002a94:	4013      	ands	r3, r2
 8002a96:	60fb      	str	r3, [r7, #12]

    if (iocurrent != 0x00u)
 8002a98:	68fb      	ldr	r3, [r7, #12]
 8002a9a:	2b00      	cmp	r3, #0
 8002a9c:	d100      	bne.n	8002aa0 <HAL_GPIO_Init+0x28>
 8002a9e:	e138      	b.n	8002d12 <HAL_GPIO_Init+0x29a>
    {
      /*--------------------- GPIO Mode Configuration ------------------------*/
      /* In case of Output or Alternate function mode selection */
      if (((GPIO_Init->Mode & GPIO_MODE) == MODE_OUTPUT) || ((GPIO_Init->Mode & GPIO_MODE) == MODE_AF))
 8002aa0:	683b      	ldr	r3, [r7, #0]
 8002aa2:	685b      	ldr	r3, [r3, #4]
 8002aa4:	2203      	movs	r2, #3
 8002aa6:	4013      	ands	r3, r2
 8002aa8:	2b01      	cmp	r3, #1
 8002aaa:	d005      	beq.n	8002ab8 <HAL_GPIO_Init+0x40>
 8002aac:	683b      	ldr	r3, [r7, #0]
 8002aae:	685b      	ldr	r3, [r3, #4]
 8002ab0:	2203      	movs	r2, #3
 8002ab2:	4013      	ands	r3, r2
 8002ab4:	2b02      	cmp	r3, #2
 8002ab6:	d130      	bne.n	8002b1a <HAL_GPIO_Init+0xa2>
      {
        /* Check the Speed parameter */
        assert_param(IS_GPIO_SPEED(GPIO_Init->Speed));

        /* Configure the IO Speed */
        temp = GPIOx->OSPEEDR;
 8002ab8:	687b      	ldr	r3, [r7, #4]
 8002aba:	689b      	ldr	r3, [r3, #8]
 8002abc:	613b      	str	r3, [r7, #16]
        temp &= ~(GPIO_OSPEEDR_OSPEED0 << (position * 2u));
 8002abe:	697b      	ldr	r3, [r7, #20]
 8002ac0:	005b      	lsls	r3, r3, #1
 8002ac2:	2203      	movs	r2, #3
 8002ac4:	409a      	lsls	r2, r3
 8002ac6:	0013      	movs	r3, r2
 8002ac8:	43da      	mvns	r2, r3
 8002aca:	693b      	ldr	r3, [r7, #16]
 8002acc:	4013      	ands	r3, r2
 8002ace:	613b      	str	r3, [r7, #16]
        temp |= (GPIO_Init->Speed << (position * 2u));
 8002ad0:	683b      	ldr	r3, [r7, #0]
 8002ad2:	68da      	ldr	r2, [r3, #12]
 8002ad4:	697b      	ldr	r3, [r7, #20]
 8002ad6:	005b      	lsls	r3, r3, #1
 8002ad8:	409a      	lsls	r2, r3
 8002ada:	0013      	movs	r3, r2
 8002adc:	693a      	ldr	r2, [r7, #16]
 8002ade:	4313      	orrs	r3, r2
 8002ae0:	613b      	str	r3, [r7, #16]
        GPIOx->OSPEEDR = temp;
 8002ae2:	687b      	ldr	r3, [r7, #4]
 8002ae4:	693a      	ldr	r2, [r7, #16]
 8002ae6:	609a      	str	r2, [r3, #8]

        /* Configure the IO Output Type */
        temp = GPIOx->OTYPER;
 8002ae8:	687b      	ldr	r3, [r7, #4]
 8002aea:	685b      	ldr	r3, [r3, #4]
 8002aec:	613b      	str	r3, [r7, #16]
        temp &= ~(GPIO_OTYPER_OT0 << position) ;
 8002aee:	2201      	movs	r2, #1
 8002af0:	697b      	ldr	r3, [r7, #20]
 8002af2:	409a      	lsls	r2, r3
 8002af4:	0013      	movs	r3, r2
 8002af6:	43da      	mvns	r2, r3
 8002af8:	693b      	ldr	r3, [r7, #16]
 8002afa:	4013      	ands	r3, r2
 8002afc:	613b      	str	r3, [r7, #16]
        temp |= (((GPIO_Init->Mode & OUTPUT_TYPE) >> OUTPUT_TYPE_Pos) << position);
 8002afe:	683b      	ldr	r3, [r7, #0]
 8002b00:	685b      	ldr	r3, [r3, #4]
 8002b02:	091b      	lsrs	r3, r3, #4
 8002b04:	2201      	movs	r2, #1
 8002b06:	401a      	ands	r2, r3
 8002b08:	697b      	ldr	r3, [r7, #20]
 8002b0a:	409a      	lsls	r2, r3
 8002b0c:	0013      	movs	r3, r2
 8002b0e:	693a      	ldr	r2, [r7, #16]
 8002b10:	4313      	orrs	r3, r2
 8002b12:	613b      	str	r3, [r7, #16]
        GPIOx->OTYPER = temp;
 8002b14:	687b      	ldr	r3, [r7, #4]
 8002b16:	693a      	ldr	r2, [r7, #16]
 8002b18:	605a      	str	r2, [r3, #4]
      }

      if ((GPIO_Init->Mode & GPIO_MODE) != MODE_ANALOG)
 8002b1a:	683b      	ldr	r3, [r7, #0]
 8002b1c:	685b      	ldr	r3, [r3, #4]
 8002b1e:	2203      	movs	r2, #3
 8002b20:	4013      	ands	r3, r2
 8002b22:	2b03      	cmp	r3, #3
 8002b24:	d017      	beq.n	8002b56 <HAL_GPIO_Init+0xde>
      {
        /* Check the Pull parameter */
        assert_param(IS_GPIO_PULL(GPIO_Init->Pull));

        /* Activate the Pull-up or Pull down resistor for the current IO */
        temp = GPIOx->PUPDR;
 8002b26:	687b      	ldr	r3, [r7, #4]
 8002b28:	68db      	ldr	r3, [r3, #12]
 8002b2a:	613b      	str	r3, [r7, #16]
        temp &= ~(GPIO_PUPDR_PUPD0 << (position * 2u));
 8002b2c:	697b      	ldr	r3, [r7, #20]
 8002b2e:	005b      	lsls	r3, r3, #1
 8002b30:	2203      	movs	r2, #3
 8002b32:	409a      	lsls	r2, r3
 8002b34:	0013      	movs	r3, r2
 8002b36:	43da      	mvns	r2, r3
 8002b38:	693b      	ldr	r3, [r7, #16]
 8002b3a:	4013      	ands	r3, r2
 8002b3c:	613b      	str	r3, [r7, #16]
        temp |= ((GPIO_Init->Pull) << (position * 2u));
 8002b3e:	683b      	ldr	r3, [r7, #0]
 8002b40:	689a      	ldr	r2, [r3, #8]
 8002b42:	697b      	ldr	r3, [r7, #20]
 8002b44:	005b      	lsls	r3, r3, #1
 8002b46:	409a      	lsls	r2, r3
 8002b48:	0013      	movs	r3, r2
 8002b4a:	693a      	ldr	r2, [r7, #16]
 8002b4c:	4313      	orrs	r3, r2
 8002b4e:	613b      	str	r3, [r7, #16]
        GPIOx->PUPDR = temp;
 8002b50:	687b      	ldr	r3, [r7, #4]
 8002b52:	693a      	ldr	r2, [r7, #16]
 8002b54:	60da      	str	r2, [r3, #12]
      }

      /* In case of Alternate function mode selection */
      if ((GPIO_Init->Mode & GPIO_MODE) == MODE_AF)
 8002b56:	683b      	ldr	r3, [r7, #0]
 8002b58:	685b      	ldr	r3, [r3, #4]
 8002b5a:	2203      	movs	r2, #3
 8002b5c:	4013      	ands	r3, r2
 8002b5e:	2b02      	cmp	r3, #2
 8002b60:	d123      	bne.n	8002baa <HAL_GPIO_Init+0x132>
        /* Check the Alternate function parameters */
        assert_param(IS_GPIO_AF_INSTANCE(GPIOx));
        assert_param(IS_GPIO_AF(GPIO_Init->Alternate));

        /* Configure Alternate function mapped with the current IO */
        temp = GPIOx->AFR[position >> 3u];
 8002b62:	697b      	ldr	r3, [r7, #20]
 8002b64:	08da      	lsrs	r2, r3, #3
 8002b66:	687b      	ldr	r3, [r7, #4]
 8002b68:	3208      	adds	r2, #8
 8002b6a:	0092      	lsls	r2, r2, #2
 8002b6c:	58d3      	ldr	r3, [r2, r3]
 8002b6e:	613b      	str	r3, [r7, #16]
        temp &= ~(0xFu << ((position & 0x07u) * 4u));
 8002b70:	697b      	ldr	r3, [r7, #20]
 8002b72:	2207      	movs	r2, #7
 8002b74:	4013      	ands	r3, r2
 8002b76:	009b      	lsls	r3, r3, #2
 8002b78:	220f      	movs	r2, #15
 8002b7a:	409a      	lsls	r2, r3
 8002b7c:	0013      	movs	r3, r2
 8002b7e:	43da      	mvns	r2, r3
 8002b80:	693b      	ldr	r3, [r7, #16]
 8002b82:	4013      	ands	r3, r2
 8002b84:	613b      	str	r3, [r7, #16]
        temp |= ((GPIO_Init->Alternate) << ((position & 0x07u) * 4u));
 8002b86:	683b      	ldr	r3, [r7, #0]
 8002b88:	691a      	ldr	r2, [r3, #16]
 8002b8a:	697b      	ldr	r3, [r7, #20]
 8002b8c:	2107      	movs	r1, #7
 8002b8e:	400b      	ands	r3, r1
 8002b90:	009b      	lsls	r3, r3, #2
 8002b92:	409a      	lsls	r2, r3
 8002b94:	0013      	movs	r3, r2
 8002b96:	693a      	ldr	r2, [r7, #16]
 8002b98:	4313      	orrs	r3, r2
 8002b9a:	613b      	str	r3, [r7, #16]
        GPIOx->AFR[position >> 3u] = temp;
 8002b9c:	697b      	ldr	r3, [r7, #20]
 8002b9e:	08da      	lsrs	r2, r3, #3
 8002ba0:	687b      	ldr	r3, [r7, #4]
 8002ba2:	3208      	adds	r2, #8
 8002ba4:	0092      	lsls	r2, r2, #2
 8002ba6:	6939      	ldr	r1, [r7, #16]
 8002ba8:	50d1      	str	r1, [r2, r3]
      }

      /* Configure IO Direction mode (Input, Output, Alternate or Analog) */
      temp = GPIOx->MODER;
 8002baa:	687b      	ldr	r3, [r7, #4]
 8002bac:	681b      	ldr	r3, [r3, #0]
 8002bae:	613b      	str	r3, [r7, #16]
      temp &= ~(GPIO_MODER_MODE0 << (position * 2u));
 8002bb0:	697b      	ldr	r3, [r7, #20]
 8002bb2:	005b      	lsls	r3, r3, #1
 8002bb4:	2203      	movs	r2, #3
 8002bb6:	409a      	lsls	r2, r3
 8002bb8:	0013      	movs	r3, r2
 8002bba:	43da      	mvns	r2, r3
 8002bbc:	693b      	ldr	r3, [r7, #16]
 8002bbe:	4013      	ands	r3, r2
 8002bc0:	613b      	str	r3, [r7, #16]
      temp |= ((GPIO_Init->Mode & GPIO_MODE) << (position * 2u));
 8002bc2:	683b      	ldr	r3, [r7, #0]
 8002bc4:	685b      	ldr	r3, [r3, #4]
 8002bc6:	2203      	movs	r2, #3
 8002bc8:	401a      	ands	r2, r3
 8002bca:	697b      	ldr	r3, [r7, #20]
 8002bcc:	005b      	lsls	r3, r3, #1
 8002bce:	409a      	lsls	r2, r3
 8002bd0:	0013      	movs	r3, r2
 8002bd2:	693a      	ldr	r2, [r7, #16]
 8002bd4:	4313      	orrs	r3, r2
 8002bd6:	613b      	str	r3, [r7, #16]
      GPIOx->MODER = temp;
 8002bd8:	687b      	ldr	r3, [r7, #4]
 8002bda:	693a      	ldr	r2, [r7, #16]
 8002bdc:	601a      	str	r2, [r3, #0]

      /*--------------------- EXTI Mode Configuration ------------------------*/
      /* Configure the External Interrupt or event for the current IO */
      if ((GPIO_Init->Mode & EXTI_MODE) != 0x00u)
 8002bde:	683b      	ldr	r3, [r7, #0]
 8002be0:	685a      	ldr	r2, [r3, #4]
 8002be2:	23c0      	movs	r3, #192	@ 0xc0
 8002be4:	029b      	lsls	r3, r3, #10
 8002be6:	4013      	ands	r3, r2
 8002be8:	d100      	bne.n	8002bec <HAL_GPIO_Init+0x174>
 8002bea:	e092      	b.n	8002d12 <HAL_GPIO_Init+0x29a>
      {
        temp = EXTI->EXTICR[position >> 2u];
 8002bec:	4a50      	ldr	r2, [pc, #320]	@ (8002d30 <HAL_GPIO_Init+0x2b8>)
 8002bee:	697b      	ldr	r3, [r7, #20]
 8002bf0:	089b      	lsrs	r3, r3, #2
 8002bf2:	3318      	adds	r3, #24
 8002bf4:	009b      	lsls	r3, r3, #2
 8002bf6:	589b      	ldr	r3, [r3, r2]
 8002bf8:	613b      	str	r3, [r7, #16]
        temp &= ~(0x0FuL << (8u * (position & 0x03u)));
 8002bfa:	697b      	ldr	r3, [r7, #20]
 8002bfc:	2203      	movs	r2, #3
 8002bfe:	4013      	ands	r3, r2
 8002c00:	00db      	lsls	r3, r3, #3
 8002c02:	220f      	movs	r2, #15
 8002c04:	409a      	lsls	r2, r3
 8002c06:	0013      	movs	r3, r2
 8002c08:	43da      	mvns	r2, r3
 8002c0a:	693b      	ldr	r3, [r7, #16]
 8002c0c:	4013      	ands	r3, r2
 8002c0e:	613b      	str	r3, [r7, #16]
        temp |= (GPIO_GET_INDEX(GPIOx) << (8u * (position & 0x03u)));
 8002c10:	687a      	ldr	r2, [r7, #4]
 8002c12:	23a0      	movs	r3, #160	@ 0xa0
 8002c14:	05db      	lsls	r3, r3, #23
 8002c16:	429a      	cmp	r2, r3
 8002c18:	d013      	beq.n	8002c42 <HAL_GPIO_Init+0x1ca>
 8002c1a:	687b      	ldr	r3, [r7, #4]
 8002c1c:	4a45      	ldr	r2, [pc, #276]	@ (8002d34 <HAL_GPIO_Init+0x2bc>)
 8002c1e:	4293      	cmp	r3, r2
 8002c20:	d00d      	beq.n	8002c3e <HAL_GPIO_Init+0x1c6>
 8002c22:	687b      	ldr	r3, [r7, #4]
 8002c24:	4a44      	ldr	r2, [pc, #272]	@ (8002d38 <HAL_GPIO_Init+0x2c0>)
 8002c26:	4293      	cmp	r3, r2
 8002c28:	d007      	beq.n	8002c3a <HAL_GPIO_Init+0x1c2>
 8002c2a:	687b      	ldr	r3, [r7, #4]
 8002c2c:	4a43      	ldr	r2, [pc, #268]	@ (8002d3c <HAL_GPIO_Init+0x2c4>)
 8002c2e:	4293      	cmp	r3, r2
 8002c30:	d101      	bne.n	8002c36 <HAL_GPIO_Init+0x1be>
 8002c32:	2303      	movs	r3, #3
 8002c34:	e006      	b.n	8002c44 <HAL_GPIO_Init+0x1cc>
 8002c36:	2305      	movs	r3, #5
 8002c38:	e004      	b.n	8002c44 <HAL_GPIO_Init+0x1cc>
 8002c3a:	2302      	movs	r3, #2
 8002c3c:	e002      	b.n	8002c44 <HAL_GPIO_Init+0x1cc>
 8002c3e:	2301      	movs	r3, #1
 8002c40:	e000      	b.n	8002c44 <HAL_GPIO_Init+0x1cc>
 8002c42:	2300      	movs	r3, #0
 8002c44:	697a      	ldr	r2, [r7, #20]
 8002c46:	2103      	movs	r1, #3
 8002c48:	400a      	ands	r2, r1
 8002c4a:	00d2      	lsls	r2, r2, #3
 8002c4c:	4093      	lsls	r3, r2
 8002c4e:	693a      	ldr	r2, [r7, #16]
 8002c50:	4313      	orrs	r3, r2
 8002c52:	613b      	str	r3, [r7, #16]
        EXTI->EXTICR[position >> 2u] = temp;
 8002c54:	4936      	ldr	r1, [pc, #216]	@ (8002d30 <HAL_GPIO_Init+0x2b8>)
 8002c56:	697b      	ldr	r3, [r7, #20]
 8002c58:	089b      	lsrs	r3, r3, #2
 8002c5a:	3318      	adds	r3, #24
 8002c5c:	009b      	lsls	r3, r3, #2
 8002c5e:	693a      	ldr	r2, [r7, #16]
 8002c60:	505a      	str	r2, [r3, r1]

        /* Clear Rising Falling edge configuration */
        temp = EXTI->RTSR1;
 8002c62:	4b33      	ldr	r3, [pc, #204]	@ (8002d30 <HAL_GPIO_Init+0x2b8>)
 8002c64:	681b      	ldr	r3, [r3, #0]
 8002c66:	613b      	str	r3, [r7, #16]
        temp &= ~(iocurrent);
 8002c68:	68fb      	ldr	r3, [r7, #12]
 8002c6a:	43da      	mvns	r2, r3
 8002c6c:	693b      	ldr	r3, [r7, #16]
 8002c6e:	4013      	ands	r3, r2
 8002c70:	613b      	str	r3, [r7, #16]
        if ((GPIO_Init->Mode & TRIGGER_RISING) != 0x00u)
 8002c72:	683b      	ldr	r3, [r7, #0]
 8002c74:	685a      	ldr	r2, [r3, #4]
 8002c76:	2380      	movs	r3, #128	@ 0x80
 8002c78:	035b      	lsls	r3, r3, #13
 8002c7a:	4013      	ands	r3, r2
 8002c7c:	d003      	beq.n	8002c86 <HAL_GPIO_Init+0x20e>
        {
          temp |= iocurrent;
 8002c7e:	693a      	ldr	r2, [r7, #16]
 8002c80:	68fb      	ldr	r3, [r7, #12]
 8002c82:	4313      	orrs	r3, r2
 8002c84:	613b      	str	r3, [r7, #16]
        }
        EXTI->RTSR1 = temp;
 8002c86:	4b2a      	ldr	r3, [pc, #168]	@ (8002d30 <HAL_GPIO_Init+0x2b8>)
 8002c88:	693a      	ldr	r2, [r7, #16]
 8002c8a:	601a      	str	r2, [r3, #0]

        temp = EXTI->FTSR1;
 8002c8c:	4b28      	ldr	r3, [pc, #160]	@ (8002d30 <HAL_GPIO_Init+0x2b8>)
 8002c8e:	685b      	ldr	r3, [r3, #4]
 8002c90:	613b      	str	r3, [r7, #16]
        temp &= ~(iocurrent);
 8002c92:	68fb      	ldr	r3, [r7, #12]
 8002c94:	43da      	mvns	r2, r3
 8002c96:	693b      	ldr	r3, [r7, #16]
 8002c98:	4013      	ands	r3, r2
 8002c9a:	613b      	str	r3, [r7, #16]
        if ((GPIO_Init->Mode & TRIGGER_FALLING) != 0x00u)
 8002c9c:	683b      	ldr	r3, [r7, #0]
 8002c9e:	685a      	ldr	r2, [r3, #4]
 8002ca0:	2380      	movs	r3, #128	@ 0x80
 8002ca2:	039b      	lsls	r3, r3, #14
 8002ca4:	4013      	ands	r3, r2
 8002ca6:	d003      	beq.n	8002cb0 <HAL_GPIO_Init+0x238>
        {
          temp |= iocurrent;
 8002ca8:	693a      	ldr	r2, [r7, #16]
 8002caa:	68fb      	ldr	r3, [r7, #12]
 8002cac:	4313      	orrs	r3, r2
 8002cae:	613b      	str	r3, [r7, #16]
        }
        EXTI->FTSR1 = temp;
 8002cb0:	4b1f      	ldr	r3, [pc, #124]	@ (8002d30 <HAL_GPIO_Init+0x2b8>)
 8002cb2:	693a      	ldr	r2, [r7, #16]
 8002cb4:	605a      	str	r2, [r3, #4]

        /* Clear EXTI line configuration */
        temp = EXTI->EMR1;
 8002cb6:	4a1e      	ldr	r2, [pc, #120]	@ (8002d30 <HAL_GPIO_Init+0x2b8>)
 8002cb8:	2384      	movs	r3, #132	@ 0x84
 8002cba:	58d3      	ldr	r3, [r2, r3]
 8002cbc:	613b      	str	r3, [r7, #16]
        temp &= ~(iocurrent);
 8002cbe:	68fb      	ldr	r3, [r7, #12]
 8002cc0:	43da      	mvns	r2, r3
 8002cc2:	693b      	ldr	r3, [r7, #16]
 8002cc4:	4013      	ands	r3, r2
 8002cc6:	613b      	str	r3, [r7, #16]
        if ((GPIO_Init->Mode & EXTI_EVT) != 0x00u)
 8002cc8:	683b      	ldr	r3, [r7, #0]
 8002cca:	685a      	ldr	r2, [r3, #4]
 8002ccc:	2380      	movs	r3, #128	@ 0x80
 8002cce:	029b      	lsls	r3, r3, #10
 8002cd0:	4013      	ands	r3, r2
 8002cd2:	d003      	beq.n	8002cdc <HAL_GPIO_Init+0x264>
        {
          temp |= iocurrent;
 8002cd4:	693a      	ldr	r2, [r7, #16]
 8002cd6:	68fb      	ldr	r3, [r7, #12]
 8002cd8:	4313      	orrs	r3, r2
 8002cda:	613b      	str	r3, [r7, #16]
        }
        EXTI->EMR1 = temp;
 8002cdc:	4914      	ldr	r1, [pc, #80]	@ (8002d30 <HAL_GPIO_Init+0x2b8>)
 8002cde:	2284      	movs	r2, #132	@ 0x84
 8002ce0:	693b      	ldr	r3, [r7, #16]
 8002ce2:	508b      	str	r3, [r1, r2]

        temp = EXTI->IMR1;
 8002ce4:	4a12      	ldr	r2, [pc, #72]	@ (8002d30 <HAL_GPIO_Init+0x2b8>)
 8002ce6:	2380      	movs	r3, #128	@ 0x80
 8002ce8:	58d3      	ldr	r3, [r2, r3]
 8002cea:	613b      	str	r3, [r7, #16]
        temp &= ~(iocurrent);
 8002cec:	68fb      	ldr	r3, [r7, #12]
 8002cee:	43da      	mvns	r2, r3
 8002cf0:	693b      	ldr	r3, [r7, #16]
 8002cf2:	4013      	ands	r3, r2
 8002cf4:	613b      	str	r3, [r7, #16]
        if ((GPIO_Init->Mode & EXTI_IT) != 0x00u)
 8002cf6:	683b      	ldr	r3, [r7, #0]
 8002cf8:	685a      	ldr	r2, [r3, #4]
 8002cfa:	2380      	movs	r3, #128	@ 0x80
 8002cfc:	025b      	lsls	r3, r3, #9
 8002cfe:	4013      	ands	r3, r2
 8002d00:	d003      	beq.n	8002d0a <HAL_GPIO_Init+0x292>
        {
          temp |= iocurrent;
 8002d02:	693a      	ldr	r2, [r7, #16]
 8002d04:	68fb      	ldr	r3, [r7, #12]
 8002d06:	4313      	orrs	r3, r2
 8002d08:	613b      	str	r3, [r7, #16]
        }
        EXTI->IMR1 = temp;
 8002d0a:	4909      	ldr	r1, [pc, #36]	@ (8002d30 <HAL_GPIO_Init+0x2b8>)
 8002d0c:	2280      	movs	r2, #128	@ 0x80
 8002d0e:	693b      	ldr	r3, [r7, #16]
 8002d10:	508b      	str	r3, [r1, r2]
      }
    }

    position++;
 8002d12:	697b      	ldr	r3, [r7, #20]
 8002d14:	3301      	adds	r3, #1
 8002d16:	617b      	str	r3, [r7, #20]
  while (((GPIO_Init->Pin) >> position) != 0x00u)
 8002d18:	683b      	ldr	r3, [r7, #0]
 8002d1a:	681a      	ldr	r2, [r3, #0]
 8002d1c:	697b      	ldr	r3, [r7, #20]
 8002d1e:	40da      	lsrs	r2, r3
 8002d20:	1e13      	subs	r3, r2, #0
 8002d22:	d000      	beq.n	8002d26 <HAL_GPIO_Init+0x2ae>
 8002d24:	e6b0      	b.n	8002a88 <HAL_GPIO_Init+0x10>
  }
}
 8002d26:	46c0      	nop			@ (mov r8, r8)
 8002d28:	46c0      	nop			@ (mov r8, r8)
 8002d2a:	46bd      	mov	sp, r7
 8002d2c:	b006      	add	sp, #24
 8002d2e:	bd80      	pop	{r7, pc}
 8002d30:	40021800 	.word	0x40021800
 8002d34:	50000400 	.word	0x50000400
 8002d38:	50000800 	.word	0x50000800
 8002d3c:	50000c00 	.word	0x50000c00

08002d40 <HAL_GPIO_DeInit>:
  * @param  GPIO_Pin specifies the port bit to be written.
  *         This parameter can be any combination of GPIO_Pin_x where x can be (0..15).
  * @retval None
  */
void HAL_GPIO_DeInit(GPIO_TypeDef  *GPIOx, uint32_t GPIO_Pin)
{
 8002d40:	b580      	push	{r7, lr}
 8002d42:	b086      	sub	sp, #24
 8002d44:	af00      	add	r7, sp, #0
 8002d46:	6078      	str	r0, [r7, #4]
 8002d48:	6039      	str	r1, [r7, #0]
  uint32_t position = 0x00u;
 8002d4a:	2300      	movs	r3, #0
 8002d4c:	617b      	str	r3, [r7, #20]
  /* Check the parameters */
  assert_param(IS_GPIO_ALL_INSTANCE(GPIOx));
  assert_param(IS_GPIO_PIN(GPIO_Pin));

  /* Configure the port pins */
  while ((GPIO_Pin >> position) != 0x00u)
 8002d4e:	e0b4      	b.n	8002eba <HAL_GPIO_DeInit+0x17a>
  {
    /* Get current io position */
    iocurrent = (GPIO_Pin) & (1uL << position);
 8002d50:	2201      	movs	r2, #1
 8002d52:	697b      	ldr	r3, [r7, #20]
 8002d54:	409a      	lsls	r2, r3
 8002d56:	683b      	ldr	r3, [r7, #0]
 8002d58:	4013      	ands	r3, r2
 8002d5a:	613b      	str	r3, [r7, #16]

    if (iocurrent != 0x00u)
 8002d5c:	693b      	ldr	r3, [r7, #16]
 8002d5e:	2b00      	cmp	r3, #0
 8002d60:	d100      	bne.n	8002d64 <HAL_GPIO_DeInit+0x24>
 8002d62:	e0a7      	b.n	8002eb4 <HAL_GPIO_DeInit+0x174>
    {
      /*------------------------- EXTI Mode Configuration --------------------*/
      /* Clear the External Interrupt or Event for the current IO */

      tmp = EXTI->EXTICR[position >> 2u];
 8002d64:	4a5a      	ldr	r2, [pc, #360]	@ (8002ed0 <HAL_GPIO_DeInit+0x190>)
 8002d66:	697b      	ldr	r3, [r7, #20]
 8002d68:	089b      	lsrs	r3, r3, #2
 8002d6a:	3318      	adds	r3, #24
 8002d6c:	009b      	lsls	r3, r3, #2
 8002d6e:	589b      	ldr	r3, [r3, r2]
 8002d70:	60fb      	str	r3, [r7, #12]
      tmp &= (0x0FuL << (8u * (position & 0x03u)));
 8002d72:	697b      	ldr	r3, [r7, #20]
 8002d74:	2203      	movs	r2, #3
 8002d76:	4013      	ands	r3, r2
 8002d78:	00db      	lsls	r3, r3, #3
 8002d7a:	220f      	movs	r2, #15
 8002d7c:	409a      	lsls	r2, r3
 8002d7e:	68fb      	ldr	r3, [r7, #12]
 8002d80:	4013      	ands	r3, r2
 8002d82:	60fb      	str	r3, [r7, #12]
      if (tmp == (GPIO_GET_INDEX(GPIOx) << (8u * (position & 0x03u))))
 8002d84:	687a      	ldr	r2, [r7, #4]
 8002d86:	23a0      	movs	r3, #160	@ 0xa0
 8002d88:	05db      	lsls	r3, r3, #23
 8002d8a:	429a      	cmp	r2, r3
 8002d8c:	d013      	beq.n	8002db6 <HAL_GPIO_DeInit+0x76>
 8002d8e:	687b      	ldr	r3, [r7, #4]
 8002d90:	4a50      	ldr	r2, [pc, #320]	@ (8002ed4 <HAL_GPIO_DeInit+0x194>)
 8002d92:	4293      	cmp	r3, r2
 8002d94:	d00d      	beq.n	8002db2 <HAL_GPIO_DeInit+0x72>
 8002d96:	687b      	ldr	r3, [r7, #4]
 8002d98:	4a4f      	ldr	r2, [pc, #316]	@ (8002ed8 <HAL_GPIO_DeInit+0x198>)
 8002d9a:	4293      	cmp	r3, r2
 8002d9c:	d007      	beq.n	8002dae <HAL_GPIO_DeInit+0x6e>
 8002d9e:	687b      	ldr	r3, [r7, #4]
 8002da0:	4a4e      	ldr	r2, [pc, #312]	@ (8002edc <HAL_GPIO_DeInit+0x19c>)
 8002da2:	4293      	cmp	r3, r2
 8002da4:	d101      	bne.n	8002daa <HAL_GPIO_DeInit+0x6a>
 8002da6:	2303      	movs	r3, #3
 8002da8:	e006      	b.n	8002db8 <HAL_GPIO_DeInit+0x78>
 8002daa:	2305      	movs	r3, #5
 8002dac:	e004      	b.n	8002db8 <HAL_GPIO_DeInit+0x78>
 8002dae:	2302      	movs	r3, #2
 8002db0:	e002      	b.n	8002db8 <HAL_GPIO_DeInit+0x78>
 8002db2:	2301      	movs	r3, #1
 8002db4:	e000      	b.n	8002db8 <HAL_GPIO_DeInit+0x78>
 8002db6:	2300      	movs	r3, #0
 8002db8:	697a      	ldr	r2, [r7, #20]
 8002dba:	2103      	movs	r1, #3
 8002dbc:	400a      	ands	r2, r1
 8002dbe:	00d2      	lsls	r2, r2, #3
 8002dc0:	4093      	lsls	r3, r2
 8002dc2:	68fa      	ldr	r2, [r7, #12]
 8002dc4:	429a      	cmp	r2, r3
 8002dc6:	d136      	bne.n	8002e36 <HAL_GPIO_DeInit+0xf6>
      {
        /* Clear EXTI line configuration */
        EXTI->IMR1 &= ~(iocurrent);
 8002dc8:	4a41      	ldr	r2, [pc, #260]	@ (8002ed0 <HAL_GPIO_DeInit+0x190>)
 8002dca:	2380      	movs	r3, #128	@ 0x80
 8002dcc:	58d3      	ldr	r3, [r2, r3]
 8002dce:	693a      	ldr	r2, [r7, #16]
 8002dd0:	43d2      	mvns	r2, r2
 8002dd2:	493f      	ldr	r1, [pc, #252]	@ (8002ed0 <HAL_GPIO_DeInit+0x190>)
 8002dd4:	4013      	ands	r3, r2
 8002dd6:	2280      	movs	r2, #128	@ 0x80
 8002dd8:	508b      	str	r3, [r1, r2]
        EXTI->EMR1 &= ~(iocurrent);
 8002dda:	4a3d      	ldr	r2, [pc, #244]	@ (8002ed0 <HAL_GPIO_DeInit+0x190>)
 8002ddc:	2384      	movs	r3, #132	@ 0x84
 8002dde:	58d3      	ldr	r3, [r2, r3]
 8002de0:	693a      	ldr	r2, [r7, #16]
 8002de2:	43d2      	mvns	r2, r2
 8002de4:	493a      	ldr	r1, [pc, #232]	@ (8002ed0 <HAL_GPIO_DeInit+0x190>)
 8002de6:	4013      	ands	r3, r2
 8002de8:	2284      	movs	r2, #132	@ 0x84
 8002dea:	508b      	str	r3, [r1, r2]

        /* Clear Rising Falling edge configuration */
        EXTI->FTSR1 &= ~(iocurrent);
 8002dec:	4b38      	ldr	r3, [pc, #224]	@ (8002ed0 <HAL_GPIO_DeInit+0x190>)
 8002dee:	685a      	ldr	r2, [r3, #4]
 8002df0:	693b      	ldr	r3, [r7, #16]
 8002df2:	43d9      	mvns	r1, r3
 8002df4:	4b36      	ldr	r3, [pc, #216]	@ (8002ed0 <HAL_GPIO_DeInit+0x190>)
 8002df6:	400a      	ands	r2, r1
 8002df8:	605a      	str	r2, [r3, #4]
        EXTI->RTSR1 &= ~(iocurrent);
 8002dfa:	4b35      	ldr	r3, [pc, #212]	@ (8002ed0 <HAL_GPIO_DeInit+0x190>)
 8002dfc:	681a      	ldr	r2, [r3, #0]
 8002dfe:	693b      	ldr	r3, [r7, #16]
 8002e00:	43d9      	mvns	r1, r3
 8002e02:	4b33      	ldr	r3, [pc, #204]	@ (8002ed0 <HAL_GPIO_DeInit+0x190>)
 8002e04:	400a      	ands	r2, r1
 8002e06:	601a      	str	r2, [r3, #0]

        tmp = 0x0FuL << (8u * (position & 0x03u));
 8002e08:	697b      	ldr	r3, [r7, #20]
 8002e0a:	2203      	movs	r2, #3
 8002e0c:	4013      	ands	r3, r2
 8002e0e:	00db      	lsls	r3, r3, #3
 8002e10:	220f      	movs	r2, #15
 8002e12:	409a      	lsls	r2, r3
 8002e14:	0013      	movs	r3, r2
 8002e16:	60fb      	str	r3, [r7, #12]
        EXTI->EXTICR[position >> 2u] &= ~tmp;
 8002e18:	4a2d      	ldr	r2, [pc, #180]	@ (8002ed0 <HAL_GPIO_DeInit+0x190>)
 8002e1a:	697b      	ldr	r3, [r7, #20]
 8002e1c:	089b      	lsrs	r3, r3, #2
 8002e1e:	3318      	adds	r3, #24
 8002e20:	009b      	lsls	r3, r3, #2
 8002e22:	589a      	ldr	r2, [r3, r2]
 8002e24:	68fb      	ldr	r3, [r7, #12]
 8002e26:	43d9      	mvns	r1, r3
 8002e28:	4829      	ldr	r0, [pc, #164]	@ (8002ed0 <HAL_GPIO_DeInit+0x190>)
 8002e2a:	697b      	ldr	r3, [r7, #20]
 8002e2c:	089b      	lsrs	r3, r3, #2
 8002e2e:	400a      	ands	r2, r1
 8002e30:	3318      	adds	r3, #24
 8002e32:	009b      	lsls	r3, r3, #2
 8002e34:	501a      	str	r2, [r3, r0]
      }

      /*------------------------- GPIO Mode Configuration --------------------*/
      /* Configure IO in Analog Mode */
      GPIOx->MODER |= (GPIO_MODER_MODE0 << (position * 2u));
 8002e36:	687b      	ldr	r3, [r7, #4]
 8002e38:	681a      	ldr	r2, [r3, #0]
 8002e3a:	697b      	ldr	r3, [r7, #20]
 8002e3c:	005b      	lsls	r3, r3, #1
 8002e3e:	2103      	movs	r1, #3
 8002e40:	4099      	lsls	r1, r3
 8002e42:	000b      	movs	r3, r1
 8002e44:	431a      	orrs	r2, r3
 8002e46:	687b      	ldr	r3, [r7, #4]
 8002e48:	601a      	str	r2, [r3, #0]

      /* Configure the default Alternate Function in current IO */
      GPIOx->AFR[position >> 3u] &= ~(0xFu << ((position & 0x07u) * 4u)) ;
 8002e4a:	697b      	ldr	r3, [r7, #20]
 8002e4c:	08da      	lsrs	r2, r3, #3
 8002e4e:	687b      	ldr	r3, [r7, #4]
 8002e50:	3208      	adds	r2, #8
 8002e52:	0092      	lsls	r2, r2, #2
 8002e54:	58d3      	ldr	r3, [r2, r3]
 8002e56:	697a      	ldr	r2, [r7, #20]
 8002e58:	2107      	movs	r1, #7
 8002e5a:	400a      	ands	r2, r1
 8002e5c:	0092      	lsls	r2, r2, #2
 8002e5e:	210f      	movs	r1, #15
 8002e60:	4091      	lsls	r1, r2
 8002e62:	000a      	movs	r2, r1
 8002e64:	43d1      	mvns	r1, r2
 8002e66:	697a      	ldr	r2, [r7, #20]
 8002e68:	08d2      	lsrs	r2, r2, #3
 8002e6a:	4019      	ands	r1, r3
 8002e6c:	687b      	ldr	r3, [r7, #4]
 8002e6e:	3208      	adds	r2, #8
 8002e70:	0092      	lsls	r2, r2, #2
 8002e72:	50d1      	str	r1, [r2, r3]

      /* Configure the default value for IO Speed */
      GPIOx->OSPEEDR &= ~(GPIO_OSPEEDR_OSPEED0 << (position * 2u));
 8002e74:	687b      	ldr	r3, [r7, #4]
 8002e76:	689b      	ldr	r3, [r3, #8]
 8002e78:	697a      	ldr	r2, [r7, #20]
 8002e7a:	0052      	lsls	r2, r2, #1
 8002e7c:	2103      	movs	r1, #3
 8002e7e:	4091      	lsls	r1, r2
 8002e80:	000a      	movs	r2, r1
 8002e82:	43d2      	mvns	r2, r2
 8002e84:	401a      	ands	r2, r3
 8002e86:	687b      	ldr	r3, [r7, #4]
 8002e88:	609a      	str	r2, [r3, #8]

      /* Configure the default value IO Output Type */
      GPIOx->OTYPER  &= ~(GPIO_OTYPER_OT0 << position) ;
 8002e8a:	687b      	ldr	r3, [r7, #4]
 8002e8c:	685b      	ldr	r3, [r3, #4]
 8002e8e:	2101      	movs	r1, #1
 8002e90:	697a      	ldr	r2, [r7, #20]
 8002e92:	4091      	lsls	r1, r2
 8002e94:	000a      	movs	r2, r1
 8002e96:	43d2      	mvns	r2, r2
 8002e98:	401a      	ands	r2, r3
 8002e9a:	687b      	ldr	r3, [r7, #4]
 8002e9c:	605a      	str	r2, [r3, #4]

      /* Deactivate the Pull-up and Pull-down resistor for the current IO */
      GPIOx->PUPDR &= ~(GPIO_PUPDR_PUPD0 << (position * 2u));
 8002e9e:	687b      	ldr	r3, [r7, #4]
 8002ea0:	68db      	ldr	r3, [r3, #12]
 8002ea2:	697a      	ldr	r2, [r7, #20]
 8002ea4:	0052      	lsls	r2, r2, #1
 8002ea6:	2103      	movs	r1, #3
 8002ea8:	4091      	lsls	r1, r2
 8002eaa:	000a      	movs	r2, r1
 8002eac:	43d2      	mvns	r2, r2
 8002eae:	401a      	ands	r2, r3
 8002eb0:	687b      	ldr	r3, [r7, #4]
 8002eb2:	60da      	str	r2, [r3, #12]
    }

    position++;
 8002eb4:	697b      	ldr	r3, [r7, #20]
 8002eb6:	3301      	adds	r3, #1
 8002eb8:	617b      	str	r3, [r7, #20]
  while ((GPIO_Pin >> position) != 0x00u)
 8002eba:	683a      	ldr	r2, [r7, #0]
 8002ebc:	697b      	ldr	r3, [r7, #20]
 8002ebe:	40da      	lsrs	r2, r3
 8002ec0:	1e13      	subs	r3, r2, #0
 8002ec2:	d000      	beq.n	8002ec6 <HAL_GPIO_DeInit+0x186>
 8002ec4:	e744      	b.n	8002d50 <HAL_GPIO_DeInit+0x10>
  }
}
 8002ec6:	46c0      	nop			@ (mov r8, r8)
 8002ec8:	46c0      	nop			@ (mov r8, r8)
 8002eca:	46bd      	mov	sp, r7
 8002ecc:	b006      	add	sp, #24
 8002ece:	bd80      	pop	{r7, pc}
 8002ed0:	40021800 	.word	0x40021800
 8002ed4:	50000400 	.word	0x50000400
 8002ed8:	50000800 	.word	0x50000800
 8002edc:	50000c00 	.word	0x50000c00

08002ee0 <HAL_GPIO_ReadPin>:
  * @param  GPIO_Pin specifies the port bit to read.
  *         This parameter can be any combination of GPIO_Pin_x where x can be (0..15).
  * @retval The input port pin value.
  */
GPIO_PinState HAL_GPIO_ReadPin(GPIO_TypeDef *GPIOx, uint16_t GPIO_Pin)
{
 8002ee0:	b580      	push	{r7, lr}
 8002ee2:	b084      	sub	sp, #16
 8002ee4:	af00      	add	r7, sp, #0
 8002ee6:	6078      	str	r0, [r7, #4]
 8002ee8:	000a      	movs	r2, r1
 8002eea:	1cbb      	adds	r3, r7, #2
 8002eec:	801a      	strh	r2, [r3, #0]
  GPIO_PinState bitstatus;

  /* Check the parameters */
  assert_param(IS_GPIO_PIN(GPIO_Pin));

  if ((GPIOx->IDR & GPIO_Pin) != 0x00u)
 8002eee:	687b      	ldr	r3, [r7, #4]
 8002ef0:	691b      	ldr	r3, [r3, #16]
 8002ef2:	1cba      	adds	r2, r7, #2
 8002ef4:	8812      	ldrh	r2, [r2, #0]
 8002ef6:	4013      	ands	r3, r2
 8002ef8:	d004      	beq.n	8002f04 <HAL_GPIO_ReadPin+0x24>
  {
    bitstatus = GPIO_PIN_SET;
 8002efa:	230f      	movs	r3, #15
 8002efc:	18fb      	adds	r3, r7, r3
 8002efe:	2201      	movs	r2, #1
 8002f00:	701a      	strb	r2, [r3, #0]
 8002f02:	e003      	b.n	8002f0c <HAL_GPIO_ReadPin+0x2c>
  }
  else
  {
    bitstatus = GPIO_PIN_RESET;
 8002f04:	230f      	movs	r3, #15
 8002f06:	18fb      	adds	r3, r7, r3
 8002f08:	2200      	movs	r2, #0
 8002f0a:	701a      	strb	r2, [r3, #0]
  }
  return bitstatus;
 8002f0c:	230f      	movs	r3, #15
 8002f0e:	18fb      	adds	r3, r7, r3
 8002f10:	781b      	ldrb	r3, [r3, #0]
}
 8002f12:	0018      	movs	r0, r3
 8002f14:	46bd      	mov	sp, r7
 8002f16:	b004      	add	sp, #16
 8002f18:	bd80      	pop	{r7, pc}

08002f1a <HAL_GPIO_WritePin>:
  *            @arg GPIO_PIN_RESET: to clear the port pin
  *            @arg GPIO_PIN_SET: to set the port pin
  * @retval None
  */
void HAL_GPIO_WritePin(GPIO_TypeDef *GPIOx, uint16_t GPIO_Pin, GPIO_PinState PinState)
{
 8002f1a:	b580      	push	{r7, lr}
 8002f1c:	b082      	sub	sp, #8
 8002f1e:	af00      	add	r7, sp, #0
 8002f20:	6078      	str	r0, [r7, #4]
 8002f22:	0008      	movs	r0, r1
 8002f24:	0011      	movs	r1, r2
 8002f26:	1cbb      	adds	r3, r7, #2
 8002f28:	1c02      	adds	r2, r0, #0
 8002f2a:	801a      	strh	r2, [r3, #0]
 8002f2c:	1c7b      	adds	r3, r7, #1
 8002f2e:	1c0a      	adds	r2, r1, #0
 8002f30:	701a      	strb	r2, [r3, #0]
  /* Check the parameters */
  assert_param(IS_GPIO_PIN(GPIO_Pin));
  assert_param(IS_GPIO_PIN_ACTION(PinState));

  if (PinState != GPIO_PIN_RESET)
 8002f32:	1c7b      	adds	r3, r7, #1
 8002f34:	781b      	ldrb	r3, [r3, #0]
 8002f36:	2b00      	cmp	r3, #0
 8002f38:	d004      	beq.n	8002f44 <HAL_GPIO_WritePin+0x2a>
  {
    GPIOx->BSRR = (uint32_t)GPIO_Pin;
 8002f3a:	1cbb      	adds	r3, r7, #2
 8002f3c:	881a      	ldrh	r2, [r3, #0]
 8002f3e:	687b      	ldr	r3, [r7, #4]
 8002f40:	619a      	str	r2, [r3, #24]
  }
  else
  {
    GPIOx->BRR = (uint32_t)GPIO_Pin;
  }
}
 8002f42:	e003      	b.n	8002f4c <HAL_GPIO_WritePin+0x32>
    GPIOx->BRR = (uint32_t)GPIO_Pin;
 8002f44:	1cbb      	adds	r3, r7, #2
 8002f46:	881a      	ldrh	r2, [r3, #0]
 8002f48:	687b      	ldr	r3, [r7, #4]
 8002f4a:	629a      	str	r2, [r3, #40]	@ 0x28
}
 8002f4c:	46c0      	nop			@ (mov r8, r8)
 8002f4e:	46bd      	mov	sp, r7
 8002f50:	b002      	add	sp, #8
 8002f52:	bd80      	pop	{r7, pc}

08002f54 <HAL_I2C_Init>:
  * @param  hi2c Pointer to a I2C_HandleTypeDef structure that contains
  *                the configuration information for the specified I2C.
  * @retval HAL status
  */
HAL_StatusTypeDef HAL_I2C_Init(I2C_HandleTypeDef *hi2c)
{
 8002f54:	b580      	push	{r7, lr}
 8002f56:	b082      	sub	sp, #8
 8002f58:	af00      	add	r7, sp, #0
 8002f5a:	6078      	str	r0, [r7, #4]
  /* Check the I2C handle allocation */
  if (hi2c == NULL)
 8002f5c:	687b      	ldr	r3, [r7, #4]
 8002f5e:	2b00      	cmp	r3, #0
 8002f60:	d101      	bne.n	8002f66 <HAL_I2C_Init+0x12>
  {
    return HAL_ERROR;
 8002f62:	2301      	movs	r3, #1
 8002f64:	e08f      	b.n	8003086 <HAL_I2C_Init+0x132>
  assert_param(IS_I2C_OWN_ADDRESS2(hi2c->Init.OwnAddress2));
  assert_param(IS_I2C_OWN_ADDRESS2_MASK(hi2c->Init.OwnAddress2Masks));
  assert_param(IS_I2C_GENERAL_CALL(hi2c->Init.GeneralCallMode));
  assert_param(IS_I2C_NO_STRETCH(hi2c->Init.NoStretchMode));

  if (hi2c->State == HAL_I2C_STATE_RESET)
 8002f66:	687b      	ldr	r3, [r7, #4]
 8002f68:	2241      	movs	r2, #65	@ 0x41
 8002f6a:	5c9b      	ldrb	r3, [r3, r2]
 8002f6c:	b2db      	uxtb	r3, r3
 8002f6e:	2b00      	cmp	r3, #0
 8002f70:	d107      	bne.n	8002f82 <HAL_I2C_Init+0x2e>
  {
    /* Allocate lock resource and initialize it */
    hi2c->Lock = HAL_UNLOCKED;
 8002f72:	687b      	ldr	r3, [r7, #4]
 8002f74:	2240      	movs	r2, #64	@ 0x40
 8002f76:	2100      	movs	r1, #0
 8002f78:	5499      	strb	r1, [r3, r2]

    /* Init the low level hardware : GPIO, CLOCK, CORTEX...etc */
    hi2c->MspInitCallback(hi2c);
#else
    /* Init the low level hardware : GPIO, CLOCK, CORTEX...etc */
    HAL_I2C_MspInit(hi2c);
 8002f7a:	687b      	ldr	r3, [r7, #4]
 8002f7c:	0018      	movs	r0, r3
 8002f7e:	f003 f963 	bl	8006248 <HAL_I2C_MspInit>
#endif /* USE_HAL_I2C_REGISTER_CALLBACKS */
  }

  hi2c->State = HAL_I2C_STATE_BUSY;
 8002f82:	687b      	ldr	r3, [r7, #4]
 8002f84:	2241      	movs	r2, #65	@ 0x41
 8002f86:	2124      	movs	r1, #36	@ 0x24
 8002f88:	5499      	strb	r1, [r3, r2]

  /* Disable the selected I2C peripheral */
  __HAL_I2C_DISABLE(hi2c);
 8002f8a:	687b      	ldr	r3, [r7, #4]
 8002f8c:	681b      	ldr	r3, [r3, #0]
 8002f8e:	681a      	ldr	r2, [r3, #0]
 8002f90:	687b      	ldr	r3, [r7, #4]
 8002f92:	681b      	ldr	r3, [r3, #0]
 8002f94:	2101      	movs	r1, #1
 8002f96:	438a      	bics	r2, r1
 8002f98:	601a      	str	r2, [r3, #0]

  /*---------------------------- I2Cx TIMINGR Configuration ------------------*/
  /* Configure I2Cx: Frequency range */
  hi2c->Instance->TIMINGR = hi2c->Init.Timing & TIMING_CLEAR_MASK;
 8002f9a:	687b      	ldr	r3, [r7, #4]
 8002f9c:	685a      	ldr	r2, [r3, #4]
 8002f9e:	687b      	ldr	r3, [r7, #4]
 8002fa0:	681b      	ldr	r3, [r3, #0]
 8002fa2:	493b      	ldr	r1, [pc, #236]	@ (8003090 <HAL_I2C_Init+0x13c>)
 8002fa4:	400a      	ands	r2, r1
 8002fa6:	611a      	str	r2, [r3, #16]

  /*---------------------------- I2Cx OAR1 Configuration ---------------------*/
  /* Disable Own Address1 before set the Own Address1 configuration */
  hi2c->Instance->OAR1 &= ~I2C_OAR1_OA1EN;
 8002fa8:	687b      	ldr	r3, [r7, #4]
 8002faa:	681b      	ldr	r3, [r3, #0]
 8002fac:	689a      	ldr	r2, [r3, #8]
 8002fae:	687b      	ldr	r3, [r7, #4]
 8002fb0:	681b      	ldr	r3, [r3, #0]
 8002fb2:	4938      	ldr	r1, [pc, #224]	@ (8003094 <HAL_I2C_Init+0x140>)
 8002fb4:	400a      	ands	r2, r1
 8002fb6:	609a      	str	r2, [r3, #8]

  /* Configure I2Cx: Own Address1 and ack own address1 mode */
  if (hi2c->Init.AddressingMode == I2C_ADDRESSINGMODE_7BIT)
 8002fb8:	687b      	ldr	r3, [r7, #4]
 8002fba:	68db      	ldr	r3, [r3, #12]
 8002fbc:	2b01      	cmp	r3, #1
 8002fbe:	d108      	bne.n	8002fd2 <HAL_I2C_Init+0x7e>
  {
    hi2c->Instance->OAR1 = (I2C_OAR1_OA1EN | hi2c->Init.OwnAddress1);
 8002fc0:	687b      	ldr	r3, [r7, #4]
 8002fc2:	689a      	ldr	r2, [r3, #8]
 8002fc4:	687b      	ldr	r3, [r7, #4]
 8002fc6:	681b      	ldr	r3, [r3, #0]
 8002fc8:	2180      	movs	r1, #128	@ 0x80
 8002fca:	0209      	lsls	r1, r1, #8
 8002fcc:	430a      	orrs	r2, r1
 8002fce:	609a      	str	r2, [r3, #8]
 8002fd0:	e007      	b.n	8002fe2 <HAL_I2C_Init+0x8e>
  }
  else /* I2C_ADDRESSINGMODE_10BIT */
  {
    hi2c->Instance->OAR1 = (I2C_OAR1_OA1EN | I2C_OAR1_OA1MODE | hi2c->Init.OwnAddress1);
 8002fd2:	687b      	ldr	r3, [r7, #4]
 8002fd4:	689a      	ldr	r2, [r3, #8]
 8002fd6:	687b      	ldr	r3, [r7, #4]
 8002fd8:	681b      	ldr	r3, [r3, #0]
 8002fda:	2184      	movs	r1, #132	@ 0x84
 8002fdc:	0209      	lsls	r1, r1, #8
 8002fde:	430a      	orrs	r2, r1
 8002fe0:	609a      	str	r2, [r3, #8]
  }

  /*---------------------------- I2Cx CR2 Configuration ----------------------*/
  /* Configure I2Cx: Addressing Master mode */
  if (hi2c->Init.AddressingMode == I2C_ADDRESSINGMODE_10BIT)
 8002fe2:	687b      	ldr	r3, [r7, #4]
 8002fe4:	68db      	ldr	r3, [r3, #12]
 8002fe6:	2b02      	cmp	r3, #2
 8002fe8:	d109      	bne.n	8002ffe <HAL_I2C_Init+0xaa>
  {
    SET_BIT(hi2c->Instance->CR2, I2C_CR2_ADD10);
 8002fea:	687b      	ldr	r3, [r7, #4]
 8002fec:	681b      	ldr	r3, [r3, #0]
 8002fee:	685a      	ldr	r2, [r3, #4]
 8002ff0:	687b      	ldr	r3, [r7, #4]
 8002ff2:	681b      	ldr	r3, [r3, #0]
 8002ff4:	2180      	movs	r1, #128	@ 0x80
 8002ff6:	0109      	lsls	r1, r1, #4
 8002ff8:	430a      	orrs	r2, r1
 8002ffa:	605a      	str	r2, [r3, #4]
 8002ffc:	e007      	b.n	800300e <HAL_I2C_Init+0xba>
  }
  else
  {
    /* Clear the I2C ADD10 bit */
    CLEAR_BIT(hi2c->Instance->CR2, I2C_CR2_ADD10);
 8002ffe:	687b      	ldr	r3, [r7, #4]
 8003000:	681b      	ldr	r3, [r3, #0]
 8003002:	685a      	ldr	r2, [r3, #4]
 8003004:	687b      	ldr	r3, [r7, #4]
 8003006:	681b      	ldr	r3, [r3, #0]
 8003008:	4923      	ldr	r1, [pc, #140]	@ (8003098 <HAL_I2C_Init+0x144>)
 800300a:	400a      	ands	r2, r1
 800300c:	605a      	str	r2, [r3, #4]
  }
  /* Enable the AUTOEND by default, and enable NACK (should be disable only during Slave process */
  hi2c->Instance->CR2 |= (I2C_CR2_AUTOEND | I2C_CR2_NACK);
 800300e:	687b      	ldr	r3, [r7, #4]
 8003010:	681b      	ldr	r3, [r3, #0]
 8003012:	685a      	ldr	r2, [r3, #4]
 8003014:	687b      	ldr	r3, [r7, #4]
 8003016:	681b      	ldr	r3, [r3, #0]
 8003018:	4920      	ldr	r1, [pc, #128]	@ (800309c <HAL_I2C_Init+0x148>)
 800301a:	430a      	orrs	r2, r1
 800301c:	605a      	str	r2, [r3, #4]

  /*---------------------------- I2Cx OAR2 Configuration ---------------------*/
  /* Disable Own Address2 before set the Own Address2 configuration */
  hi2c->Instance->OAR2 &= ~I2C_DUALADDRESS_ENABLE;
 800301e:	687b      	ldr	r3, [r7, #4]
 8003020:	681b      	ldr	r3, [r3, #0]
 8003022:	68da      	ldr	r2, [r3, #12]
 8003024:	687b      	ldr	r3, [r7, #4]
 8003026:	681b      	ldr	r3, [r3, #0]
 8003028:	491a      	ldr	r1, [pc, #104]	@ (8003094 <HAL_I2C_Init+0x140>)
 800302a:	400a      	ands	r2, r1
 800302c:	60da      	str	r2, [r3, #12]

  /* Configure I2Cx: Dual mode and Own Address2 */
  hi2c->Instance->OAR2 = (hi2c->Init.DualAddressMode | hi2c->Init.OwnAddress2 | \
 800302e:	687b      	ldr	r3, [r7, #4]
 8003030:	691a      	ldr	r2, [r3, #16]
 8003032:	687b      	ldr	r3, [r7, #4]
 8003034:	695b      	ldr	r3, [r3, #20]
 8003036:	431a      	orrs	r2, r3
 8003038:	0011      	movs	r1, r2
                          (hi2c->Init.OwnAddress2Masks << 8));
 800303a:	687b      	ldr	r3, [r7, #4]
 800303c:	699b      	ldr	r3, [r3, #24]
 800303e:	021a      	lsls	r2, r3, #8
  hi2c->Instance->OAR2 = (hi2c->Init.DualAddressMode | hi2c->Init.OwnAddress2 | \
 8003040:	687b      	ldr	r3, [r7, #4]
 8003042:	681b      	ldr	r3, [r3, #0]
 8003044:	430a      	orrs	r2, r1
 8003046:	60da      	str	r2, [r3, #12]

  /*---------------------------- I2Cx CR1 Configuration ----------------------*/
  /* Configure I2Cx: Generalcall and NoStretch mode */
  hi2c->Instance->CR1 = (hi2c->Init.GeneralCallMode | hi2c->Init.NoStretchMode);
 8003048:	687b      	ldr	r3, [r7, #4]
 800304a:	69d9      	ldr	r1, [r3, #28]
 800304c:	687b      	ldr	r3, [r7, #4]
 800304e:	6a1a      	ldr	r2, [r3, #32]
 8003050:	687b      	ldr	r3, [r7, #4]
 8003052:	681b      	ldr	r3, [r3, #0]
 8003054:	430a      	orrs	r2, r1
 8003056:	601a      	str	r2, [r3, #0]

  /* Enable the selected I2C peripheral */
  __HAL_I2C_ENABLE(hi2c);
 8003058:	687b      	ldr	r3, [r7, #4]
 800305a:	681b      	ldr	r3, [r3, #0]
 800305c:	681a      	ldr	r2, [r3, #0]
 800305e:	687b      	ldr	r3, [r7, #4]
 8003060:	681b      	ldr	r3, [r3, #0]
 8003062:	2101      	movs	r1, #1
 8003064:	430a      	orrs	r2, r1
 8003066:	601a      	str	r2, [r3, #0]

  hi2c->ErrorCode = HAL_I2C_ERROR_NONE;
 8003068:	687b      	ldr	r3, [r7, #4]
 800306a:	2200      	movs	r2, #0
 800306c:	645a      	str	r2, [r3, #68]	@ 0x44
  hi2c->State = HAL_I2C_STATE_READY;
 800306e:	687b      	ldr	r3, [r7, #4]
 8003070:	2241      	movs	r2, #65	@ 0x41
 8003072:	2120      	movs	r1, #32
 8003074:	5499      	strb	r1, [r3, r2]
  hi2c->PreviousState = I2C_STATE_NONE;
 8003076:	687b      	ldr	r3, [r7, #4]
 8003078:	2200      	movs	r2, #0
 800307a:	631a      	str	r2, [r3, #48]	@ 0x30
  hi2c->Mode = HAL_I2C_MODE_NONE;
 800307c:	687b      	ldr	r3, [r7, #4]
 800307e:	2242      	movs	r2, #66	@ 0x42
 8003080:	2100      	movs	r1, #0
 8003082:	5499      	strb	r1, [r3, r2]

  return HAL_OK;
 8003084:	2300      	movs	r3, #0
}
 8003086:	0018      	movs	r0, r3
 8003088:	46bd      	mov	sp, r7
 800308a:	b002      	add	sp, #8
 800308c:	bd80      	pop	{r7, pc}
 800308e:	46c0      	nop			@ (mov r8, r8)
 8003090:	f0ffffff 	.word	0xf0ffffff
 8003094:	ffff7fff 	.word	0xffff7fff
 8003098:	fffff7ff 	.word	0xfffff7ff
 800309c:	02008000 	.word	0x02008000

080030a0 <HAL_I2C_Mem_Write>:
  * @param  Timeout Timeout duration
  * @retval HAL status
  */
HAL_StatusTypeDef HAL_I2C_Mem_Write(I2C_HandleTypeDef *hi2c, uint16_t DevAddress, uint16_t MemAddress,
                                    uint16_t MemAddSize, uint8_t *pData, uint16_t Size, uint32_t Timeout)
{
 80030a0:	b590      	push	{r4, r7, lr}
 80030a2:	b089      	sub	sp, #36	@ 0x24
 80030a4:	af02      	add	r7, sp, #8
 80030a6:	60f8      	str	r0, [r7, #12]
 80030a8:	000c      	movs	r4, r1
 80030aa:	0010      	movs	r0, r2
 80030ac:	0019      	movs	r1, r3
 80030ae:	230a      	movs	r3, #10
 80030b0:	18fb      	adds	r3, r7, r3
 80030b2:	1c22      	adds	r2, r4, #0
 80030b4:	801a      	strh	r2, [r3, #0]
 80030b6:	2308      	movs	r3, #8
 80030b8:	18fb      	adds	r3, r7, r3
 80030ba:	1c02      	adds	r2, r0, #0
 80030bc:	801a      	strh	r2, [r3, #0]
 80030be:	1dbb      	adds	r3, r7, #6
 80030c0:	1c0a      	adds	r2, r1, #0
 80030c2:	801a      	strh	r2, [r3, #0]
  uint32_t tickstart;

  /* Check the parameters */
  assert_param(IS_I2C_MEMADD_SIZE(MemAddSize));

  if (hi2c->State == HAL_I2C_STATE_READY)
 80030c4:	68fb      	ldr	r3, [r7, #12]
 80030c6:	2241      	movs	r2, #65	@ 0x41
 80030c8:	5c9b      	ldrb	r3, [r3, r2]
 80030ca:	b2db      	uxtb	r3, r3
 80030cc:	2b20      	cmp	r3, #32
 80030ce:	d000      	beq.n	80030d2 <HAL_I2C_Mem_Write+0x32>
 80030d0:	e10c      	b.n	80032ec <HAL_I2C_Mem_Write+0x24c>
  {
    if ((pData == NULL) || (Size == 0U))
 80030d2:	6abb      	ldr	r3, [r7, #40]	@ 0x28
 80030d4:	2b00      	cmp	r3, #0
 80030d6:	d004      	beq.n	80030e2 <HAL_I2C_Mem_Write+0x42>
 80030d8:	232c      	movs	r3, #44	@ 0x2c
 80030da:	18fb      	adds	r3, r7, r3
 80030dc:	881b      	ldrh	r3, [r3, #0]
 80030de:	2b00      	cmp	r3, #0
 80030e0:	d105      	bne.n	80030ee <HAL_I2C_Mem_Write+0x4e>
    {
      hi2c->ErrorCode = HAL_I2C_ERROR_INVALID_PARAM;
 80030e2:	68fb      	ldr	r3, [r7, #12]
 80030e4:	2280      	movs	r2, #128	@ 0x80
 80030e6:	0092      	lsls	r2, r2, #2
 80030e8:	645a      	str	r2, [r3, #68]	@ 0x44
      return  HAL_ERROR;
 80030ea:	2301      	movs	r3, #1
 80030ec:	e0ff      	b.n	80032ee <HAL_I2C_Mem_Write+0x24e>
    }

    /* Process Locked */
    __HAL_LOCK(hi2c);
 80030ee:	68fb      	ldr	r3, [r7, #12]
 80030f0:	2240      	movs	r2, #64	@ 0x40
 80030f2:	5c9b      	ldrb	r3, [r3, r2]
 80030f4:	2b01      	cmp	r3, #1
 80030f6:	d101      	bne.n	80030fc <HAL_I2C_Mem_Write+0x5c>
 80030f8:	2302      	movs	r3, #2
 80030fa:	e0f8      	b.n	80032ee <HAL_I2C_Mem_Write+0x24e>
 80030fc:	68fb      	ldr	r3, [r7, #12]
 80030fe:	2240      	movs	r2, #64	@ 0x40
 8003100:	2101      	movs	r1, #1
 8003102:	5499      	strb	r1, [r3, r2]

    /* Init tickstart for timeout management*/
    tickstart = HAL_GetTick();
 8003104:	f7ff fbd6 	bl	80028b4 <HAL_GetTick>
 8003108:	0003      	movs	r3, r0
 800310a:	617b      	str	r3, [r7, #20]

    if (I2C_WaitOnFlagUntilTimeout(hi2c, I2C_FLAG_BUSY, SET, I2C_TIMEOUT_BUSY, tickstart) != HAL_OK)
 800310c:	2380      	movs	r3, #128	@ 0x80
 800310e:	0219      	lsls	r1, r3, #8
 8003110:	68f8      	ldr	r0, [r7, #12]
 8003112:	697b      	ldr	r3, [r7, #20]
 8003114:	9300      	str	r3, [sp, #0]
 8003116:	2319      	movs	r3, #25
 8003118:	2201      	movs	r2, #1
 800311a:	f000 fb0b 	bl	8003734 <I2C_WaitOnFlagUntilTimeout>
 800311e:	1e03      	subs	r3, r0, #0
 8003120:	d001      	beq.n	8003126 <HAL_I2C_Mem_Write+0x86>
    {
      return HAL_ERROR;
 8003122:	2301      	movs	r3, #1
 8003124:	e0e3      	b.n	80032ee <HAL_I2C_Mem_Write+0x24e>
    }

    hi2c->State     = HAL_I2C_STATE_BUSY_TX;
 8003126:	68fb      	ldr	r3, [r7, #12]
 8003128:	2241      	movs	r2, #65	@ 0x41
 800312a:	2121      	movs	r1, #33	@ 0x21
 800312c:	5499      	strb	r1, [r3, r2]
    hi2c->Mode      = HAL_I2C_MODE_MEM;
 800312e:	68fb      	ldr	r3, [r7, #12]
 8003130:	2242      	movs	r2, #66	@ 0x42
 8003132:	2140      	movs	r1, #64	@ 0x40
 8003134:	5499      	strb	r1, [r3, r2]
    hi2c->ErrorCode = HAL_I2C_ERROR_NONE;
 8003136:	68fb      	ldr	r3, [r7, #12]
 8003138:	2200      	movs	r2, #0
 800313a:	645a      	str	r2, [r3, #68]	@ 0x44

    /* Prepare transfer parameters */
    hi2c->pBuffPtr  = pData;
 800313c:	68fb      	ldr	r3, [r7, #12]
 800313e:	6aba      	ldr	r2, [r7, #40]	@ 0x28
 8003140:	625a      	str	r2, [r3, #36]	@ 0x24
    hi2c->XferCount = Size;
 8003142:	68fb      	ldr	r3, [r7, #12]
 8003144:	222c      	movs	r2, #44	@ 0x2c
 8003146:	18ba      	adds	r2, r7, r2
 8003148:	8812      	ldrh	r2, [r2, #0]
 800314a:	855a      	strh	r2, [r3, #42]	@ 0x2a
    hi2c->XferISR   = NULL;
 800314c:	68fb      	ldr	r3, [r7, #12]
 800314e:	2200      	movs	r2, #0
 8003150:	635a      	str	r2, [r3, #52]	@ 0x34

    /* Send Slave Address and Memory Address */
    if (I2C_RequestMemoryWrite(hi2c, DevAddress, MemAddress, MemAddSize, Timeout, tickstart) != HAL_OK)
 8003152:	1dbb      	adds	r3, r7, #6
 8003154:	881c      	ldrh	r4, [r3, #0]
 8003156:	2308      	movs	r3, #8
 8003158:	18fb      	adds	r3, r7, r3
 800315a:	881a      	ldrh	r2, [r3, #0]
 800315c:	230a      	movs	r3, #10
 800315e:	18fb      	adds	r3, r7, r3
 8003160:	8819      	ldrh	r1, [r3, #0]
 8003162:	68f8      	ldr	r0, [r7, #12]
 8003164:	697b      	ldr	r3, [r7, #20]
 8003166:	9301      	str	r3, [sp, #4]
 8003168:	6b3b      	ldr	r3, [r7, #48]	@ 0x30
 800316a:	9300      	str	r3, [sp, #0]
 800316c:	0023      	movs	r3, r4
 800316e:	f000 f9f9 	bl	8003564 <I2C_RequestMemoryWrite>
 8003172:	1e03      	subs	r3, r0, #0
 8003174:	d005      	beq.n	8003182 <HAL_I2C_Mem_Write+0xe2>
    {
      /* Process Unlocked */
      __HAL_UNLOCK(hi2c);
 8003176:	68fb      	ldr	r3, [r7, #12]
 8003178:	2240      	movs	r2, #64	@ 0x40
 800317a:	2100      	movs	r1, #0
 800317c:	5499      	strb	r1, [r3, r2]
      return HAL_ERROR;
 800317e:	2301      	movs	r3, #1
 8003180:	e0b5      	b.n	80032ee <HAL_I2C_Mem_Write+0x24e>
    }

    /* Set NBYTES to write and reload if hi2c->XferCount > MAX_NBYTE_SIZE */
    if (hi2c->XferCount > MAX_NBYTE_SIZE)
 8003182:	68fb      	ldr	r3, [r7, #12]
 8003184:	8d5b      	ldrh	r3, [r3, #42]	@ 0x2a
 8003186:	b29b      	uxth	r3, r3
 8003188:	2bff      	cmp	r3, #255	@ 0xff
 800318a:	d911      	bls.n	80031b0 <HAL_I2C_Mem_Write+0x110>
    {
      hi2c->XferSize = MAX_NBYTE_SIZE;
 800318c:	68fb      	ldr	r3, [r7, #12]
 800318e:	22ff      	movs	r2, #255	@ 0xff
 8003190:	851a      	strh	r2, [r3, #40]	@ 0x28
      I2C_TransferConfig(hi2c, DevAddress, (uint8_t)hi2c->XferSize, I2C_RELOAD_MODE, I2C_NO_STARTSTOP);
 8003192:	68fb      	ldr	r3, [r7, #12]
 8003194:	8d1b      	ldrh	r3, [r3, #40]	@ 0x28
 8003196:	b2da      	uxtb	r2, r3
 8003198:	2380      	movs	r3, #128	@ 0x80
 800319a:	045c      	lsls	r4, r3, #17
 800319c:	230a      	movs	r3, #10
 800319e:	18fb      	adds	r3, r7, r3
 80031a0:	8819      	ldrh	r1, [r3, #0]
 80031a2:	68f8      	ldr	r0, [r7, #12]
 80031a4:	2300      	movs	r3, #0
 80031a6:	9300      	str	r3, [sp, #0]
 80031a8:	0023      	movs	r3, r4
 80031aa:	f000 fc9d 	bl	8003ae8 <I2C_TransferConfig>
 80031ae:	e012      	b.n	80031d6 <HAL_I2C_Mem_Write+0x136>
    }
    else
    {
      hi2c->XferSize = hi2c->XferCount;
 80031b0:	68fb      	ldr	r3, [r7, #12]
 80031b2:	8d5b      	ldrh	r3, [r3, #42]	@ 0x2a
 80031b4:	b29a      	uxth	r2, r3
 80031b6:	68fb      	ldr	r3, [r7, #12]
 80031b8:	851a      	strh	r2, [r3, #40]	@ 0x28
      I2C_TransferConfig(hi2c, DevAddress, (uint8_t)hi2c->XferSize, I2C_AUTOEND_MODE, I2C_NO_STARTSTOP);
 80031ba:	68fb      	ldr	r3, [r7, #12]
 80031bc:	8d1b      	ldrh	r3, [r3, #40]	@ 0x28
 80031be:	b2da      	uxtb	r2, r3
 80031c0:	2380      	movs	r3, #128	@ 0x80
 80031c2:	049c      	lsls	r4, r3, #18
 80031c4:	230a      	movs	r3, #10
 80031c6:	18fb      	adds	r3, r7, r3
 80031c8:	8819      	ldrh	r1, [r3, #0]
 80031ca:	68f8      	ldr	r0, [r7, #12]
 80031cc:	2300      	movs	r3, #0
 80031ce:	9300      	str	r3, [sp, #0]
 80031d0:	0023      	movs	r3, r4
 80031d2:	f000 fc89 	bl	8003ae8 <I2C_TransferConfig>
    }

    do
    {
      /* Wait until TXIS flag is set */
      if (I2C_WaitOnTXISFlagUntilTimeout(hi2c, Timeout, tickstart) != HAL_OK)
 80031d6:	697a      	ldr	r2, [r7, #20]
 80031d8:	6b39      	ldr	r1, [r7, #48]	@ 0x30
 80031da:	68fb      	ldr	r3, [r7, #12]
 80031dc:	0018      	movs	r0, r3
 80031de:	f000 fb01 	bl	80037e4 <I2C_WaitOnTXISFlagUntilTimeout>
 80031e2:	1e03      	subs	r3, r0, #0
 80031e4:	d001      	beq.n	80031ea <HAL_I2C_Mem_Write+0x14a>
      {
        return HAL_ERROR;
 80031e6:	2301      	movs	r3, #1
 80031e8:	e081      	b.n	80032ee <HAL_I2C_Mem_Write+0x24e>
      }

      /* Write data to TXDR */
      hi2c->Instance->TXDR = *hi2c->pBuffPtr;
 80031ea:	68fb      	ldr	r3, [r7, #12]
 80031ec:	6a5b      	ldr	r3, [r3, #36]	@ 0x24
 80031ee:	781a      	ldrb	r2, [r3, #0]
 80031f0:	68fb      	ldr	r3, [r7, #12]
 80031f2:	681b      	ldr	r3, [r3, #0]
 80031f4:	629a      	str	r2, [r3, #40]	@ 0x28

      /* Increment Buffer pointer */
      hi2c->pBuffPtr++;
 80031f6:	68fb      	ldr	r3, [r7, #12]
 80031f8:	6a5b      	ldr	r3, [r3, #36]	@ 0x24
 80031fa:	1c5a      	adds	r2, r3, #1
 80031fc:	68fb      	ldr	r3, [r7, #12]
 80031fe:	625a      	str	r2, [r3, #36]	@ 0x24

      hi2c->XferCount--;
 8003200:	68fb      	ldr	r3, [r7, #12]
 8003202:	8d5b      	ldrh	r3, [r3, #42]	@ 0x2a
 8003204:	b29b      	uxth	r3, r3
 8003206:	3b01      	subs	r3, #1
 8003208:	b29a      	uxth	r2, r3
 800320a:	68fb      	ldr	r3, [r7, #12]
 800320c:	855a      	strh	r2, [r3, #42]	@ 0x2a
      hi2c->XferSize--;
 800320e:	68fb      	ldr	r3, [r7, #12]
 8003210:	8d1b      	ldrh	r3, [r3, #40]	@ 0x28
 8003212:	3b01      	subs	r3, #1
 8003214:	b29a      	uxth	r2, r3
 8003216:	68fb      	ldr	r3, [r7, #12]
 8003218:	851a      	strh	r2, [r3, #40]	@ 0x28

      if ((hi2c->XferCount != 0U) && (hi2c->XferSize == 0U))
 800321a:	68fb      	ldr	r3, [r7, #12]
 800321c:	8d5b      	ldrh	r3, [r3, #42]	@ 0x2a
 800321e:	b29b      	uxth	r3, r3
 8003220:	2b00      	cmp	r3, #0
 8003222:	d03a      	beq.n	800329a <HAL_I2C_Mem_Write+0x1fa>
 8003224:	68fb      	ldr	r3, [r7, #12]
 8003226:	8d1b      	ldrh	r3, [r3, #40]	@ 0x28
 8003228:	2b00      	cmp	r3, #0
 800322a:	d136      	bne.n	800329a <HAL_I2C_Mem_Write+0x1fa>
      {
        /* Wait until TCR flag is set */
        if (I2C_WaitOnFlagUntilTimeout(hi2c, I2C_FLAG_TCR, RESET, Timeout, tickstart) != HAL_OK)
 800322c:	6b3a      	ldr	r2, [r7, #48]	@ 0x30
 800322e:	68f8      	ldr	r0, [r7, #12]
 8003230:	697b      	ldr	r3, [r7, #20]
 8003232:	9300      	str	r3, [sp, #0]
 8003234:	0013      	movs	r3, r2
 8003236:	2200      	movs	r2, #0
 8003238:	2180      	movs	r1, #128	@ 0x80
 800323a:	f000 fa7b 	bl	8003734 <I2C_WaitOnFlagUntilTimeout>
 800323e:	1e03      	subs	r3, r0, #0
 8003240:	d001      	beq.n	8003246 <HAL_I2C_Mem_Write+0x1a6>
        {
          return HAL_ERROR;
 8003242:	2301      	movs	r3, #1
 8003244:	e053      	b.n	80032ee <HAL_I2C_Mem_Write+0x24e>
        }

        if (hi2c->XferCount > MAX_NBYTE_SIZE)
 8003246:	68fb      	ldr	r3, [r7, #12]
 8003248:	8d5b      	ldrh	r3, [r3, #42]	@ 0x2a
 800324a:	b29b      	uxth	r3, r3
 800324c:	2bff      	cmp	r3, #255	@ 0xff
 800324e:	d911      	bls.n	8003274 <HAL_I2C_Mem_Write+0x1d4>
        {
          hi2c->XferSize = MAX_NBYTE_SIZE;
 8003250:	68fb      	ldr	r3, [r7, #12]
 8003252:	22ff      	movs	r2, #255	@ 0xff
 8003254:	851a      	strh	r2, [r3, #40]	@ 0x28
          I2C_TransferConfig(hi2c, DevAddress, (uint8_t)hi2c->XferSize, I2C_RELOAD_MODE,
 8003256:	68fb      	ldr	r3, [r7, #12]
 8003258:	8d1b      	ldrh	r3, [r3, #40]	@ 0x28
 800325a:	b2da      	uxtb	r2, r3
 800325c:	2380      	movs	r3, #128	@ 0x80
 800325e:	045c      	lsls	r4, r3, #17
 8003260:	230a      	movs	r3, #10
 8003262:	18fb      	adds	r3, r7, r3
 8003264:	8819      	ldrh	r1, [r3, #0]
 8003266:	68f8      	ldr	r0, [r7, #12]
 8003268:	2300      	movs	r3, #0
 800326a:	9300      	str	r3, [sp, #0]
 800326c:	0023      	movs	r3, r4
 800326e:	f000 fc3b 	bl	8003ae8 <I2C_TransferConfig>
 8003272:	e012      	b.n	800329a <HAL_I2C_Mem_Write+0x1fa>
                             I2C_NO_STARTSTOP);
        }
        else
        {
          hi2c->XferSize = hi2c->XferCount;
 8003274:	68fb      	ldr	r3, [r7, #12]
 8003276:	8d5b      	ldrh	r3, [r3, #42]	@ 0x2a
 8003278:	b29a      	uxth	r2, r3
 800327a:	68fb      	ldr	r3, [r7, #12]
 800327c:	851a      	strh	r2, [r3, #40]	@ 0x28
          I2C_TransferConfig(hi2c, DevAddress, (uint8_t)hi2c->XferSize, I2C_AUTOEND_MODE,
 800327e:	68fb      	ldr	r3, [r7, #12]
 8003280:	8d1b      	ldrh	r3, [r3, #40]	@ 0x28
 8003282:	b2da      	uxtb	r2, r3
 8003284:	2380      	movs	r3, #128	@ 0x80
 8003286:	049c      	lsls	r4, r3, #18
 8003288:	230a      	movs	r3, #10
 800328a:	18fb      	adds	r3, r7, r3
 800328c:	8819      	ldrh	r1, [r3, #0]
 800328e:	68f8      	ldr	r0, [r7, #12]
 8003290:	2300      	movs	r3, #0
 8003292:	9300      	str	r3, [sp, #0]
 8003294:	0023      	movs	r3, r4
 8003296:	f000 fc27 	bl	8003ae8 <I2C_TransferConfig>
                             I2C_NO_STARTSTOP);
        }
      }

    } while (hi2c->XferCount > 0U);
 800329a:	68fb      	ldr	r3, [r7, #12]
 800329c:	8d5b      	ldrh	r3, [r3, #42]	@ 0x2a
 800329e:	b29b      	uxth	r3, r3
 80032a0:	2b00      	cmp	r3, #0
 80032a2:	d198      	bne.n	80031d6 <HAL_I2C_Mem_Write+0x136>

    /* No need to Check TC flag, with AUTOEND mode the stop is automatically generated */
    /* Wait until STOPF flag is reset */
    if (I2C_WaitOnSTOPFlagUntilTimeout(hi2c, Timeout, tickstart) != HAL_OK)
 80032a4:	697a      	ldr	r2, [r7, #20]
 80032a6:	6b39      	ldr	r1, [r7, #48]	@ 0x30
 80032a8:	68fb      	ldr	r3, [r7, #12]
 80032aa:	0018      	movs	r0, r3
 80032ac:	f000 fae0 	bl	8003870 <I2C_WaitOnSTOPFlagUntilTimeout>
 80032b0:	1e03      	subs	r3, r0, #0
 80032b2:	d001      	beq.n	80032b8 <HAL_I2C_Mem_Write+0x218>
    {
      return HAL_ERROR;
 80032b4:	2301      	movs	r3, #1
 80032b6:	e01a      	b.n	80032ee <HAL_I2C_Mem_Write+0x24e>
    }

    /* Clear STOP Flag */
    __HAL_I2C_CLEAR_FLAG(hi2c, I2C_FLAG_STOPF);
 80032b8:	68fb      	ldr	r3, [r7, #12]
 80032ba:	681b      	ldr	r3, [r3, #0]
 80032bc:	2220      	movs	r2, #32
 80032be:	61da      	str	r2, [r3, #28]

    /* Clear Configuration Register 2 */
    I2C_RESET_CR2(hi2c);
 80032c0:	68fb      	ldr	r3, [r7, #12]
 80032c2:	681b      	ldr	r3, [r3, #0]
 80032c4:	685a      	ldr	r2, [r3, #4]
 80032c6:	68fb      	ldr	r3, [r7, #12]
 80032c8:	681b      	ldr	r3, [r3, #0]
 80032ca:	490b      	ldr	r1, [pc, #44]	@ (80032f8 <HAL_I2C_Mem_Write+0x258>)
 80032cc:	400a      	ands	r2, r1
 80032ce:	605a      	str	r2, [r3, #4]

    hi2c->State = HAL_I2C_STATE_READY;
 80032d0:	68fb      	ldr	r3, [r7, #12]
 80032d2:	2241      	movs	r2, #65	@ 0x41
 80032d4:	2120      	movs	r1, #32
 80032d6:	5499      	strb	r1, [r3, r2]
    hi2c->Mode  = HAL_I2C_MODE_NONE;
 80032d8:	68fb      	ldr	r3, [r7, #12]
 80032da:	2242      	movs	r2, #66	@ 0x42
 80032dc:	2100      	movs	r1, #0
 80032de:	5499      	strb	r1, [r3, r2]

    /* Process Unlocked */
    __HAL_UNLOCK(hi2c);
 80032e0:	68fb      	ldr	r3, [r7, #12]
 80032e2:	2240      	movs	r2, #64	@ 0x40
 80032e4:	2100      	movs	r1, #0
 80032e6:	5499      	strb	r1, [r3, r2]

    return HAL_OK;
 80032e8:	2300      	movs	r3, #0
 80032ea:	e000      	b.n	80032ee <HAL_I2C_Mem_Write+0x24e>
  }
  else
  {
    return HAL_BUSY;
 80032ec:	2302      	movs	r3, #2
  }
}
 80032ee:	0018      	movs	r0, r3
 80032f0:	46bd      	mov	sp, r7
 80032f2:	b007      	add	sp, #28
 80032f4:	bd90      	pop	{r4, r7, pc}
 80032f6:	46c0      	nop			@ (mov r8, r8)
 80032f8:	fe00e800 	.word	0xfe00e800

080032fc <HAL_I2C_Mem_Read>:
  * @param  Timeout Timeout duration
  * @retval HAL status
  */
HAL_StatusTypeDef HAL_I2C_Mem_Read(I2C_HandleTypeDef *hi2c, uint16_t DevAddress, uint16_t MemAddress,
                                   uint16_t MemAddSize, uint8_t *pData, uint16_t Size, uint32_t Timeout)
{
 80032fc:	b590      	push	{r4, r7, lr}
 80032fe:	b089      	sub	sp, #36	@ 0x24
 8003300:	af02      	add	r7, sp, #8
 8003302:	60f8      	str	r0, [r7, #12]
 8003304:	000c      	movs	r4, r1
 8003306:	0010      	movs	r0, r2
 8003308:	0019      	movs	r1, r3
 800330a:	230a      	movs	r3, #10
 800330c:	18fb      	adds	r3, r7, r3
 800330e:	1c22      	adds	r2, r4, #0
 8003310:	801a      	strh	r2, [r3, #0]
 8003312:	2308      	movs	r3, #8
 8003314:	18fb      	adds	r3, r7, r3
 8003316:	1c02      	adds	r2, r0, #0
 8003318:	801a      	strh	r2, [r3, #0]
 800331a:	1dbb      	adds	r3, r7, #6
 800331c:	1c0a      	adds	r2, r1, #0
 800331e:	801a      	strh	r2, [r3, #0]
  uint32_t tickstart;

  /* Check the parameters */
  assert_param(IS_I2C_MEMADD_SIZE(MemAddSize));

  if (hi2c->State == HAL_I2C_STATE_READY)
 8003320:	68fb      	ldr	r3, [r7, #12]
 8003322:	2241      	movs	r2, #65	@ 0x41
 8003324:	5c9b      	ldrb	r3, [r3, r2]
 8003326:	b2db      	uxtb	r3, r3
 8003328:	2b20      	cmp	r3, #32
 800332a:	d000      	beq.n	800332e <HAL_I2C_Mem_Read+0x32>
 800332c:	e110      	b.n	8003550 <HAL_I2C_Mem_Read+0x254>
  {
    if ((pData == NULL) || (Size == 0U))
 800332e:	6abb      	ldr	r3, [r7, #40]	@ 0x28
 8003330:	2b00      	cmp	r3, #0
 8003332:	d004      	beq.n	800333e <HAL_I2C_Mem_Read+0x42>
 8003334:	232c      	movs	r3, #44	@ 0x2c
 8003336:	18fb      	adds	r3, r7, r3
 8003338:	881b      	ldrh	r3, [r3, #0]
 800333a:	2b00      	cmp	r3, #0
 800333c:	d105      	bne.n	800334a <HAL_I2C_Mem_Read+0x4e>
    {
      hi2c->ErrorCode = HAL_I2C_ERROR_INVALID_PARAM;
 800333e:	68fb      	ldr	r3, [r7, #12]
 8003340:	2280      	movs	r2, #128	@ 0x80
 8003342:	0092      	lsls	r2, r2, #2
 8003344:	645a      	str	r2, [r3, #68]	@ 0x44
      return  HAL_ERROR;
 8003346:	2301      	movs	r3, #1
 8003348:	e103      	b.n	8003552 <HAL_I2C_Mem_Read+0x256>
    }

    /* Process Locked */
    __HAL_LOCK(hi2c);
 800334a:	68fb      	ldr	r3, [r7, #12]
 800334c:	2240      	movs	r2, #64	@ 0x40
 800334e:	5c9b      	ldrb	r3, [r3, r2]
 8003350:	2b01      	cmp	r3, #1
 8003352:	d101      	bne.n	8003358 <HAL_I2C_Mem_Read+0x5c>
 8003354:	2302      	movs	r3, #2
 8003356:	e0fc      	b.n	8003552 <HAL_I2C_Mem_Read+0x256>
 8003358:	68fb      	ldr	r3, [r7, #12]
 800335a:	2240      	movs	r2, #64	@ 0x40
 800335c:	2101      	movs	r1, #1
 800335e:	5499      	strb	r1, [r3, r2]

    /* Init tickstart for timeout management*/
    tickstart = HAL_GetTick();
 8003360:	f7ff faa8 	bl	80028b4 <HAL_GetTick>
 8003364:	0003      	movs	r3, r0
 8003366:	617b      	str	r3, [r7, #20]

    if (I2C_WaitOnFlagUntilTimeout(hi2c, I2C_FLAG_BUSY, SET, I2C_TIMEOUT_BUSY, tickstart) != HAL_OK)
 8003368:	2380      	movs	r3, #128	@ 0x80
 800336a:	0219      	lsls	r1, r3, #8
 800336c:	68f8      	ldr	r0, [r7, #12]
 800336e:	697b      	ldr	r3, [r7, #20]
 8003370:	9300      	str	r3, [sp, #0]
 8003372:	2319      	movs	r3, #25
 8003374:	2201      	movs	r2, #1
 8003376:	f000 f9dd 	bl	8003734 <I2C_WaitOnFlagUntilTimeout>
 800337a:	1e03      	subs	r3, r0, #0
 800337c:	d001      	beq.n	8003382 <HAL_I2C_Mem_Read+0x86>
    {
      return HAL_ERROR;
 800337e:	2301      	movs	r3, #1
 8003380:	e0e7      	b.n	8003552 <HAL_I2C_Mem_Read+0x256>
    }

    hi2c->State     = HAL_I2C_STATE_BUSY_RX;
 8003382:	68fb      	ldr	r3, [r7, #12]
 8003384:	2241      	movs	r2, #65	@ 0x41
 8003386:	2122      	movs	r1, #34	@ 0x22
 8003388:	5499      	strb	r1, [r3, r2]
    hi2c->Mode      = HAL_I2C_MODE_MEM;
 800338a:	68fb      	ldr	r3, [r7, #12]
 800338c:	2242      	movs	r2, #66	@ 0x42
 800338e:	2140      	movs	r1, #64	@ 0x40
 8003390:	5499      	strb	r1, [r3, r2]
    hi2c->ErrorCode = HAL_I2C_ERROR_NONE;
 8003392:	68fb      	ldr	r3, [r7, #12]
 8003394:	2200      	movs	r2, #0
 8003396:	645a      	str	r2, [r3, #68]	@ 0x44

    /* Prepare transfer parameters */
    hi2c->pBuffPtr  = pData;
 8003398:	68fb      	ldr	r3, [r7, #12]
 800339a:	6aba      	ldr	r2, [r7, #40]	@ 0x28
 800339c:	625a      	str	r2, [r3, #36]	@ 0x24
    hi2c->XferCount = Size;
 800339e:	68fb      	ldr	r3, [r7, #12]
 80033a0:	222c      	movs	r2, #44	@ 0x2c
 80033a2:	18ba      	adds	r2, r7, r2
 80033a4:	8812      	ldrh	r2, [r2, #0]
 80033a6:	855a      	strh	r2, [r3, #42]	@ 0x2a
    hi2c->XferISR   = NULL;
 80033a8:	68fb      	ldr	r3, [r7, #12]
 80033aa:	2200      	movs	r2, #0
 80033ac:	635a      	str	r2, [r3, #52]	@ 0x34

    /* Send Slave Address and Memory Address */
    if (I2C_RequestMemoryRead(hi2c, DevAddress, MemAddress, MemAddSize, Timeout, tickstart) != HAL_OK)
 80033ae:	1dbb      	adds	r3, r7, #6
 80033b0:	881c      	ldrh	r4, [r3, #0]
 80033b2:	2308      	movs	r3, #8
 80033b4:	18fb      	adds	r3, r7, r3
 80033b6:	881a      	ldrh	r2, [r3, #0]
 80033b8:	230a      	movs	r3, #10
 80033ba:	18fb      	adds	r3, r7, r3
 80033bc:	8819      	ldrh	r1, [r3, #0]
 80033be:	68f8      	ldr	r0, [r7, #12]
 80033c0:	697b      	ldr	r3, [r7, #20]
 80033c2:	9301      	str	r3, [sp, #4]
 80033c4:	6b3b      	ldr	r3, [r7, #48]	@ 0x30
 80033c6:	9300      	str	r3, [sp, #0]
 80033c8:	0023      	movs	r3, r4
 80033ca:	f000 f92f 	bl	800362c <I2C_RequestMemoryRead>
 80033ce:	1e03      	subs	r3, r0, #0
 80033d0:	d005      	beq.n	80033de <HAL_I2C_Mem_Read+0xe2>
    {
      /* Process Unlocked */
      __HAL_UNLOCK(hi2c);
 80033d2:	68fb      	ldr	r3, [r7, #12]
 80033d4:	2240      	movs	r2, #64	@ 0x40
 80033d6:	2100      	movs	r1, #0
 80033d8:	5499      	strb	r1, [r3, r2]
      return HAL_ERROR;
 80033da:	2301      	movs	r3, #1
 80033dc:	e0b9      	b.n	8003552 <HAL_I2C_Mem_Read+0x256>
    }

    /* Send Slave Address */
    /* Set NBYTES to write and reload if hi2c->XferCount > MAX_NBYTE_SIZE and generate RESTART */
    if (hi2c->XferCount > MAX_NBYTE_SIZE)
 80033de:	68fb      	ldr	r3, [r7, #12]
 80033e0:	8d5b      	ldrh	r3, [r3, #42]	@ 0x2a
 80033e2:	b29b      	uxth	r3, r3
 80033e4:	2bff      	cmp	r3, #255	@ 0xff
 80033e6:	d911      	bls.n	800340c <HAL_I2C_Mem_Read+0x110>
    {
      hi2c->XferSize = MAX_NBYTE_SIZE;
 80033e8:	68fb      	ldr	r3, [r7, #12]
 80033ea:	22ff      	movs	r2, #255	@ 0xff
 80033ec:	851a      	strh	r2, [r3, #40]	@ 0x28
      I2C_TransferConfig(hi2c, DevAddress, (uint8_t)hi2c->XferSize, I2C_RELOAD_MODE,
 80033ee:	68fb      	ldr	r3, [r7, #12]
 80033f0:	8d1b      	ldrh	r3, [r3, #40]	@ 0x28
 80033f2:	b2da      	uxtb	r2, r3
 80033f4:	2380      	movs	r3, #128	@ 0x80
 80033f6:	045c      	lsls	r4, r3, #17
 80033f8:	230a      	movs	r3, #10
 80033fa:	18fb      	adds	r3, r7, r3
 80033fc:	8819      	ldrh	r1, [r3, #0]
 80033fe:	68f8      	ldr	r0, [r7, #12]
 8003400:	4b56      	ldr	r3, [pc, #344]	@ (800355c <HAL_I2C_Mem_Read+0x260>)
 8003402:	9300      	str	r3, [sp, #0]
 8003404:	0023      	movs	r3, r4
 8003406:	f000 fb6f 	bl	8003ae8 <I2C_TransferConfig>
 800340a:	e012      	b.n	8003432 <HAL_I2C_Mem_Read+0x136>
                         I2C_GENERATE_START_READ);
    }
    else
    {
      hi2c->XferSize = hi2c->XferCount;
 800340c:	68fb      	ldr	r3, [r7, #12]
 800340e:	8d5b      	ldrh	r3, [r3, #42]	@ 0x2a
 8003410:	b29a      	uxth	r2, r3
 8003412:	68fb      	ldr	r3, [r7, #12]
 8003414:	851a      	strh	r2, [r3, #40]	@ 0x28
      I2C_TransferConfig(hi2c, DevAddress, (uint8_t)hi2c->XferSize, I2C_AUTOEND_MODE,
 8003416:	68fb      	ldr	r3, [r7, #12]
 8003418:	8d1b      	ldrh	r3, [r3, #40]	@ 0x28
 800341a:	b2da      	uxtb	r2, r3
 800341c:	2380      	movs	r3, #128	@ 0x80
 800341e:	049c      	lsls	r4, r3, #18
 8003420:	230a      	movs	r3, #10
 8003422:	18fb      	adds	r3, r7, r3
 8003424:	8819      	ldrh	r1, [r3, #0]
 8003426:	68f8      	ldr	r0, [r7, #12]
 8003428:	4b4c      	ldr	r3, [pc, #304]	@ (800355c <HAL_I2C_Mem_Read+0x260>)
 800342a:	9300      	str	r3, [sp, #0]
 800342c:	0023      	movs	r3, r4
 800342e:	f000 fb5b 	bl	8003ae8 <I2C_TransferConfig>
    }

    do
    {
      /* Wait until RXNE flag is set */
      if (I2C_WaitOnFlagUntilTimeout(hi2c, I2C_FLAG_RXNE, RESET, Timeout, tickstart) != HAL_OK)
 8003432:	6b3a      	ldr	r2, [r7, #48]	@ 0x30
 8003434:	68f8      	ldr	r0, [r7, #12]
 8003436:	697b      	ldr	r3, [r7, #20]
 8003438:	9300      	str	r3, [sp, #0]
 800343a:	0013      	movs	r3, r2
 800343c:	2200      	movs	r2, #0
 800343e:	2104      	movs	r1, #4
 8003440:	f000 f978 	bl	8003734 <I2C_WaitOnFlagUntilTimeout>
 8003444:	1e03      	subs	r3, r0, #0
 8003446:	d001      	beq.n	800344c <HAL_I2C_Mem_Read+0x150>
      {
        return HAL_ERROR;
 8003448:	2301      	movs	r3, #1
 800344a:	e082      	b.n	8003552 <HAL_I2C_Mem_Read+0x256>
      }

      /* Read data from RXDR */
      *hi2c->pBuffPtr = (uint8_t)hi2c->Instance->RXDR;
 800344c:	68fb      	ldr	r3, [r7, #12]
 800344e:	681b      	ldr	r3, [r3, #0]
 8003450:	6a5a      	ldr	r2, [r3, #36]	@ 0x24
 8003452:	68fb      	ldr	r3, [r7, #12]
 8003454:	6a5b      	ldr	r3, [r3, #36]	@ 0x24
 8003456:	b2d2      	uxtb	r2, r2
 8003458:	701a      	strb	r2, [r3, #0]

      /* Increment Buffer pointer */
      hi2c->pBuffPtr++;
 800345a:	68fb      	ldr	r3, [r7, #12]
 800345c:	6a5b      	ldr	r3, [r3, #36]	@ 0x24
 800345e:	1c5a      	adds	r2, r3, #1
 8003460:	68fb      	ldr	r3, [r7, #12]
 8003462:	625a      	str	r2, [r3, #36]	@ 0x24

      hi2c->XferSize--;
 8003464:	68fb      	ldr	r3, [r7, #12]
 8003466:	8d1b      	ldrh	r3, [r3, #40]	@ 0x28
 8003468:	3b01      	subs	r3, #1
 800346a:	b29a      	uxth	r2, r3
 800346c:	68fb      	ldr	r3, [r7, #12]
 800346e:	851a      	strh	r2, [r3, #40]	@ 0x28
      hi2c->XferCount--;
 8003470:	68fb      	ldr	r3, [r7, #12]
 8003472:	8d5b      	ldrh	r3, [r3, #42]	@ 0x2a
 8003474:	b29b      	uxth	r3, r3
 8003476:	3b01      	subs	r3, #1
 8003478:	b29a      	uxth	r2, r3
 800347a:	68fb      	ldr	r3, [r7, #12]
 800347c:	855a      	strh	r2, [r3, #42]	@ 0x2a

      if ((hi2c->XferCount != 0U) && (hi2c->XferSize == 0U))
 800347e:	68fb      	ldr	r3, [r7, #12]
 8003480:	8d5b      	ldrh	r3, [r3, #42]	@ 0x2a
 8003482:	b29b      	uxth	r3, r3
 8003484:	2b00      	cmp	r3, #0
 8003486:	d03a      	beq.n	80034fe <HAL_I2C_Mem_Read+0x202>
 8003488:	68fb      	ldr	r3, [r7, #12]
 800348a:	8d1b      	ldrh	r3, [r3, #40]	@ 0x28
 800348c:	2b00      	cmp	r3, #0
 800348e:	d136      	bne.n	80034fe <HAL_I2C_Mem_Read+0x202>
      {
        /* Wait until TCR flag is set */
        if (I2C_WaitOnFlagUntilTimeout(hi2c, I2C_FLAG_TCR, RESET, Timeout, tickstart) != HAL_OK)
 8003490:	6b3a      	ldr	r2, [r7, #48]	@ 0x30
 8003492:	68f8      	ldr	r0, [r7, #12]
 8003494:	697b      	ldr	r3, [r7, #20]
 8003496:	9300      	str	r3, [sp, #0]
 8003498:	0013      	movs	r3, r2
 800349a:	2200      	movs	r2, #0
 800349c:	2180      	movs	r1, #128	@ 0x80
 800349e:	f000 f949 	bl	8003734 <I2C_WaitOnFlagUntilTimeout>
 80034a2:	1e03      	subs	r3, r0, #0
 80034a4:	d001      	beq.n	80034aa <HAL_I2C_Mem_Read+0x1ae>
        {
          return HAL_ERROR;
 80034a6:	2301      	movs	r3, #1
 80034a8:	e053      	b.n	8003552 <HAL_I2C_Mem_Read+0x256>
        }

        if (hi2c->XferCount > MAX_NBYTE_SIZE)
 80034aa:	68fb      	ldr	r3, [r7, #12]
 80034ac:	8d5b      	ldrh	r3, [r3, #42]	@ 0x2a
 80034ae:	b29b      	uxth	r3, r3
 80034b0:	2bff      	cmp	r3, #255	@ 0xff
 80034b2:	d911      	bls.n	80034d8 <HAL_I2C_Mem_Read+0x1dc>
        {
          hi2c->XferSize = MAX_NBYTE_SIZE;
 80034b4:	68fb      	ldr	r3, [r7, #12]
 80034b6:	22ff      	movs	r2, #255	@ 0xff
 80034b8:	851a      	strh	r2, [r3, #40]	@ 0x28
          I2C_TransferConfig(hi2c, DevAddress, (uint8_t) hi2c->XferSize, I2C_RELOAD_MODE,
 80034ba:	68fb      	ldr	r3, [r7, #12]
 80034bc:	8d1b      	ldrh	r3, [r3, #40]	@ 0x28
 80034be:	b2da      	uxtb	r2, r3
 80034c0:	2380      	movs	r3, #128	@ 0x80
 80034c2:	045c      	lsls	r4, r3, #17
 80034c4:	230a      	movs	r3, #10
 80034c6:	18fb      	adds	r3, r7, r3
 80034c8:	8819      	ldrh	r1, [r3, #0]
 80034ca:	68f8      	ldr	r0, [r7, #12]
 80034cc:	2300      	movs	r3, #0
 80034ce:	9300      	str	r3, [sp, #0]
 80034d0:	0023      	movs	r3, r4
 80034d2:	f000 fb09 	bl	8003ae8 <I2C_TransferConfig>
 80034d6:	e012      	b.n	80034fe <HAL_I2C_Mem_Read+0x202>
                             I2C_NO_STARTSTOP);
        }
        else
        {
          hi2c->XferSize = hi2c->XferCount;
 80034d8:	68fb      	ldr	r3, [r7, #12]
 80034da:	8d5b      	ldrh	r3, [r3, #42]	@ 0x2a
 80034dc:	b29a      	uxth	r2, r3
 80034de:	68fb      	ldr	r3, [r7, #12]
 80034e0:	851a      	strh	r2, [r3, #40]	@ 0x28
          I2C_TransferConfig(hi2c, DevAddress, (uint8_t)hi2c->XferSize, I2C_AUTOEND_MODE,
 80034e2:	68fb      	ldr	r3, [r7, #12]
 80034e4:	8d1b      	ldrh	r3, [r3, #40]	@ 0x28
 80034e6:	b2da      	uxtb	r2, r3
 80034e8:	2380      	movs	r3, #128	@ 0x80
 80034ea:	049c      	lsls	r4, r3, #18
 80034ec:	230a      	movs	r3, #10
 80034ee:	18fb      	adds	r3, r7, r3
 80034f0:	8819      	ldrh	r1, [r3, #0]
 80034f2:	68f8      	ldr	r0, [r7, #12]
 80034f4:	2300      	movs	r3, #0
 80034f6:	9300      	str	r3, [sp, #0]
 80034f8:	0023      	movs	r3, r4
 80034fa:	f000 faf5 	bl	8003ae8 <I2C_TransferConfig>
                             I2C_NO_STARTSTOP);
        }
      }
    } while (hi2c->XferCount > 0U);
 80034fe:	68fb      	ldr	r3, [r7, #12]
 8003500:	8d5b      	ldrh	r3, [r3, #42]	@ 0x2a
 8003502:	b29b      	uxth	r3, r3
 8003504:	2b00      	cmp	r3, #0
 8003506:	d194      	bne.n	8003432 <HAL_I2C_Mem_Read+0x136>

    /* No need to Check TC flag, with AUTOEND mode the stop is automatically generated */
    /* Wait until STOPF flag is reset */
    if (I2C_WaitOnSTOPFlagUntilTimeout(hi2c, Timeout, tickstart) != HAL_OK)
 8003508:	697a      	ldr	r2, [r7, #20]
 800350a:	6b39      	ldr	r1, [r7, #48]	@ 0x30
 800350c:	68fb      	ldr	r3, [r7, #12]
 800350e:	0018      	movs	r0, r3
 8003510:	f000 f9ae 	bl	8003870 <I2C_WaitOnSTOPFlagUntilTimeout>
 8003514:	1e03      	subs	r3, r0, #0
 8003516:	d001      	beq.n	800351c <HAL_I2C_Mem_Read+0x220>
    {
      return HAL_ERROR;
 8003518:	2301      	movs	r3, #1
 800351a:	e01a      	b.n	8003552 <HAL_I2C_Mem_Read+0x256>
    }

    /* Clear STOP Flag */
    __HAL_I2C_CLEAR_FLAG(hi2c, I2C_FLAG_STOPF);
 800351c:	68fb      	ldr	r3, [r7, #12]
 800351e:	681b      	ldr	r3, [r3, #0]
 8003520:	2220      	movs	r2, #32
 8003522:	61da      	str	r2, [r3, #28]

    /* Clear Configuration Register 2 */
    I2C_RESET_CR2(hi2c);
 8003524:	68fb      	ldr	r3, [r7, #12]
 8003526:	681b      	ldr	r3, [r3, #0]
 8003528:	685a      	ldr	r2, [r3, #4]
 800352a:	68fb      	ldr	r3, [r7, #12]
 800352c:	681b      	ldr	r3, [r3, #0]
 800352e:	490c      	ldr	r1, [pc, #48]	@ (8003560 <HAL_I2C_Mem_Read+0x264>)
 8003530:	400a      	ands	r2, r1
 8003532:	605a      	str	r2, [r3, #4]

    hi2c->State = HAL_I2C_STATE_READY;
 8003534:	68fb      	ldr	r3, [r7, #12]
 8003536:	2241      	movs	r2, #65	@ 0x41
 8003538:	2120      	movs	r1, #32
 800353a:	5499      	strb	r1, [r3, r2]
    hi2c->Mode  = HAL_I2C_MODE_NONE;
 800353c:	68fb      	ldr	r3, [r7, #12]
 800353e:	2242      	movs	r2, #66	@ 0x42
 8003540:	2100      	movs	r1, #0
 8003542:	5499      	strb	r1, [r3, r2]

    /* Process Unlocked */
    __HAL_UNLOCK(hi2c);
 8003544:	68fb      	ldr	r3, [r7, #12]
 8003546:	2240      	movs	r2, #64	@ 0x40
 8003548:	2100      	movs	r1, #0
 800354a:	5499      	strb	r1, [r3, r2]

    return HAL_OK;
 800354c:	2300      	movs	r3, #0
 800354e:	e000      	b.n	8003552 <HAL_I2C_Mem_Read+0x256>
  }
  else
  {
    return HAL_BUSY;
 8003550:	2302      	movs	r3, #2
  }
}
 8003552:	0018      	movs	r0, r3
 8003554:	46bd      	mov	sp, r7
 8003556:	b007      	add	sp, #28
 8003558:	bd90      	pop	{r4, r7, pc}
 800355a:	46c0      	nop			@ (mov r8, r8)
 800355c:	80002400 	.word	0x80002400
 8003560:	fe00e800 	.word	0xfe00e800

08003564 <I2C_RequestMemoryWrite>:
  * @retval HAL status
  */
static HAL_StatusTypeDef I2C_RequestMemoryWrite(I2C_HandleTypeDef *hi2c, uint16_t DevAddress,
                                                uint16_t MemAddress, uint16_t MemAddSize, uint32_t Timeout,
                                                uint32_t Tickstart)
{
 8003564:	b5b0      	push	{r4, r5, r7, lr}
 8003566:	b086      	sub	sp, #24
 8003568:	af02      	add	r7, sp, #8
 800356a:	60f8      	str	r0, [r7, #12]
 800356c:	000c      	movs	r4, r1
 800356e:	0010      	movs	r0, r2
 8003570:	0019      	movs	r1, r3
 8003572:	250a      	movs	r5, #10
 8003574:	197b      	adds	r3, r7, r5
 8003576:	1c22      	adds	r2, r4, #0
 8003578:	801a      	strh	r2, [r3, #0]
 800357a:	2308      	movs	r3, #8
 800357c:	18fb      	adds	r3, r7, r3
 800357e:	1c02      	adds	r2, r0, #0
 8003580:	801a      	strh	r2, [r3, #0]
 8003582:	1dbb      	adds	r3, r7, #6
 8003584:	1c0a      	adds	r2, r1, #0
 8003586:	801a      	strh	r2, [r3, #0]
  I2C_TransferConfig(hi2c, DevAddress, (uint8_t)MemAddSize, I2C_RELOAD_MODE, I2C_GENERATE_START_WRITE);
 8003588:	1dbb      	adds	r3, r7, #6
 800358a:	881b      	ldrh	r3, [r3, #0]
 800358c:	b2da      	uxtb	r2, r3
 800358e:	2380      	movs	r3, #128	@ 0x80
 8003590:	045c      	lsls	r4, r3, #17
 8003592:	197b      	adds	r3, r7, r5
 8003594:	8819      	ldrh	r1, [r3, #0]
 8003596:	68f8      	ldr	r0, [r7, #12]
 8003598:	4b23      	ldr	r3, [pc, #140]	@ (8003628 <I2C_RequestMemoryWrite+0xc4>)
 800359a:	9300      	str	r3, [sp, #0]
 800359c:	0023      	movs	r3, r4
 800359e:	f000 faa3 	bl	8003ae8 <I2C_TransferConfig>

  /* Wait until TXIS flag is set */
  if (I2C_WaitOnTXISFlagUntilTimeout(hi2c, Timeout, Tickstart) != HAL_OK)
 80035a2:	6a7a      	ldr	r2, [r7, #36]	@ 0x24
 80035a4:	6a39      	ldr	r1, [r7, #32]
 80035a6:	68fb      	ldr	r3, [r7, #12]
 80035a8:	0018      	movs	r0, r3
 80035aa:	f000 f91b 	bl	80037e4 <I2C_WaitOnTXISFlagUntilTimeout>
 80035ae:	1e03      	subs	r3, r0, #0
 80035b0:	d001      	beq.n	80035b6 <I2C_RequestMemoryWrite+0x52>
  {
    return HAL_ERROR;
 80035b2:	2301      	movs	r3, #1
 80035b4:	e033      	b.n	800361e <I2C_RequestMemoryWrite+0xba>
  }

  /* If Memory address size is 8Bit */
  if (MemAddSize == I2C_MEMADD_SIZE_8BIT)
 80035b6:	1dbb      	adds	r3, r7, #6
 80035b8:	881b      	ldrh	r3, [r3, #0]
 80035ba:	2b01      	cmp	r3, #1
 80035bc:	d107      	bne.n	80035ce <I2C_RequestMemoryWrite+0x6a>
  {
    /* Send Memory Address */
    hi2c->Instance->TXDR = I2C_MEM_ADD_LSB(MemAddress);
 80035be:	2308      	movs	r3, #8
 80035c0:	18fb      	adds	r3, r7, r3
 80035c2:	881b      	ldrh	r3, [r3, #0]
 80035c4:	b2da      	uxtb	r2, r3
 80035c6:	68fb      	ldr	r3, [r7, #12]
 80035c8:	681b      	ldr	r3, [r3, #0]
 80035ca:	629a      	str	r2, [r3, #40]	@ 0x28
 80035cc:	e019      	b.n	8003602 <I2C_RequestMemoryWrite+0x9e>
  }
  /* If Memory address size is 16Bit */
  else
  {
    /* Send MSB of Memory Address */
    hi2c->Instance->TXDR = I2C_MEM_ADD_MSB(MemAddress);
 80035ce:	2308      	movs	r3, #8
 80035d0:	18fb      	adds	r3, r7, r3
 80035d2:	881b      	ldrh	r3, [r3, #0]
 80035d4:	0a1b      	lsrs	r3, r3, #8
 80035d6:	b29b      	uxth	r3, r3
 80035d8:	b2da      	uxtb	r2, r3
 80035da:	68fb      	ldr	r3, [r7, #12]
 80035dc:	681b      	ldr	r3, [r3, #0]
 80035de:	629a      	str	r2, [r3, #40]	@ 0x28

    /* Wait until TXIS flag is set */
    if (I2C_WaitOnTXISFlagUntilTimeout(hi2c, Timeout, Tickstart) != HAL_OK)
 80035e0:	6a7a      	ldr	r2, [r7, #36]	@ 0x24
 80035e2:	6a39      	ldr	r1, [r7, #32]
 80035e4:	68fb      	ldr	r3, [r7, #12]
 80035e6:	0018      	movs	r0, r3
 80035e8:	f000 f8fc 	bl	80037e4 <I2C_WaitOnTXISFlagUntilTimeout>
 80035ec:	1e03      	subs	r3, r0, #0
 80035ee:	d001      	beq.n	80035f4 <I2C_RequestMemoryWrite+0x90>
    {
      return HAL_ERROR;
 80035f0:	2301      	movs	r3, #1
 80035f2:	e014      	b.n	800361e <I2C_RequestMemoryWrite+0xba>
    }

    /* Send LSB of Memory Address */
    hi2c->Instance->TXDR = I2C_MEM_ADD_LSB(MemAddress);
 80035f4:	2308      	movs	r3, #8
 80035f6:	18fb      	adds	r3, r7, r3
 80035f8:	881b      	ldrh	r3, [r3, #0]
 80035fa:	b2da      	uxtb	r2, r3
 80035fc:	68fb      	ldr	r3, [r7, #12]
 80035fe:	681b      	ldr	r3, [r3, #0]
 8003600:	629a      	str	r2, [r3, #40]	@ 0x28
  }

  /* Wait until TCR flag is set */
  if (I2C_WaitOnFlagUntilTimeout(hi2c, I2C_FLAG_TCR, RESET, Timeout, Tickstart) != HAL_OK)
 8003602:	6a3a      	ldr	r2, [r7, #32]
 8003604:	68f8      	ldr	r0, [r7, #12]
 8003606:	6a7b      	ldr	r3, [r7, #36]	@ 0x24
 8003608:	9300      	str	r3, [sp, #0]
 800360a:	0013      	movs	r3, r2
 800360c:	2200      	movs	r2, #0
 800360e:	2180      	movs	r1, #128	@ 0x80
 8003610:	f000 f890 	bl	8003734 <I2C_WaitOnFlagUntilTimeout>
 8003614:	1e03      	subs	r3, r0, #0
 8003616:	d001      	beq.n	800361c <I2C_RequestMemoryWrite+0xb8>
  {
    return HAL_ERROR;
 8003618:	2301      	movs	r3, #1
 800361a:	e000      	b.n	800361e <I2C_RequestMemoryWrite+0xba>
  }

  return HAL_OK;
 800361c:	2300      	movs	r3, #0
}
 800361e:	0018      	movs	r0, r3
 8003620:	46bd      	mov	sp, r7
 8003622:	b004      	add	sp, #16
 8003624:	bdb0      	pop	{r4, r5, r7, pc}
 8003626:	46c0      	nop			@ (mov r8, r8)
 8003628:	80002000 	.word	0x80002000

0800362c <I2C_RequestMemoryRead>:
  * @retval HAL status
  */
static HAL_StatusTypeDef I2C_RequestMemoryRead(I2C_HandleTypeDef *hi2c, uint16_t DevAddress,
                                               uint16_t MemAddress, uint16_t MemAddSize, uint32_t Timeout,
                                               uint32_t Tickstart)
{
 800362c:	b5b0      	push	{r4, r5, r7, lr}
 800362e:	b086      	sub	sp, #24
 8003630:	af02      	add	r7, sp, #8
 8003632:	60f8      	str	r0, [r7, #12]
 8003634:	000c      	movs	r4, r1
 8003636:	0010      	movs	r0, r2
 8003638:	0019      	movs	r1, r3
 800363a:	250a      	movs	r5, #10
 800363c:	197b      	adds	r3, r7, r5
 800363e:	1c22      	adds	r2, r4, #0
 8003640:	801a      	strh	r2, [r3, #0]
 8003642:	2308      	movs	r3, #8
 8003644:	18fb      	adds	r3, r7, r3
 8003646:	1c02      	adds	r2, r0, #0
 8003648:	801a      	strh	r2, [r3, #0]
 800364a:	1dbb      	adds	r3, r7, #6
 800364c:	1c0a      	adds	r2, r1, #0
 800364e:	801a      	strh	r2, [r3, #0]
  I2C_TransferConfig(hi2c, DevAddress, (uint8_t)MemAddSize, I2C_SOFTEND_MODE, I2C_GENERATE_START_WRITE);
 8003650:	1dbb      	adds	r3, r7, #6
 8003652:	881b      	ldrh	r3, [r3, #0]
 8003654:	b2da      	uxtb	r2, r3
 8003656:	197b      	adds	r3, r7, r5
 8003658:	8819      	ldrh	r1, [r3, #0]
 800365a:	68f8      	ldr	r0, [r7, #12]
 800365c:	4b23      	ldr	r3, [pc, #140]	@ (80036ec <I2C_RequestMemoryRead+0xc0>)
 800365e:	9300      	str	r3, [sp, #0]
 8003660:	2300      	movs	r3, #0
 8003662:	f000 fa41 	bl	8003ae8 <I2C_TransferConfig>

  /* Wait until TXIS flag is set */
  if (I2C_WaitOnTXISFlagUntilTimeout(hi2c, Timeout, Tickstart) != HAL_OK)
 8003666:	6a7a      	ldr	r2, [r7, #36]	@ 0x24
 8003668:	6a39      	ldr	r1, [r7, #32]
 800366a:	68fb      	ldr	r3, [r7, #12]
 800366c:	0018      	movs	r0, r3
 800366e:	f000 f8b9 	bl	80037e4 <I2C_WaitOnTXISFlagUntilTimeout>
 8003672:	1e03      	subs	r3, r0, #0
 8003674:	d001      	beq.n	800367a <I2C_RequestMemoryRead+0x4e>
  {
    return HAL_ERROR;
 8003676:	2301      	movs	r3, #1
 8003678:	e033      	b.n	80036e2 <I2C_RequestMemoryRead+0xb6>
  }

  /* If Memory address size is 8Bit */
  if (MemAddSize == I2C_MEMADD_SIZE_8BIT)
 800367a:	1dbb      	adds	r3, r7, #6
 800367c:	881b      	ldrh	r3, [r3, #0]
 800367e:	2b01      	cmp	r3, #1
 8003680:	d107      	bne.n	8003692 <I2C_RequestMemoryRead+0x66>
  {
    /* Send Memory Address */
    hi2c->Instance->TXDR = I2C_MEM_ADD_LSB(MemAddress);
 8003682:	2308      	movs	r3, #8
 8003684:	18fb      	adds	r3, r7, r3
 8003686:	881b      	ldrh	r3, [r3, #0]
 8003688:	b2da      	uxtb	r2, r3
 800368a:	68fb      	ldr	r3, [r7, #12]
 800368c:	681b      	ldr	r3, [r3, #0]
 800368e:	629a      	str	r2, [r3, #40]	@ 0x28
 8003690:	e019      	b.n	80036c6 <I2C_RequestMemoryRead+0x9a>
  }
  /* If Memory address size is 16Bit */
  else
  {
    /* Send MSB of Memory Address */
    hi2c->Instance->TXDR = I2C_MEM_ADD_MSB(MemAddress);
 8003692:	2308      	movs	r3, #8
 8003694:	18fb      	adds	r3, r7, r3
 8003696:	881b      	ldrh	r3, [r3, #0]
 8003698:	0a1b      	lsrs	r3, r3, #8
 800369a:	b29b      	uxth	r3, r3
 800369c:	b2da      	uxtb	r2, r3
 800369e:	68fb      	ldr	r3, [r7, #12]
 80036a0:	681b      	ldr	r3, [r3, #0]
 80036a2:	629a      	str	r2, [r3, #40]	@ 0x28

    /* Wait until TXIS flag is set */
    if (I2C_WaitOnTXISFlagUntilTimeout(hi2c, Timeout, Tickstart) != HAL_OK)
 80036a4:	6a7a      	ldr	r2, [r7, #36]	@ 0x24
 80036a6:	6a39      	ldr	r1, [r7, #32]
 80036a8:	68fb      	ldr	r3, [r7, #12]
 80036aa:	0018      	movs	r0, r3
 80036ac:	f000 f89a 	bl	80037e4 <I2C_WaitOnTXISFlagUntilTimeout>
 80036b0:	1e03      	subs	r3, r0, #0
 80036b2:	d001      	beq.n	80036b8 <I2C_RequestMemoryRead+0x8c>
    {
      return HAL_ERROR;
 80036b4:	2301      	movs	r3, #1
 80036b6:	e014      	b.n	80036e2 <I2C_RequestMemoryRead+0xb6>
    }

    /* Send LSB of Memory Address */
    hi2c->Instance->TXDR = I2C_MEM_ADD_LSB(MemAddress);
 80036b8:	2308      	movs	r3, #8
 80036ba:	18fb      	adds	r3, r7, r3
 80036bc:	881b      	ldrh	r3, [r3, #0]
 80036be:	b2da      	uxtb	r2, r3
 80036c0:	68fb      	ldr	r3, [r7, #12]
 80036c2:	681b      	ldr	r3, [r3, #0]
 80036c4:	629a      	str	r2, [r3, #40]	@ 0x28
  }

  /* Wait until TC flag is set */
  if (I2C_WaitOnFlagUntilTimeout(hi2c, I2C_FLAG_TC, RESET, Timeout, Tickstart) != HAL_OK)
 80036c6:	6a3a      	ldr	r2, [r7, #32]
 80036c8:	68f8      	ldr	r0, [r7, #12]
 80036ca:	6a7b      	ldr	r3, [r7, #36]	@ 0x24
 80036cc:	9300      	str	r3, [sp, #0]
 80036ce:	0013      	movs	r3, r2
 80036d0:	2200      	movs	r2, #0
 80036d2:	2140      	movs	r1, #64	@ 0x40
 80036d4:	f000 f82e 	bl	8003734 <I2C_WaitOnFlagUntilTimeout>
 80036d8:	1e03      	subs	r3, r0, #0
 80036da:	d001      	beq.n	80036e0 <I2C_RequestMemoryRead+0xb4>
  {
    return HAL_ERROR;
 80036dc:	2301      	movs	r3, #1
 80036de:	e000      	b.n	80036e2 <I2C_RequestMemoryRead+0xb6>
  }

  return HAL_OK;
 80036e0:	2300      	movs	r3, #0
}
 80036e2:	0018      	movs	r0, r3
 80036e4:	46bd      	mov	sp, r7
 80036e6:	b004      	add	sp, #16
 80036e8:	bdb0      	pop	{r4, r5, r7, pc}
 80036ea:	46c0      	nop			@ (mov r8, r8)
 80036ec:	80002000 	.word	0x80002000

080036f0 <I2C_Flush_TXDR>:
  * @brief  I2C Tx data register flush process.
  * @param  hi2c I2C handle.
  * @retval None
  */
static void I2C_Flush_TXDR(I2C_HandleTypeDef *hi2c)
{
 80036f0:	b580      	push	{r7, lr}
 80036f2:	b082      	sub	sp, #8
 80036f4:	af00      	add	r7, sp, #0
 80036f6:	6078      	str	r0, [r7, #4]
  /* If a pending TXIS flag is set */
  /* Write a dummy data in TXDR to clear it */
  if (__HAL_I2C_GET_FLAG(hi2c, I2C_FLAG_TXIS) != RESET)
 80036f8:	687b      	ldr	r3, [r7, #4]
 80036fa:	681b      	ldr	r3, [r3, #0]
 80036fc:	699b      	ldr	r3, [r3, #24]
 80036fe:	2202      	movs	r2, #2
 8003700:	4013      	ands	r3, r2
 8003702:	2b02      	cmp	r3, #2
 8003704:	d103      	bne.n	800370e <I2C_Flush_TXDR+0x1e>
  {
    hi2c->Instance->TXDR = 0x00U;
 8003706:	687b      	ldr	r3, [r7, #4]
 8003708:	681b      	ldr	r3, [r3, #0]
 800370a:	2200      	movs	r2, #0
 800370c:	629a      	str	r2, [r3, #40]	@ 0x28
  }

  /* Flush TX register if not empty */
  if (__HAL_I2C_GET_FLAG(hi2c, I2C_FLAG_TXE) == RESET)
 800370e:	687b      	ldr	r3, [r7, #4]
 8003710:	681b      	ldr	r3, [r3, #0]
 8003712:	699b      	ldr	r3, [r3, #24]
 8003714:	2201      	movs	r2, #1
 8003716:	4013      	ands	r3, r2
 8003718:	2b01      	cmp	r3, #1
 800371a:	d007      	beq.n	800372c <I2C_Flush_TXDR+0x3c>
  {
    __HAL_I2C_CLEAR_FLAG(hi2c, I2C_FLAG_TXE);
 800371c:	687b      	ldr	r3, [r7, #4]
 800371e:	681b      	ldr	r3, [r3, #0]
 8003720:	699a      	ldr	r2, [r3, #24]
 8003722:	687b      	ldr	r3, [r7, #4]
 8003724:	681b      	ldr	r3, [r3, #0]
 8003726:	2101      	movs	r1, #1
 8003728:	430a      	orrs	r2, r1
 800372a:	619a      	str	r2, [r3, #24]
  }
}
 800372c:	46c0      	nop			@ (mov r8, r8)
 800372e:	46bd      	mov	sp, r7
 8003730:	b002      	add	sp, #8
 8003732:	bd80      	pop	{r7, pc}

08003734 <I2C_WaitOnFlagUntilTimeout>:
  * @param  Tickstart Tick start value
  * @retval HAL status
  */
static HAL_StatusTypeDef I2C_WaitOnFlagUntilTimeout(I2C_HandleTypeDef *hi2c, uint32_t Flag, FlagStatus Status,
                                                    uint32_t Timeout, uint32_t Tickstart)
{
 8003734:	b580      	push	{r7, lr}
 8003736:	b084      	sub	sp, #16
 8003738:	af00      	add	r7, sp, #0
 800373a:	60f8      	str	r0, [r7, #12]
 800373c:	60b9      	str	r1, [r7, #8]
 800373e:	603b      	str	r3, [r7, #0]
 8003740:	1dfb      	adds	r3, r7, #7
 8003742:	701a      	strb	r2, [r3, #0]
  while (__HAL_I2C_GET_FLAG(hi2c, Flag) == Status)
 8003744:	e03a      	b.n	80037bc <I2C_WaitOnFlagUntilTimeout+0x88>
  {
    /* Check if an error is detected */
    if (I2C_IsErrorOccurred(hi2c, Timeout, Tickstart) != HAL_OK)
 8003746:	69ba      	ldr	r2, [r7, #24]
 8003748:	6839      	ldr	r1, [r7, #0]
 800374a:	68fb      	ldr	r3, [r7, #12]
 800374c:	0018      	movs	r0, r3
 800374e:	f000 f8d3 	bl	80038f8 <I2C_IsErrorOccurred>
 8003752:	1e03      	subs	r3, r0, #0
 8003754:	d001      	beq.n	800375a <I2C_WaitOnFlagUntilTimeout+0x26>
    {
      return HAL_ERROR;
 8003756:	2301      	movs	r3, #1
 8003758:	e040      	b.n	80037dc <I2C_WaitOnFlagUntilTimeout+0xa8>
    }

    /* Check for the Timeout */
    if (Timeout != HAL_MAX_DELAY)
 800375a:	683b      	ldr	r3, [r7, #0]
 800375c:	3301      	adds	r3, #1
 800375e:	d02d      	beq.n	80037bc <I2C_WaitOnFlagUntilTimeout+0x88>
    {
      if (((HAL_GetTick() - Tickstart) > Timeout) || (Timeout == 0U))
 8003760:	f7ff f8a8 	bl	80028b4 <HAL_GetTick>
 8003764:	0002      	movs	r2, r0
 8003766:	69bb      	ldr	r3, [r7, #24]
 8003768:	1ad3      	subs	r3, r2, r3
 800376a:	683a      	ldr	r2, [r7, #0]
 800376c:	429a      	cmp	r2, r3
 800376e:	d302      	bcc.n	8003776 <I2C_WaitOnFlagUntilTimeout+0x42>
 8003770:	683b      	ldr	r3, [r7, #0]
 8003772:	2b00      	cmp	r3, #0
 8003774:	d122      	bne.n	80037bc <I2C_WaitOnFlagUntilTimeout+0x88>
      {
        if ((__HAL_I2C_GET_FLAG(hi2c, Flag) == Status))
 8003776:	68fb      	ldr	r3, [r7, #12]
 8003778:	681b      	ldr	r3, [r3, #0]
 800377a:	699b      	ldr	r3, [r3, #24]
 800377c:	68ba      	ldr	r2, [r7, #8]
 800377e:	4013      	ands	r3, r2
 8003780:	68ba      	ldr	r2, [r7, #8]
 8003782:	1ad3      	subs	r3, r2, r3
 8003784:	425a      	negs	r2, r3
 8003786:	4153      	adcs	r3, r2
 8003788:	b2db      	uxtb	r3, r3
 800378a:	001a      	movs	r2, r3
 800378c:	1dfb      	adds	r3, r7, #7
 800378e:	781b      	ldrb	r3, [r3, #0]
 8003790:	429a      	cmp	r2, r3
 8003792:	d113      	bne.n	80037bc <I2C_WaitOnFlagUntilTimeout+0x88>
        {
          hi2c->ErrorCode |= HAL_I2C_ERROR_TIMEOUT;
 8003794:	68fb      	ldr	r3, [r7, #12]
 8003796:	6c5b      	ldr	r3, [r3, #68]	@ 0x44
 8003798:	2220      	movs	r2, #32
 800379a:	431a      	orrs	r2, r3
 800379c:	68fb      	ldr	r3, [r7, #12]
 800379e:	645a      	str	r2, [r3, #68]	@ 0x44
          hi2c->State = HAL_I2C_STATE_READY;
 80037a0:	68fb      	ldr	r3, [r7, #12]
 80037a2:	2241      	movs	r2, #65	@ 0x41
 80037a4:	2120      	movs	r1, #32
 80037a6:	5499      	strb	r1, [r3, r2]
          hi2c->Mode = HAL_I2C_MODE_NONE;
 80037a8:	68fb      	ldr	r3, [r7, #12]
 80037aa:	2242      	movs	r2, #66	@ 0x42
 80037ac:	2100      	movs	r1, #0
 80037ae:	5499      	strb	r1, [r3, r2]

          /* Process Unlocked */
          __HAL_UNLOCK(hi2c);
 80037b0:	68fb      	ldr	r3, [r7, #12]
 80037b2:	2240      	movs	r2, #64	@ 0x40
 80037b4:	2100      	movs	r1, #0
 80037b6:	5499      	strb	r1, [r3, r2]
          return HAL_ERROR;
 80037b8:	2301      	movs	r3, #1
 80037ba:	e00f      	b.n	80037dc <I2C_WaitOnFlagUntilTimeout+0xa8>
  while (__HAL_I2C_GET_FLAG(hi2c, Flag) == Status)
 80037bc:	68fb      	ldr	r3, [r7, #12]
 80037be:	681b      	ldr	r3, [r3, #0]
 80037c0:	699b      	ldr	r3, [r3, #24]
 80037c2:	68ba      	ldr	r2, [r7, #8]
 80037c4:	4013      	ands	r3, r2
 80037c6:	68ba      	ldr	r2, [r7, #8]
 80037c8:	1ad3      	subs	r3, r2, r3
 80037ca:	425a      	negs	r2, r3
 80037cc:	4153      	adcs	r3, r2
 80037ce:	b2db      	uxtb	r3, r3
 80037d0:	001a      	movs	r2, r3
 80037d2:	1dfb      	adds	r3, r7, #7
 80037d4:	781b      	ldrb	r3, [r3, #0]
 80037d6:	429a      	cmp	r2, r3
 80037d8:	d0b5      	beq.n	8003746 <I2C_WaitOnFlagUntilTimeout+0x12>
        }
      }
    }
  }
  return HAL_OK;
 80037da:	2300      	movs	r3, #0
}
 80037dc:	0018      	movs	r0, r3
 80037de:	46bd      	mov	sp, r7
 80037e0:	b004      	add	sp, #16
 80037e2:	bd80      	pop	{r7, pc}

080037e4 <I2C_WaitOnTXISFlagUntilTimeout>:
  * @param  Tickstart Tick start value
  * @retval HAL status
  */
static HAL_StatusTypeDef I2C_WaitOnTXISFlagUntilTimeout(I2C_HandleTypeDef *hi2c, uint32_t Timeout,
                                                        uint32_t Tickstart)
{
 80037e4:	b580      	push	{r7, lr}
 80037e6:	b084      	sub	sp, #16
 80037e8:	af00      	add	r7, sp, #0
 80037ea:	60f8      	str	r0, [r7, #12]
 80037ec:	60b9      	str	r1, [r7, #8]
 80037ee:	607a      	str	r2, [r7, #4]
  while (__HAL_I2C_GET_FLAG(hi2c, I2C_FLAG_TXIS) == RESET)
 80037f0:	e032      	b.n	8003858 <I2C_WaitOnTXISFlagUntilTimeout+0x74>
  {
    /* Check if an error is detected */
    if (I2C_IsErrorOccurred(hi2c, Timeout, Tickstart) != HAL_OK)
 80037f2:	687a      	ldr	r2, [r7, #4]
 80037f4:	68b9      	ldr	r1, [r7, #8]
 80037f6:	68fb      	ldr	r3, [r7, #12]
 80037f8:	0018      	movs	r0, r3
 80037fa:	f000 f87d 	bl	80038f8 <I2C_IsErrorOccurred>
 80037fe:	1e03      	subs	r3, r0, #0
 8003800:	d001      	beq.n	8003806 <I2C_WaitOnTXISFlagUntilTimeout+0x22>
    {
      return HAL_ERROR;
 8003802:	2301      	movs	r3, #1
 8003804:	e030      	b.n	8003868 <I2C_WaitOnTXISFlagUntilTimeout+0x84>
    }

    /* Check for the Timeout */
    if (Timeout != HAL_MAX_DELAY)
 8003806:	68bb      	ldr	r3, [r7, #8]
 8003808:	3301      	adds	r3, #1
 800380a:	d025      	beq.n	8003858 <I2C_WaitOnTXISFlagUntilTimeout+0x74>
    {
      if (((HAL_GetTick() - Tickstart) > Timeout) || (Timeout == 0U))
 800380c:	f7ff f852 	bl	80028b4 <HAL_GetTick>
 8003810:	0002      	movs	r2, r0
 8003812:	687b      	ldr	r3, [r7, #4]
 8003814:	1ad3      	subs	r3, r2, r3
 8003816:	68ba      	ldr	r2, [r7, #8]
 8003818:	429a      	cmp	r2, r3
 800381a:	d302      	bcc.n	8003822 <I2C_WaitOnTXISFlagUntilTimeout+0x3e>
 800381c:	68bb      	ldr	r3, [r7, #8]
 800381e:	2b00      	cmp	r3, #0
 8003820:	d11a      	bne.n	8003858 <I2C_WaitOnTXISFlagUntilTimeout+0x74>
      {
        if ((__HAL_I2C_GET_FLAG(hi2c, I2C_FLAG_TXIS) == RESET))
 8003822:	68fb      	ldr	r3, [r7, #12]
 8003824:	681b      	ldr	r3, [r3, #0]
 8003826:	699b      	ldr	r3, [r3, #24]
 8003828:	2202      	movs	r2, #2
 800382a:	4013      	ands	r3, r2
 800382c:	2b02      	cmp	r3, #2
 800382e:	d013      	beq.n	8003858 <I2C_WaitOnTXISFlagUntilTimeout+0x74>
        {
          hi2c->ErrorCode |= HAL_I2C_ERROR_TIMEOUT;
 8003830:	68fb      	ldr	r3, [r7, #12]
 8003832:	6c5b      	ldr	r3, [r3, #68]	@ 0x44
 8003834:	2220      	movs	r2, #32
 8003836:	431a      	orrs	r2, r3
 8003838:	68fb      	ldr	r3, [r7, #12]
 800383a:	645a      	str	r2, [r3, #68]	@ 0x44
          hi2c->State = HAL_I2C_STATE_READY;
 800383c:	68fb      	ldr	r3, [r7, #12]
 800383e:	2241      	movs	r2, #65	@ 0x41
 8003840:	2120      	movs	r1, #32
 8003842:	5499      	strb	r1, [r3, r2]
          hi2c->Mode = HAL_I2C_MODE_NONE;
 8003844:	68fb      	ldr	r3, [r7, #12]
 8003846:	2242      	movs	r2, #66	@ 0x42
 8003848:	2100      	movs	r1, #0
 800384a:	5499      	strb	r1, [r3, r2]

          /* Process Unlocked */
          __HAL_UNLOCK(hi2c);
 800384c:	68fb      	ldr	r3, [r7, #12]
 800384e:	2240      	movs	r2, #64	@ 0x40
 8003850:	2100      	movs	r1, #0
 8003852:	5499      	strb	r1, [r3, r2]

          return HAL_ERROR;
 8003854:	2301      	movs	r3, #1
 8003856:	e007      	b.n	8003868 <I2C_WaitOnTXISFlagUntilTimeout+0x84>
  while (__HAL_I2C_GET_FLAG(hi2c, I2C_FLAG_TXIS) == RESET)
 8003858:	68fb      	ldr	r3, [r7, #12]
 800385a:	681b      	ldr	r3, [r3, #0]
 800385c:	699b      	ldr	r3, [r3, #24]
 800385e:	2202      	movs	r2, #2
 8003860:	4013      	ands	r3, r2
 8003862:	2b02      	cmp	r3, #2
 8003864:	d1c5      	bne.n	80037f2 <I2C_WaitOnTXISFlagUntilTimeout+0xe>
        }
      }
    }
  }
  return HAL_OK;
 8003866:	2300      	movs	r3, #0
}
 8003868:	0018      	movs	r0, r3
 800386a:	46bd      	mov	sp, r7
 800386c:	b004      	add	sp, #16
 800386e:	bd80      	pop	{r7, pc}

08003870 <I2C_WaitOnSTOPFlagUntilTimeout>:
  * @param  Tickstart Tick start value
  * @retval HAL status
  */
static HAL_StatusTypeDef I2C_WaitOnSTOPFlagUntilTimeout(I2C_HandleTypeDef *hi2c, uint32_t Timeout,
                                                        uint32_t Tickstart)
{
 8003870:	b580      	push	{r7, lr}
 8003872:	b084      	sub	sp, #16
 8003874:	af00      	add	r7, sp, #0
 8003876:	60f8      	str	r0, [r7, #12]
 8003878:	60b9      	str	r1, [r7, #8]
 800387a:	607a      	str	r2, [r7, #4]
  while (__HAL_I2C_GET_FLAG(hi2c, I2C_FLAG_STOPF) == RESET)
 800387c:	e02f      	b.n	80038de <I2C_WaitOnSTOPFlagUntilTimeout+0x6e>
  {
    /* Check if an error is detected */
    if (I2C_IsErrorOccurred(hi2c, Timeout, Tickstart) != HAL_OK)
 800387e:	687a      	ldr	r2, [r7, #4]
 8003880:	68b9      	ldr	r1, [r7, #8]
 8003882:	68fb      	ldr	r3, [r7, #12]
 8003884:	0018      	movs	r0, r3
 8003886:	f000 f837 	bl	80038f8 <I2C_IsErrorOccurred>
 800388a:	1e03      	subs	r3, r0, #0
 800388c:	d001      	beq.n	8003892 <I2C_WaitOnSTOPFlagUntilTimeout+0x22>
    {
      return HAL_ERROR;
 800388e:	2301      	movs	r3, #1
 8003890:	e02d      	b.n	80038ee <I2C_WaitOnSTOPFlagUntilTimeout+0x7e>
    }

    /* Check for the Timeout */
    if (((HAL_GetTick() - Tickstart) > Timeout) || (Timeout == 0U))
 8003892:	f7ff f80f 	bl	80028b4 <HAL_GetTick>
 8003896:	0002      	movs	r2, r0
 8003898:	687b      	ldr	r3, [r7, #4]
 800389a:	1ad3      	subs	r3, r2, r3
 800389c:	68ba      	ldr	r2, [r7, #8]
 800389e:	429a      	cmp	r2, r3
 80038a0:	d302      	bcc.n	80038a8 <I2C_WaitOnSTOPFlagUntilTimeout+0x38>
 80038a2:	68bb      	ldr	r3, [r7, #8]
 80038a4:	2b00      	cmp	r3, #0
 80038a6:	d11a      	bne.n	80038de <I2C_WaitOnSTOPFlagUntilTimeout+0x6e>
    {
      if ((__HAL_I2C_GET_FLAG(hi2c, I2C_FLAG_STOPF) == RESET))
 80038a8:	68fb      	ldr	r3, [r7, #12]
 80038aa:	681b      	ldr	r3, [r3, #0]
 80038ac:	699b      	ldr	r3, [r3, #24]
 80038ae:	2220      	movs	r2, #32
 80038b0:	4013      	ands	r3, r2
 80038b2:	2b20      	cmp	r3, #32
 80038b4:	d013      	beq.n	80038de <I2C_WaitOnSTOPFlagUntilTimeout+0x6e>
      {
        hi2c->ErrorCode |= HAL_I2C_ERROR_TIMEOUT;
 80038b6:	68fb      	ldr	r3, [r7, #12]
 80038b8:	6c5b      	ldr	r3, [r3, #68]	@ 0x44
 80038ba:	2220      	movs	r2, #32
 80038bc:	431a      	orrs	r2, r3
 80038be:	68fb      	ldr	r3, [r7, #12]
 80038c0:	645a      	str	r2, [r3, #68]	@ 0x44
        hi2c->State = HAL_I2C_STATE_READY;
 80038c2:	68fb      	ldr	r3, [r7, #12]
 80038c4:	2241      	movs	r2, #65	@ 0x41
 80038c6:	2120      	movs	r1, #32
 80038c8:	5499      	strb	r1, [r3, r2]
        hi2c->Mode = HAL_I2C_MODE_NONE;
 80038ca:	68fb      	ldr	r3, [r7, #12]
 80038cc:	2242      	movs	r2, #66	@ 0x42
 80038ce:	2100      	movs	r1, #0
 80038d0:	5499      	strb	r1, [r3, r2]

        /* Process Unlocked */
        __HAL_UNLOCK(hi2c);
 80038d2:	68fb      	ldr	r3, [r7, #12]
 80038d4:	2240      	movs	r2, #64	@ 0x40
 80038d6:	2100      	movs	r1, #0
 80038d8:	5499      	strb	r1, [r3, r2]

        return HAL_ERROR;
 80038da:	2301      	movs	r3, #1
 80038dc:	e007      	b.n	80038ee <I2C_WaitOnSTOPFlagUntilTimeout+0x7e>
  while (__HAL_I2C_GET_FLAG(hi2c, I2C_FLAG_STOPF) == RESET)
 80038de:	68fb      	ldr	r3, [r7, #12]
 80038e0:	681b      	ldr	r3, [r3, #0]
 80038e2:	699b      	ldr	r3, [r3, #24]
 80038e4:	2220      	movs	r2, #32
 80038e6:	4013      	ands	r3, r2
 80038e8:	2b20      	cmp	r3, #32
 80038ea:	d1c8      	bne.n	800387e <I2C_WaitOnSTOPFlagUntilTimeout+0xe>
      }
    }
  }
  return HAL_OK;
 80038ec:	2300      	movs	r3, #0
}
 80038ee:	0018      	movs	r0, r3
 80038f0:	46bd      	mov	sp, r7
 80038f2:	b004      	add	sp, #16
 80038f4:	bd80      	pop	{r7, pc}
	...

080038f8 <I2C_IsErrorOccurred>:
  * @param  Timeout Timeout duration
  * @param  Tickstart Tick start value
  * @retval HAL status
  */
static HAL_StatusTypeDef I2C_IsErrorOccurred(I2C_HandleTypeDef *hi2c, uint32_t Timeout, uint32_t Tickstart)
{
 80038f8:	b580      	push	{r7, lr}
 80038fa:	b08a      	sub	sp, #40	@ 0x28
 80038fc:	af00      	add	r7, sp, #0
 80038fe:	60f8      	str	r0, [r7, #12]
 8003900:	60b9      	str	r1, [r7, #8]
 8003902:	607a      	str	r2, [r7, #4]
  HAL_StatusTypeDef status = HAL_OK;
 8003904:	2327      	movs	r3, #39	@ 0x27
 8003906:	18fb      	adds	r3, r7, r3
 8003908:	2200      	movs	r2, #0
 800390a:	701a      	strb	r2, [r3, #0]
  uint32_t itflag   = hi2c->Instance->ISR;
 800390c:	68fb      	ldr	r3, [r7, #12]
 800390e:	681b      	ldr	r3, [r3, #0]
 8003910:	699b      	ldr	r3, [r3, #24]
 8003912:	61bb      	str	r3, [r7, #24]
  uint32_t error_code = 0;
 8003914:	2300      	movs	r3, #0
 8003916:	623b      	str	r3, [r7, #32]
  uint32_t tickstart = Tickstart;
 8003918:	687b      	ldr	r3, [r7, #4]
 800391a:	61fb      	str	r3, [r7, #28]
  uint32_t tmp1;
  HAL_I2C_ModeTypeDef tmp2;

  if (HAL_IS_BIT_SET(itflag, I2C_FLAG_AF))
 800391c:	69bb      	ldr	r3, [r7, #24]
 800391e:	2210      	movs	r2, #16
 8003920:	4013      	ands	r3, r2
 8003922:	d100      	bne.n	8003926 <I2C_IsErrorOccurred+0x2e>
 8003924:	e079      	b.n	8003a1a <I2C_IsErrorOccurred+0x122>
  {
    /* Clear NACKF Flag */
    __HAL_I2C_CLEAR_FLAG(hi2c, I2C_FLAG_AF);
 8003926:	68fb      	ldr	r3, [r7, #12]
 8003928:	681b      	ldr	r3, [r3, #0]
 800392a:	2210      	movs	r2, #16
 800392c:	61da      	str	r2, [r3, #28]

    /* Wait until STOP Flag is set or timeout occurred */
    /* AutoEnd should be initiate after AF */
    while ((__HAL_I2C_GET_FLAG(hi2c, I2C_FLAG_STOPF) == RESET) && (status == HAL_OK))
 800392e:	e057      	b.n	80039e0 <I2C_IsErrorOccurred+0xe8>
 8003930:	2227      	movs	r2, #39	@ 0x27
 8003932:	18bb      	adds	r3, r7, r2
 8003934:	18ba      	adds	r2, r7, r2
 8003936:	7812      	ldrb	r2, [r2, #0]
 8003938:	701a      	strb	r2, [r3, #0]
    {
      /* Check for the Timeout */
      if (Timeout != HAL_MAX_DELAY)
 800393a:	68bb      	ldr	r3, [r7, #8]
 800393c:	3301      	adds	r3, #1
 800393e:	d04f      	beq.n	80039e0 <I2C_IsErrorOccurred+0xe8>
      {
        if (((HAL_GetTick() - tickstart) > Timeout) || (Timeout == 0U))
 8003940:	f7fe ffb8 	bl	80028b4 <HAL_GetTick>
 8003944:	0002      	movs	r2, r0
 8003946:	69fb      	ldr	r3, [r7, #28]
 8003948:	1ad3      	subs	r3, r2, r3
 800394a:	68ba      	ldr	r2, [r7, #8]
 800394c:	429a      	cmp	r2, r3
 800394e:	d302      	bcc.n	8003956 <I2C_IsErrorOccurred+0x5e>
 8003950:	68bb      	ldr	r3, [r7, #8]
 8003952:	2b00      	cmp	r3, #0
 8003954:	d144      	bne.n	80039e0 <I2C_IsErrorOccurred+0xe8>
        {
          tmp1 = (uint32_t)(hi2c->Instance->CR2 & I2C_CR2_STOP);
 8003956:	68fb      	ldr	r3, [r7, #12]
 8003958:	681b      	ldr	r3, [r3, #0]
 800395a:	685a      	ldr	r2, [r3, #4]
 800395c:	2380      	movs	r3, #128	@ 0x80
 800395e:	01db      	lsls	r3, r3, #7
 8003960:	4013      	ands	r3, r2
 8003962:	617b      	str	r3, [r7, #20]
          tmp2 = hi2c->Mode;
 8003964:	2013      	movs	r0, #19
 8003966:	183b      	adds	r3, r7, r0
 8003968:	68fa      	ldr	r2, [r7, #12]
 800396a:	2142      	movs	r1, #66	@ 0x42
 800396c:	5c52      	ldrb	r2, [r2, r1]
 800396e:	701a      	strb	r2, [r3, #0]

          /* In case of I2C still busy, try to regenerate a STOP manually */
          if ((__HAL_I2C_GET_FLAG(hi2c, I2C_FLAG_BUSY) != RESET) && \
 8003970:	68fb      	ldr	r3, [r7, #12]
 8003972:	681b      	ldr	r3, [r3, #0]
 8003974:	699a      	ldr	r2, [r3, #24]
 8003976:	2380      	movs	r3, #128	@ 0x80
 8003978:	021b      	lsls	r3, r3, #8
 800397a:	401a      	ands	r2, r3
 800397c:	2380      	movs	r3, #128	@ 0x80
 800397e:	021b      	lsls	r3, r3, #8
 8003980:	429a      	cmp	r2, r3
 8003982:	d126      	bne.n	80039d2 <I2C_IsErrorOccurred+0xda>
 8003984:	697a      	ldr	r2, [r7, #20]
 8003986:	2380      	movs	r3, #128	@ 0x80
 8003988:	01db      	lsls	r3, r3, #7
 800398a:	429a      	cmp	r2, r3
 800398c:	d021      	beq.n	80039d2 <I2C_IsErrorOccurred+0xda>
              (tmp1 != I2C_CR2_STOP) && \
 800398e:	183b      	adds	r3, r7, r0
 8003990:	781b      	ldrb	r3, [r3, #0]
 8003992:	2b20      	cmp	r3, #32
 8003994:	d01d      	beq.n	80039d2 <I2C_IsErrorOccurred+0xda>
              (tmp2 != HAL_I2C_MODE_SLAVE))
          {
            /* Generate Stop */
            hi2c->Instance->CR2 |= I2C_CR2_STOP;
 8003996:	68fb      	ldr	r3, [r7, #12]
 8003998:	681b      	ldr	r3, [r3, #0]
 800399a:	685a      	ldr	r2, [r3, #4]
 800399c:	68fb      	ldr	r3, [r7, #12]
 800399e:	681b      	ldr	r3, [r3, #0]
 80039a0:	2180      	movs	r1, #128	@ 0x80
 80039a2:	01c9      	lsls	r1, r1, #7
 80039a4:	430a      	orrs	r2, r1
 80039a6:	605a      	str	r2, [r3, #4]

            /* Update Tick with new reference */
            tickstart = HAL_GetTick();
 80039a8:	f7fe ff84 	bl	80028b4 <HAL_GetTick>
 80039ac:	0003      	movs	r3, r0
 80039ae:	61fb      	str	r3, [r7, #28]
          }

          while (__HAL_I2C_GET_FLAG(hi2c, I2C_FLAG_STOPF) == RESET)
 80039b0:	e00f      	b.n	80039d2 <I2C_IsErrorOccurred+0xda>
          {
            /* Check for the Timeout */
            if ((HAL_GetTick() - tickstart) > I2C_TIMEOUT_STOPF)
 80039b2:	f7fe ff7f 	bl	80028b4 <HAL_GetTick>
 80039b6:	0002      	movs	r2, r0
 80039b8:	69fb      	ldr	r3, [r7, #28]
 80039ba:	1ad3      	subs	r3, r2, r3
 80039bc:	2b19      	cmp	r3, #25
 80039be:	d908      	bls.n	80039d2 <I2C_IsErrorOccurred+0xda>
            {
              error_code |= HAL_I2C_ERROR_TIMEOUT;
 80039c0:	6a3b      	ldr	r3, [r7, #32]
 80039c2:	2220      	movs	r2, #32
 80039c4:	4313      	orrs	r3, r2
 80039c6:	623b      	str	r3, [r7, #32]

              status = HAL_ERROR;
 80039c8:	2327      	movs	r3, #39	@ 0x27
 80039ca:	18fb      	adds	r3, r7, r3
 80039cc:	2201      	movs	r2, #1
 80039ce:	701a      	strb	r2, [r3, #0]

              break;
 80039d0:	e006      	b.n	80039e0 <I2C_IsErrorOccurred+0xe8>
          while (__HAL_I2C_GET_FLAG(hi2c, I2C_FLAG_STOPF) == RESET)
 80039d2:	68fb      	ldr	r3, [r7, #12]
 80039d4:	681b      	ldr	r3, [r3, #0]
 80039d6:	699b      	ldr	r3, [r3, #24]
 80039d8:	2220      	movs	r2, #32
 80039da:	4013      	ands	r3, r2
 80039dc:	2b20      	cmp	r3, #32
 80039de:	d1e8      	bne.n	80039b2 <I2C_IsErrorOccurred+0xba>
    while ((__HAL_I2C_GET_FLAG(hi2c, I2C_FLAG_STOPF) == RESET) && (status == HAL_OK))
 80039e0:	68fb      	ldr	r3, [r7, #12]
 80039e2:	681b      	ldr	r3, [r3, #0]
 80039e4:	699b      	ldr	r3, [r3, #24]
 80039e6:	2220      	movs	r2, #32
 80039e8:	4013      	ands	r3, r2
 80039ea:	2b20      	cmp	r3, #32
 80039ec:	d004      	beq.n	80039f8 <I2C_IsErrorOccurred+0x100>
 80039ee:	2327      	movs	r3, #39	@ 0x27
 80039f0:	18fb      	adds	r3, r7, r3
 80039f2:	781b      	ldrb	r3, [r3, #0]
 80039f4:	2b00      	cmp	r3, #0
 80039f6:	d09b      	beq.n	8003930 <I2C_IsErrorOccurred+0x38>
        }
      }
    }

    /* In case STOP Flag is detected, clear it */
    if (status == HAL_OK)
 80039f8:	2327      	movs	r3, #39	@ 0x27
 80039fa:	18fb      	adds	r3, r7, r3
 80039fc:	781b      	ldrb	r3, [r3, #0]
 80039fe:	2b00      	cmp	r3, #0
 8003a00:	d103      	bne.n	8003a0a <I2C_IsErrorOccurred+0x112>
    {
      /* Clear STOP Flag */
      __HAL_I2C_CLEAR_FLAG(hi2c, I2C_FLAG_STOPF);
 8003a02:	68fb      	ldr	r3, [r7, #12]
 8003a04:	681b      	ldr	r3, [r3, #0]
 8003a06:	2220      	movs	r2, #32
 8003a08:	61da      	str	r2, [r3, #28]
    }

    error_code |= HAL_I2C_ERROR_AF;
 8003a0a:	6a3b      	ldr	r3, [r7, #32]
 8003a0c:	2204      	movs	r2, #4
 8003a0e:	4313      	orrs	r3, r2
 8003a10:	623b      	str	r3, [r7, #32]

    status = HAL_ERROR;
 8003a12:	2327      	movs	r3, #39	@ 0x27
 8003a14:	18fb      	adds	r3, r7, r3
 8003a16:	2201      	movs	r2, #1
 8003a18:	701a      	strb	r2, [r3, #0]
  }

  /* Refresh Content of Status register */
  itflag = hi2c->Instance->ISR;
 8003a1a:	68fb      	ldr	r3, [r7, #12]
 8003a1c:	681b      	ldr	r3, [r3, #0]
 8003a1e:	699b      	ldr	r3, [r3, #24]
 8003a20:	61bb      	str	r3, [r7, #24]

  /* Then verify if an additional errors occurs */
  /* Check if a Bus error occurred */
  if (HAL_IS_BIT_SET(itflag, I2C_FLAG_BERR))
 8003a22:	69ba      	ldr	r2, [r7, #24]
 8003a24:	2380      	movs	r3, #128	@ 0x80
 8003a26:	005b      	lsls	r3, r3, #1
 8003a28:	4013      	ands	r3, r2
 8003a2a:	d00c      	beq.n	8003a46 <I2C_IsErrorOccurred+0x14e>
  {
    error_code |= HAL_I2C_ERROR_BERR;
 8003a2c:	6a3b      	ldr	r3, [r7, #32]
 8003a2e:	2201      	movs	r2, #1
 8003a30:	4313      	orrs	r3, r2
 8003a32:	623b      	str	r3, [r7, #32]

    /* Clear BERR flag */
    __HAL_I2C_CLEAR_FLAG(hi2c, I2C_FLAG_BERR);
 8003a34:	68fb      	ldr	r3, [r7, #12]
 8003a36:	681b      	ldr	r3, [r3, #0]
 8003a38:	2280      	movs	r2, #128	@ 0x80
 8003a3a:	0052      	lsls	r2, r2, #1
 8003a3c:	61da      	str	r2, [r3, #28]

    status = HAL_ERROR;
 8003a3e:	2327      	movs	r3, #39	@ 0x27
 8003a40:	18fb      	adds	r3, r7, r3
 8003a42:	2201      	movs	r2, #1
 8003a44:	701a      	strb	r2, [r3, #0]
  }

  /* Check if an Over-Run/Under-Run error occurred */
  if (HAL_IS_BIT_SET(itflag, I2C_FLAG_OVR))
 8003a46:	69ba      	ldr	r2, [r7, #24]
 8003a48:	2380      	movs	r3, #128	@ 0x80
 8003a4a:	00db      	lsls	r3, r3, #3
 8003a4c:	4013      	ands	r3, r2
 8003a4e:	d00c      	beq.n	8003a6a <I2C_IsErrorOccurred+0x172>
  {
    error_code |= HAL_I2C_ERROR_OVR;
 8003a50:	6a3b      	ldr	r3, [r7, #32]
 8003a52:	2208      	movs	r2, #8
 8003a54:	4313      	orrs	r3, r2
 8003a56:	623b      	str	r3, [r7, #32]

    /* Clear OVR flag */
    __HAL_I2C_CLEAR_FLAG(hi2c, I2C_FLAG_OVR);
 8003a58:	68fb      	ldr	r3, [r7, #12]
 8003a5a:	681b      	ldr	r3, [r3, #0]
 8003a5c:	2280      	movs	r2, #128	@ 0x80
 8003a5e:	00d2      	lsls	r2, r2, #3
 8003a60:	61da      	str	r2, [r3, #28]

    status = HAL_ERROR;
 8003a62:	2327      	movs	r3, #39	@ 0x27
 8003a64:	18fb      	adds	r3, r7, r3
 8003a66:	2201      	movs	r2, #1
 8003a68:	701a      	strb	r2, [r3, #0]
  }

  /* Check if an Arbitration Loss error occurred */
  if (HAL_IS_BIT_SET(itflag, I2C_FLAG_ARLO))
 8003a6a:	69ba      	ldr	r2, [r7, #24]
 8003a6c:	2380      	movs	r3, #128	@ 0x80
 8003a6e:	009b      	lsls	r3, r3, #2
 8003a70:	4013      	ands	r3, r2
 8003a72:	d00c      	beq.n	8003a8e <I2C_IsErrorOccurred+0x196>
  {
    error_code |= HAL_I2C_ERROR_ARLO;
 8003a74:	6a3b      	ldr	r3, [r7, #32]
 8003a76:	2202      	movs	r2, #2
 8003a78:	4313      	orrs	r3, r2
 8003a7a:	623b      	str	r3, [r7, #32]

    /* Clear ARLO flag */
    __HAL_I2C_CLEAR_FLAG(hi2c, I2C_FLAG_ARLO);
 8003a7c:	68fb      	ldr	r3, [r7, #12]
 8003a7e:	681b      	ldr	r3, [r3, #0]
 8003a80:	2280      	movs	r2, #128	@ 0x80
 8003a82:	0092      	lsls	r2, r2, #2
 8003a84:	61da      	str	r2, [r3, #28]

    status = HAL_ERROR;
 8003a86:	2327      	movs	r3, #39	@ 0x27
 8003a88:	18fb      	adds	r3, r7, r3
 8003a8a:	2201      	movs	r2, #1
 8003a8c:	701a      	strb	r2, [r3, #0]
  }

  if (status != HAL_OK)
 8003a8e:	2327      	movs	r3, #39	@ 0x27
 8003a90:	18fb      	adds	r3, r7, r3
 8003a92:	781b      	ldrb	r3, [r3, #0]
 8003a94:	2b00      	cmp	r3, #0
 8003a96:	d01d      	beq.n	8003ad4 <I2C_IsErrorOccurred+0x1dc>
  {
    /* Flush TX register */
    I2C_Flush_TXDR(hi2c);
 8003a98:	68fb      	ldr	r3, [r7, #12]
 8003a9a:	0018      	movs	r0, r3
 8003a9c:	f7ff fe28 	bl	80036f0 <I2C_Flush_TXDR>

    /* Clear Configuration Register 2 */
    I2C_RESET_CR2(hi2c);
 8003aa0:	68fb      	ldr	r3, [r7, #12]
 8003aa2:	681b      	ldr	r3, [r3, #0]
 8003aa4:	685a      	ldr	r2, [r3, #4]
 8003aa6:	68fb      	ldr	r3, [r7, #12]
 8003aa8:	681b      	ldr	r3, [r3, #0]
 8003aaa:	490e      	ldr	r1, [pc, #56]	@ (8003ae4 <I2C_IsErrorOccurred+0x1ec>)
 8003aac:	400a      	ands	r2, r1
 8003aae:	605a      	str	r2, [r3, #4]

    hi2c->ErrorCode |= error_code;
 8003ab0:	68fb      	ldr	r3, [r7, #12]
 8003ab2:	6c5a      	ldr	r2, [r3, #68]	@ 0x44
 8003ab4:	6a3b      	ldr	r3, [r7, #32]
 8003ab6:	431a      	orrs	r2, r3
 8003ab8:	68fb      	ldr	r3, [r7, #12]
 8003aba:	645a      	str	r2, [r3, #68]	@ 0x44
    hi2c->State = HAL_I2C_STATE_READY;
 8003abc:	68fb      	ldr	r3, [r7, #12]
 8003abe:	2241      	movs	r2, #65	@ 0x41
 8003ac0:	2120      	movs	r1, #32
 8003ac2:	5499      	strb	r1, [r3, r2]
    hi2c->Mode = HAL_I2C_MODE_NONE;
 8003ac4:	68fb      	ldr	r3, [r7, #12]
 8003ac6:	2242      	movs	r2, #66	@ 0x42
 8003ac8:	2100      	movs	r1, #0
 8003aca:	5499      	strb	r1, [r3, r2]

    /* Process Unlocked */
    __HAL_UNLOCK(hi2c);
 8003acc:	68fb      	ldr	r3, [r7, #12]
 8003ace:	2240      	movs	r2, #64	@ 0x40
 8003ad0:	2100      	movs	r1, #0
 8003ad2:	5499      	strb	r1, [r3, r2]
  }

  return status;
 8003ad4:	2327      	movs	r3, #39	@ 0x27
 8003ad6:	18fb      	adds	r3, r7, r3
 8003ad8:	781b      	ldrb	r3, [r3, #0]
}
 8003ada:	0018      	movs	r0, r3
 8003adc:	46bd      	mov	sp, r7
 8003ade:	b00a      	add	sp, #40	@ 0x28
 8003ae0:	bd80      	pop	{r7, pc}
 8003ae2:	46c0      	nop			@ (mov r8, r8)
 8003ae4:	fe00e800 	.word	0xfe00e800

08003ae8 <I2C_TransferConfig>:
  *     @arg @ref I2C_GENERATE_START_WRITE Generate Restart for write request.
  * @retval None
  */
static void I2C_TransferConfig(I2C_HandleTypeDef *hi2c, uint16_t DevAddress, uint8_t Size, uint32_t Mode,
                               uint32_t Request)
{
 8003ae8:	b590      	push	{r4, r7, lr}
 8003aea:	b087      	sub	sp, #28
 8003aec:	af00      	add	r7, sp, #0
 8003aee:	60f8      	str	r0, [r7, #12]
 8003af0:	0008      	movs	r0, r1
 8003af2:	0011      	movs	r1, r2
 8003af4:	607b      	str	r3, [r7, #4]
 8003af6:	240a      	movs	r4, #10
 8003af8:	193b      	adds	r3, r7, r4
 8003afa:	1c02      	adds	r2, r0, #0
 8003afc:	801a      	strh	r2, [r3, #0]
 8003afe:	2009      	movs	r0, #9
 8003b00:	183b      	adds	r3, r7, r0
 8003b02:	1c0a      	adds	r2, r1, #0
 8003b04:	701a      	strb	r2, [r3, #0]
  assert_param(IS_I2C_ALL_INSTANCE(hi2c->Instance));
  assert_param(IS_TRANSFER_MODE(Mode));
  assert_param(IS_TRANSFER_REQUEST(Request));

  /* Declaration of tmp to prevent undefined behavior of volatile usage */
  uint32_t tmp = ((uint32_t)(((uint32_t)DevAddress & I2C_CR2_SADD) | \
 8003b06:	193b      	adds	r3, r7, r4
 8003b08:	881b      	ldrh	r3, [r3, #0]
 8003b0a:	059b      	lsls	r3, r3, #22
 8003b0c:	0d9a      	lsrs	r2, r3, #22
                             (((uint32_t)Size << I2C_CR2_NBYTES_Pos) & I2C_CR2_NBYTES) | \
 8003b0e:	183b      	adds	r3, r7, r0
 8003b10:	781b      	ldrb	r3, [r3, #0]
 8003b12:	0419      	lsls	r1, r3, #16
 8003b14:	23ff      	movs	r3, #255	@ 0xff
 8003b16:	041b      	lsls	r3, r3, #16
 8003b18:	400b      	ands	r3, r1
  uint32_t tmp = ((uint32_t)(((uint32_t)DevAddress & I2C_CR2_SADD) | \
 8003b1a:	431a      	orrs	r2, r3
                             (((uint32_t)Size << I2C_CR2_NBYTES_Pos) & I2C_CR2_NBYTES) | \
 8003b1c:	687b      	ldr	r3, [r7, #4]
 8003b1e:	431a      	orrs	r2, r3
  uint32_t tmp = ((uint32_t)(((uint32_t)DevAddress & I2C_CR2_SADD) | \
 8003b20:	6abb      	ldr	r3, [r7, #40]	@ 0x28
 8003b22:	4313      	orrs	r3, r2
 8003b24:	005b      	lsls	r3, r3, #1
 8003b26:	085b      	lsrs	r3, r3, #1
 8003b28:	617b      	str	r3, [r7, #20]
                             (uint32_t)Mode | (uint32_t)Request) & (~0x80000000U));

  /* update CR2 register */
  MODIFY_REG(hi2c->Instance->CR2, \
 8003b2a:	68fb      	ldr	r3, [r7, #12]
 8003b2c:	681b      	ldr	r3, [r3, #0]
 8003b2e:	685b      	ldr	r3, [r3, #4]
 8003b30:	6aba      	ldr	r2, [r7, #40]	@ 0x28
 8003b32:	0d51      	lsrs	r1, r2, #21
 8003b34:	2280      	movs	r2, #128	@ 0x80
 8003b36:	00d2      	lsls	r2, r2, #3
 8003b38:	400a      	ands	r2, r1
 8003b3a:	4907      	ldr	r1, [pc, #28]	@ (8003b58 <I2C_TransferConfig+0x70>)
 8003b3c:	430a      	orrs	r2, r1
 8003b3e:	43d2      	mvns	r2, r2
 8003b40:	401a      	ands	r2, r3
 8003b42:	0011      	movs	r1, r2
 8003b44:	68fb      	ldr	r3, [r7, #12]
 8003b46:	681b      	ldr	r3, [r3, #0]
 8003b48:	697a      	ldr	r2, [r7, #20]
 8003b4a:	430a      	orrs	r2, r1
 8003b4c:	605a      	str	r2, [r3, #4]
             ((I2C_CR2_SADD | I2C_CR2_NBYTES | I2C_CR2_RELOAD | I2C_CR2_AUTOEND | \
               (I2C_CR2_RD_WRN & (uint32_t)(Request >> (31U - I2C_CR2_RD_WRN_Pos))) | \
               I2C_CR2_START | I2C_CR2_STOP)), tmp);
}
 8003b4e:	46c0      	nop			@ (mov r8, r8)
 8003b50:	46bd      	mov	sp, r7
 8003b52:	b007      	add	sp, #28
 8003b54:	bd90      	pop	{r4, r7, pc}
 8003b56:	46c0      	nop			@ (mov r8, r8)
 8003b58:	03ff63ff 	.word	0x03ff63ff

08003b5c <HAL_I2CEx_ConfigAnalogFilter>:
  *                the configuration information for the specified I2Cx peripheral.
  * @param  AnalogFilter New state of the Analog filter.
  * @retval HAL status
  */
HAL_StatusTypeDef HAL_I2CEx_ConfigAnalogFilter(I2C_HandleTypeDef *hi2c, uint32_t AnalogFilter)
{
 8003b5c:	b580      	push	{r7, lr}
 8003b5e:	b082      	sub	sp, #8
 8003b60:	af00      	add	r7, sp, #0
 8003b62:	6078      	str	r0, [r7, #4]
 8003b64:	6039      	str	r1, [r7, #0]
  /* Check the parameters */
  assert_param(IS_I2C_ALL_INSTANCE(hi2c->Instance));
  assert_param(IS_I2C_ANALOG_FILTER(AnalogFilter));

  if (hi2c->State == HAL_I2C_STATE_READY)
 8003b66:	687b      	ldr	r3, [r7, #4]
 8003b68:	2241      	movs	r2, #65	@ 0x41
 8003b6a:	5c9b      	ldrb	r3, [r3, r2]
 8003b6c:	b2db      	uxtb	r3, r3
 8003b6e:	2b20      	cmp	r3, #32
 8003b70:	d138      	bne.n	8003be4 <HAL_I2CEx_ConfigAnalogFilter+0x88>
  {
    /* Process Locked */
    __HAL_LOCK(hi2c);
 8003b72:	687b      	ldr	r3, [r7, #4]
 8003b74:	2240      	movs	r2, #64	@ 0x40
 8003b76:	5c9b      	ldrb	r3, [r3, r2]
 8003b78:	2b01      	cmp	r3, #1
 8003b7a:	d101      	bne.n	8003b80 <HAL_I2CEx_ConfigAnalogFilter+0x24>
 8003b7c:	2302      	movs	r3, #2
 8003b7e:	e032      	b.n	8003be6 <HAL_I2CEx_ConfigAnalogFilter+0x8a>
 8003b80:	687b      	ldr	r3, [r7, #4]
 8003b82:	2240      	movs	r2, #64	@ 0x40
 8003b84:	2101      	movs	r1, #1
 8003b86:	5499      	strb	r1, [r3, r2]

    hi2c->State = HAL_I2C_STATE_BUSY;
 8003b88:	687b      	ldr	r3, [r7, #4]
 8003b8a:	2241      	movs	r2, #65	@ 0x41
 8003b8c:	2124      	movs	r1, #36	@ 0x24
 8003b8e:	5499      	strb	r1, [r3, r2]

    /* Disable the selected I2C peripheral */
    __HAL_I2C_DISABLE(hi2c);
 8003b90:	687b      	ldr	r3, [r7, #4]
 8003b92:	681b      	ldr	r3, [r3, #0]
 8003b94:	681a      	ldr	r2, [r3, #0]
 8003b96:	687b      	ldr	r3, [r7, #4]
 8003b98:	681b      	ldr	r3, [r3, #0]
 8003b9a:	2101      	movs	r1, #1
 8003b9c:	438a      	bics	r2, r1
 8003b9e:	601a      	str	r2, [r3, #0]

    /* Reset I2Cx ANOFF bit */
    hi2c->Instance->CR1 &= ~(I2C_CR1_ANFOFF);
 8003ba0:	687b      	ldr	r3, [r7, #4]
 8003ba2:	681b      	ldr	r3, [r3, #0]
 8003ba4:	681a      	ldr	r2, [r3, #0]
 8003ba6:	687b      	ldr	r3, [r7, #4]
 8003ba8:	681b      	ldr	r3, [r3, #0]
 8003baa:	4911      	ldr	r1, [pc, #68]	@ (8003bf0 <HAL_I2CEx_ConfigAnalogFilter+0x94>)
 8003bac:	400a      	ands	r2, r1
 8003bae:	601a      	str	r2, [r3, #0]

    /* Set analog filter bit*/
    hi2c->Instance->CR1 |= AnalogFilter;
 8003bb0:	687b      	ldr	r3, [r7, #4]
 8003bb2:	681b      	ldr	r3, [r3, #0]
 8003bb4:	6819      	ldr	r1, [r3, #0]
 8003bb6:	687b      	ldr	r3, [r7, #4]
 8003bb8:	681b      	ldr	r3, [r3, #0]
 8003bba:	683a      	ldr	r2, [r7, #0]
 8003bbc:	430a      	orrs	r2, r1
 8003bbe:	601a      	str	r2, [r3, #0]

    __HAL_I2C_ENABLE(hi2c);
 8003bc0:	687b      	ldr	r3, [r7, #4]
 8003bc2:	681b      	ldr	r3, [r3, #0]
 8003bc4:	681a      	ldr	r2, [r3, #0]
 8003bc6:	687b      	ldr	r3, [r7, #4]
 8003bc8:	681b      	ldr	r3, [r3, #0]
 8003bca:	2101      	movs	r1, #1
 8003bcc:	430a      	orrs	r2, r1
 8003bce:	601a      	str	r2, [r3, #0]

    hi2c->State = HAL_I2C_STATE_READY;
 8003bd0:	687b      	ldr	r3, [r7, #4]
 8003bd2:	2241      	movs	r2, #65	@ 0x41
 8003bd4:	2120      	movs	r1, #32
 8003bd6:	5499      	strb	r1, [r3, r2]

    /* Process Unlocked */
    __HAL_UNLOCK(hi2c);
 8003bd8:	687b      	ldr	r3, [r7, #4]
 8003bda:	2240      	movs	r2, #64	@ 0x40
 8003bdc:	2100      	movs	r1, #0
 8003bde:	5499      	strb	r1, [r3, r2]

    return HAL_OK;
 8003be0:	2300      	movs	r3, #0
 8003be2:	e000      	b.n	8003be6 <HAL_I2CEx_ConfigAnalogFilter+0x8a>
  }
  else
  {
    return HAL_BUSY;
 8003be4:	2302      	movs	r3, #2
  }
}
 8003be6:	0018      	movs	r0, r3
 8003be8:	46bd      	mov	sp, r7
 8003bea:	b002      	add	sp, #8
 8003bec:	bd80      	pop	{r7, pc}
 8003bee:	46c0      	nop			@ (mov r8, r8)
 8003bf0:	ffffefff 	.word	0xffffefff

08003bf4 <HAL_I2CEx_ConfigDigitalFilter>:
  *                the configuration information for the specified I2Cx peripheral.
  * @param  DigitalFilter Coefficient of digital noise filter between Min_Data=0x00 and Max_Data=0x0F.
  * @retval HAL status
  */
HAL_StatusTypeDef HAL_I2CEx_ConfigDigitalFilter(I2C_HandleTypeDef *hi2c, uint32_t DigitalFilter)
{
 8003bf4:	b580      	push	{r7, lr}
 8003bf6:	b084      	sub	sp, #16
 8003bf8:	af00      	add	r7, sp, #0
 8003bfa:	6078      	str	r0, [r7, #4]
 8003bfc:	6039      	str	r1, [r7, #0]

  /* Check the parameters */
  assert_param(IS_I2C_ALL_INSTANCE(hi2c->Instance));
  assert_param(IS_I2C_DIGITAL_FILTER(DigitalFilter));

  if (hi2c->State == HAL_I2C_STATE_READY)
 8003bfe:	687b      	ldr	r3, [r7, #4]
 8003c00:	2241      	movs	r2, #65	@ 0x41
 8003c02:	5c9b      	ldrb	r3, [r3, r2]
 8003c04:	b2db      	uxtb	r3, r3
 8003c06:	2b20      	cmp	r3, #32
 8003c08:	d139      	bne.n	8003c7e <HAL_I2CEx_ConfigDigitalFilter+0x8a>
  {
    /* Process Locked */
    __HAL_LOCK(hi2c);
 8003c0a:	687b      	ldr	r3, [r7, #4]
 8003c0c:	2240      	movs	r2, #64	@ 0x40
 8003c0e:	5c9b      	ldrb	r3, [r3, r2]
 8003c10:	2b01      	cmp	r3, #1
 8003c12:	d101      	bne.n	8003c18 <HAL_I2CEx_ConfigDigitalFilter+0x24>
 8003c14:	2302      	movs	r3, #2
 8003c16:	e033      	b.n	8003c80 <HAL_I2CEx_ConfigDigitalFilter+0x8c>
 8003c18:	687b      	ldr	r3, [r7, #4]
 8003c1a:	2240      	movs	r2, #64	@ 0x40
 8003c1c:	2101      	movs	r1, #1
 8003c1e:	5499      	strb	r1, [r3, r2]

    hi2c->State = HAL_I2C_STATE_BUSY;
 8003c20:	687b      	ldr	r3, [r7, #4]
 8003c22:	2241      	movs	r2, #65	@ 0x41
 8003c24:	2124      	movs	r1, #36	@ 0x24
 8003c26:	5499      	strb	r1, [r3, r2]

    /* Disable the selected I2C peripheral */
    __HAL_I2C_DISABLE(hi2c);
 8003c28:	687b      	ldr	r3, [r7, #4]
 8003c2a:	681b      	ldr	r3, [r3, #0]
 8003c2c:	681a      	ldr	r2, [r3, #0]
 8003c2e:	687b      	ldr	r3, [r7, #4]
 8003c30:	681b      	ldr	r3, [r3, #0]
 8003c32:	2101      	movs	r1, #1
 8003c34:	438a      	bics	r2, r1
 8003c36:	601a      	str	r2, [r3, #0]

    /* Get the old register value */
    tmpreg = hi2c->Instance->CR1;
 8003c38:	687b      	ldr	r3, [r7, #4]
 8003c3a:	681b      	ldr	r3, [r3, #0]
 8003c3c:	681b      	ldr	r3, [r3, #0]
 8003c3e:	60fb      	str	r3, [r7, #12]

    /* Reset I2Cx DNF bits [11:8] */
    tmpreg &= ~(I2C_CR1_DNF);
 8003c40:	68fb      	ldr	r3, [r7, #12]
 8003c42:	4a11      	ldr	r2, [pc, #68]	@ (8003c88 <HAL_I2CEx_ConfigDigitalFilter+0x94>)
 8003c44:	4013      	ands	r3, r2
 8003c46:	60fb      	str	r3, [r7, #12]

    /* Set I2Cx DNF coefficient */
    tmpreg |= DigitalFilter << 8U;
 8003c48:	683b      	ldr	r3, [r7, #0]
 8003c4a:	021b      	lsls	r3, r3, #8
 8003c4c:	68fa      	ldr	r2, [r7, #12]
 8003c4e:	4313      	orrs	r3, r2
 8003c50:	60fb      	str	r3, [r7, #12]

    /* Store the new register value */
    hi2c->Instance->CR1 = tmpreg;
 8003c52:	687b      	ldr	r3, [r7, #4]
 8003c54:	681b      	ldr	r3, [r3, #0]
 8003c56:	68fa      	ldr	r2, [r7, #12]
 8003c58:	601a      	str	r2, [r3, #0]

    __HAL_I2C_ENABLE(hi2c);
 8003c5a:	687b      	ldr	r3, [r7, #4]
 8003c5c:	681b      	ldr	r3, [r3, #0]
 8003c5e:	681a      	ldr	r2, [r3, #0]
 8003c60:	687b      	ldr	r3, [r7, #4]
 8003c62:	681b      	ldr	r3, [r3, #0]
 8003c64:	2101      	movs	r1, #1
 8003c66:	430a      	orrs	r2, r1
 8003c68:	601a      	str	r2, [r3, #0]

    hi2c->State = HAL_I2C_STATE_READY;
 8003c6a:	687b      	ldr	r3, [r7, #4]
 8003c6c:	2241      	movs	r2, #65	@ 0x41
 8003c6e:	2120      	movs	r1, #32
 8003c70:	5499      	strb	r1, [r3, r2]

    /* Process Unlocked */
    __HAL_UNLOCK(hi2c);
 8003c72:	687b      	ldr	r3, [r7, #4]
 8003c74:	2240      	movs	r2, #64	@ 0x40
 8003c76:	2100      	movs	r1, #0
 8003c78:	5499      	strb	r1, [r3, r2]

    return HAL_OK;
 8003c7a:	2300      	movs	r3, #0
 8003c7c:	e000      	b.n	8003c80 <HAL_I2CEx_ConfigDigitalFilter+0x8c>
  }
  else
  {
    return HAL_BUSY;
 8003c7e:	2302      	movs	r3, #2
  }
}
 8003c80:	0018      	movs	r0, r3
 8003c82:	46bd      	mov	sp, r7
 8003c84:	b004      	add	sp, #16
 8003c86:	bd80      	pop	{r7, pc}
 8003c88:	fffff0ff 	.word	0xfffff0ff

08003c8c <HAL_PWREx_ControlVoltageScaling>:
  *        cleared before returning the status. If the flag is not cleared within
  *        6 microseconds, HAL_TIMEOUT status is reported.
  * @retval HAL Status
  */
HAL_StatusTypeDef HAL_PWREx_ControlVoltageScaling(uint32_t VoltageScaling)
{
 8003c8c:	b580      	push	{r7, lr}
 8003c8e:	b084      	sub	sp, #16
 8003c90:	af00      	add	r7, sp, #0
 8003c92:	6078      	str	r0, [r7, #4]
  uint32_t wait_loop_index;

  assert_param(IS_PWR_VOLTAGE_SCALING_RANGE(VoltageScaling));

  /* Modify voltage scaling range */
  MODIFY_REG(PWR->CR1, PWR_CR1_VOS, VoltageScaling);
 8003c94:	4b19      	ldr	r3, [pc, #100]	@ (8003cfc <HAL_PWREx_ControlVoltageScaling+0x70>)
 8003c96:	681b      	ldr	r3, [r3, #0]
 8003c98:	4a19      	ldr	r2, [pc, #100]	@ (8003d00 <HAL_PWREx_ControlVoltageScaling+0x74>)
 8003c9a:	4013      	ands	r3, r2
 8003c9c:	0019      	movs	r1, r3
 8003c9e:	4b17      	ldr	r3, [pc, #92]	@ (8003cfc <HAL_PWREx_ControlVoltageScaling+0x70>)
 8003ca0:	687a      	ldr	r2, [r7, #4]
 8003ca2:	430a      	orrs	r2, r1
 8003ca4:	601a      	str	r2, [r3, #0]

  /* In case of Range 1 selected, we need to ensure that main regulator reaches new value */
  if (VoltageScaling == PWR_REGULATOR_VOLTAGE_SCALE1)
 8003ca6:	687a      	ldr	r2, [r7, #4]
 8003ca8:	2380      	movs	r3, #128	@ 0x80
 8003caa:	009b      	lsls	r3, r3, #2
 8003cac:	429a      	cmp	r2, r3
 8003cae:	d11f      	bne.n	8003cf0 <HAL_PWREx_ControlVoltageScaling+0x64>
  {
    /* Set timeout value */
    wait_loop_index = ((PWR_VOSF_SETTING_DELAY_6_US * SystemCoreClock) / 1000000U) + 1U;
 8003cb0:	4b14      	ldr	r3, [pc, #80]	@ (8003d04 <HAL_PWREx_ControlVoltageScaling+0x78>)
 8003cb2:	681a      	ldr	r2, [r3, #0]
 8003cb4:	0013      	movs	r3, r2
 8003cb6:	005b      	lsls	r3, r3, #1
 8003cb8:	189b      	adds	r3, r3, r2
 8003cba:	005b      	lsls	r3, r3, #1
 8003cbc:	4912      	ldr	r1, [pc, #72]	@ (8003d08 <HAL_PWREx_ControlVoltageScaling+0x7c>)
 8003cbe:	0018      	movs	r0, r3
 8003cc0:	f7fc fa28 	bl	8000114 <__udivsi3>
 8003cc4:	0003      	movs	r3, r0
 8003cc6:	3301      	adds	r3, #1
 8003cc8:	60fb      	str	r3, [r7, #12]

    /* Wait until VOSF is reset */
    while (HAL_IS_BIT_SET(PWR->SR2, PWR_SR2_VOSF))
 8003cca:	e008      	b.n	8003cde <HAL_PWREx_ControlVoltageScaling+0x52>
    {
      if (wait_loop_index != 0U)
 8003ccc:	68fb      	ldr	r3, [r7, #12]
 8003cce:	2b00      	cmp	r3, #0
 8003cd0:	d003      	beq.n	8003cda <HAL_PWREx_ControlVoltageScaling+0x4e>
      {
        wait_loop_index--;
 8003cd2:	68fb      	ldr	r3, [r7, #12]
 8003cd4:	3b01      	subs	r3, #1
 8003cd6:	60fb      	str	r3, [r7, #12]
 8003cd8:	e001      	b.n	8003cde <HAL_PWREx_ControlVoltageScaling+0x52>
      }
      else
      {
        return HAL_TIMEOUT;
 8003cda:	2303      	movs	r3, #3
 8003cdc:	e009      	b.n	8003cf2 <HAL_PWREx_ControlVoltageScaling+0x66>
    while (HAL_IS_BIT_SET(PWR->SR2, PWR_SR2_VOSF))
 8003cde:	4b07      	ldr	r3, [pc, #28]	@ (8003cfc <HAL_PWREx_ControlVoltageScaling+0x70>)
 8003ce0:	695a      	ldr	r2, [r3, #20]
 8003ce2:	2380      	movs	r3, #128	@ 0x80
 8003ce4:	00db      	lsls	r3, r3, #3
 8003ce6:	401a      	ands	r2, r3
 8003ce8:	2380      	movs	r3, #128	@ 0x80
 8003cea:	00db      	lsls	r3, r3, #3
 8003cec:	429a      	cmp	r2, r3
 8003cee:	d0ed      	beq.n	8003ccc <HAL_PWREx_ControlVoltageScaling+0x40>
      }
    }
  }

  return HAL_OK;
 8003cf0:	2300      	movs	r3, #0
}
 8003cf2:	0018      	movs	r0, r3
 8003cf4:	46bd      	mov	sp, r7
 8003cf6:	b004      	add	sp, #16
 8003cf8:	bd80      	pop	{r7, pc}
 8003cfa:	46c0      	nop			@ (mov r8, r8)
 8003cfc:	40007000 	.word	0x40007000
 8003d00:	fffff9ff 	.word	0xfffff9ff
 8003d04:	20000008 	.word	0x20000008
 8003d08:	000f4240 	.word	0x000f4240

08003d0c <LL_RCC_GetAPB1Prescaler>:
  *         @arg @ref LL_RCC_APB1_DIV_4
  *         @arg @ref LL_RCC_APB1_DIV_8
  *         @arg @ref LL_RCC_APB1_DIV_16
  */
__STATIC_INLINE uint32_t LL_RCC_GetAPB1Prescaler(void)
{
 8003d0c:	b580      	push	{r7, lr}
 8003d0e:	af00      	add	r7, sp, #0
  return (uint32_t)(READ_BIT(RCC->CFGR, RCC_CFGR_PPRE));
 8003d10:	4b03      	ldr	r3, [pc, #12]	@ (8003d20 <LL_RCC_GetAPB1Prescaler+0x14>)
 8003d12:	689a      	ldr	r2, [r3, #8]
 8003d14:	23e0      	movs	r3, #224	@ 0xe0
 8003d16:	01db      	lsls	r3, r3, #7
 8003d18:	4013      	ands	r3, r2
}
 8003d1a:	0018      	movs	r0, r3
 8003d1c:	46bd      	mov	sp, r7
 8003d1e:	bd80      	pop	{r7, pc}
 8003d20:	40021000 	.word	0x40021000

08003d24 <HAL_RCC_OscConfig>:
  *         supported by this function. User should request a transition to LSE Off
  *         first and then to LSE On or LSE Bypass.
  * @retval HAL status
  */
HAL_StatusTypeDef HAL_RCC_OscConfig(RCC_OscInitTypeDef  *RCC_OscInitStruct)
{
 8003d24:	b580      	push	{r7, lr}
 8003d26:	b088      	sub	sp, #32
 8003d28:	af00      	add	r7, sp, #0
 8003d2a:	6078      	str	r0, [r7, #4]
  uint32_t tickstart;
  uint32_t temp_sysclksrc;
  uint32_t temp_pllckcfg;

  /* Check Null pointer */
  if (RCC_OscInitStruct == NULL)
 8003d2c:	687b      	ldr	r3, [r7, #4]
 8003d2e:	2b00      	cmp	r3, #0
 8003d30:	d101      	bne.n	8003d36 <HAL_RCC_OscConfig+0x12>
  {
    return HAL_ERROR;
 8003d32:	2301      	movs	r3, #1
 8003d34:	e2fe      	b.n	8004334 <HAL_RCC_OscConfig+0x610>

  /* Check the parameters */
  assert_param(IS_RCC_OSCILLATORTYPE(RCC_OscInitStruct->OscillatorType));

  /*------------------------------- HSE Configuration ------------------------*/
  if (((RCC_OscInitStruct->OscillatorType) & RCC_OSCILLATORTYPE_HSE) == RCC_OSCILLATORTYPE_HSE)
 8003d36:	687b      	ldr	r3, [r7, #4]
 8003d38:	681b      	ldr	r3, [r3, #0]
 8003d3a:	2201      	movs	r2, #1
 8003d3c:	4013      	ands	r3, r2
 8003d3e:	d100      	bne.n	8003d42 <HAL_RCC_OscConfig+0x1e>
 8003d40:	e07c      	b.n	8003e3c <HAL_RCC_OscConfig+0x118>
  {
    /* Check the parameters */
    assert_param(IS_RCC_HSE(RCC_OscInitStruct->HSEState));

    temp_sysclksrc = __HAL_RCC_GET_SYSCLK_SOURCE();
 8003d42:	4bc3      	ldr	r3, [pc, #780]	@ (8004050 <HAL_RCC_OscConfig+0x32c>)
 8003d44:	689b      	ldr	r3, [r3, #8]
 8003d46:	2238      	movs	r2, #56	@ 0x38
 8003d48:	4013      	ands	r3, r2
 8003d4a:	61bb      	str	r3, [r7, #24]
    temp_pllckcfg = __HAL_RCC_GET_PLL_OSCSOURCE();
 8003d4c:	4bc0      	ldr	r3, [pc, #768]	@ (8004050 <HAL_RCC_OscConfig+0x32c>)
 8003d4e:	68db      	ldr	r3, [r3, #12]
 8003d50:	2203      	movs	r2, #3
 8003d52:	4013      	ands	r3, r2
 8003d54:	617b      	str	r3, [r7, #20]

    /* When the HSE is used as system clock or clock source for PLL in these cases it is not allowed to be disabled */
    if (((temp_sysclksrc == RCC_SYSCLKSOURCE_STATUS_PLLCLK) && (temp_pllckcfg == RCC_PLLSOURCE_HSE))
 8003d56:	69bb      	ldr	r3, [r7, #24]
 8003d58:	2b10      	cmp	r3, #16
 8003d5a:	d102      	bne.n	8003d62 <HAL_RCC_OscConfig+0x3e>
 8003d5c:	697b      	ldr	r3, [r7, #20]
 8003d5e:	2b03      	cmp	r3, #3
 8003d60:	d002      	beq.n	8003d68 <HAL_RCC_OscConfig+0x44>
        || (temp_sysclksrc == RCC_SYSCLKSOURCE_STATUS_HSE))
 8003d62:	69bb      	ldr	r3, [r7, #24]
 8003d64:	2b08      	cmp	r3, #8
 8003d66:	d10b      	bne.n	8003d80 <HAL_RCC_OscConfig+0x5c>
    {
      if ((READ_BIT(RCC->CR, RCC_CR_HSERDY) != 0U) && (RCC_OscInitStruct->HSEState == RCC_HSE_OFF))
 8003d68:	4bb9      	ldr	r3, [pc, #740]	@ (8004050 <HAL_RCC_OscConfig+0x32c>)
 8003d6a:	681a      	ldr	r2, [r3, #0]
 8003d6c:	2380      	movs	r3, #128	@ 0x80
 8003d6e:	029b      	lsls	r3, r3, #10
 8003d70:	4013      	ands	r3, r2
 8003d72:	d062      	beq.n	8003e3a <HAL_RCC_OscConfig+0x116>
 8003d74:	687b      	ldr	r3, [r7, #4]
 8003d76:	685b      	ldr	r3, [r3, #4]
 8003d78:	2b00      	cmp	r3, #0
 8003d7a:	d15e      	bne.n	8003e3a <HAL_RCC_OscConfig+0x116>
      {
        return HAL_ERROR;
 8003d7c:	2301      	movs	r3, #1
 8003d7e:	e2d9      	b.n	8004334 <HAL_RCC_OscConfig+0x610>
      }
    }
    else
    {
      /* Set the new HSE configuration ---------------------------------------*/
      __HAL_RCC_HSE_CONFIG(RCC_OscInitStruct->HSEState);
 8003d80:	687b      	ldr	r3, [r7, #4]
 8003d82:	685a      	ldr	r2, [r3, #4]
 8003d84:	2380      	movs	r3, #128	@ 0x80
 8003d86:	025b      	lsls	r3, r3, #9
 8003d88:	429a      	cmp	r2, r3
 8003d8a:	d107      	bne.n	8003d9c <HAL_RCC_OscConfig+0x78>
 8003d8c:	4bb0      	ldr	r3, [pc, #704]	@ (8004050 <HAL_RCC_OscConfig+0x32c>)
 8003d8e:	681a      	ldr	r2, [r3, #0]
 8003d90:	4baf      	ldr	r3, [pc, #700]	@ (8004050 <HAL_RCC_OscConfig+0x32c>)
 8003d92:	2180      	movs	r1, #128	@ 0x80
 8003d94:	0249      	lsls	r1, r1, #9
 8003d96:	430a      	orrs	r2, r1
 8003d98:	601a      	str	r2, [r3, #0]
 8003d9a:	e020      	b.n	8003dde <HAL_RCC_OscConfig+0xba>
 8003d9c:	687b      	ldr	r3, [r7, #4]
 8003d9e:	685a      	ldr	r2, [r3, #4]
 8003da0:	23a0      	movs	r3, #160	@ 0xa0
 8003da2:	02db      	lsls	r3, r3, #11
 8003da4:	429a      	cmp	r2, r3
 8003da6:	d10e      	bne.n	8003dc6 <HAL_RCC_OscConfig+0xa2>
 8003da8:	4ba9      	ldr	r3, [pc, #676]	@ (8004050 <HAL_RCC_OscConfig+0x32c>)
 8003daa:	681a      	ldr	r2, [r3, #0]
 8003dac:	4ba8      	ldr	r3, [pc, #672]	@ (8004050 <HAL_RCC_OscConfig+0x32c>)
 8003dae:	2180      	movs	r1, #128	@ 0x80
 8003db0:	02c9      	lsls	r1, r1, #11
 8003db2:	430a      	orrs	r2, r1
 8003db4:	601a      	str	r2, [r3, #0]
 8003db6:	4ba6      	ldr	r3, [pc, #664]	@ (8004050 <HAL_RCC_OscConfig+0x32c>)
 8003db8:	681a      	ldr	r2, [r3, #0]
 8003dba:	4ba5      	ldr	r3, [pc, #660]	@ (8004050 <HAL_RCC_OscConfig+0x32c>)
 8003dbc:	2180      	movs	r1, #128	@ 0x80
 8003dbe:	0249      	lsls	r1, r1, #9
 8003dc0:	430a      	orrs	r2, r1
 8003dc2:	601a      	str	r2, [r3, #0]
 8003dc4:	e00b      	b.n	8003dde <HAL_RCC_OscConfig+0xba>
 8003dc6:	4ba2      	ldr	r3, [pc, #648]	@ (8004050 <HAL_RCC_OscConfig+0x32c>)
 8003dc8:	681a      	ldr	r2, [r3, #0]
 8003dca:	4ba1      	ldr	r3, [pc, #644]	@ (8004050 <HAL_RCC_OscConfig+0x32c>)
 8003dcc:	49a1      	ldr	r1, [pc, #644]	@ (8004054 <HAL_RCC_OscConfig+0x330>)
 8003dce:	400a      	ands	r2, r1
 8003dd0:	601a      	str	r2, [r3, #0]
 8003dd2:	4b9f      	ldr	r3, [pc, #636]	@ (8004050 <HAL_RCC_OscConfig+0x32c>)
 8003dd4:	681a      	ldr	r2, [r3, #0]
 8003dd6:	4b9e      	ldr	r3, [pc, #632]	@ (8004050 <HAL_RCC_OscConfig+0x32c>)
 8003dd8:	499f      	ldr	r1, [pc, #636]	@ (8004058 <HAL_RCC_OscConfig+0x334>)
 8003dda:	400a      	ands	r2, r1
 8003ddc:	601a      	str	r2, [r3, #0]

      /* Check the HSE State */
      if (RCC_OscInitStruct->HSEState != RCC_HSE_OFF)
 8003dde:	687b      	ldr	r3, [r7, #4]
 8003de0:	685b      	ldr	r3, [r3, #4]
 8003de2:	2b00      	cmp	r3, #0
 8003de4:	d014      	beq.n	8003e10 <HAL_RCC_OscConfig+0xec>
      {
        /* Get Start Tick*/
        tickstart = HAL_GetTick();
 8003de6:	f7fe fd65 	bl	80028b4 <HAL_GetTick>
 8003dea:	0003      	movs	r3, r0
 8003dec:	613b      	str	r3, [r7, #16]

        /* Wait till HSE is ready */
        while (READ_BIT(RCC->CR, RCC_CR_HSERDY) == 0U)
 8003dee:	e008      	b.n	8003e02 <HAL_RCC_OscConfig+0xde>
        {
          if ((HAL_GetTick() - tickstart) > HSE_TIMEOUT_VALUE)
 8003df0:	f7fe fd60 	bl	80028b4 <HAL_GetTick>
 8003df4:	0002      	movs	r2, r0
 8003df6:	693b      	ldr	r3, [r7, #16]
 8003df8:	1ad3      	subs	r3, r2, r3
 8003dfa:	2b64      	cmp	r3, #100	@ 0x64
 8003dfc:	d901      	bls.n	8003e02 <HAL_RCC_OscConfig+0xde>
          {
            return HAL_TIMEOUT;
 8003dfe:	2303      	movs	r3, #3
 8003e00:	e298      	b.n	8004334 <HAL_RCC_OscConfig+0x610>
        while (READ_BIT(RCC->CR, RCC_CR_HSERDY) == 0U)
 8003e02:	4b93      	ldr	r3, [pc, #588]	@ (8004050 <HAL_RCC_OscConfig+0x32c>)
 8003e04:	681a      	ldr	r2, [r3, #0]
 8003e06:	2380      	movs	r3, #128	@ 0x80
 8003e08:	029b      	lsls	r3, r3, #10
 8003e0a:	4013      	ands	r3, r2
 8003e0c:	d0f0      	beq.n	8003df0 <HAL_RCC_OscConfig+0xcc>
 8003e0e:	e015      	b.n	8003e3c <HAL_RCC_OscConfig+0x118>
        }
      }
      else
      {
        /* Get Start Tick*/
        tickstart = HAL_GetTick();
 8003e10:	f7fe fd50 	bl	80028b4 <HAL_GetTick>
 8003e14:	0003      	movs	r3, r0
 8003e16:	613b      	str	r3, [r7, #16]

        /* Wait till HSE is disabled */
        while (READ_BIT(RCC->CR, RCC_CR_HSERDY) != 0U)
 8003e18:	e008      	b.n	8003e2c <HAL_RCC_OscConfig+0x108>
        {
          if ((HAL_GetTick() - tickstart) > HSE_TIMEOUT_VALUE)
 8003e1a:	f7fe fd4b 	bl	80028b4 <HAL_GetTick>
 8003e1e:	0002      	movs	r2, r0
 8003e20:	693b      	ldr	r3, [r7, #16]
 8003e22:	1ad3      	subs	r3, r2, r3
 8003e24:	2b64      	cmp	r3, #100	@ 0x64
 8003e26:	d901      	bls.n	8003e2c <HAL_RCC_OscConfig+0x108>
          {
            return HAL_TIMEOUT;
 8003e28:	2303      	movs	r3, #3
 8003e2a:	e283      	b.n	8004334 <HAL_RCC_OscConfig+0x610>
        while (READ_BIT(RCC->CR, RCC_CR_HSERDY) != 0U)
 8003e2c:	4b88      	ldr	r3, [pc, #544]	@ (8004050 <HAL_RCC_OscConfig+0x32c>)
 8003e2e:	681a      	ldr	r2, [r3, #0]
 8003e30:	2380      	movs	r3, #128	@ 0x80
 8003e32:	029b      	lsls	r3, r3, #10
 8003e34:	4013      	ands	r3, r2
 8003e36:	d1f0      	bne.n	8003e1a <HAL_RCC_OscConfig+0xf6>
 8003e38:	e000      	b.n	8003e3c <HAL_RCC_OscConfig+0x118>
      if ((READ_BIT(RCC->CR, RCC_CR_HSERDY) != 0U) && (RCC_OscInitStruct->HSEState == RCC_HSE_OFF))
 8003e3a:	46c0      	nop			@ (mov r8, r8)
        }
      }
    }
  }
  /*----------------------------- HSI Configuration --------------------------*/
  if (((RCC_OscInitStruct->OscillatorType) & RCC_OSCILLATORTYPE_HSI) == RCC_OSCILLATORTYPE_HSI)
 8003e3c:	687b      	ldr	r3, [r7, #4]
 8003e3e:	681b      	ldr	r3, [r3, #0]
 8003e40:	2202      	movs	r2, #2
 8003e42:	4013      	ands	r3, r2
 8003e44:	d100      	bne.n	8003e48 <HAL_RCC_OscConfig+0x124>
 8003e46:	e099      	b.n	8003f7c <HAL_RCC_OscConfig+0x258>
    assert_param(IS_RCC_HSI(RCC_OscInitStruct->HSIState));
    assert_param(IS_RCC_HSI_CALIBRATION_VALUE(RCC_OscInitStruct->HSICalibrationValue));
    assert_param(IS_RCC_HSIDIV(RCC_OscInitStruct->HSIDiv));

    /* Check if HSI16 is used as system clock or as PLL source when PLL is selected as system clock */
    temp_sysclksrc = __HAL_RCC_GET_SYSCLK_SOURCE();
 8003e48:	4b81      	ldr	r3, [pc, #516]	@ (8004050 <HAL_RCC_OscConfig+0x32c>)
 8003e4a:	689b      	ldr	r3, [r3, #8]
 8003e4c:	2238      	movs	r2, #56	@ 0x38
 8003e4e:	4013      	ands	r3, r2
 8003e50:	61bb      	str	r3, [r7, #24]
    temp_pllckcfg = __HAL_RCC_GET_PLL_OSCSOURCE();
 8003e52:	4b7f      	ldr	r3, [pc, #508]	@ (8004050 <HAL_RCC_OscConfig+0x32c>)
 8003e54:	68db      	ldr	r3, [r3, #12]
 8003e56:	2203      	movs	r2, #3
 8003e58:	4013      	ands	r3, r2
 8003e5a:	617b      	str	r3, [r7, #20]
    if (((temp_sysclksrc == RCC_SYSCLKSOURCE_STATUS_PLLCLK) && (temp_pllckcfg == RCC_PLLSOURCE_HSI))
 8003e5c:	69bb      	ldr	r3, [r7, #24]
 8003e5e:	2b10      	cmp	r3, #16
 8003e60:	d102      	bne.n	8003e68 <HAL_RCC_OscConfig+0x144>
 8003e62:	697b      	ldr	r3, [r7, #20]
 8003e64:	2b02      	cmp	r3, #2
 8003e66:	d002      	beq.n	8003e6e <HAL_RCC_OscConfig+0x14a>
        || (temp_sysclksrc == RCC_SYSCLKSOURCE_STATUS_HSI))
 8003e68:	69bb      	ldr	r3, [r7, #24]
 8003e6a:	2b00      	cmp	r3, #0
 8003e6c:	d135      	bne.n	8003eda <HAL_RCC_OscConfig+0x1b6>
    {
      /* When HSI is used as system clock or as PLL input clock it can not be disabled */
      if ((READ_BIT(RCC->CR, RCC_CR_HSIRDY) != 0U) && (RCC_OscInitStruct->HSIState == RCC_HSI_OFF))
 8003e6e:	4b78      	ldr	r3, [pc, #480]	@ (8004050 <HAL_RCC_OscConfig+0x32c>)
 8003e70:	681a      	ldr	r2, [r3, #0]
 8003e72:	2380      	movs	r3, #128	@ 0x80
 8003e74:	00db      	lsls	r3, r3, #3
 8003e76:	4013      	ands	r3, r2
 8003e78:	d005      	beq.n	8003e86 <HAL_RCC_OscConfig+0x162>
 8003e7a:	687b      	ldr	r3, [r7, #4]
 8003e7c:	68db      	ldr	r3, [r3, #12]
 8003e7e:	2b00      	cmp	r3, #0
 8003e80:	d101      	bne.n	8003e86 <HAL_RCC_OscConfig+0x162>
      {
        return HAL_ERROR;
 8003e82:	2301      	movs	r3, #1
 8003e84:	e256      	b.n	8004334 <HAL_RCC_OscConfig+0x610>
      }
      /* Otherwise, just the calibration is allowed */
      else
      {
        /* Adjusts the Internal High Speed oscillator (HSI) calibration value.*/
        __HAL_RCC_HSI_CALIBRATIONVALUE_ADJUST(RCC_OscInitStruct->HSICalibrationValue);
 8003e86:	4b72      	ldr	r3, [pc, #456]	@ (8004050 <HAL_RCC_OscConfig+0x32c>)
 8003e88:	685b      	ldr	r3, [r3, #4]
 8003e8a:	4a74      	ldr	r2, [pc, #464]	@ (800405c <HAL_RCC_OscConfig+0x338>)
 8003e8c:	4013      	ands	r3, r2
 8003e8e:	0019      	movs	r1, r3
 8003e90:	687b      	ldr	r3, [r7, #4]
 8003e92:	695b      	ldr	r3, [r3, #20]
 8003e94:	021a      	lsls	r2, r3, #8
 8003e96:	4b6e      	ldr	r3, [pc, #440]	@ (8004050 <HAL_RCC_OscConfig+0x32c>)
 8003e98:	430a      	orrs	r2, r1
 8003e9a:	605a      	str	r2, [r3, #4]

        if (temp_sysclksrc == RCC_SYSCLKSOURCE_STATUS_HSI)
 8003e9c:	69bb      	ldr	r3, [r7, #24]
 8003e9e:	2b00      	cmp	r3, #0
 8003ea0:	d112      	bne.n	8003ec8 <HAL_RCC_OscConfig+0x1a4>
        {
          /* Adjust the HSI16 division factor */
          __HAL_RCC_HSI_CONFIG(RCC_OscInitStruct->HSIDiv);
 8003ea2:	4b6b      	ldr	r3, [pc, #428]	@ (8004050 <HAL_RCC_OscConfig+0x32c>)
 8003ea4:	681b      	ldr	r3, [r3, #0]
 8003ea6:	4a6e      	ldr	r2, [pc, #440]	@ (8004060 <HAL_RCC_OscConfig+0x33c>)
 8003ea8:	4013      	ands	r3, r2
 8003eaa:	0019      	movs	r1, r3
 8003eac:	687b      	ldr	r3, [r7, #4]
 8003eae:	691a      	ldr	r2, [r3, #16]
 8003eb0:	4b67      	ldr	r3, [pc, #412]	@ (8004050 <HAL_RCC_OscConfig+0x32c>)
 8003eb2:	430a      	orrs	r2, r1
 8003eb4:	601a      	str	r2, [r3, #0]

          /* Update the SystemCoreClock global variable with HSISYS value  */
          SystemCoreClock = (HSI_VALUE / (1UL << ((READ_BIT(RCC->CR, RCC_CR_HSIDIV)) >> RCC_CR_HSIDIV_Pos)));
 8003eb6:	4b66      	ldr	r3, [pc, #408]	@ (8004050 <HAL_RCC_OscConfig+0x32c>)
 8003eb8:	681b      	ldr	r3, [r3, #0]
 8003eba:	0adb      	lsrs	r3, r3, #11
 8003ebc:	2207      	movs	r2, #7
 8003ebe:	4013      	ands	r3, r2
 8003ec0:	4a68      	ldr	r2, [pc, #416]	@ (8004064 <HAL_RCC_OscConfig+0x340>)
 8003ec2:	40da      	lsrs	r2, r3
 8003ec4:	4b68      	ldr	r3, [pc, #416]	@ (8004068 <HAL_RCC_OscConfig+0x344>)
 8003ec6:	601a      	str	r2, [r3, #0]
        }

        /* Adapt Systick interrupt period */
        if (HAL_InitTick(uwTickPrio) != HAL_OK)
 8003ec8:	4b68      	ldr	r3, [pc, #416]	@ (800406c <HAL_RCC_OscConfig+0x348>)
 8003eca:	681b      	ldr	r3, [r3, #0]
 8003ecc:	0018      	movs	r0, r3
 8003ece:	f7fe fc95 	bl	80027fc <HAL_InitTick>
 8003ed2:	1e03      	subs	r3, r0, #0
 8003ed4:	d051      	beq.n	8003f7a <HAL_RCC_OscConfig+0x256>
        {
          return HAL_ERROR;
 8003ed6:	2301      	movs	r3, #1
 8003ed8:	e22c      	b.n	8004334 <HAL_RCC_OscConfig+0x610>
      }
    }
    else
    {
      /* Check the HSI State */
      if (RCC_OscInitStruct->HSIState != RCC_HSI_OFF)
 8003eda:	687b      	ldr	r3, [r7, #4]
 8003edc:	68db      	ldr	r3, [r3, #12]
 8003ede:	2b00      	cmp	r3, #0
 8003ee0:	d030      	beq.n	8003f44 <HAL_RCC_OscConfig+0x220>
      {
        /* Configure the HSI16 division factor */
        __HAL_RCC_HSI_CONFIG(RCC_OscInitStruct->HSIDiv);
 8003ee2:	4b5b      	ldr	r3, [pc, #364]	@ (8004050 <HAL_RCC_OscConfig+0x32c>)
 8003ee4:	681b      	ldr	r3, [r3, #0]
 8003ee6:	4a5e      	ldr	r2, [pc, #376]	@ (8004060 <HAL_RCC_OscConfig+0x33c>)
 8003ee8:	4013      	ands	r3, r2
 8003eea:	0019      	movs	r1, r3
 8003eec:	687b      	ldr	r3, [r7, #4]
 8003eee:	691a      	ldr	r2, [r3, #16]
 8003ef0:	4b57      	ldr	r3, [pc, #348]	@ (8004050 <HAL_RCC_OscConfig+0x32c>)
 8003ef2:	430a      	orrs	r2, r1
 8003ef4:	601a      	str	r2, [r3, #0]

        /* Enable the Internal High Speed oscillator (HSI16). */
        __HAL_RCC_HSI_ENABLE();
 8003ef6:	4b56      	ldr	r3, [pc, #344]	@ (8004050 <HAL_RCC_OscConfig+0x32c>)
 8003ef8:	681a      	ldr	r2, [r3, #0]
 8003efa:	4b55      	ldr	r3, [pc, #340]	@ (8004050 <HAL_RCC_OscConfig+0x32c>)
 8003efc:	2180      	movs	r1, #128	@ 0x80
 8003efe:	0049      	lsls	r1, r1, #1
 8003f00:	430a      	orrs	r2, r1
 8003f02:	601a      	str	r2, [r3, #0]

        /* Get Start Tick*/
        tickstart = HAL_GetTick();
 8003f04:	f7fe fcd6 	bl	80028b4 <HAL_GetTick>
 8003f08:	0003      	movs	r3, r0
 8003f0a:	613b      	str	r3, [r7, #16]

        /* Wait till HSI is ready */
        while (READ_BIT(RCC->CR, RCC_CR_HSIRDY) == 0U)
 8003f0c:	e008      	b.n	8003f20 <HAL_RCC_OscConfig+0x1fc>
        {
          if ((HAL_GetTick() - tickstart) > HSI_TIMEOUT_VALUE)
 8003f0e:	f7fe fcd1 	bl	80028b4 <HAL_GetTick>
 8003f12:	0002      	movs	r2, r0
 8003f14:	693b      	ldr	r3, [r7, #16]
 8003f16:	1ad3      	subs	r3, r2, r3
 8003f18:	2b02      	cmp	r3, #2
 8003f1a:	d901      	bls.n	8003f20 <HAL_RCC_OscConfig+0x1fc>
          {
            return HAL_TIMEOUT;
 8003f1c:	2303      	movs	r3, #3
 8003f1e:	e209      	b.n	8004334 <HAL_RCC_OscConfig+0x610>
        while (READ_BIT(RCC->CR, RCC_CR_HSIRDY) == 0U)
 8003f20:	4b4b      	ldr	r3, [pc, #300]	@ (8004050 <HAL_RCC_OscConfig+0x32c>)
 8003f22:	681a      	ldr	r2, [r3, #0]
 8003f24:	2380      	movs	r3, #128	@ 0x80
 8003f26:	00db      	lsls	r3, r3, #3
 8003f28:	4013      	ands	r3, r2
 8003f2a:	d0f0      	beq.n	8003f0e <HAL_RCC_OscConfig+0x1ea>
          }
        }

        /* Adjusts the Internal High Speed oscillator (HSI) calibration value.*/
        __HAL_RCC_HSI_CALIBRATIONVALUE_ADJUST(RCC_OscInitStruct->HSICalibrationValue);
 8003f2c:	4b48      	ldr	r3, [pc, #288]	@ (8004050 <HAL_RCC_OscConfig+0x32c>)
 8003f2e:	685b      	ldr	r3, [r3, #4]
 8003f30:	4a4a      	ldr	r2, [pc, #296]	@ (800405c <HAL_RCC_OscConfig+0x338>)
 8003f32:	4013      	ands	r3, r2
 8003f34:	0019      	movs	r1, r3
 8003f36:	687b      	ldr	r3, [r7, #4]
 8003f38:	695b      	ldr	r3, [r3, #20]
 8003f3a:	021a      	lsls	r2, r3, #8
 8003f3c:	4b44      	ldr	r3, [pc, #272]	@ (8004050 <HAL_RCC_OscConfig+0x32c>)
 8003f3e:	430a      	orrs	r2, r1
 8003f40:	605a      	str	r2, [r3, #4]
 8003f42:	e01b      	b.n	8003f7c <HAL_RCC_OscConfig+0x258>
      }
      else
      {
        /* Disable the Internal High Speed oscillator (HSI16). */
        __HAL_RCC_HSI_DISABLE();
 8003f44:	4b42      	ldr	r3, [pc, #264]	@ (8004050 <HAL_RCC_OscConfig+0x32c>)
 8003f46:	681a      	ldr	r2, [r3, #0]
 8003f48:	4b41      	ldr	r3, [pc, #260]	@ (8004050 <HAL_RCC_OscConfig+0x32c>)
 8003f4a:	4949      	ldr	r1, [pc, #292]	@ (8004070 <HAL_RCC_OscConfig+0x34c>)
 8003f4c:	400a      	ands	r2, r1
 8003f4e:	601a      	str	r2, [r3, #0]

        /* Get Start Tick*/
        tickstart = HAL_GetTick();
 8003f50:	f7fe fcb0 	bl	80028b4 <HAL_GetTick>
 8003f54:	0003      	movs	r3, r0
 8003f56:	613b      	str	r3, [r7, #16]

        /* Wait till HSI is disabled */
        while (READ_BIT(RCC->CR, RCC_CR_HSIRDY) != 0U)
 8003f58:	e008      	b.n	8003f6c <HAL_RCC_OscConfig+0x248>
        {
          if ((HAL_GetTick() - tickstart) > HSI_TIMEOUT_VALUE)
 8003f5a:	f7fe fcab 	bl	80028b4 <HAL_GetTick>
 8003f5e:	0002      	movs	r2, r0
 8003f60:	693b      	ldr	r3, [r7, #16]
 8003f62:	1ad3      	subs	r3, r2, r3
 8003f64:	2b02      	cmp	r3, #2
 8003f66:	d901      	bls.n	8003f6c <HAL_RCC_OscConfig+0x248>
          {
            return HAL_TIMEOUT;
 8003f68:	2303      	movs	r3, #3
 8003f6a:	e1e3      	b.n	8004334 <HAL_RCC_OscConfig+0x610>
        while (READ_BIT(RCC->CR, RCC_CR_HSIRDY) != 0U)
 8003f6c:	4b38      	ldr	r3, [pc, #224]	@ (8004050 <HAL_RCC_OscConfig+0x32c>)
 8003f6e:	681a      	ldr	r2, [r3, #0]
 8003f70:	2380      	movs	r3, #128	@ 0x80
 8003f72:	00db      	lsls	r3, r3, #3
 8003f74:	4013      	ands	r3, r2
 8003f76:	d1f0      	bne.n	8003f5a <HAL_RCC_OscConfig+0x236>
 8003f78:	e000      	b.n	8003f7c <HAL_RCC_OscConfig+0x258>
      if ((READ_BIT(RCC->CR, RCC_CR_HSIRDY) != 0U) && (RCC_OscInitStruct->HSIState == RCC_HSI_OFF))
 8003f7a:	46c0      	nop			@ (mov r8, r8)
        }
      }
    }
  }
  /*------------------------------ LSI Configuration -------------------------*/
  if (((RCC_OscInitStruct->OscillatorType) & RCC_OSCILLATORTYPE_LSI) == RCC_OSCILLATORTYPE_LSI)
 8003f7c:	687b      	ldr	r3, [r7, #4]
 8003f7e:	681b      	ldr	r3, [r3, #0]
 8003f80:	2208      	movs	r2, #8
 8003f82:	4013      	ands	r3, r2
 8003f84:	d047      	beq.n	8004016 <HAL_RCC_OscConfig+0x2f2>
  {
    /* Check the parameters */
    assert_param(IS_RCC_LSI(RCC_OscInitStruct->LSIState));

    /* Check if LSI is used as system clock */
    if (__HAL_RCC_GET_SYSCLK_SOURCE() == RCC_SYSCLKSOURCE_STATUS_LSI)
 8003f86:	4b32      	ldr	r3, [pc, #200]	@ (8004050 <HAL_RCC_OscConfig+0x32c>)
 8003f88:	689b      	ldr	r3, [r3, #8]
 8003f8a:	2238      	movs	r2, #56	@ 0x38
 8003f8c:	4013      	ands	r3, r2
 8003f8e:	2b18      	cmp	r3, #24
 8003f90:	d10a      	bne.n	8003fa8 <HAL_RCC_OscConfig+0x284>
    {
      /* When LSI is used as system clock it will not be disabled */
      if ((((RCC->CSR) & RCC_CSR_LSIRDY) != 0U) && (RCC_OscInitStruct->LSIState == RCC_LSI_OFF))
 8003f92:	4b2f      	ldr	r3, [pc, #188]	@ (8004050 <HAL_RCC_OscConfig+0x32c>)
 8003f94:	6e1b      	ldr	r3, [r3, #96]	@ 0x60
 8003f96:	2202      	movs	r2, #2
 8003f98:	4013      	ands	r3, r2
 8003f9a:	d03c      	beq.n	8004016 <HAL_RCC_OscConfig+0x2f2>
 8003f9c:	687b      	ldr	r3, [r7, #4]
 8003f9e:	699b      	ldr	r3, [r3, #24]
 8003fa0:	2b00      	cmp	r3, #0
 8003fa2:	d138      	bne.n	8004016 <HAL_RCC_OscConfig+0x2f2>
      {
        return HAL_ERROR;
 8003fa4:	2301      	movs	r3, #1
 8003fa6:	e1c5      	b.n	8004334 <HAL_RCC_OscConfig+0x610>
      }
    }
    else
    {
      /* Check the LSI State */
      if (RCC_OscInitStruct->LSIState != RCC_LSI_OFF)
 8003fa8:	687b      	ldr	r3, [r7, #4]
 8003faa:	699b      	ldr	r3, [r3, #24]
 8003fac:	2b00      	cmp	r3, #0
 8003fae:	d019      	beq.n	8003fe4 <HAL_RCC_OscConfig+0x2c0>
      {
        /* Enable the Internal Low Speed oscillator (LSI). */
        __HAL_RCC_LSI_ENABLE();
 8003fb0:	4b27      	ldr	r3, [pc, #156]	@ (8004050 <HAL_RCC_OscConfig+0x32c>)
 8003fb2:	6e1a      	ldr	r2, [r3, #96]	@ 0x60
 8003fb4:	4b26      	ldr	r3, [pc, #152]	@ (8004050 <HAL_RCC_OscConfig+0x32c>)
 8003fb6:	2101      	movs	r1, #1
 8003fb8:	430a      	orrs	r2, r1
 8003fba:	661a      	str	r2, [r3, #96]	@ 0x60

        /* Get Start Tick*/
        tickstart = HAL_GetTick();
 8003fbc:	f7fe fc7a 	bl	80028b4 <HAL_GetTick>
 8003fc0:	0003      	movs	r3, r0
 8003fc2:	613b      	str	r3, [r7, #16]

        /* Wait till LSI is ready */
        while (READ_BIT(RCC->CSR, RCC_CSR_LSIRDY) == 0U)
 8003fc4:	e008      	b.n	8003fd8 <HAL_RCC_OscConfig+0x2b4>
        {
          if ((HAL_GetTick() - tickstart) > LSI_TIMEOUT_VALUE)
 8003fc6:	f7fe fc75 	bl	80028b4 <HAL_GetTick>
 8003fca:	0002      	movs	r2, r0
 8003fcc:	693b      	ldr	r3, [r7, #16]
 8003fce:	1ad3      	subs	r3, r2, r3
 8003fd0:	2b02      	cmp	r3, #2
 8003fd2:	d901      	bls.n	8003fd8 <HAL_RCC_OscConfig+0x2b4>
          {
            return HAL_TIMEOUT;
 8003fd4:	2303      	movs	r3, #3
 8003fd6:	e1ad      	b.n	8004334 <HAL_RCC_OscConfig+0x610>
        while (READ_BIT(RCC->CSR, RCC_CSR_LSIRDY) == 0U)
 8003fd8:	4b1d      	ldr	r3, [pc, #116]	@ (8004050 <HAL_RCC_OscConfig+0x32c>)
 8003fda:	6e1b      	ldr	r3, [r3, #96]	@ 0x60
 8003fdc:	2202      	movs	r2, #2
 8003fde:	4013      	ands	r3, r2
 8003fe0:	d0f1      	beq.n	8003fc6 <HAL_RCC_OscConfig+0x2a2>
 8003fe2:	e018      	b.n	8004016 <HAL_RCC_OscConfig+0x2f2>
        }
      }
      else
      {
        /* Disable the Internal Low Speed oscillator (LSI). */
        __HAL_RCC_LSI_DISABLE();
 8003fe4:	4b1a      	ldr	r3, [pc, #104]	@ (8004050 <HAL_RCC_OscConfig+0x32c>)
 8003fe6:	6e1a      	ldr	r2, [r3, #96]	@ 0x60
 8003fe8:	4b19      	ldr	r3, [pc, #100]	@ (8004050 <HAL_RCC_OscConfig+0x32c>)
 8003fea:	2101      	movs	r1, #1
 8003fec:	438a      	bics	r2, r1
 8003fee:	661a      	str	r2, [r3, #96]	@ 0x60

        /* Get Start Tick*/
        tickstart = HAL_GetTick();
 8003ff0:	f7fe fc60 	bl	80028b4 <HAL_GetTick>
 8003ff4:	0003      	movs	r3, r0
 8003ff6:	613b      	str	r3, [r7, #16]

        /* Wait till LSI is disabled */
        while (READ_BIT(RCC->CSR, RCC_CSR_LSIRDY) != 0U)
 8003ff8:	e008      	b.n	800400c <HAL_RCC_OscConfig+0x2e8>
        {
          if ((HAL_GetTick() - tickstart) > LSI_TIMEOUT_VALUE)
 8003ffa:	f7fe fc5b 	bl	80028b4 <HAL_GetTick>
 8003ffe:	0002      	movs	r2, r0
 8004000:	693b      	ldr	r3, [r7, #16]
 8004002:	1ad3      	subs	r3, r2, r3
 8004004:	2b02      	cmp	r3, #2
 8004006:	d901      	bls.n	800400c <HAL_RCC_OscConfig+0x2e8>
          {
            return HAL_TIMEOUT;
 8004008:	2303      	movs	r3, #3
 800400a:	e193      	b.n	8004334 <HAL_RCC_OscConfig+0x610>
        while (READ_BIT(RCC->CSR, RCC_CSR_LSIRDY) != 0U)
 800400c:	4b10      	ldr	r3, [pc, #64]	@ (8004050 <HAL_RCC_OscConfig+0x32c>)
 800400e:	6e1b      	ldr	r3, [r3, #96]	@ 0x60
 8004010:	2202      	movs	r2, #2
 8004012:	4013      	ands	r3, r2
 8004014:	d1f1      	bne.n	8003ffa <HAL_RCC_OscConfig+0x2d6>
        }
      }
    }
  }
  /*------------------------------ LSE Configuration -------------------------*/
  if (((RCC_OscInitStruct->OscillatorType) & RCC_OSCILLATORTYPE_LSE) == RCC_OSCILLATORTYPE_LSE)
 8004016:	687b      	ldr	r3, [r7, #4]
 8004018:	681b      	ldr	r3, [r3, #0]
 800401a:	2204      	movs	r2, #4
 800401c:	4013      	ands	r3, r2
 800401e:	d100      	bne.n	8004022 <HAL_RCC_OscConfig+0x2fe>
 8004020:	e0c6      	b.n	80041b0 <HAL_RCC_OscConfig+0x48c>
  {
    FlagStatus       pwrclkchanged = RESET;
 8004022:	231f      	movs	r3, #31
 8004024:	18fb      	adds	r3, r7, r3
 8004026:	2200      	movs	r2, #0
 8004028:	701a      	strb	r2, [r3, #0]

    /* Check the parameters */
    assert_param(IS_RCC_LSE(RCC_OscInitStruct->LSEState));

    /* When the LSE is used as system clock, it is not allowed disable it */
    if (__HAL_RCC_GET_SYSCLK_SOURCE() == RCC_SYSCLKSOURCE_STATUS_LSE)
 800402a:	4b09      	ldr	r3, [pc, #36]	@ (8004050 <HAL_RCC_OscConfig+0x32c>)
 800402c:	689b      	ldr	r3, [r3, #8]
 800402e:	2238      	movs	r2, #56	@ 0x38
 8004030:	4013      	ands	r3, r2
 8004032:	2b20      	cmp	r3, #32
 8004034:	d11e      	bne.n	8004074 <HAL_RCC_OscConfig+0x350>
    {
      if ((((RCC->BDCR) & RCC_BDCR_LSERDY) != 0U) && (RCC_OscInitStruct->LSEState == RCC_LSE_OFF))
 8004036:	4b06      	ldr	r3, [pc, #24]	@ (8004050 <HAL_RCC_OscConfig+0x32c>)
 8004038:	6ddb      	ldr	r3, [r3, #92]	@ 0x5c
 800403a:	2202      	movs	r2, #2
 800403c:	4013      	ands	r3, r2
 800403e:	d100      	bne.n	8004042 <HAL_RCC_OscConfig+0x31e>
 8004040:	e0b6      	b.n	80041b0 <HAL_RCC_OscConfig+0x48c>
 8004042:	687b      	ldr	r3, [r7, #4]
 8004044:	689b      	ldr	r3, [r3, #8]
 8004046:	2b00      	cmp	r3, #0
 8004048:	d000      	beq.n	800404c <HAL_RCC_OscConfig+0x328>
 800404a:	e0b1      	b.n	80041b0 <HAL_RCC_OscConfig+0x48c>
      {
        return HAL_ERROR;
 800404c:	2301      	movs	r3, #1
 800404e:	e171      	b.n	8004334 <HAL_RCC_OscConfig+0x610>
 8004050:	40021000 	.word	0x40021000
 8004054:	fffeffff 	.word	0xfffeffff
 8004058:	fffbffff 	.word	0xfffbffff
 800405c:	ffff80ff 	.word	0xffff80ff
 8004060:	ffffc7ff 	.word	0xffffc7ff
 8004064:	00f42400 	.word	0x00f42400
 8004068:	20000008 	.word	0x20000008
 800406c:	20000000 	.word	0x20000000
 8004070:	fffffeff 	.word	0xfffffeff
    }
    else
    {
      /* Update LSE configuration in Backup Domain control register    */
      /* Requires to enable write access to Backup Domain of necessary */
      if (__HAL_RCC_PWR_IS_CLK_DISABLED() != 0U)
 8004074:	4bb1      	ldr	r3, [pc, #708]	@ (800433c <HAL_RCC_OscConfig+0x618>)
 8004076:	6bda      	ldr	r2, [r3, #60]	@ 0x3c
 8004078:	2380      	movs	r3, #128	@ 0x80
 800407a:	055b      	lsls	r3, r3, #21
 800407c:	4013      	ands	r3, r2
 800407e:	d101      	bne.n	8004084 <HAL_RCC_OscConfig+0x360>
 8004080:	2301      	movs	r3, #1
 8004082:	e000      	b.n	8004086 <HAL_RCC_OscConfig+0x362>
 8004084:	2300      	movs	r3, #0
 8004086:	2b00      	cmp	r3, #0
 8004088:	d011      	beq.n	80040ae <HAL_RCC_OscConfig+0x38a>
      {
        __HAL_RCC_PWR_CLK_ENABLE();
 800408a:	4bac      	ldr	r3, [pc, #688]	@ (800433c <HAL_RCC_OscConfig+0x618>)
 800408c:	6bda      	ldr	r2, [r3, #60]	@ 0x3c
 800408e:	4bab      	ldr	r3, [pc, #684]	@ (800433c <HAL_RCC_OscConfig+0x618>)
 8004090:	2180      	movs	r1, #128	@ 0x80
 8004092:	0549      	lsls	r1, r1, #21
 8004094:	430a      	orrs	r2, r1
 8004096:	63da      	str	r2, [r3, #60]	@ 0x3c
 8004098:	4ba8      	ldr	r3, [pc, #672]	@ (800433c <HAL_RCC_OscConfig+0x618>)
 800409a:	6bda      	ldr	r2, [r3, #60]	@ 0x3c
 800409c:	2380      	movs	r3, #128	@ 0x80
 800409e:	055b      	lsls	r3, r3, #21
 80040a0:	4013      	ands	r3, r2
 80040a2:	60fb      	str	r3, [r7, #12]
 80040a4:	68fb      	ldr	r3, [r7, #12]
        pwrclkchanged = SET;
 80040a6:	231f      	movs	r3, #31
 80040a8:	18fb      	adds	r3, r7, r3
 80040aa:	2201      	movs	r2, #1
 80040ac:	701a      	strb	r2, [r3, #0]
      }

      if (HAL_IS_BIT_CLR(PWR->CR1, PWR_CR1_DBP))
 80040ae:	4ba4      	ldr	r3, [pc, #656]	@ (8004340 <HAL_RCC_OscConfig+0x61c>)
 80040b0:	681a      	ldr	r2, [r3, #0]
 80040b2:	2380      	movs	r3, #128	@ 0x80
 80040b4:	005b      	lsls	r3, r3, #1
 80040b6:	4013      	ands	r3, r2
 80040b8:	d11a      	bne.n	80040f0 <HAL_RCC_OscConfig+0x3cc>
      {
        /* Enable write access to Backup domain */
        SET_BIT(PWR->CR1, PWR_CR1_DBP);
 80040ba:	4ba1      	ldr	r3, [pc, #644]	@ (8004340 <HAL_RCC_OscConfig+0x61c>)
 80040bc:	681a      	ldr	r2, [r3, #0]
 80040be:	4ba0      	ldr	r3, [pc, #640]	@ (8004340 <HAL_RCC_OscConfig+0x61c>)
 80040c0:	2180      	movs	r1, #128	@ 0x80
 80040c2:	0049      	lsls	r1, r1, #1
 80040c4:	430a      	orrs	r2, r1
 80040c6:	601a      	str	r2, [r3, #0]

        /* Wait for Backup domain Write protection disable */
        tickstart = HAL_GetTick();
 80040c8:	f7fe fbf4 	bl	80028b4 <HAL_GetTick>
 80040cc:	0003      	movs	r3, r0
 80040ce:	613b      	str	r3, [r7, #16]

        while (HAL_IS_BIT_CLR(PWR->CR1, PWR_CR1_DBP))
 80040d0:	e008      	b.n	80040e4 <HAL_RCC_OscConfig+0x3c0>
        {
          if ((HAL_GetTick() - tickstart) > RCC_DBP_TIMEOUT_VALUE)
 80040d2:	f7fe fbef 	bl	80028b4 <HAL_GetTick>
 80040d6:	0002      	movs	r2, r0
 80040d8:	693b      	ldr	r3, [r7, #16]
 80040da:	1ad3      	subs	r3, r2, r3
 80040dc:	2b02      	cmp	r3, #2
 80040de:	d901      	bls.n	80040e4 <HAL_RCC_OscConfig+0x3c0>
          {
            return HAL_TIMEOUT;
 80040e0:	2303      	movs	r3, #3
 80040e2:	e127      	b.n	8004334 <HAL_RCC_OscConfig+0x610>
        while (HAL_IS_BIT_CLR(PWR->CR1, PWR_CR1_DBP))
 80040e4:	4b96      	ldr	r3, [pc, #600]	@ (8004340 <HAL_RCC_OscConfig+0x61c>)
 80040e6:	681a      	ldr	r2, [r3, #0]
 80040e8:	2380      	movs	r3, #128	@ 0x80
 80040ea:	005b      	lsls	r3, r3, #1
 80040ec:	4013      	ands	r3, r2
 80040ee:	d0f0      	beq.n	80040d2 <HAL_RCC_OscConfig+0x3ae>
          }
        }
      }

      /* Set the new LSE configuration -----------------------------------------*/
      __HAL_RCC_LSE_CONFIG(RCC_OscInitStruct->LSEState);
 80040f0:	687b      	ldr	r3, [r7, #4]
 80040f2:	689b      	ldr	r3, [r3, #8]
 80040f4:	2b01      	cmp	r3, #1
 80040f6:	d106      	bne.n	8004106 <HAL_RCC_OscConfig+0x3e2>
 80040f8:	4b90      	ldr	r3, [pc, #576]	@ (800433c <HAL_RCC_OscConfig+0x618>)
 80040fa:	6dda      	ldr	r2, [r3, #92]	@ 0x5c
 80040fc:	4b8f      	ldr	r3, [pc, #572]	@ (800433c <HAL_RCC_OscConfig+0x618>)
 80040fe:	2101      	movs	r1, #1
 8004100:	430a      	orrs	r2, r1
 8004102:	65da      	str	r2, [r3, #92]	@ 0x5c
 8004104:	e01c      	b.n	8004140 <HAL_RCC_OscConfig+0x41c>
 8004106:	687b      	ldr	r3, [r7, #4]
 8004108:	689b      	ldr	r3, [r3, #8]
 800410a:	2b05      	cmp	r3, #5
 800410c:	d10c      	bne.n	8004128 <HAL_RCC_OscConfig+0x404>
 800410e:	4b8b      	ldr	r3, [pc, #556]	@ (800433c <HAL_RCC_OscConfig+0x618>)
 8004110:	6dda      	ldr	r2, [r3, #92]	@ 0x5c
 8004112:	4b8a      	ldr	r3, [pc, #552]	@ (800433c <HAL_RCC_OscConfig+0x618>)
 8004114:	2104      	movs	r1, #4
 8004116:	430a      	orrs	r2, r1
 8004118:	65da      	str	r2, [r3, #92]	@ 0x5c
 800411a:	4b88      	ldr	r3, [pc, #544]	@ (800433c <HAL_RCC_OscConfig+0x618>)
 800411c:	6dda      	ldr	r2, [r3, #92]	@ 0x5c
 800411e:	4b87      	ldr	r3, [pc, #540]	@ (800433c <HAL_RCC_OscConfig+0x618>)
 8004120:	2101      	movs	r1, #1
 8004122:	430a      	orrs	r2, r1
 8004124:	65da      	str	r2, [r3, #92]	@ 0x5c
 8004126:	e00b      	b.n	8004140 <HAL_RCC_OscConfig+0x41c>
 8004128:	4b84      	ldr	r3, [pc, #528]	@ (800433c <HAL_RCC_OscConfig+0x618>)
 800412a:	6dda      	ldr	r2, [r3, #92]	@ 0x5c
 800412c:	4b83      	ldr	r3, [pc, #524]	@ (800433c <HAL_RCC_OscConfig+0x618>)
 800412e:	2101      	movs	r1, #1
 8004130:	438a      	bics	r2, r1
 8004132:	65da      	str	r2, [r3, #92]	@ 0x5c
 8004134:	4b81      	ldr	r3, [pc, #516]	@ (800433c <HAL_RCC_OscConfig+0x618>)
 8004136:	6dda      	ldr	r2, [r3, #92]	@ 0x5c
 8004138:	4b80      	ldr	r3, [pc, #512]	@ (800433c <HAL_RCC_OscConfig+0x618>)
 800413a:	2104      	movs	r1, #4
 800413c:	438a      	bics	r2, r1
 800413e:	65da      	str	r2, [r3, #92]	@ 0x5c

      /* Check the LSE State */
      if (RCC_OscInitStruct->LSEState != RCC_LSE_OFF)
 8004140:	687b      	ldr	r3, [r7, #4]
 8004142:	689b      	ldr	r3, [r3, #8]
 8004144:	2b00      	cmp	r3, #0
 8004146:	d014      	beq.n	8004172 <HAL_RCC_OscConfig+0x44e>
      {
        /* Get Start Tick*/
        tickstart = HAL_GetTick();
 8004148:	f7fe fbb4 	bl	80028b4 <HAL_GetTick>
 800414c:	0003      	movs	r3, r0
 800414e:	613b      	str	r3, [r7, #16]

        /* Wait till LSE is ready */
        while (READ_BIT(RCC->BDCR, RCC_BDCR_LSERDY) == 0U)
 8004150:	e009      	b.n	8004166 <HAL_RCC_OscConfig+0x442>
        {
          if ((HAL_GetTick() - tickstart) > RCC_LSE_TIMEOUT_VALUE)
 8004152:	f7fe fbaf 	bl	80028b4 <HAL_GetTick>
 8004156:	0002      	movs	r2, r0
 8004158:	693b      	ldr	r3, [r7, #16]
 800415a:	1ad3      	subs	r3, r2, r3
 800415c:	4a79      	ldr	r2, [pc, #484]	@ (8004344 <HAL_RCC_OscConfig+0x620>)
 800415e:	4293      	cmp	r3, r2
 8004160:	d901      	bls.n	8004166 <HAL_RCC_OscConfig+0x442>
          {
            return HAL_TIMEOUT;
 8004162:	2303      	movs	r3, #3
 8004164:	e0e6      	b.n	8004334 <HAL_RCC_OscConfig+0x610>
        while (READ_BIT(RCC->BDCR, RCC_BDCR_LSERDY) == 0U)
 8004166:	4b75      	ldr	r3, [pc, #468]	@ (800433c <HAL_RCC_OscConfig+0x618>)
 8004168:	6ddb      	ldr	r3, [r3, #92]	@ 0x5c
 800416a:	2202      	movs	r2, #2
 800416c:	4013      	ands	r3, r2
 800416e:	d0f0      	beq.n	8004152 <HAL_RCC_OscConfig+0x42e>
 8004170:	e013      	b.n	800419a <HAL_RCC_OscConfig+0x476>
        }
      }
      else
      {
        /* Get Start Tick*/
        tickstart = HAL_GetTick();
 8004172:	f7fe fb9f 	bl	80028b4 <HAL_GetTick>
 8004176:	0003      	movs	r3, r0
 8004178:	613b      	str	r3, [r7, #16]

        /* Wait till LSE is disabled */
        while (READ_BIT(RCC->BDCR, RCC_BDCR_LSERDY) != 0U)
 800417a:	e009      	b.n	8004190 <HAL_RCC_OscConfig+0x46c>
        {
          if ((HAL_GetTick() - tickstart) > RCC_LSE_TIMEOUT_VALUE)
 800417c:	f7fe fb9a 	bl	80028b4 <HAL_GetTick>
 8004180:	0002      	movs	r2, r0
 8004182:	693b      	ldr	r3, [r7, #16]
 8004184:	1ad3      	subs	r3, r2, r3
 8004186:	4a6f      	ldr	r2, [pc, #444]	@ (8004344 <HAL_RCC_OscConfig+0x620>)
 8004188:	4293      	cmp	r3, r2
 800418a:	d901      	bls.n	8004190 <HAL_RCC_OscConfig+0x46c>
          {
            return HAL_TIMEOUT;
 800418c:	2303      	movs	r3, #3
 800418e:	e0d1      	b.n	8004334 <HAL_RCC_OscConfig+0x610>
        while (READ_BIT(RCC->BDCR, RCC_BDCR_LSERDY) != 0U)
 8004190:	4b6a      	ldr	r3, [pc, #424]	@ (800433c <HAL_RCC_OscConfig+0x618>)
 8004192:	6ddb      	ldr	r3, [r3, #92]	@ 0x5c
 8004194:	2202      	movs	r2, #2
 8004196:	4013      	ands	r3, r2
 8004198:	d1f0      	bne.n	800417c <HAL_RCC_OscConfig+0x458>
          }
        }
      }

      /* Restore clock configuration if changed */
      if (pwrclkchanged == SET)
 800419a:	231f      	movs	r3, #31
 800419c:	18fb      	adds	r3, r7, r3
 800419e:	781b      	ldrb	r3, [r3, #0]
 80041a0:	2b01      	cmp	r3, #1
 80041a2:	d105      	bne.n	80041b0 <HAL_RCC_OscConfig+0x48c>
      {
        __HAL_RCC_PWR_CLK_DISABLE();
 80041a4:	4b65      	ldr	r3, [pc, #404]	@ (800433c <HAL_RCC_OscConfig+0x618>)
 80041a6:	6bda      	ldr	r2, [r3, #60]	@ 0x3c
 80041a8:	4b64      	ldr	r3, [pc, #400]	@ (800433c <HAL_RCC_OscConfig+0x618>)
 80041aa:	4967      	ldr	r1, [pc, #412]	@ (8004348 <HAL_RCC_OscConfig+0x624>)
 80041ac:	400a      	ands	r2, r1
 80041ae:	63da      	str	r2, [r3, #60]	@ 0x3c
#endif /* RCC_HSI48_SUPPORT */
  /*-------------------------------- PLL Configuration -----------------------*/
  /* Check the parameters */
  assert_param(IS_RCC_PLL(RCC_OscInitStruct->PLL.PLLState));

  if (RCC_OscInitStruct->PLL.PLLState != RCC_PLL_NONE)
 80041b0:	687b      	ldr	r3, [r7, #4]
 80041b2:	69db      	ldr	r3, [r3, #28]
 80041b4:	2b00      	cmp	r3, #0
 80041b6:	d100      	bne.n	80041ba <HAL_RCC_OscConfig+0x496>
 80041b8:	e0bb      	b.n	8004332 <HAL_RCC_OscConfig+0x60e>
  {
    /* Check if the PLL is used as system clock or not */
    if (__HAL_RCC_GET_SYSCLK_SOURCE() != RCC_SYSCLKSOURCE_STATUS_PLLCLK)
 80041ba:	4b60      	ldr	r3, [pc, #384]	@ (800433c <HAL_RCC_OscConfig+0x618>)
 80041bc:	689b      	ldr	r3, [r3, #8]
 80041be:	2238      	movs	r2, #56	@ 0x38
 80041c0:	4013      	ands	r3, r2
 80041c2:	2b10      	cmp	r3, #16
 80041c4:	d100      	bne.n	80041c8 <HAL_RCC_OscConfig+0x4a4>
 80041c6:	e07b      	b.n	80042c0 <HAL_RCC_OscConfig+0x59c>
    {
      if (RCC_OscInitStruct->PLL.PLLState == RCC_PLL_ON)
 80041c8:	687b      	ldr	r3, [r7, #4]
 80041ca:	69db      	ldr	r3, [r3, #28]
 80041cc:	2b02      	cmp	r3, #2
 80041ce:	d156      	bne.n	800427e <HAL_RCC_OscConfig+0x55a>
        assert_param(IS_RCC_PLLQ_VALUE(RCC_OscInitStruct->PLL.PLLQ));
#endif /* RCC_PLLQ_SUPPORT */
        assert_param(IS_RCC_PLLR_VALUE(RCC_OscInitStruct->PLL.PLLR));

        /* Disable the main PLL. */
        __HAL_RCC_PLL_DISABLE();
 80041d0:	4b5a      	ldr	r3, [pc, #360]	@ (800433c <HAL_RCC_OscConfig+0x618>)
 80041d2:	681a      	ldr	r2, [r3, #0]
 80041d4:	4b59      	ldr	r3, [pc, #356]	@ (800433c <HAL_RCC_OscConfig+0x618>)
 80041d6:	495d      	ldr	r1, [pc, #372]	@ (800434c <HAL_RCC_OscConfig+0x628>)
 80041d8:	400a      	ands	r2, r1
 80041da:	601a      	str	r2, [r3, #0]

        /* Get Start Tick*/
        tickstart = HAL_GetTick();
 80041dc:	f7fe fb6a 	bl	80028b4 <HAL_GetTick>
 80041e0:	0003      	movs	r3, r0
 80041e2:	613b      	str	r3, [r7, #16]

        /* Wait till PLL is ready */
        while (READ_BIT(RCC->CR, RCC_CR_PLLRDY) != 0U)
 80041e4:	e008      	b.n	80041f8 <HAL_RCC_OscConfig+0x4d4>
        {
          if ((HAL_GetTick() - tickstart) > PLL_TIMEOUT_VALUE)
 80041e6:	f7fe fb65 	bl	80028b4 <HAL_GetTick>
 80041ea:	0002      	movs	r2, r0
 80041ec:	693b      	ldr	r3, [r7, #16]
 80041ee:	1ad3      	subs	r3, r2, r3
 80041f0:	2b02      	cmp	r3, #2
 80041f2:	d901      	bls.n	80041f8 <HAL_RCC_OscConfig+0x4d4>
          {
            return HAL_TIMEOUT;
 80041f4:	2303      	movs	r3, #3
 80041f6:	e09d      	b.n	8004334 <HAL_RCC_OscConfig+0x610>
        while (READ_BIT(RCC->CR, RCC_CR_PLLRDY) != 0U)
 80041f8:	4b50      	ldr	r3, [pc, #320]	@ (800433c <HAL_RCC_OscConfig+0x618>)
 80041fa:	681a      	ldr	r2, [r3, #0]
 80041fc:	2380      	movs	r3, #128	@ 0x80
 80041fe:	049b      	lsls	r3, r3, #18
 8004200:	4013      	ands	r3, r2
 8004202:	d1f0      	bne.n	80041e6 <HAL_RCC_OscConfig+0x4c2>
          }
        }

        /* Configure the main PLL clock source, multiplication and division factors. */
#if defined(RCC_PLLQ_SUPPORT)
        __HAL_RCC_PLL_CONFIG(RCC_OscInitStruct->PLL.PLLSource,
 8004204:	4b4d      	ldr	r3, [pc, #308]	@ (800433c <HAL_RCC_OscConfig+0x618>)
 8004206:	68db      	ldr	r3, [r3, #12]
 8004208:	4a51      	ldr	r2, [pc, #324]	@ (8004350 <HAL_RCC_OscConfig+0x62c>)
 800420a:	4013      	ands	r3, r2
 800420c:	0019      	movs	r1, r3
 800420e:	687b      	ldr	r3, [r7, #4]
 8004210:	6a1a      	ldr	r2, [r3, #32]
 8004212:	687b      	ldr	r3, [r7, #4]
 8004214:	6a5b      	ldr	r3, [r3, #36]	@ 0x24
 8004216:	431a      	orrs	r2, r3
 8004218:	687b      	ldr	r3, [r7, #4]
 800421a:	6a9b      	ldr	r3, [r3, #40]	@ 0x28
 800421c:	021b      	lsls	r3, r3, #8
 800421e:	431a      	orrs	r2, r3
 8004220:	687b      	ldr	r3, [r7, #4]
 8004222:	6adb      	ldr	r3, [r3, #44]	@ 0x2c
 8004224:	431a      	orrs	r2, r3
 8004226:	687b      	ldr	r3, [r7, #4]
 8004228:	6b1b      	ldr	r3, [r3, #48]	@ 0x30
 800422a:	431a      	orrs	r2, r3
 800422c:	687b      	ldr	r3, [r7, #4]
 800422e:	6b5b      	ldr	r3, [r3, #52]	@ 0x34
 8004230:	431a      	orrs	r2, r3
 8004232:	4b42      	ldr	r3, [pc, #264]	@ (800433c <HAL_RCC_OscConfig+0x618>)
 8004234:	430a      	orrs	r2, r1
 8004236:	60da      	str	r2, [r3, #12]
                             RCC_OscInitStruct->PLL.PLLP,
                             RCC_OscInitStruct->PLL.PLLR);
#endif /* RCC_PLLQ_SUPPORT */

        /* Enable the main PLL. */
        __HAL_RCC_PLL_ENABLE();
 8004238:	4b40      	ldr	r3, [pc, #256]	@ (800433c <HAL_RCC_OscConfig+0x618>)
 800423a:	681a      	ldr	r2, [r3, #0]
 800423c:	4b3f      	ldr	r3, [pc, #252]	@ (800433c <HAL_RCC_OscConfig+0x618>)
 800423e:	2180      	movs	r1, #128	@ 0x80
 8004240:	0449      	lsls	r1, r1, #17
 8004242:	430a      	orrs	r2, r1
 8004244:	601a      	str	r2, [r3, #0]

        /* Enable PLLR Clock output. */
        __HAL_RCC_PLLCLKOUT_ENABLE(RCC_PLLRCLK);
 8004246:	4b3d      	ldr	r3, [pc, #244]	@ (800433c <HAL_RCC_OscConfig+0x618>)
 8004248:	68da      	ldr	r2, [r3, #12]
 800424a:	4b3c      	ldr	r3, [pc, #240]	@ (800433c <HAL_RCC_OscConfig+0x618>)
 800424c:	2180      	movs	r1, #128	@ 0x80
 800424e:	0549      	lsls	r1, r1, #21
 8004250:	430a      	orrs	r2, r1
 8004252:	60da      	str	r2, [r3, #12]

        /* Get Start Tick*/
        tickstart = HAL_GetTick();
 8004254:	f7fe fb2e 	bl	80028b4 <HAL_GetTick>
 8004258:	0003      	movs	r3, r0
 800425a:	613b      	str	r3, [r7, #16]

        /* Wait till PLL is ready */
        while (READ_BIT(RCC->CR, RCC_CR_PLLRDY) == 0U)
 800425c:	e008      	b.n	8004270 <HAL_RCC_OscConfig+0x54c>
        {
          if ((HAL_GetTick() - tickstart) > PLL_TIMEOUT_VALUE)
 800425e:	f7fe fb29 	bl	80028b4 <HAL_GetTick>
 8004262:	0002      	movs	r2, r0
 8004264:	693b      	ldr	r3, [r7, #16]
 8004266:	1ad3      	subs	r3, r2, r3
 8004268:	2b02      	cmp	r3, #2
 800426a:	d901      	bls.n	8004270 <HAL_RCC_OscConfig+0x54c>
          {
            return HAL_TIMEOUT;
 800426c:	2303      	movs	r3, #3
 800426e:	e061      	b.n	8004334 <HAL_RCC_OscConfig+0x610>
        while (READ_BIT(RCC->CR, RCC_CR_PLLRDY) == 0U)
 8004270:	4b32      	ldr	r3, [pc, #200]	@ (800433c <HAL_RCC_OscConfig+0x618>)
 8004272:	681a      	ldr	r2, [r3, #0]
 8004274:	2380      	movs	r3, #128	@ 0x80
 8004276:	049b      	lsls	r3, r3, #18
 8004278:	4013      	ands	r3, r2
 800427a:	d0f0      	beq.n	800425e <HAL_RCC_OscConfig+0x53a>
 800427c:	e059      	b.n	8004332 <HAL_RCC_OscConfig+0x60e>
        }
      }
      else
      {
        /* Disable the main PLL. */
        __HAL_RCC_PLL_DISABLE();
 800427e:	4b2f      	ldr	r3, [pc, #188]	@ (800433c <HAL_RCC_OscConfig+0x618>)
 8004280:	681a      	ldr	r2, [r3, #0]
 8004282:	4b2e      	ldr	r3, [pc, #184]	@ (800433c <HAL_RCC_OscConfig+0x618>)
 8004284:	4931      	ldr	r1, [pc, #196]	@ (800434c <HAL_RCC_OscConfig+0x628>)
 8004286:	400a      	ands	r2, r1
 8004288:	601a      	str	r2, [r3, #0]

        /* Get Start Tick*/
        tickstart = HAL_GetTick();
 800428a:	f7fe fb13 	bl	80028b4 <HAL_GetTick>
 800428e:	0003      	movs	r3, r0
 8004290:	613b      	str	r3, [r7, #16]

        /* Wait till PLL is disabled */
        while (READ_BIT(RCC->CR, RCC_CR_PLLRDY) != 0U)
 8004292:	e008      	b.n	80042a6 <HAL_RCC_OscConfig+0x582>
        {
          if ((HAL_GetTick() - tickstart) > PLL_TIMEOUT_VALUE)
 8004294:	f7fe fb0e 	bl	80028b4 <HAL_GetTick>
 8004298:	0002      	movs	r2, r0
 800429a:	693b      	ldr	r3, [r7, #16]
 800429c:	1ad3      	subs	r3, r2, r3
 800429e:	2b02      	cmp	r3, #2
 80042a0:	d901      	bls.n	80042a6 <HAL_RCC_OscConfig+0x582>
          {
            return HAL_TIMEOUT;
 80042a2:	2303      	movs	r3, #3
 80042a4:	e046      	b.n	8004334 <HAL_RCC_OscConfig+0x610>
        while (READ_BIT(RCC->CR, RCC_CR_PLLRDY) != 0U)
 80042a6:	4b25      	ldr	r3, [pc, #148]	@ (800433c <HAL_RCC_OscConfig+0x618>)
 80042a8:	681a      	ldr	r2, [r3, #0]
 80042aa:	2380      	movs	r3, #128	@ 0x80
 80042ac:	049b      	lsls	r3, r3, #18
 80042ae:	4013      	ands	r3, r2
 80042b0:	d1f0      	bne.n	8004294 <HAL_RCC_OscConfig+0x570>
          }
        }
        /* Unselect main PLL clock source and disable main PLL outputs to save power */
#if defined(RCC_PLLQ_SUPPORT)
        RCC->PLLCFGR &= ~(RCC_PLLCFGR_PLLSRC | RCC_PLLCFGR_PLLPEN | RCC_PLLCFGR_PLLQEN | RCC_PLLCFGR_PLLREN);
 80042b2:	4b22      	ldr	r3, [pc, #136]	@ (800433c <HAL_RCC_OscConfig+0x618>)
 80042b4:	68da      	ldr	r2, [r3, #12]
 80042b6:	4b21      	ldr	r3, [pc, #132]	@ (800433c <HAL_RCC_OscConfig+0x618>)
 80042b8:	4926      	ldr	r1, [pc, #152]	@ (8004354 <HAL_RCC_OscConfig+0x630>)
 80042ba:	400a      	ands	r2, r1
 80042bc:	60da      	str	r2, [r3, #12]
 80042be:	e038      	b.n	8004332 <HAL_RCC_OscConfig+0x60e>
      }
    }
    else
    {
      /* Check if there is a request to disable the PLL used as System clock source */
      if ((RCC_OscInitStruct->PLL.PLLState) == RCC_PLL_OFF)
 80042c0:	687b      	ldr	r3, [r7, #4]
 80042c2:	69db      	ldr	r3, [r3, #28]
 80042c4:	2b01      	cmp	r3, #1
 80042c6:	d101      	bne.n	80042cc <HAL_RCC_OscConfig+0x5a8>
      {
        return HAL_ERROR;
 80042c8:	2301      	movs	r3, #1
 80042ca:	e033      	b.n	8004334 <HAL_RCC_OscConfig+0x610>
      }
      else
      {
        /* Do not return HAL_ERROR if request repeats the current configuration */
        temp_pllckcfg = RCC->PLLCFGR;
 80042cc:	4b1b      	ldr	r3, [pc, #108]	@ (800433c <HAL_RCC_OscConfig+0x618>)
 80042ce:	68db      	ldr	r3, [r3, #12]
 80042d0:	617b      	str	r3, [r7, #20]
        if ((READ_BIT(temp_pllckcfg, RCC_PLLCFGR_PLLSRC) != RCC_OscInitStruct->PLL.PLLSource) ||
 80042d2:	697b      	ldr	r3, [r7, #20]
 80042d4:	2203      	movs	r2, #3
 80042d6:	401a      	ands	r2, r3
 80042d8:	687b      	ldr	r3, [r7, #4]
 80042da:	6a1b      	ldr	r3, [r3, #32]
 80042dc:	429a      	cmp	r2, r3
 80042de:	d126      	bne.n	800432e <HAL_RCC_OscConfig+0x60a>
            (READ_BIT(temp_pllckcfg, RCC_PLLCFGR_PLLM) != RCC_OscInitStruct->PLL.PLLM) ||
 80042e0:	697b      	ldr	r3, [r7, #20]
 80042e2:	2270      	movs	r2, #112	@ 0x70
 80042e4:	401a      	ands	r2, r3
 80042e6:	687b      	ldr	r3, [r7, #4]
 80042e8:	6a5b      	ldr	r3, [r3, #36]	@ 0x24
        if ((READ_BIT(temp_pllckcfg, RCC_PLLCFGR_PLLSRC) != RCC_OscInitStruct->PLL.PLLSource) ||
 80042ea:	429a      	cmp	r2, r3
 80042ec:	d11f      	bne.n	800432e <HAL_RCC_OscConfig+0x60a>
            (READ_BIT(temp_pllckcfg, RCC_PLLCFGR_PLLN) != (RCC_OscInitStruct->PLL.PLLN << RCC_PLLCFGR_PLLN_Pos)) ||
 80042ee:	697a      	ldr	r2, [r7, #20]
 80042f0:	23fe      	movs	r3, #254	@ 0xfe
 80042f2:	01db      	lsls	r3, r3, #7
 80042f4:	401a      	ands	r2, r3
 80042f6:	687b      	ldr	r3, [r7, #4]
 80042f8:	6a9b      	ldr	r3, [r3, #40]	@ 0x28
 80042fa:	021b      	lsls	r3, r3, #8
            (READ_BIT(temp_pllckcfg, RCC_PLLCFGR_PLLM) != RCC_OscInitStruct->PLL.PLLM) ||
 80042fc:	429a      	cmp	r2, r3
 80042fe:	d116      	bne.n	800432e <HAL_RCC_OscConfig+0x60a>
            (READ_BIT(temp_pllckcfg, RCC_PLLCFGR_PLLP) != RCC_OscInitStruct->PLL.PLLP) ||
 8004300:	697a      	ldr	r2, [r7, #20]
 8004302:	23f8      	movs	r3, #248	@ 0xf8
 8004304:	039b      	lsls	r3, r3, #14
 8004306:	401a      	ands	r2, r3
 8004308:	687b      	ldr	r3, [r7, #4]
 800430a:	6adb      	ldr	r3, [r3, #44]	@ 0x2c
            (READ_BIT(temp_pllckcfg, RCC_PLLCFGR_PLLN) != (RCC_OscInitStruct->PLL.PLLN << RCC_PLLCFGR_PLLN_Pos)) ||
 800430c:	429a      	cmp	r2, r3
 800430e:	d10e      	bne.n	800432e <HAL_RCC_OscConfig+0x60a>
#if defined (RCC_PLLQ_SUPPORT)
            (READ_BIT(temp_pllckcfg, RCC_PLLCFGR_PLLQ) != RCC_OscInitStruct->PLL.PLLQ) ||
 8004310:	697a      	ldr	r2, [r7, #20]
 8004312:	23e0      	movs	r3, #224	@ 0xe0
 8004314:	051b      	lsls	r3, r3, #20
 8004316:	401a      	ands	r2, r3
 8004318:	687b      	ldr	r3, [r7, #4]
 800431a:	6b1b      	ldr	r3, [r3, #48]	@ 0x30
            (READ_BIT(temp_pllckcfg, RCC_PLLCFGR_PLLP) != RCC_OscInitStruct->PLL.PLLP) ||
 800431c:	429a      	cmp	r2, r3
 800431e:	d106      	bne.n	800432e <HAL_RCC_OscConfig+0x60a>
#endif /* RCC_PLLQ_SUPPORT */
            (READ_BIT(temp_pllckcfg, RCC_PLLCFGR_PLLR) != RCC_OscInitStruct->PLL.PLLR))
 8004320:	697b      	ldr	r3, [r7, #20]
 8004322:	0f5b      	lsrs	r3, r3, #29
 8004324:	075a      	lsls	r2, r3, #29
 8004326:	687b      	ldr	r3, [r7, #4]
 8004328:	6b5b      	ldr	r3, [r3, #52]	@ 0x34
            (READ_BIT(temp_pllckcfg, RCC_PLLCFGR_PLLQ) != RCC_OscInitStruct->PLL.PLLQ) ||
 800432a:	429a      	cmp	r2, r3
 800432c:	d001      	beq.n	8004332 <HAL_RCC_OscConfig+0x60e>
        {
          return HAL_ERROR;
 800432e:	2301      	movs	r3, #1
 8004330:	e000      	b.n	8004334 <HAL_RCC_OscConfig+0x610>
        }
      }
    }
  }
  return HAL_OK;
 8004332:	2300      	movs	r3, #0
}
 8004334:	0018      	movs	r0, r3
 8004336:	46bd      	mov	sp, r7
 8004338:	b008      	add	sp, #32
 800433a:	bd80      	pop	{r7, pc}
 800433c:	40021000 	.word	0x40021000
 8004340:	40007000 	.word	0x40007000
 8004344:	00001388 	.word	0x00001388
 8004348:	efffffff 	.word	0xefffffff
 800434c:	feffffff 	.word	0xfeffffff
 8004350:	11c1808c 	.word	0x11c1808c
 8004354:	eefefffc 	.word	0xeefefffc

08004358 <HAL_RCC_ClockConfig>:
  *         HPRE[3:0] bits to ensure that HCLK not exceed the maximum allowed frequency
  *         (for more details refer to section above "Initialization/de-initialization functions")
  * @retval None
  */
HAL_StatusTypeDef HAL_RCC_ClockConfig(RCC_ClkInitTypeDef  *RCC_ClkInitStruct, uint32_t FLatency)
{
 8004358:	b580      	push	{r7, lr}
 800435a:	b084      	sub	sp, #16
 800435c:	af00      	add	r7, sp, #0
 800435e:	6078      	str	r0, [r7, #4]
 8004360:	6039      	str	r1, [r7, #0]
  uint32_t tickstart;

  /* Check Null pointer */
  if (RCC_ClkInitStruct == NULL)
 8004362:	687b      	ldr	r3, [r7, #4]
 8004364:	2b00      	cmp	r3, #0
 8004366:	d101      	bne.n	800436c <HAL_RCC_ClockConfig+0x14>
  {
    return HAL_ERROR;
 8004368:	2301      	movs	r3, #1
 800436a:	e0e9      	b.n	8004540 <HAL_RCC_ClockConfig+0x1e8>
  /* To correctly read data from FLASH memory, the number of wait states (LATENCY)
    must be correctly programmed according to the frequency of the FLASH clock
    (HCLK) and the supply voltage of the device. */

  /* Increasing the number of wait states because of higher CPU frequency */
  if (FLatency > __HAL_FLASH_GET_LATENCY())
 800436c:	4b76      	ldr	r3, [pc, #472]	@ (8004548 <HAL_RCC_ClockConfig+0x1f0>)
 800436e:	681b      	ldr	r3, [r3, #0]
 8004370:	2207      	movs	r2, #7
 8004372:	4013      	ands	r3, r2
 8004374:	683a      	ldr	r2, [r7, #0]
 8004376:	429a      	cmp	r2, r3
 8004378:	d91e      	bls.n	80043b8 <HAL_RCC_ClockConfig+0x60>
  {
    /* Program the new number of wait states to the LATENCY bits in the FLASH_ACR register */
    __HAL_FLASH_SET_LATENCY(FLatency);
 800437a:	4b73      	ldr	r3, [pc, #460]	@ (8004548 <HAL_RCC_ClockConfig+0x1f0>)
 800437c:	681b      	ldr	r3, [r3, #0]
 800437e:	2207      	movs	r2, #7
 8004380:	4393      	bics	r3, r2
 8004382:	0019      	movs	r1, r3
 8004384:	4b70      	ldr	r3, [pc, #448]	@ (8004548 <HAL_RCC_ClockConfig+0x1f0>)
 8004386:	683a      	ldr	r2, [r7, #0]
 8004388:	430a      	orrs	r2, r1
 800438a:	601a      	str	r2, [r3, #0]

    /* Check that the new number of wait states is taken into account to access the Flash
    memory by polling the FLASH_ACR register */
    tickstart = HAL_GetTick();
 800438c:	f7fe fa92 	bl	80028b4 <HAL_GetTick>
 8004390:	0003      	movs	r3, r0
 8004392:	60fb      	str	r3, [r7, #12]

    while ((FLASH->ACR & FLASH_ACR_LATENCY) != FLatency)
 8004394:	e009      	b.n	80043aa <HAL_RCC_ClockConfig+0x52>
    {
      if ((HAL_GetTick() - tickstart) > CLOCKSWITCH_TIMEOUT_VALUE)
 8004396:	f7fe fa8d 	bl	80028b4 <HAL_GetTick>
 800439a:	0002      	movs	r2, r0
 800439c:	68fb      	ldr	r3, [r7, #12]
 800439e:	1ad3      	subs	r3, r2, r3
 80043a0:	4a6a      	ldr	r2, [pc, #424]	@ (800454c <HAL_RCC_ClockConfig+0x1f4>)
 80043a2:	4293      	cmp	r3, r2
 80043a4:	d901      	bls.n	80043aa <HAL_RCC_ClockConfig+0x52>
      {
        return HAL_TIMEOUT;
 80043a6:	2303      	movs	r3, #3
 80043a8:	e0ca      	b.n	8004540 <HAL_RCC_ClockConfig+0x1e8>
    while ((FLASH->ACR & FLASH_ACR_LATENCY) != FLatency)
 80043aa:	4b67      	ldr	r3, [pc, #412]	@ (8004548 <HAL_RCC_ClockConfig+0x1f0>)
 80043ac:	681b      	ldr	r3, [r3, #0]
 80043ae:	2207      	movs	r2, #7
 80043b0:	4013      	ands	r3, r2
 80043b2:	683a      	ldr	r2, [r7, #0]
 80043b4:	429a      	cmp	r2, r3
 80043b6:	d1ee      	bne.n	8004396 <HAL_RCC_ClockConfig+0x3e>
      }
    }
  }

  /*-------------------------- HCLK Configuration --------------------------*/
  if (((RCC_ClkInitStruct->ClockType) & RCC_CLOCKTYPE_HCLK) == RCC_CLOCKTYPE_HCLK)
 80043b8:	687b      	ldr	r3, [r7, #4]
 80043ba:	681b      	ldr	r3, [r3, #0]
 80043bc:	2202      	movs	r2, #2
 80043be:	4013      	ands	r3, r2
 80043c0:	d015      	beq.n	80043ee <HAL_RCC_ClockConfig+0x96>
  {
    /* Set the highest APB divider in order to ensure that we do not go through
       a non-spec phase whatever we decrease or increase HCLK. */
    if (((RCC_ClkInitStruct->ClockType) & RCC_CLOCKTYPE_PCLK1) == RCC_CLOCKTYPE_PCLK1)
 80043c2:	687b      	ldr	r3, [r7, #4]
 80043c4:	681b      	ldr	r3, [r3, #0]
 80043c6:	2204      	movs	r2, #4
 80043c8:	4013      	ands	r3, r2
 80043ca:	d006      	beq.n	80043da <HAL_RCC_ClockConfig+0x82>
    {
      MODIFY_REG(RCC->CFGR, RCC_CFGR_PPRE, RCC_HCLK_DIV16);
 80043cc:	4b60      	ldr	r3, [pc, #384]	@ (8004550 <HAL_RCC_ClockConfig+0x1f8>)
 80043ce:	689a      	ldr	r2, [r3, #8]
 80043d0:	4b5f      	ldr	r3, [pc, #380]	@ (8004550 <HAL_RCC_ClockConfig+0x1f8>)
 80043d2:	21e0      	movs	r1, #224	@ 0xe0
 80043d4:	01c9      	lsls	r1, r1, #7
 80043d6:	430a      	orrs	r2, r1
 80043d8:	609a      	str	r2, [r3, #8]
    }

    /* Set the new HCLK clock divider */
    assert_param(IS_RCC_HCLK(RCC_ClkInitStruct->AHBCLKDivider));
    MODIFY_REG(RCC->CFGR, RCC_CFGR_HPRE, RCC_ClkInitStruct->AHBCLKDivider);
 80043da:	4b5d      	ldr	r3, [pc, #372]	@ (8004550 <HAL_RCC_ClockConfig+0x1f8>)
 80043dc:	689b      	ldr	r3, [r3, #8]
 80043de:	4a5d      	ldr	r2, [pc, #372]	@ (8004554 <HAL_RCC_ClockConfig+0x1fc>)
 80043e0:	4013      	ands	r3, r2
 80043e2:	0019      	movs	r1, r3
 80043e4:	687b      	ldr	r3, [r7, #4]
 80043e6:	689a      	ldr	r2, [r3, #8]
 80043e8:	4b59      	ldr	r3, [pc, #356]	@ (8004550 <HAL_RCC_ClockConfig+0x1f8>)
 80043ea:	430a      	orrs	r2, r1
 80043ec:	609a      	str	r2, [r3, #8]
  }

  /*------------------------- SYSCLK Configuration ---------------------------*/
  if (((RCC_ClkInitStruct->ClockType) & RCC_CLOCKTYPE_SYSCLK) == RCC_CLOCKTYPE_SYSCLK)
 80043ee:	687b      	ldr	r3, [r7, #4]
 80043f0:	681b      	ldr	r3, [r3, #0]
 80043f2:	2201      	movs	r2, #1
 80043f4:	4013      	ands	r3, r2
 80043f6:	d057      	beq.n	80044a8 <HAL_RCC_ClockConfig+0x150>
  {
    assert_param(IS_RCC_SYSCLKSOURCE(RCC_ClkInitStruct->SYSCLKSource));

    /* HSE is selected as System Clock Source */
    if (RCC_ClkInitStruct->SYSCLKSource == RCC_SYSCLKSOURCE_HSE)
 80043f8:	687b      	ldr	r3, [r7, #4]
 80043fa:	685b      	ldr	r3, [r3, #4]
 80043fc:	2b01      	cmp	r3, #1
 80043fe:	d107      	bne.n	8004410 <HAL_RCC_ClockConfig+0xb8>
    {
      /* Check the HSE ready flag */
      if (READ_BIT(RCC->CR, RCC_CR_HSERDY) == 0U)
 8004400:	4b53      	ldr	r3, [pc, #332]	@ (8004550 <HAL_RCC_ClockConfig+0x1f8>)
 8004402:	681a      	ldr	r2, [r3, #0]
 8004404:	2380      	movs	r3, #128	@ 0x80
 8004406:	029b      	lsls	r3, r3, #10
 8004408:	4013      	ands	r3, r2
 800440a:	d12b      	bne.n	8004464 <HAL_RCC_ClockConfig+0x10c>
      {
        return HAL_ERROR;
 800440c:	2301      	movs	r3, #1
 800440e:	e097      	b.n	8004540 <HAL_RCC_ClockConfig+0x1e8>
      }
    }
    /* PLL is selected as System Clock Source */
    else if (RCC_ClkInitStruct->SYSCLKSource == RCC_SYSCLKSOURCE_PLLCLK)
 8004410:	687b      	ldr	r3, [r7, #4]
 8004412:	685b      	ldr	r3, [r3, #4]
 8004414:	2b02      	cmp	r3, #2
 8004416:	d107      	bne.n	8004428 <HAL_RCC_ClockConfig+0xd0>
    {
      /* Check the PLL ready flag */
      if (READ_BIT(RCC->CR, RCC_CR_PLLRDY) == 0U)
 8004418:	4b4d      	ldr	r3, [pc, #308]	@ (8004550 <HAL_RCC_ClockConfig+0x1f8>)
 800441a:	681a      	ldr	r2, [r3, #0]
 800441c:	2380      	movs	r3, #128	@ 0x80
 800441e:	049b      	lsls	r3, r3, #18
 8004420:	4013      	ands	r3, r2
 8004422:	d11f      	bne.n	8004464 <HAL_RCC_ClockConfig+0x10c>
      {
        return HAL_ERROR;
 8004424:	2301      	movs	r3, #1
 8004426:	e08b      	b.n	8004540 <HAL_RCC_ClockConfig+0x1e8>
      }
    }
    /* HSI is selected as System Clock Source */
    else if (RCC_ClkInitStruct->SYSCLKSource == RCC_SYSCLKSOURCE_HSI)
 8004428:	687b      	ldr	r3, [r7, #4]
 800442a:	685b      	ldr	r3, [r3, #4]
 800442c:	2b00      	cmp	r3, #0
 800442e:	d107      	bne.n	8004440 <HAL_RCC_ClockConfig+0xe8>
    {
      /* Check the HSI ready flag */
      if (READ_BIT(RCC->CR, RCC_CR_HSIRDY) == 0U)
 8004430:	4b47      	ldr	r3, [pc, #284]	@ (8004550 <HAL_RCC_ClockConfig+0x1f8>)
 8004432:	681a      	ldr	r2, [r3, #0]
 8004434:	2380      	movs	r3, #128	@ 0x80
 8004436:	00db      	lsls	r3, r3, #3
 8004438:	4013      	ands	r3, r2
 800443a:	d113      	bne.n	8004464 <HAL_RCC_ClockConfig+0x10c>
      {
        return HAL_ERROR;
 800443c:	2301      	movs	r3, #1
 800443e:	e07f      	b.n	8004540 <HAL_RCC_ClockConfig+0x1e8>
      }
    }
    /* LSI is selected as System Clock Source */
    else if (RCC_ClkInitStruct->SYSCLKSource == RCC_SYSCLKSOURCE_LSI)
 8004440:	687b      	ldr	r3, [r7, #4]
 8004442:	685b      	ldr	r3, [r3, #4]
 8004444:	2b03      	cmp	r3, #3
 8004446:	d106      	bne.n	8004456 <HAL_RCC_ClockConfig+0xfe>
    {
      /* Check the LSI ready flag */
      if (READ_BIT(RCC->CSR, RCC_CSR_LSIRDY) == 0U)
 8004448:	4b41      	ldr	r3, [pc, #260]	@ (8004550 <HAL_RCC_ClockConfig+0x1f8>)
 800444a:	6e1b      	ldr	r3, [r3, #96]	@ 0x60
 800444c:	2202      	movs	r2, #2
 800444e:	4013      	ands	r3, r2
 8004450:	d108      	bne.n	8004464 <HAL_RCC_ClockConfig+0x10c>
      {
        return HAL_ERROR;
 8004452:	2301      	movs	r3, #1
 8004454:	e074      	b.n	8004540 <HAL_RCC_ClockConfig+0x1e8>
    }
    /* LSE is selected as System Clock Source */
    else
    {
      /* Check the LSE ready flag */
      if (READ_BIT(RCC->BDCR, RCC_BDCR_LSERDY) == 0U)
 8004456:	4b3e      	ldr	r3, [pc, #248]	@ (8004550 <HAL_RCC_ClockConfig+0x1f8>)
 8004458:	6ddb      	ldr	r3, [r3, #92]	@ 0x5c
 800445a:	2202      	movs	r2, #2
 800445c:	4013      	ands	r3, r2
 800445e:	d101      	bne.n	8004464 <HAL_RCC_ClockConfig+0x10c>
      {
        return HAL_ERROR;
 8004460:	2301      	movs	r3, #1
 8004462:	e06d      	b.n	8004540 <HAL_RCC_ClockConfig+0x1e8>
      }
    }
    MODIFY_REG(RCC->CFGR, RCC_CFGR_SW, RCC_ClkInitStruct->SYSCLKSource);
 8004464:	4b3a      	ldr	r3, [pc, #232]	@ (8004550 <HAL_RCC_ClockConfig+0x1f8>)
 8004466:	689b      	ldr	r3, [r3, #8]
 8004468:	2207      	movs	r2, #7
 800446a:	4393      	bics	r3, r2
 800446c:	0019      	movs	r1, r3
 800446e:	687b      	ldr	r3, [r7, #4]
 8004470:	685a      	ldr	r2, [r3, #4]
 8004472:	4b37      	ldr	r3, [pc, #220]	@ (8004550 <HAL_RCC_ClockConfig+0x1f8>)
 8004474:	430a      	orrs	r2, r1
 8004476:	609a      	str	r2, [r3, #8]

    /* Get Start Tick*/
    tickstart = HAL_GetTick();
 8004478:	f7fe fa1c 	bl	80028b4 <HAL_GetTick>
 800447c:	0003      	movs	r3, r0
 800447e:	60fb      	str	r3, [r7, #12]

    while (__HAL_RCC_GET_SYSCLK_SOURCE() != (RCC_ClkInitStruct->SYSCLKSource << RCC_CFGR_SWS_Pos))
 8004480:	e009      	b.n	8004496 <HAL_RCC_ClockConfig+0x13e>
    {
      if ((HAL_GetTick() - tickstart) > CLOCKSWITCH_TIMEOUT_VALUE)
 8004482:	f7fe fa17 	bl	80028b4 <HAL_GetTick>
 8004486:	0002      	movs	r2, r0
 8004488:	68fb      	ldr	r3, [r7, #12]
 800448a:	1ad3      	subs	r3, r2, r3
 800448c:	4a2f      	ldr	r2, [pc, #188]	@ (800454c <HAL_RCC_ClockConfig+0x1f4>)
 800448e:	4293      	cmp	r3, r2
 8004490:	d901      	bls.n	8004496 <HAL_RCC_ClockConfig+0x13e>
      {
        return HAL_TIMEOUT;
 8004492:	2303      	movs	r3, #3
 8004494:	e054      	b.n	8004540 <HAL_RCC_ClockConfig+0x1e8>
    while (__HAL_RCC_GET_SYSCLK_SOURCE() != (RCC_ClkInitStruct->SYSCLKSource << RCC_CFGR_SWS_Pos))
 8004496:	4b2e      	ldr	r3, [pc, #184]	@ (8004550 <HAL_RCC_ClockConfig+0x1f8>)
 8004498:	689b      	ldr	r3, [r3, #8]
 800449a:	2238      	movs	r2, #56	@ 0x38
 800449c:	401a      	ands	r2, r3
 800449e:	687b      	ldr	r3, [r7, #4]
 80044a0:	685b      	ldr	r3, [r3, #4]
 80044a2:	00db      	lsls	r3, r3, #3
 80044a4:	429a      	cmp	r2, r3
 80044a6:	d1ec      	bne.n	8004482 <HAL_RCC_ClockConfig+0x12a>
      }
    }
  }

  /* Decreasing the number of wait states because of lower CPU frequency */
  if (FLatency < __HAL_FLASH_GET_LATENCY())
 80044a8:	4b27      	ldr	r3, [pc, #156]	@ (8004548 <HAL_RCC_ClockConfig+0x1f0>)
 80044aa:	681b      	ldr	r3, [r3, #0]
 80044ac:	2207      	movs	r2, #7
 80044ae:	4013      	ands	r3, r2
 80044b0:	683a      	ldr	r2, [r7, #0]
 80044b2:	429a      	cmp	r2, r3
 80044b4:	d21e      	bcs.n	80044f4 <HAL_RCC_ClockConfig+0x19c>
  {
    /* Program the new number of wait states to the LATENCY bits in the FLASH_ACR register */
    __HAL_FLASH_SET_LATENCY(FLatency);
 80044b6:	4b24      	ldr	r3, [pc, #144]	@ (8004548 <HAL_RCC_ClockConfig+0x1f0>)
 80044b8:	681b      	ldr	r3, [r3, #0]
 80044ba:	2207      	movs	r2, #7
 80044bc:	4393      	bics	r3, r2
 80044be:	0019      	movs	r1, r3
 80044c0:	4b21      	ldr	r3, [pc, #132]	@ (8004548 <HAL_RCC_ClockConfig+0x1f0>)
 80044c2:	683a      	ldr	r2, [r7, #0]
 80044c4:	430a      	orrs	r2, r1
 80044c6:	601a      	str	r2, [r3, #0]

    /* Check that the new number of wait states is taken into account to access the Flash
    memory by polling the FLASH_ACR register */
    tickstart = HAL_GetTick();
 80044c8:	f7fe f9f4 	bl	80028b4 <HAL_GetTick>
 80044cc:	0003      	movs	r3, r0
 80044ce:	60fb      	str	r3, [r7, #12]

    while ((FLASH->ACR & FLASH_ACR_LATENCY) != FLatency)
 80044d0:	e009      	b.n	80044e6 <HAL_RCC_ClockConfig+0x18e>
    {
      if ((HAL_GetTick() - tickstart) > CLOCKSWITCH_TIMEOUT_VALUE)
 80044d2:	f7fe f9ef 	bl	80028b4 <HAL_GetTick>
 80044d6:	0002      	movs	r2, r0
 80044d8:	68fb      	ldr	r3, [r7, #12]
 80044da:	1ad3      	subs	r3, r2, r3
 80044dc:	4a1b      	ldr	r2, [pc, #108]	@ (800454c <HAL_RCC_ClockConfig+0x1f4>)
 80044de:	4293      	cmp	r3, r2
 80044e0:	d901      	bls.n	80044e6 <HAL_RCC_ClockConfig+0x18e>
      {
        return HAL_TIMEOUT;
 80044e2:	2303      	movs	r3, #3
 80044e4:	e02c      	b.n	8004540 <HAL_RCC_ClockConfig+0x1e8>
    while ((FLASH->ACR & FLASH_ACR_LATENCY) != FLatency)
 80044e6:	4b18      	ldr	r3, [pc, #96]	@ (8004548 <HAL_RCC_ClockConfig+0x1f0>)
 80044e8:	681b      	ldr	r3, [r3, #0]
 80044ea:	2207      	movs	r2, #7
 80044ec:	4013      	ands	r3, r2
 80044ee:	683a      	ldr	r2, [r7, #0]
 80044f0:	429a      	cmp	r2, r3
 80044f2:	d1ee      	bne.n	80044d2 <HAL_RCC_ClockConfig+0x17a>
      }
    }
  }

  /*-------------------------- PCLK1 Configuration ---------------------------*/
  if (((RCC_ClkInitStruct->ClockType) & RCC_CLOCKTYPE_PCLK1) == RCC_CLOCKTYPE_PCLK1)
 80044f4:	687b      	ldr	r3, [r7, #4]
 80044f6:	681b      	ldr	r3, [r3, #0]
 80044f8:	2204      	movs	r2, #4
 80044fa:	4013      	ands	r3, r2
 80044fc:	d009      	beq.n	8004512 <HAL_RCC_ClockConfig+0x1ba>
  {
    assert_param(IS_RCC_PCLK(RCC_ClkInitStruct->APB1CLKDivider));
    MODIFY_REG(RCC->CFGR, RCC_CFGR_PPRE, RCC_ClkInitStruct->APB1CLKDivider);
 80044fe:	4b14      	ldr	r3, [pc, #80]	@ (8004550 <HAL_RCC_ClockConfig+0x1f8>)
 8004500:	689b      	ldr	r3, [r3, #8]
 8004502:	4a15      	ldr	r2, [pc, #84]	@ (8004558 <HAL_RCC_ClockConfig+0x200>)
 8004504:	4013      	ands	r3, r2
 8004506:	0019      	movs	r1, r3
 8004508:	687b      	ldr	r3, [r7, #4]
 800450a:	68da      	ldr	r2, [r3, #12]
 800450c:	4b10      	ldr	r3, [pc, #64]	@ (8004550 <HAL_RCC_ClockConfig+0x1f8>)
 800450e:	430a      	orrs	r2, r1
 8004510:	609a      	str	r2, [r3, #8]
  }

  /* Update the SystemCoreClock global variable */
  SystemCoreClock = (HAL_RCC_GetSysClockFreq() >> ((AHBPrescTable[(RCC->CFGR & RCC_CFGR_HPRE) >> RCC_CFGR_HPRE_Pos]) & 0x1FU));
 8004512:	f000 f829 	bl	8004568 <HAL_RCC_GetSysClockFreq>
 8004516:	0001      	movs	r1, r0
 8004518:	4b0d      	ldr	r3, [pc, #52]	@ (8004550 <HAL_RCC_ClockConfig+0x1f8>)
 800451a:	689b      	ldr	r3, [r3, #8]
 800451c:	0a1b      	lsrs	r3, r3, #8
 800451e:	220f      	movs	r2, #15
 8004520:	401a      	ands	r2, r3
 8004522:	4b0e      	ldr	r3, [pc, #56]	@ (800455c <HAL_RCC_ClockConfig+0x204>)
 8004524:	0092      	lsls	r2, r2, #2
 8004526:	58d3      	ldr	r3, [r2, r3]
 8004528:	221f      	movs	r2, #31
 800452a:	4013      	ands	r3, r2
 800452c:	000a      	movs	r2, r1
 800452e:	40da      	lsrs	r2, r3
 8004530:	4b0b      	ldr	r3, [pc, #44]	@ (8004560 <HAL_RCC_ClockConfig+0x208>)
 8004532:	601a      	str	r2, [r3, #0]

  /* Configure the source of time base considering new system clocks settings*/
  return HAL_InitTick(uwTickPrio);
 8004534:	4b0b      	ldr	r3, [pc, #44]	@ (8004564 <HAL_RCC_ClockConfig+0x20c>)
 8004536:	681b      	ldr	r3, [r3, #0]
 8004538:	0018      	movs	r0, r3
 800453a:	f7fe f95f 	bl	80027fc <HAL_InitTick>
 800453e:	0003      	movs	r3, r0
}
 8004540:	0018      	movs	r0, r3
 8004542:	46bd      	mov	sp, r7
 8004544:	b004      	add	sp, #16
 8004546:	bd80      	pop	{r7, pc}
 8004548:	40022000 	.word	0x40022000
 800454c:	00001388 	.word	0x00001388
 8004550:	40021000 	.word	0x40021000
 8004554:	fffff0ff 	.word	0xfffff0ff
 8004558:	ffff8fff 	.word	0xffff8fff
 800455c:	08007f58 	.word	0x08007f58
 8004560:	20000008 	.word	0x20000008
 8004564:	20000000 	.word	0x20000000

08004568 <HAL_RCC_GetSysClockFreq>:
  *
  *
  * @retval SYSCLK frequency
  */
uint32_t HAL_RCC_GetSysClockFreq(void)
{
 8004568:	b580      	push	{r7, lr}
 800456a:	b086      	sub	sp, #24
 800456c:	af00      	add	r7, sp, #0
  uint32_t pllvco, pllsource, pllr, pllm, hsidiv;
  uint32_t sysclockfreq;

  if (__HAL_RCC_GET_SYSCLK_SOURCE() == RCC_SYSCLKSOURCE_STATUS_HSI)
 800456e:	4b3c      	ldr	r3, [pc, #240]	@ (8004660 <HAL_RCC_GetSysClockFreq+0xf8>)
 8004570:	689b      	ldr	r3, [r3, #8]
 8004572:	2238      	movs	r2, #56	@ 0x38
 8004574:	4013      	ands	r3, r2
 8004576:	d10f      	bne.n	8004598 <HAL_RCC_GetSysClockFreq+0x30>
  {
    /* HSISYS can be derived for HSI16 */
    hsidiv = (1UL << ((READ_BIT(RCC->CR, RCC_CR_HSIDIV)) >> RCC_CR_HSIDIV_Pos));
 8004578:	4b39      	ldr	r3, [pc, #228]	@ (8004660 <HAL_RCC_GetSysClockFreq+0xf8>)
 800457a:	681b      	ldr	r3, [r3, #0]
 800457c:	0adb      	lsrs	r3, r3, #11
 800457e:	2207      	movs	r2, #7
 8004580:	4013      	ands	r3, r2
 8004582:	2201      	movs	r2, #1
 8004584:	409a      	lsls	r2, r3
 8004586:	0013      	movs	r3, r2
 8004588:	603b      	str	r3, [r7, #0]

    /* HSI used as system clock source */
    sysclockfreq = (HSI_VALUE / hsidiv);
 800458a:	6839      	ldr	r1, [r7, #0]
 800458c:	4835      	ldr	r0, [pc, #212]	@ (8004664 <HAL_RCC_GetSysClockFreq+0xfc>)
 800458e:	f7fb fdc1 	bl	8000114 <__udivsi3>
 8004592:	0003      	movs	r3, r0
 8004594:	613b      	str	r3, [r7, #16]
 8004596:	e05d      	b.n	8004654 <HAL_RCC_GetSysClockFreq+0xec>
  }
  else if (__HAL_RCC_GET_SYSCLK_SOURCE() == RCC_SYSCLKSOURCE_STATUS_HSE)
 8004598:	4b31      	ldr	r3, [pc, #196]	@ (8004660 <HAL_RCC_GetSysClockFreq+0xf8>)
 800459a:	689b      	ldr	r3, [r3, #8]
 800459c:	2238      	movs	r2, #56	@ 0x38
 800459e:	4013      	ands	r3, r2
 80045a0:	2b08      	cmp	r3, #8
 80045a2:	d102      	bne.n	80045aa <HAL_RCC_GetSysClockFreq+0x42>
  {
    /* HSE used as system clock source */
    sysclockfreq = HSE_VALUE;
 80045a4:	4b30      	ldr	r3, [pc, #192]	@ (8004668 <HAL_RCC_GetSysClockFreq+0x100>)
 80045a6:	613b      	str	r3, [r7, #16]
 80045a8:	e054      	b.n	8004654 <HAL_RCC_GetSysClockFreq+0xec>
  }
  else if (__HAL_RCC_GET_SYSCLK_SOURCE() == RCC_SYSCLKSOURCE_STATUS_PLLCLK)
 80045aa:	4b2d      	ldr	r3, [pc, #180]	@ (8004660 <HAL_RCC_GetSysClockFreq+0xf8>)
 80045ac:	689b      	ldr	r3, [r3, #8]
 80045ae:	2238      	movs	r2, #56	@ 0x38
 80045b0:	4013      	ands	r3, r2
 80045b2:	2b10      	cmp	r3, #16
 80045b4:	d138      	bne.n	8004628 <HAL_RCC_GetSysClockFreq+0xc0>
    /* PLL used as system clock  source */

    /* PLL_VCO = ((HSE_VALUE or HSI_VALUE)/ PLLM) * PLLN
    SYSCLK = PLL_VCO / PLLR
    */
    pllsource = (RCC->PLLCFGR & RCC_PLLCFGR_PLLSRC);
 80045b6:	4b2a      	ldr	r3, [pc, #168]	@ (8004660 <HAL_RCC_GetSysClockFreq+0xf8>)
 80045b8:	68db      	ldr	r3, [r3, #12]
 80045ba:	2203      	movs	r2, #3
 80045bc:	4013      	ands	r3, r2
 80045be:	60fb      	str	r3, [r7, #12]
    pllm = ((RCC->PLLCFGR & RCC_PLLCFGR_PLLM) >> RCC_PLLCFGR_PLLM_Pos) + 1U ;
 80045c0:	4b27      	ldr	r3, [pc, #156]	@ (8004660 <HAL_RCC_GetSysClockFreq+0xf8>)
 80045c2:	68db      	ldr	r3, [r3, #12]
 80045c4:	091b      	lsrs	r3, r3, #4
 80045c6:	2207      	movs	r2, #7
 80045c8:	4013      	ands	r3, r2
 80045ca:	3301      	adds	r3, #1
 80045cc:	60bb      	str	r3, [r7, #8]

    switch (pllsource)
 80045ce:	68fb      	ldr	r3, [r7, #12]
 80045d0:	2b03      	cmp	r3, #3
 80045d2:	d10d      	bne.n	80045f0 <HAL_RCC_GetSysClockFreq+0x88>
    {
      case RCC_PLLSOURCE_HSE:  /* HSE used as PLL clock source */
        pllvco = (HSE_VALUE / pllm) * ((RCC->PLLCFGR & RCC_PLLCFGR_PLLN) >> RCC_PLLCFGR_PLLN_Pos);
 80045d4:	68b9      	ldr	r1, [r7, #8]
 80045d6:	4824      	ldr	r0, [pc, #144]	@ (8004668 <HAL_RCC_GetSysClockFreq+0x100>)
 80045d8:	f7fb fd9c 	bl	8000114 <__udivsi3>
 80045dc:	0003      	movs	r3, r0
 80045de:	0019      	movs	r1, r3
 80045e0:	4b1f      	ldr	r3, [pc, #124]	@ (8004660 <HAL_RCC_GetSysClockFreq+0xf8>)
 80045e2:	68db      	ldr	r3, [r3, #12]
 80045e4:	0a1b      	lsrs	r3, r3, #8
 80045e6:	227f      	movs	r2, #127	@ 0x7f
 80045e8:	4013      	ands	r3, r2
 80045ea:	434b      	muls	r3, r1
 80045ec:	617b      	str	r3, [r7, #20]
        break;
 80045ee:	e00d      	b.n	800460c <HAL_RCC_GetSysClockFreq+0xa4>

      case RCC_PLLSOURCE_HSI:  /* HSI16 used as PLL clock source */
      default:                 /* HSI16 used as PLL clock source */
        pllvco = (HSI_VALUE / pllm) * ((RCC->PLLCFGR & RCC_PLLCFGR_PLLN) >> RCC_PLLCFGR_PLLN_Pos) ;
 80045f0:	68b9      	ldr	r1, [r7, #8]
 80045f2:	481c      	ldr	r0, [pc, #112]	@ (8004664 <HAL_RCC_GetSysClockFreq+0xfc>)
 80045f4:	f7fb fd8e 	bl	8000114 <__udivsi3>
 80045f8:	0003      	movs	r3, r0
 80045fa:	0019      	movs	r1, r3
 80045fc:	4b18      	ldr	r3, [pc, #96]	@ (8004660 <HAL_RCC_GetSysClockFreq+0xf8>)
 80045fe:	68db      	ldr	r3, [r3, #12]
 8004600:	0a1b      	lsrs	r3, r3, #8
 8004602:	227f      	movs	r2, #127	@ 0x7f
 8004604:	4013      	ands	r3, r2
 8004606:	434b      	muls	r3, r1
 8004608:	617b      	str	r3, [r7, #20]
        break;
 800460a:	46c0      	nop			@ (mov r8, r8)
    }
    pllr = (((RCC->PLLCFGR & RCC_PLLCFGR_PLLR) >> RCC_PLLCFGR_PLLR_Pos) + 1U);
 800460c:	4b14      	ldr	r3, [pc, #80]	@ (8004660 <HAL_RCC_GetSysClockFreq+0xf8>)
 800460e:	68db      	ldr	r3, [r3, #12]
 8004610:	0f5b      	lsrs	r3, r3, #29
 8004612:	2207      	movs	r2, #7
 8004614:	4013      	ands	r3, r2
 8004616:	3301      	adds	r3, #1
 8004618:	607b      	str	r3, [r7, #4]
    sysclockfreq = pllvco / pllr;
 800461a:	6879      	ldr	r1, [r7, #4]
 800461c:	6978      	ldr	r0, [r7, #20]
 800461e:	f7fb fd79 	bl	8000114 <__udivsi3>
 8004622:	0003      	movs	r3, r0
 8004624:	613b      	str	r3, [r7, #16]
 8004626:	e015      	b.n	8004654 <HAL_RCC_GetSysClockFreq+0xec>
  }
  else if (__HAL_RCC_GET_SYSCLK_SOURCE() == RCC_SYSCLKSOURCE_STATUS_LSE)
 8004628:	4b0d      	ldr	r3, [pc, #52]	@ (8004660 <HAL_RCC_GetSysClockFreq+0xf8>)
 800462a:	689b      	ldr	r3, [r3, #8]
 800462c:	2238      	movs	r2, #56	@ 0x38
 800462e:	4013      	ands	r3, r2
 8004630:	2b20      	cmp	r3, #32
 8004632:	d103      	bne.n	800463c <HAL_RCC_GetSysClockFreq+0xd4>
  {
    /* LSE used as system clock source */
    sysclockfreq = LSE_VALUE;
 8004634:	2380      	movs	r3, #128	@ 0x80
 8004636:	021b      	lsls	r3, r3, #8
 8004638:	613b      	str	r3, [r7, #16]
 800463a:	e00b      	b.n	8004654 <HAL_RCC_GetSysClockFreq+0xec>
  }
  else if (__HAL_RCC_GET_SYSCLK_SOURCE() == RCC_SYSCLKSOURCE_STATUS_LSI)
 800463c:	4b08      	ldr	r3, [pc, #32]	@ (8004660 <HAL_RCC_GetSysClockFreq+0xf8>)
 800463e:	689b      	ldr	r3, [r3, #8]
 8004640:	2238      	movs	r2, #56	@ 0x38
 8004642:	4013      	ands	r3, r2
 8004644:	2b18      	cmp	r3, #24
 8004646:	d103      	bne.n	8004650 <HAL_RCC_GetSysClockFreq+0xe8>
  {
    /* LSI used as system clock source */
    sysclockfreq = LSI_VALUE;
 8004648:	23fa      	movs	r3, #250	@ 0xfa
 800464a:	01db      	lsls	r3, r3, #7
 800464c:	613b      	str	r3, [r7, #16]
 800464e:	e001      	b.n	8004654 <HAL_RCC_GetSysClockFreq+0xec>
  }
  else
  {
    sysclockfreq = 0U;
 8004650:	2300      	movs	r3, #0
 8004652:	613b      	str	r3, [r7, #16]
  }

  return sysclockfreq;
 8004654:	693b      	ldr	r3, [r7, #16]
}
 8004656:	0018      	movs	r0, r3
 8004658:	46bd      	mov	sp, r7
 800465a:	b006      	add	sp, #24
 800465c:	bd80      	pop	{r7, pc}
 800465e:	46c0      	nop			@ (mov r8, r8)
 8004660:	40021000 	.word	0x40021000
 8004664:	00f42400 	.word	0x00f42400
 8004668:	007a1200 	.word	0x007a1200

0800466c <HAL_RCC_GetHCLKFreq>:
  *
  * @note   The SystemCoreClock CMSIS variable is used to store System Clock Frequency.
  * @retval HCLK frequency in Hz
  */
uint32_t HAL_RCC_GetHCLKFreq(void)
{
 800466c:	b580      	push	{r7, lr}
 800466e:	af00      	add	r7, sp, #0
  return SystemCoreClock;
 8004670:	4b02      	ldr	r3, [pc, #8]	@ (800467c <HAL_RCC_GetHCLKFreq+0x10>)
 8004672:	681b      	ldr	r3, [r3, #0]
}
 8004674:	0018      	movs	r0, r3
 8004676:	46bd      	mov	sp, r7
 8004678:	bd80      	pop	{r7, pc}
 800467a:	46c0      	nop			@ (mov r8, r8)
 800467c:	20000008 	.word	0x20000008

08004680 <HAL_RCC_GetPCLK1Freq>:
  * @note   Each time PCLK1 changes, this function must be called to update the
  *         right PCLK1 value. Otherwise, any configuration based on this function will be incorrect.
  * @retval PCLK1 frequency in Hz
  */
uint32_t HAL_RCC_GetPCLK1Freq(void)
{
 8004680:	b5b0      	push	{r4, r5, r7, lr}
 8004682:	af00      	add	r7, sp, #0
  /* Get HCLK source and Compute PCLK1 frequency ---------------------------*/
  return ((uint32_t)(__LL_RCC_CALC_PCLK1_FREQ(HAL_RCC_GetHCLKFreq(), LL_RCC_GetAPB1Prescaler())));
 8004684:	f7ff fff2 	bl	800466c <HAL_RCC_GetHCLKFreq>
 8004688:	0004      	movs	r4, r0
 800468a:	f7ff fb3f 	bl	8003d0c <LL_RCC_GetAPB1Prescaler>
 800468e:	0003      	movs	r3, r0
 8004690:	0b1a      	lsrs	r2, r3, #12
 8004692:	4b05      	ldr	r3, [pc, #20]	@ (80046a8 <HAL_RCC_GetPCLK1Freq+0x28>)
 8004694:	0092      	lsls	r2, r2, #2
 8004696:	58d3      	ldr	r3, [r2, r3]
 8004698:	221f      	movs	r2, #31
 800469a:	4013      	ands	r3, r2
 800469c:	40dc      	lsrs	r4, r3
 800469e:	0023      	movs	r3, r4
}
 80046a0:	0018      	movs	r0, r3
 80046a2:	46bd      	mov	sp, r7
 80046a4:	bdb0      	pop	{r4, r5, r7, pc}
 80046a6:	46c0      	nop			@ (mov r8, r8)
 80046a8:	08007f98 	.word	0x08007f98

080046ac <HAL_RCCEx_PeriphCLKConfig>:
  *         the RTC clock source: in this case the access to Backup domain is enabled.
  *
  * @retval HAL status
  */
HAL_StatusTypeDef HAL_RCCEx_PeriphCLKConfig(RCC_PeriphCLKInitTypeDef  *PeriphClkInit)
{
 80046ac:	b580      	push	{r7, lr}
 80046ae:	b086      	sub	sp, #24
 80046b0:	af00      	add	r7, sp, #0
 80046b2:	6078      	str	r0, [r7, #4]
  uint32_t tmpregister;
  uint32_t tickstart;
  HAL_StatusTypeDef ret    = HAL_OK;   /* Intermediate status */
 80046b4:	2313      	movs	r3, #19
 80046b6:	18fb      	adds	r3, r7, r3
 80046b8:	2200      	movs	r2, #0
 80046ba:	701a      	strb	r2, [r3, #0]
  HAL_StatusTypeDef status = HAL_OK;   /* Final status */
 80046bc:	2312      	movs	r3, #18
 80046be:	18fb      	adds	r3, r7, r3
 80046c0:	2200      	movs	r2, #0
 80046c2:	701a      	strb	r2, [r3, #0]

  /* Check the parameters */
  assert_param(IS_RCC_PERIPHCLOCK(PeriphClkInit->PeriphClockSelection));

  /*-------------------------- RTC clock source configuration ----------------------*/
  if ((PeriphClkInit->PeriphClockSelection & RCC_PERIPHCLK_RTC) == RCC_PERIPHCLK_RTC)
 80046c4:	687b      	ldr	r3, [r7, #4]
 80046c6:	681a      	ldr	r2, [r3, #0]
 80046c8:	2380      	movs	r3, #128	@ 0x80
 80046ca:	029b      	lsls	r3, r3, #10
 80046cc:	4013      	ands	r3, r2
 80046ce:	d100      	bne.n	80046d2 <HAL_RCCEx_PeriphCLKConfig+0x26>
 80046d0:	e0a3      	b.n	800481a <HAL_RCCEx_PeriphCLKConfig+0x16e>
  {
    FlagStatus       pwrclkchanged = RESET;
 80046d2:	2011      	movs	r0, #17
 80046d4:	183b      	adds	r3, r7, r0
 80046d6:	2200      	movs	r2, #0
 80046d8:	701a      	strb	r2, [r3, #0]

    /* Check for RTC Parameters used to output RTCCLK */
    assert_param(IS_RCC_RTCCLKSOURCE(PeriphClkInit->RTCClockSelection));

    /* Enable Power Clock */
    if (__HAL_RCC_PWR_IS_CLK_DISABLED())
 80046da:	4bc3      	ldr	r3, [pc, #780]	@ (80049e8 <HAL_RCCEx_PeriphCLKConfig+0x33c>)
 80046dc:	6bda      	ldr	r2, [r3, #60]	@ 0x3c
 80046de:	2380      	movs	r3, #128	@ 0x80
 80046e0:	055b      	lsls	r3, r3, #21
 80046e2:	4013      	ands	r3, r2
 80046e4:	d110      	bne.n	8004708 <HAL_RCCEx_PeriphCLKConfig+0x5c>
    {
      __HAL_RCC_PWR_CLK_ENABLE();
 80046e6:	4bc0      	ldr	r3, [pc, #768]	@ (80049e8 <HAL_RCCEx_PeriphCLKConfig+0x33c>)
 80046e8:	6bda      	ldr	r2, [r3, #60]	@ 0x3c
 80046ea:	4bbf      	ldr	r3, [pc, #764]	@ (80049e8 <HAL_RCCEx_PeriphCLKConfig+0x33c>)
 80046ec:	2180      	movs	r1, #128	@ 0x80
 80046ee:	0549      	lsls	r1, r1, #21
 80046f0:	430a      	orrs	r2, r1
 80046f2:	63da      	str	r2, [r3, #60]	@ 0x3c
 80046f4:	4bbc      	ldr	r3, [pc, #752]	@ (80049e8 <HAL_RCCEx_PeriphCLKConfig+0x33c>)
 80046f6:	6bda      	ldr	r2, [r3, #60]	@ 0x3c
 80046f8:	2380      	movs	r3, #128	@ 0x80
 80046fa:	055b      	lsls	r3, r3, #21
 80046fc:	4013      	ands	r3, r2
 80046fe:	60bb      	str	r3, [r7, #8]
 8004700:	68bb      	ldr	r3, [r7, #8]
      pwrclkchanged = SET;
 8004702:	183b      	adds	r3, r7, r0
 8004704:	2201      	movs	r2, #1
 8004706:	701a      	strb	r2, [r3, #0]
    }

    /* Enable write access to Backup domain */
    SET_BIT(PWR->CR1, PWR_CR1_DBP);
 8004708:	4bb8      	ldr	r3, [pc, #736]	@ (80049ec <HAL_RCCEx_PeriphCLKConfig+0x340>)
 800470a:	681a      	ldr	r2, [r3, #0]
 800470c:	4bb7      	ldr	r3, [pc, #732]	@ (80049ec <HAL_RCCEx_PeriphCLKConfig+0x340>)
 800470e:	2180      	movs	r1, #128	@ 0x80
 8004710:	0049      	lsls	r1, r1, #1
 8004712:	430a      	orrs	r2, r1
 8004714:	601a      	str	r2, [r3, #0]

    /* Wait for Backup domain Write protection disable */
    tickstart = HAL_GetTick();
 8004716:	f7fe f8cd 	bl	80028b4 <HAL_GetTick>
 800471a:	0003      	movs	r3, r0
 800471c:	60fb      	str	r3, [r7, #12]

    while ((PWR->CR1 & PWR_CR1_DBP) == 0U)
 800471e:	e00b      	b.n	8004738 <HAL_RCCEx_PeriphCLKConfig+0x8c>
    {
      if ((HAL_GetTick() - tickstart) > RCC_DBP_TIMEOUT_VALUE)
 8004720:	f7fe f8c8 	bl	80028b4 <HAL_GetTick>
 8004724:	0002      	movs	r2, r0
 8004726:	68fb      	ldr	r3, [r7, #12]
 8004728:	1ad3      	subs	r3, r2, r3
 800472a:	2b02      	cmp	r3, #2
 800472c:	d904      	bls.n	8004738 <HAL_RCCEx_PeriphCLKConfig+0x8c>
      {
        ret = HAL_TIMEOUT;
 800472e:	2313      	movs	r3, #19
 8004730:	18fb      	adds	r3, r7, r3
 8004732:	2203      	movs	r2, #3
 8004734:	701a      	strb	r2, [r3, #0]
        break;
 8004736:	e005      	b.n	8004744 <HAL_RCCEx_PeriphCLKConfig+0x98>
    while ((PWR->CR1 & PWR_CR1_DBP) == 0U)
 8004738:	4bac      	ldr	r3, [pc, #688]	@ (80049ec <HAL_RCCEx_PeriphCLKConfig+0x340>)
 800473a:	681a      	ldr	r2, [r3, #0]
 800473c:	2380      	movs	r3, #128	@ 0x80
 800473e:	005b      	lsls	r3, r3, #1
 8004740:	4013      	ands	r3, r2
 8004742:	d0ed      	beq.n	8004720 <HAL_RCCEx_PeriphCLKConfig+0x74>
      }
    }

    if (ret == HAL_OK)
 8004744:	2313      	movs	r3, #19
 8004746:	18fb      	adds	r3, r7, r3
 8004748:	781b      	ldrb	r3, [r3, #0]
 800474a:	2b00      	cmp	r3, #0
 800474c:	d154      	bne.n	80047f8 <HAL_RCCEx_PeriphCLKConfig+0x14c>
    {
      /* Reset the Backup domain only if the RTC Clock source selection is modified from default */
      tmpregister = READ_BIT(RCC->BDCR, RCC_BDCR_RTCSEL);
 800474e:	4ba6      	ldr	r3, [pc, #664]	@ (80049e8 <HAL_RCCEx_PeriphCLKConfig+0x33c>)
 8004750:	6dda      	ldr	r2, [r3, #92]	@ 0x5c
 8004752:	23c0      	movs	r3, #192	@ 0xc0
 8004754:	009b      	lsls	r3, r3, #2
 8004756:	4013      	ands	r3, r2
 8004758:	617b      	str	r3, [r7, #20]

      /* Reset the Backup domain only if the RTC Clock source selection is modified */
      if ((tmpregister != RCC_RTCCLKSOURCE_NONE) && (tmpregister != PeriphClkInit->RTCClockSelection))
 800475a:	697b      	ldr	r3, [r7, #20]
 800475c:	2b00      	cmp	r3, #0
 800475e:	d019      	beq.n	8004794 <HAL_RCCEx_PeriphCLKConfig+0xe8>
 8004760:	687b      	ldr	r3, [r7, #4]
 8004762:	6b1b      	ldr	r3, [r3, #48]	@ 0x30
 8004764:	697a      	ldr	r2, [r7, #20]
 8004766:	429a      	cmp	r2, r3
 8004768:	d014      	beq.n	8004794 <HAL_RCCEx_PeriphCLKConfig+0xe8>
      {
        /* Store the content of BDCR register before the reset of Backup Domain */
        tmpregister = READ_BIT(RCC->BDCR, ~(RCC_BDCR_RTCSEL));
 800476a:	4b9f      	ldr	r3, [pc, #636]	@ (80049e8 <HAL_RCCEx_PeriphCLKConfig+0x33c>)
 800476c:	6ddb      	ldr	r3, [r3, #92]	@ 0x5c
 800476e:	4aa0      	ldr	r2, [pc, #640]	@ (80049f0 <HAL_RCCEx_PeriphCLKConfig+0x344>)
 8004770:	4013      	ands	r3, r2
 8004772:	617b      	str	r3, [r7, #20]
        /* RTC Clock selection can be changed only if the Backup Domain is reset */
        __HAL_RCC_BACKUPRESET_FORCE();
 8004774:	4b9c      	ldr	r3, [pc, #624]	@ (80049e8 <HAL_RCCEx_PeriphCLKConfig+0x33c>)
 8004776:	6dda      	ldr	r2, [r3, #92]	@ 0x5c
 8004778:	4b9b      	ldr	r3, [pc, #620]	@ (80049e8 <HAL_RCCEx_PeriphCLKConfig+0x33c>)
 800477a:	2180      	movs	r1, #128	@ 0x80
 800477c:	0249      	lsls	r1, r1, #9
 800477e:	430a      	orrs	r2, r1
 8004780:	65da      	str	r2, [r3, #92]	@ 0x5c
        __HAL_RCC_BACKUPRESET_RELEASE();
 8004782:	4b99      	ldr	r3, [pc, #612]	@ (80049e8 <HAL_RCCEx_PeriphCLKConfig+0x33c>)
 8004784:	6dda      	ldr	r2, [r3, #92]	@ 0x5c
 8004786:	4b98      	ldr	r3, [pc, #608]	@ (80049e8 <HAL_RCCEx_PeriphCLKConfig+0x33c>)
 8004788:	499a      	ldr	r1, [pc, #616]	@ (80049f4 <HAL_RCCEx_PeriphCLKConfig+0x348>)
 800478a:	400a      	ands	r2, r1
 800478c:	65da      	str	r2, [r3, #92]	@ 0x5c
        /* Restore the Content of BDCR register */
        RCC->BDCR = tmpregister;
 800478e:	4b96      	ldr	r3, [pc, #600]	@ (80049e8 <HAL_RCCEx_PeriphCLKConfig+0x33c>)
 8004790:	697a      	ldr	r2, [r7, #20]
 8004792:	65da      	str	r2, [r3, #92]	@ 0x5c
      }

      /* Wait for LSE reactivation if LSE was enable prior to Backup Domain reset */
      if (HAL_IS_BIT_SET(tmpregister, RCC_BDCR_LSEON))
 8004794:	697b      	ldr	r3, [r7, #20]
 8004796:	2201      	movs	r2, #1
 8004798:	4013      	ands	r3, r2
 800479a:	d016      	beq.n	80047ca <HAL_RCCEx_PeriphCLKConfig+0x11e>
      {
        /* Get Start Tick*/
        tickstart = HAL_GetTick();
 800479c:	f7fe f88a 	bl	80028b4 <HAL_GetTick>
 80047a0:	0003      	movs	r3, r0
 80047a2:	60fb      	str	r3, [r7, #12]

        /* Wait till LSE is ready */
        while (READ_BIT(RCC->BDCR, RCC_BDCR_LSERDY) == 0U)
 80047a4:	e00c      	b.n	80047c0 <HAL_RCCEx_PeriphCLKConfig+0x114>
        {
          if ((HAL_GetTick() - tickstart) > RCC_LSE_TIMEOUT_VALUE)
 80047a6:	f7fe f885 	bl	80028b4 <HAL_GetTick>
 80047aa:	0002      	movs	r2, r0
 80047ac:	68fb      	ldr	r3, [r7, #12]
 80047ae:	1ad3      	subs	r3, r2, r3
 80047b0:	4a91      	ldr	r2, [pc, #580]	@ (80049f8 <HAL_RCCEx_PeriphCLKConfig+0x34c>)
 80047b2:	4293      	cmp	r3, r2
 80047b4:	d904      	bls.n	80047c0 <HAL_RCCEx_PeriphCLKConfig+0x114>
          {
            ret = HAL_TIMEOUT;
 80047b6:	2313      	movs	r3, #19
 80047b8:	18fb      	adds	r3, r7, r3
 80047ba:	2203      	movs	r2, #3
 80047bc:	701a      	strb	r2, [r3, #0]
            break;
 80047be:	e004      	b.n	80047ca <HAL_RCCEx_PeriphCLKConfig+0x11e>
        while (READ_BIT(RCC->BDCR, RCC_BDCR_LSERDY) == 0U)
 80047c0:	4b89      	ldr	r3, [pc, #548]	@ (80049e8 <HAL_RCCEx_PeriphCLKConfig+0x33c>)
 80047c2:	6ddb      	ldr	r3, [r3, #92]	@ 0x5c
 80047c4:	2202      	movs	r2, #2
 80047c6:	4013      	ands	r3, r2
 80047c8:	d0ed      	beq.n	80047a6 <HAL_RCCEx_PeriphCLKConfig+0xfa>
          }
        }
      }

      if (ret == HAL_OK)
 80047ca:	2313      	movs	r3, #19
 80047cc:	18fb      	adds	r3, r7, r3
 80047ce:	781b      	ldrb	r3, [r3, #0]
 80047d0:	2b00      	cmp	r3, #0
 80047d2:	d10a      	bne.n	80047ea <HAL_RCCEx_PeriphCLKConfig+0x13e>
      {
        /* Apply new RTC clock source selection */
        __HAL_RCC_RTC_CONFIG(PeriphClkInit->RTCClockSelection);
 80047d4:	4b84      	ldr	r3, [pc, #528]	@ (80049e8 <HAL_RCCEx_PeriphCLKConfig+0x33c>)
 80047d6:	6ddb      	ldr	r3, [r3, #92]	@ 0x5c
 80047d8:	4a85      	ldr	r2, [pc, #532]	@ (80049f0 <HAL_RCCEx_PeriphCLKConfig+0x344>)
 80047da:	4013      	ands	r3, r2
 80047dc:	0019      	movs	r1, r3
 80047de:	687b      	ldr	r3, [r7, #4]
 80047e0:	6b1a      	ldr	r2, [r3, #48]	@ 0x30
 80047e2:	4b81      	ldr	r3, [pc, #516]	@ (80049e8 <HAL_RCCEx_PeriphCLKConfig+0x33c>)
 80047e4:	430a      	orrs	r2, r1
 80047e6:	65da      	str	r2, [r3, #92]	@ 0x5c
 80047e8:	e00c      	b.n	8004804 <HAL_RCCEx_PeriphCLKConfig+0x158>
      }
      else
      {
        /* set overall return value */
        status = ret;
 80047ea:	2312      	movs	r3, #18
 80047ec:	18fb      	adds	r3, r7, r3
 80047ee:	2213      	movs	r2, #19
 80047f0:	18ba      	adds	r2, r7, r2
 80047f2:	7812      	ldrb	r2, [r2, #0]
 80047f4:	701a      	strb	r2, [r3, #0]
 80047f6:	e005      	b.n	8004804 <HAL_RCCEx_PeriphCLKConfig+0x158>
      }
    }
    else
    {
      /* set overall return value */
      status = ret;
 80047f8:	2312      	movs	r3, #18
 80047fa:	18fb      	adds	r3, r7, r3
 80047fc:	2213      	movs	r2, #19
 80047fe:	18ba      	adds	r2, r7, r2
 8004800:	7812      	ldrb	r2, [r2, #0]
 8004802:	701a      	strb	r2, [r3, #0]
    }

    /* Restore clock configuration if changed */
    if (pwrclkchanged == SET)
 8004804:	2311      	movs	r3, #17
 8004806:	18fb      	adds	r3, r7, r3
 8004808:	781b      	ldrb	r3, [r3, #0]
 800480a:	2b01      	cmp	r3, #1
 800480c:	d105      	bne.n	800481a <HAL_RCCEx_PeriphCLKConfig+0x16e>
    {
      __HAL_RCC_PWR_CLK_DISABLE();
 800480e:	4b76      	ldr	r3, [pc, #472]	@ (80049e8 <HAL_RCCEx_PeriphCLKConfig+0x33c>)
 8004810:	6bda      	ldr	r2, [r3, #60]	@ 0x3c
 8004812:	4b75      	ldr	r3, [pc, #468]	@ (80049e8 <HAL_RCCEx_PeriphCLKConfig+0x33c>)
 8004814:	4979      	ldr	r1, [pc, #484]	@ (80049fc <HAL_RCCEx_PeriphCLKConfig+0x350>)
 8004816:	400a      	ands	r2, r1
 8004818:	63da      	str	r2, [r3, #60]	@ 0x3c
    }
  }

  /*-------------------------- USART1 clock source configuration -------------------*/
  if (((PeriphClkInit->PeriphClockSelection) & RCC_PERIPHCLK_USART1) == RCC_PERIPHCLK_USART1)
 800481a:	687b      	ldr	r3, [r7, #4]
 800481c:	681b      	ldr	r3, [r3, #0]
 800481e:	2201      	movs	r2, #1
 8004820:	4013      	ands	r3, r2
 8004822:	d009      	beq.n	8004838 <HAL_RCCEx_PeriphCLKConfig+0x18c>
  {
    /* Check the parameters */
    assert_param(IS_RCC_USART1CLKSOURCE(PeriphClkInit->Usart1ClockSelection));

    /* Configure the USART1 clock source */
    __HAL_RCC_USART1_CONFIG(PeriphClkInit->Usart1ClockSelection);
 8004824:	4b70      	ldr	r3, [pc, #448]	@ (80049e8 <HAL_RCCEx_PeriphCLKConfig+0x33c>)
 8004826:	6d5b      	ldr	r3, [r3, #84]	@ 0x54
 8004828:	2203      	movs	r2, #3
 800482a:	4393      	bics	r3, r2
 800482c:	0019      	movs	r1, r3
 800482e:	687b      	ldr	r3, [r7, #4]
 8004830:	685a      	ldr	r2, [r3, #4]
 8004832:	4b6d      	ldr	r3, [pc, #436]	@ (80049e8 <HAL_RCCEx_PeriphCLKConfig+0x33c>)
 8004834:	430a      	orrs	r2, r1
 8004836:	655a      	str	r2, [r3, #84]	@ 0x54
  }

#if defined(RCC_CCIPR_USART2SEL)
  /*-------------------------- USART2 clock source configuration -------------------*/
  if (((PeriphClkInit->PeriphClockSelection) & RCC_PERIPHCLK_USART2) == RCC_PERIPHCLK_USART2)
 8004838:	687b      	ldr	r3, [r7, #4]
 800483a:	681b      	ldr	r3, [r3, #0]
 800483c:	2202      	movs	r2, #2
 800483e:	4013      	ands	r3, r2
 8004840:	d009      	beq.n	8004856 <HAL_RCCEx_PeriphCLKConfig+0x1aa>
  {
    /* Check the parameters */
    assert_param(IS_RCC_USART2CLKSOURCE(PeriphClkInit->Usart2ClockSelection));

    /* Configure the USART2 clock source */
    __HAL_RCC_USART2_CONFIG(PeriphClkInit->Usart2ClockSelection);
 8004842:	4b69      	ldr	r3, [pc, #420]	@ (80049e8 <HAL_RCCEx_PeriphCLKConfig+0x33c>)
 8004844:	6d5b      	ldr	r3, [r3, #84]	@ 0x54
 8004846:	220c      	movs	r2, #12
 8004848:	4393      	bics	r3, r2
 800484a:	0019      	movs	r1, r3
 800484c:	687b      	ldr	r3, [r7, #4]
 800484e:	689a      	ldr	r2, [r3, #8]
 8004850:	4b65      	ldr	r3, [pc, #404]	@ (80049e8 <HAL_RCCEx_PeriphCLKConfig+0x33c>)
 8004852:	430a      	orrs	r2, r1
 8004854:	655a      	str	r2, [r3, #84]	@ 0x54
  }
#endif /* RCC_CCIPR_USART3SEL */

#if defined(LPUART1)
  /*-------------------------- LPUART1 clock source configuration ------------------*/
  if (((PeriphClkInit->PeriphClockSelection) & RCC_PERIPHCLK_LPUART1) == RCC_PERIPHCLK_LPUART1)
 8004856:	687b      	ldr	r3, [r7, #4]
 8004858:	681b      	ldr	r3, [r3, #0]
 800485a:	2210      	movs	r2, #16
 800485c:	4013      	ands	r3, r2
 800485e:	d009      	beq.n	8004874 <HAL_RCCEx_PeriphCLKConfig+0x1c8>
  {
    /* Check the parameters */
    assert_param(IS_RCC_LPUART1CLKSOURCE(PeriphClkInit->Lpuart1ClockSelection));

    /* Configure the LPUART1 clock source */
    __HAL_RCC_LPUART1_CONFIG(PeriphClkInit->Lpuart1ClockSelection);
 8004860:	4b61      	ldr	r3, [pc, #388]	@ (80049e8 <HAL_RCCEx_PeriphCLKConfig+0x33c>)
 8004862:	6d5b      	ldr	r3, [r3, #84]	@ 0x54
 8004864:	4a66      	ldr	r2, [pc, #408]	@ (8004a00 <HAL_RCCEx_PeriphCLKConfig+0x354>)
 8004866:	4013      	ands	r3, r2
 8004868:	0019      	movs	r1, r3
 800486a:	687b      	ldr	r3, [r7, #4]
 800486c:	68da      	ldr	r2, [r3, #12]
 800486e:	4b5e      	ldr	r3, [pc, #376]	@ (80049e8 <HAL_RCCEx_PeriphCLKConfig+0x33c>)
 8004870:	430a      	orrs	r2, r1
 8004872:	655a      	str	r2, [r3, #84]	@ 0x54
  }
#endif /* LPUART2 */

#if defined(RCC_CCIPR_LPTIM1SEL)
  /*-------------------------- LPTIM1 clock source configuration -------------------*/
  if (((PeriphClkInit->PeriphClockSelection) & RCC_PERIPHCLK_LPTIM1) == (RCC_PERIPHCLK_LPTIM1))
 8004874:	687b      	ldr	r3, [r7, #4]
 8004876:	681a      	ldr	r2, [r3, #0]
 8004878:	2380      	movs	r3, #128	@ 0x80
 800487a:	009b      	lsls	r3, r3, #2
 800487c:	4013      	ands	r3, r2
 800487e:	d009      	beq.n	8004894 <HAL_RCCEx_PeriphCLKConfig+0x1e8>
  {
    assert_param(IS_RCC_LPTIM1CLKSOURCE(PeriphClkInit->Lptim1ClockSelection));
    __HAL_RCC_LPTIM1_CONFIG(PeriphClkInit->Lptim1ClockSelection);
 8004880:	4b59      	ldr	r3, [pc, #356]	@ (80049e8 <HAL_RCCEx_PeriphCLKConfig+0x33c>)
 8004882:	6d5b      	ldr	r3, [r3, #84]	@ 0x54
 8004884:	4a5f      	ldr	r2, [pc, #380]	@ (8004a04 <HAL_RCCEx_PeriphCLKConfig+0x358>)
 8004886:	4013      	ands	r3, r2
 8004888:	0019      	movs	r1, r3
 800488a:	687b      	ldr	r3, [r7, #4]
 800488c:	699a      	ldr	r2, [r3, #24]
 800488e:	4b56      	ldr	r3, [pc, #344]	@ (80049e8 <HAL_RCCEx_PeriphCLKConfig+0x33c>)
 8004890:	430a      	orrs	r2, r1
 8004892:	655a      	str	r2, [r3, #84]	@ 0x54
  }
#endif /* RCC_CCIPR_LPTIM1SEL */

#if defined(RCC_CCIPR_LPTIM2SEL)
  /*-------------------------- LPTIM2 clock source configuration -------------------*/
  if (((PeriphClkInit->PeriphClockSelection) & RCC_PERIPHCLK_LPTIM2) == (RCC_PERIPHCLK_LPTIM2))
 8004894:	687b      	ldr	r3, [r7, #4]
 8004896:	681a      	ldr	r2, [r3, #0]
 8004898:	2380      	movs	r3, #128	@ 0x80
 800489a:	00db      	lsls	r3, r3, #3
 800489c:	4013      	ands	r3, r2
 800489e:	d009      	beq.n	80048b4 <HAL_RCCEx_PeriphCLKConfig+0x208>
  {
    assert_param(IS_RCC_LPTIM2CLKSOURCE(PeriphClkInit->Lptim2ClockSelection));
    __HAL_RCC_LPTIM2_CONFIG(PeriphClkInit->Lptim2ClockSelection);
 80048a0:	4b51      	ldr	r3, [pc, #324]	@ (80049e8 <HAL_RCCEx_PeriphCLKConfig+0x33c>)
 80048a2:	6d5b      	ldr	r3, [r3, #84]	@ 0x54
 80048a4:	4a58      	ldr	r2, [pc, #352]	@ (8004a08 <HAL_RCCEx_PeriphCLKConfig+0x35c>)
 80048a6:	4013      	ands	r3, r2
 80048a8:	0019      	movs	r1, r3
 80048aa:	687b      	ldr	r3, [r7, #4]
 80048ac:	69da      	ldr	r2, [r3, #28]
 80048ae:	4b4e      	ldr	r3, [pc, #312]	@ (80049e8 <HAL_RCCEx_PeriphCLKConfig+0x33c>)
 80048b0:	430a      	orrs	r2, r1
 80048b2:	655a      	str	r2, [r3, #84]	@ 0x54
  }
#endif /* RCC_CCIPR_LPTIM2SEL */

  /*-------------------------- I2C1 clock source configuration ---------------------*/
  if (((PeriphClkInit->PeriphClockSelection) & RCC_PERIPHCLK_I2C1) == RCC_PERIPHCLK_I2C1)
 80048b4:	687b      	ldr	r3, [r7, #4]
 80048b6:	681b      	ldr	r3, [r3, #0]
 80048b8:	2220      	movs	r2, #32
 80048ba:	4013      	ands	r3, r2
 80048bc:	d009      	beq.n	80048d2 <HAL_RCCEx_PeriphCLKConfig+0x226>
  {
    /* Check the parameters */
    assert_param(IS_RCC_I2C1CLKSOURCE(PeriphClkInit->I2c1ClockSelection));

    /* Configure the I2C1 clock source */
    __HAL_RCC_I2C1_CONFIG(PeriphClkInit->I2c1ClockSelection);
 80048be:	4b4a      	ldr	r3, [pc, #296]	@ (80049e8 <HAL_RCCEx_PeriphCLKConfig+0x33c>)
 80048c0:	6d5b      	ldr	r3, [r3, #84]	@ 0x54
 80048c2:	4a52      	ldr	r2, [pc, #328]	@ (8004a0c <HAL_RCCEx_PeriphCLKConfig+0x360>)
 80048c4:	4013      	ands	r3, r2
 80048c6:	0019      	movs	r1, r3
 80048c8:	687b      	ldr	r3, [r7, #4]
 80048ca:	691a      	ldr	r2, [r3, #16]
 80048cc:	4b46      	ldr	r3, [pc, #280]	@ (80049e8 <HAL_RCCEx_PeriphCLKConfig+0x33c>)
 80048ce:	430a      	orrs	r2, r1
 80048d0:	655a      	str	r2, [r3, #84]	@ 0x54
      __HAL_RCC_PLLCLKOUT_ENABLE(RCC_PLLQCLK);
    }
  }
#endif /* RNG */
  /*-------------------------- ADC clock source configuration ----------------------*/
  if (((PeriphClkInit->PeriphClockSelection) & RCC_PERIPHCLK_ADC) == RCC_PERIPHCLK_ADC)
 80048d2:	687b      	ldr	r3, [r7, #4]
 80048d4:	681a      	ldr	r2, [r3, #0]
 80048d6:	2380      	movs	r3, #128	@ 0x80
 80048d8:	01db      	lsls	r3, r3, #7
 80048da:	4013      	ands	r3, r2
 80048dc:	d015      	beq.n	800490a <HAL_RCCEx_PeriphCLKConfig+0x25e>
  {
    /* Check the parameters */
    assert_param(IS_RCC_ADCCLKSOURCE(PeriphClkInit->AdcClockSelection));

    /* Configure the ADC interface clock source */
    __HAL_RCC_ADC_CONFIG(PeriphClkInit->AdcClockSelection);
 80048de:	4b42      	ldr	r3, [pc, #264]	@ (80049e8 <HAL_RCCEx_PeriphCLKConfig+0x33c>)
 80048e0:	6d5b      	ldr	r3, [r3, #84]	@ 0x54
 80048e2:	009b      	lsls	r3, r3, #2
 80048e4:	0899      	lsrs	r1, r3, #2
 80048e6:	687b      	ldr	r3, [r7, #4]
 80048e8:	6a1a      	ldr	r2, [r3, #32]
 80048ea:	4b3f      	ldr	r3, [pc, #252]	@ (80049e8 <HAL_RCCEx_PeriphCLKConfig+0x33c>)
 80048ec:	430a      	orrs	r2, r1
 80048ee:	655a      	str	r2, [r3, #84]	@ 0x54

    if (PeriphClkInit->AdcClockSelection == RCC_ADCCLKSOURCE_PLLADC)
 80048f0:	687b      	ldr	r3, [r7, #4]
 80048f2:	6a1a      	ldr	r2, [r3, #32]
 80048f4:	2380      	movs	r3, #128	@ 0x80
 80048f6:	05db      	lsls	r3, r3, #23
 80048f8:	429a      	cmp	r2, r3
 80048fa:	d106      	bne.n	800490a <HAL_RCCEx_PeriphCLKConfig+0x25e>
    {
      /* Enable PLLPCLK output */
      __HAL_RCC_PLLCLKOUT_ENABLE(RCC_PLLPCLK);
 80048fc:	4b3a      	ldr	r3, [pc, #232]	@ (80049e8 <HAL_RCCEx_PeriphCLKConfig+0x33c>)
 80048fe:	68da      	ldr	r2, [r3, #12]
 8004900:	4b39      	ldr	r3, [pc, #228]	@ (80049e8 <HAL_RCCEx_PeriphCLKConfig+0x33c>)
 8004902:	2180      	movs	r1, #128	@ 0x80
 8004904:	0249      	lsls	r1, r1, #9
 8004906:	430a      	orrs	r2, r1
 8004908:	60da      	str	r2, [r3, #12]
    }
  }

#if defined(CEC)
  /*-------------------------- CEC clock source configuration ---------------------*/
  if (((PeriphClkInit->PeriphClockSelection) & RCC_PERIPHCLK_CEC) == RCC_PERIPHCLK_CEC)
 800490a:	687b      	ldr	r3, [r7, #4]
 800490c:	681a      	ldr	r2, [r3, #0]
 800490e:	2380      	movs	r3, #128	@ 0x80
 8004910:	031b      	lsls	r3, r3, #12
 8004912:	4013      	ands	r3, r2
 8004914:	d009      	beq.n	800492a <HAL_RCCEx_PeriphCLKConfig+0x27e>
  {
    /* Check the parameters */
    assert_param(IS_RCC_CECCLKSOURCE(PeriphClkInit->CecClockSelection));

    /* Configure the CEC clock source */
    __HAL_RCC_CEC_CONFIG(PeriphClkInit->CecClockSelection);
 8004916:	4b34      	ldr	r3, [pc, #208]	@ (80049e8 <HAL_RCCEx_PeriphCLKConfig+0x33c>)
 8004918:	6d5b      	ldr	r3, [r3, #84]	@ 0x54
 800491a:	2240      	movs	r2, #64	@ 0x40
 800491c:	4393      	bics	r3, r2
 800491e:	0019      	movs	r1, r3
 8004920:	687b      	ldr	r3, [r7, #4]
 8004922:	6a5a      	ldr	r2, [r3, #36]	@ 0x24
 8004924:	4b30      	ldr	r3, [pc, #192]	@ (80049e8 <HAL_RCCEx_PeriphCLKConfig+0x33c>)
 8004926:	430a      	orrs	r2, r1
 8004928:	655a      	str	r2, [r3, #84]	@ 0x54
  }
#endif /* CEC */

#if defined(RCC_CCIPR_TIM1SEL)
  /*-------------------------- TIM1 clock source configuration ---------------------*/
  if (((PeriphClkInit->PeriphClockSelection) & RCC_PERIPHCLK_TIM1) == RCC_PERIPHCLK_TIM1)
 800492a:	687b      	ldr	r3, [r7, #4]
 800492c:	681a      	ldr	r2, [r3, #0]
 800492e:	2380      	movs	r3, #128	@ 0x80
 8004930:	039b      	lsls	r3, r3, #14
 8004932:	4013      	ands	r3, r2
 8004934:	d016      	beq.n	8004964 <HAL_RCCEx_PeriphCLKConfig+0x2b8>
  {
    /* Check the parameters */
    assert_param(IS_RCC_TIM1CLKSOURCE(PeriphClkInit->Tim1ClockSelection));

    /* Configure the TIM1 clock source */
    __HAL_RCC_TIM1_CONFIG(PeriphClkInit->Tim1ClockSelection);
 8004936:	4b2c      	ldr	r3, [pc, #176]	@ (80049e8 <HAL_RCCEx_PeriphCLKConfig+0x33c>)
 8004938:	6d5b      	ldr	r3, [r3, #84]	@ 0x54
 800493a:	4a35      	ldr	r2, [pc, #212]	@ (8004a10 <HAL_RCCEx_PeriphCLKConfig+0x364>)
 800493c:	4013      	ands	r3, r2
 800493e:	0019      	movs	r1, r3
 8004940:	687b      	ldr	r3, [r7, #4]
 8004942:	6a9a      	ldr	r2, [r3, #40]	@ 0x28
 8004944:	4b28      	ldr	r3, [pc, #160]	@ (80049e8 <HAL_RCCEx_PeriphCLKConfig+0x33c>)
 8004946:	430a      	orrs	r2, r1
 8004948:	655a      	str	r2, [r3, #84]	@ 0x54

    if (PeriphClkInit->Tim1ClockSelection == RCC_TIM1CLKSOURCE_PLL)
 800494a:	687b      	ldr	r3, [r7, #4]
 800494c:	6a9a      	ldr	r2, [r3, #40]	@ 0x28
 800494e:	2380      	movs	r3, #128	@ 0x80
 8004950:	03db      	lsls	r3, r3, #15
 8004952:	429a      	cmp	r2, r3
 8004954:	d106      	bne.n	8004964 <HAL_RCCEx_PeriphCLKConfig+0x2b8>
    {
      /* Enable PLLQCLK output */
      __HAL_RCC_PLLCLKOUT_ENABLE(RCC_PLLQCLK);
 8004956:	4b24      	ldr	r3, [pc, #144]	@ (80049e8 <HAL_RCCEx_PeriphCLKConfig+0x33c>)
 8004958:	68da      	ldr	r2, [r3, #12]
 800495a:	4b23      	ldr	r3, [pc, #140]	@ (80049e8 <HAL_RCCEx_PeriphCLKConfig+0x33c>)
 800495c:	2180      	movs	r1, #128	@ 0x80
 800495e:	0449      	lsls	r1, r1, #17
 8004960:	430a      	orrs	r2, r1
 8004962:	60da      	str	r2, [r3, #12]
  }
#endif /* RCC_CCIPR_TIM1SEL */

#if defined(RCC_CCIPR_TIM15SEL)
  /*-------------------------- TIM15 clock source configuration ---------------------*/
  if (((PeriphClkInit->PeriphClockSelection) & RCC_PERIPHCLK_TIM15) == RCC_PERIPHCLK_TIM15)
 8004964:	687b      	ldr	r3, [r7, #4]
 8004966:	681a      	ldr	r2, [r3, #0]
 8004968:	2380      	movs	r3, #128	@ 0x80
 800496a:	03db      	lsls	r3, r3, #15
 800496c:	4013      	ands	r3, r2
 800496e:	d016      	beq.n	800499e <HAL_RCCEx_PeriphCLKConfig+0x2f2>
  {
    /* Check the parameters */
    assert_param(IS_RCC_TIM15CLKSOURCE(PeriphClkInit->Tim15ClockSelection));

    /* Configure the TIM15 clock source */
    __HAL_RCC_TIM15_CONFIG(PeriphClkInit->Tim15ClockSelection);
 8004970:	4b1d      	ldr	r3, [pc, #116]	@ (80049e8 <HAL_RCCEx_PeriphCLKConfig+0x33c>)
 8004972:	6d5b      	ldr	r3, [r3, #84]	@ 0x54
 8004974:	4a27      	ldr	r2, [pc, #156]	@ (8004a14 <HAL_RCCEx_PeriphCLKConfig+0x368>)
 8004976:	4013      	ands	r3, r2
 8004978:	0019      	movs	r1, r3
 800497a:	687b      	ldr	r3, [r7, #4]
 800497c:	6ada      	ldr	r2, [r3, #44]	@ 0x2c
 800497e:	4b1a      	ldr	r3, [pc, #104]	@ (80049e8 <HAL_RCCEx_PeriphCLKConfig+0x33c>)
 8004980:	430a      	orrs	r2, r1
 8004982:	655a      	str	r2, [r3, #84]	@ 0x54

    if (PeriphClkInit->Tim15ClockSelection == RCC_TIM15CLKSOURCE_PLL)
 8004984:	687b      	ldr	r3, [r7, #4]
 8004986:	6ada      	ldr	r2, [r3, #44]	@ 0x2c
 8004988:	2380      	movs	r3, #128	@ 0x80
 800498a:	045b      	lsls	r3, r3, #17
 800498c:	429a      	cmp	r2, r3
 800498e:	d106      	bne.n	800499e <HAL_RCCEx_PeriphCLKConfig+0x2f2>
    {
      /* Enable PLLQCLK output */
      __HAL_RCC_PLLCLKOUT_ENABLE(RCC_PLLQCLK);
 8004990:	4b15      	ldr	r3, [pc, #84]	@ (80049e8 <HAL_RCCEx_PeriphCLKConfig+0x33c>)
 8004992:	68da      	ldr	r2, [r3, #12]
 8004994:	4b14      	ldr	r3, [pc, #80]	@ (80049e8 <HAL_RCCEx_PeriphCLKConfig+0x33c>)
 8004996:	2180      	movs	r1, #128	@ 0x80
 8004998:	0449      	lsls	r1, r1, #17
 800499a:	430a      	orrs	r2, r1
 800499c:	60da      	str	r2, [r3, #12]
    }
  }
#endif /* RCC_CCIPR_TIM15SEL */

  /*-------------------------- I2S1 clock source configuration ---------------------*/
  if (((PeriphClkInit->PeriphClockSelection) & RCC_PERIPHCLK_I2S1) == RCC_PERIPHCLK_I2S1)
 800499e:	687b      	ldr	r3, [r7, #4]
 80049a0:	681a      	ldr	r2, [r3, #0]
 80049a2:	2380      	movs	r3, #128	@ 0x80
 80049a4:	011b      	lsls	r3, r3, #4
 80049a6:	4013      	ands	r3, r2
 80049a8:	d016      	beq.n	80049d8 <HAL_RCCEx_PeriphCLKConfig+0x32c>
  {
    /* Check the parameters */
    assert_param(IS_RCC_I2S1CLKSOURCE(PeriphClkInit->I2s1ClockSelection));

    /* Configure the I2S1 clock source */
    __HAL_RCC_I2S1_CONFIG(PeriphClkInit->I2s1ClockSelection);
 80049aa:	4b0f      	ldr	r3, [pc, #60]	@ (80049e8 <HAL_RCCEx_PeriphCLKConfig+0x33c>)
 80049ac:	6d5b      	ldr	r3, [r3, #84]	@ 0x54
 80049ae:	4a1a      	ldr	r2, [pc, #104]	@ (8004a18 <HAL_RCCEx_PeriphCLKConfig+0x36c>)
 80049b0:	4013      	ands	r3, r2
 80049b2:	0019      	movs	r1, r3
 80049b4:	687b      	ldr	r3, [r7, #4]
 80049b6:	695a      	ldr	r2, [r3, #20]
 80049b8:	4b0b      	ldr	r3, [pc, #44]	@ (80049e8 <HAL_RCCEx_PeriphCLKConfig+0x33c>)
 80049ba:	430a      	orrs	r2, r1
 80049bc:	655a      	str	r2, [r3, #84]	@ 0x54

    if (PeriphClkInit->I2s1ClockSelection == RCC_I2S1CLKSOURCE_PLL)
 80049be:	687b      	ldr	r3, [r7, #4]
 80049c0:	695a      	ldr	r2, [r3, #20]
 80049c2:	2380      	movs	r3, #128	@ 0x80
 80049c4:	01db      	lsls	r3, r3, #7
 80049c6:	429a      	cmp	r2, r3
 80049c8:	d106      	bne.n	80049d8 <HAL_RCCEx_PeriphCLKConfig+0x32c>
    {
      /* Enable PLLPCLK output */
      __HAL_RCC_PLLCLKOUT_ENABLE(RCC_PLLPCLK);
 80049ca:	4b07      	ldr	r3, [pc, #28]	@ (80049e8 <HAL_RCCEx_PeriphCLKConfig+0x33c>)
 80049cc:	68da      	ldr	r2, [r3, #12]
 80049ce:	4b06      	ldr	r3, [pc, #24]	@ (80049e8 <HAL_RCCEx_PeriphCLKConfig+0x33c>)
 80049d0:	2180      	movs	r1, #128	@ 0x80
 80049d2:	0249      	lsls	r1, r1, #9
 80049d4:	430a      	orrs	r2, r1
 80049d6:	60da      	str	r2, [r3, #12]
      __HAL_RCC_PLLCLKOUT_ENABLE(RCC_PLLQCLK);
    }
  }
#endif /* FDCAN1 || FDCAN2 */

  return status;
 80049d8:	2312      	movs	r3, #18
 80049da:	18fb      	adds	r3, r7, r3
 80049dc:	781b      	ldrb	r3, [r3, #0]
}
 80049de:	0018      	movs	r0, r3
 80049e0:	46bd      	mov	sp, r7
 80049e2:	b006      	add	sp, #24
 80049e4:	bd80      	pop	{r7, pc}
 80049e6:	46c0      	nop			@ (mov r8, r8)
 80049e8:	40021000 	.word	0x40021000
 80049ec:	40007000 	.word	0x40007000
 80049f0:	fffffcff 	.word	0xfffffcff
 80049f4:	fffeffff 	.word	0xfffeffff
 80049f8:	00001388 	.word	0x00001388
 80049fc:	efffffff 	.word	0xefffffff
 8004a00:	fffff3ff 	.word	0xfffff3ff
 8004a04:	fff3ffff 	.word	0xfff3ffff
 8004a08:	ffcfffff 	.word	0xffcfffff
 8004a0c:	ffffcfff 	.word	0xffffcfff
 8004a10:	ffbfffff 	.word	0xffbfffff
 8004a14:	feffffff 	.word	0xfeffffff
 8004a18:	ffff3fff 	.word	0xffff3fff

08004a1c <HAL_UART_Init>:
  *        parameters in the UART_InitTypeDef and initialize the associated handle.
  * @param huart UART handle.
  * @retval HAL status
  */
HAL_StatusTypeDef HAL_UART_Init(UART_HandleTypeDef *huart)
{
 8004a1c:	b580      	push	{r7, lr}
 8004a1e:	b082      	sub	sp, #8
 8004a20:	af00      	add	r7, sp, #0
 8004a22:	6078      	str	r0, [r7, #4]
  /* Check the UART handle allocation */
  if (huart == NULL)
 8004a24:	687b      	ldr	r3, [r7, #4]
 8004a26:	2b00      	cmp	r3, #0
 8004a28:	d101      	bne.n	8004a2e <HAL_UART_Init+0x12>
  {
    return HAL_ERROR;
 8004a2a:	2301      	movs	r3, #1
 8004a2c:	e046      	b.n	8004abc <HAL_UART_Init+0xa0>
  {
    /* Check the parameters */
    assert_param((IS_UART_INSTANCE(huart->Instance)) || (IS_LPUART_INSTANCE(huart->Instance)));
  }

  if (huart->gState == HAL_UART_STATE_RESET)
 8004a2e:	687b      	ldr	r3, [r7, #4]
 8004a30:	2288      	movs	r2, #136	@ 0x88
 8004a32:	589b      	ldr	r3, [r3, r2]
 8004a34:	2b00      	cmp	r3, #0
 8004a36:	d107      	bne.n	8004a48 <HAL_UART_Init+0x2c>
  {
    /* Allocate lock resource and initialize it */
    huart->Lock = HAL_UNLOCKED;
 8004a38:	687b      	ldr	r3, [r7, #4]
 8004a3a:	2284      	movs	r2, #132	@ 0x84
 8004a3c:	2100      	movs	r1, #0
 8004a3e:	5499      	strb	r1, [r3, r2]

    /* Init the low level hardware */
    huart->MspInitCallback(huart);
#else
    /* Init the low level hardware : GPIO, CLOCK */
    HAL_UART_MspInit(huart);
 8004a40:	687b      	ldr	r3, [r7, #4]
 8004a42:	0018      	movs	r0, r3
 8004a44:	f002 f948 	bl	8006cd8 <HAL_UART_MspInit>
#endif /* (USE_HAL_UART_REGISTER_CALLBACKS) */
  }

  huart->gState = HAL_UART_STATE_BUSY;
 8004a48:	687b      	ldr	r3, [r7, #4]
 8004a4a:	2288      	movs	r2, #136	@ 0x88
 8004a4c:	2124      	movs	r1, #36	@ 0x24
 8004a4e:	5099      	str	r1, [r3, r2]

  __HAL_UART_DISABLE(huart);
 8004a50:	687b      	ldr	r3, [r7, #4]
 8004a52:	681b      	ldr	r3, [r3, #0]
 8004a54:	681a      	ldr	r2, [r3, #0]
 8004a56:	687b      	ldr	r3, [r7, #4]
 8004a58:	681b      	ldr	r3, [r3, #0]
 8004a5a:	2101      	movs	r1, #1
 8004a5c:	438a      	bics	r2, r1
 8004a5e:	601a      	str	r2, [r3, #0]

  /* Perform advanced settings configuration */
  /* For some items, configuration requires to be done prior TE and RE bits are set */
  if (huart->AdvancedInit.AdvFeatureInit != UART_ADVFEATURE_NO_INIT)
 8004a60:	687b      	ldr	r3, [r7, #4]
 8004a62:	6a9b      	ldr	r3, [r3, #40]	@ 0x28
 8004a64:	2b00      	cmp	r3, #0
 8004a66:	d003      	beq.n	8004a70 <HAL_UART_Init+0x54>
  {
    UART_AdvFeatureConfig(huart);
 8004a68:	687b      	ldr	r3, [r7, #4]
 8004a6a:	0018      	movs	r0, r3
 8004a6c:	f000 fbce 	bl	800520c <UART_AdvFeatureConfig>
  }

  /* Set the UART Communication parameters */
  if (UART_SetConfig(huart) == HAL_ERROR)
 8004a70:	687b      	ldr	r3, [r7, #4]
 8004a72:	0018      	movs	r0, r3
 8004a74:	f000 f90c 	bl	8004c90 <UART_SetConfig>
 8004a78:	0003      	movs	r3, r0
 8004a7a:	2b01      	cmp	r3, #1
 8004a7c:	d101      	bne.n	8004a82 <HAL_UART_Init+0x66>
  {
    return HAL_ERROR;
 8004a7e:	2301      	movs	r3, #1
 8004a80:	e01c      	b.n	8004abc <HAL_UART_Init+0xa0>
  }

  /* In asynchronous mode, the following bits must be kept cleared:
  - LINEN and CLKEN bits in the USART_CR2 register,
  - SCEN, HDSEL and IREN  bits in the USART_CR3 register.*/
  CLEAR_BIT(huart->Instance->CR2, (USART_CR2_LINEN | USART_CR2_CLKEN));
 8004a82:	687b      	ldr	r3, [r7, #4]
 8004a84:	681b      	ldr	r3, [r3, #0]
 8004a86:	685a      	ldr	r2, [r3, #4]
 8004a88:	687b      	ldr	r3, [r7, #4]
 8004a8a:	681b      	ldr	r3, [r3, #0]
 8004a8c:	490d      	ldr	r1, [pc, #52]	@ (8004ac4 <HAL_UART_Init+0xa8>)
 8004a8e:	400a      	ands	r2, r1
 8004a90:	605a      	str	r2, [r3, #4]
  CLEAR_BIT(huart->Instance->CR3, (USART_CR3_SCEN | USART_CR3_HDSEL | USART_CR3_IREN));
 8004a92:	687b      	ldr	r3, [r7, #4]
 8004a94:	681b      	ldr	r3, [r3, #0]
 8004a96:	689a      	ldr	r2, [r3, #8]
 8004a98:	687b      	ldr	r3, [r7, #4]
 8004a9a:	681b      	ldr	r3, [r3, #0]
 8004a9c:	212a      	movs	r1, #42	@ 0x2a
 8004a9e:	438a      	bics	r2, r1
 8004aa0:	609a      	str	r2, [r3, #8]

  __HAL_UART_ENABLE(huart);
 8004aa2:	687b      	ldr	r3, [r7, #4]
 8004aa4:	681b      	ldr	r3, [r3, #0]
 8004aa6:	681a      	ldr	r2, [r3, #0]
 8004aa8:	687b      	ldr	r3, [r7, #4]
 8004aaa:	681b      	ldr	r3, [r3, #0]
 8004aac:	2101      	movs	r1, #1
 8004aae:	430a      	orrs	r2, r1
 8004ab0:	601a      	str	r2, [r3, #0]

  /* TEACK and/or REACK to check before moving huart->gState and huart->RxState to Ready */
  return (UART_CheckIdleState(huart));
 8004ab2:	687b      	ldr	r3, [r7, #4]
 8004ab4:	0018      	movs	r0, r3
 8004ab6:	f000 fc5d 	bl	8005374 <UART_CheckIdleState>
 8004aba:	0003      	movs	r3, r0
}
 8004abc:	0018      	movs	r0, r3
 8004abe:	46bd      	mov	sp, r7
 8004ac0:	b002      	add	sp, #8
 8004ac2:	bd80      	pop	{r7, pc}
 8004ac4:	ffffb7ff 	.word	0xffffb7ff

08004ac8 <HAL_UART_DeInit>:
  * @brief DeInitialize the UART peripheral.
  * @param huart UART handle.
  * @retval HAL status
  */
HAL_StatusTypeDef HAL_UART_DeInit(UART_HandleTypeDef *huart)
{
 8004ac8:	b580      	push	{r7, lr}
 8004aca:	b082      	sub	sp, #8
 8004acc:	af00      	add	r7, sp, #0
 8004ace:	6078      	str	r0, [r7, #4]
  /* Check the UART handle allocation */
  if (huart == NULL)
 8004ad0:	687b      	ldr	r3, [r7, #4]
 8004ad2:	2b00      	cmp	r3, #0
 8004ad4:	d101      	bne.n	8004ada <HAL_UART_DeInit+0x12>
  {
    return HAL_ERROR;
 8004ad6:	2301      	movs	r3, #1
 8004ad8:	e032      	b.n	8004b40 <HAL_UART_DeInit+0x78>
  }

  /* Check the parameters */
  assert_param((IS_UART_INSTANCE(huart->Instance)) || (IS_LPUART_INSTANCE(huart->Instance)));

  huart->gState = HAL_UART_STATE_BUSY;
 8004ada:	687b      	ldr	r3, [r7, #4]
 8004adc:	2288      	movs	r2, #136	@ 0x88
 8004ade:	2124      	movs	r1, #36	@ 0x24
 8004ae0:	5099      	str	r1, [r3, r2]

  __HAL_UART_DISABLE(huart);
 8004ae2:	687b      	ldr	r3, [r7, #4]
 8004ae4:	681b      	ldr	r3, [r3, #0]
 8004ae6:	681a      	ldr	r2, [r3, #0]
 8004ae8:	687b      	ldr	r3, [r7, #4]
 8004aea:	681b      	ldr	r3, [r3, #0]
 8004aec:	2101      	movs	r1, #1
 8004aee:	438a      	bics	r2, r1
 8004af0:	601a      	str	r2, [r3, #0]

  huart->Instance->CR1 = 0x0U;
 8004af2:	687b      	ldr	r3, [r7, #4]
 8004af4:	681b      	ldr	r3, [r3, #0]
 8004af6:	2200      	movs	r2, #0
 8004af8:	601a      	str	r2, [r3, #0]
  huart->Instance->CR2 = 0x0U;
 8004afa:	687b      	ldr	r3, [r7, #4]
 8004afc:	681b      	ldr	r3, [r3, #0]
 8004afe:	2200      	movs	r2, #0
 8004b00:	605a      	str	r2, [r3, #4]
  huart->Instance->CR3 = 0x0U;
 8004b02:	687b      	ldr	r3, [r7, #4]
 8004b04:	681b      	ldr	r3, [r3, #0]
 8004b06:	2200      	movs	r2, #0
 8004b08:	609a      	str	r2, [r3, #8]
  }
  /* DeInit the low level hardware */
  huart->MspDeInitCallback(huart);
#else
  /* DeInit the low level hardware */
  HAL_UART_MspDeInit(huart);
 8004b0a:	687b      	ldr	r3, [r7, #4]
 8004b0c:	0018      	movs	r0, r3
 8004b0e:	f002 f98d 	bl	8006e2c <HAL_UART_MspDeInit>
#endif /* (USE_HAL_UART_REGISTER_CALLBACKS) */

  huart->ErrorCode = HAL_UART_ERROR_NONE;
 8004b12:	687b      	ldr	r3, [r7, #4]
 8004b14:	2290      	movs	r2, #144	@ 0x90
 8004b16:	2100      	movs	r1, #0
 8004b18:	5099      	str	r1, [r3, r2]
  huart->gState = HAL_UART_STATE_RESET;
 8004b1a:	687b      	ldr	r3, [r7, #4]
 8004b1c:	2288      	movs	r2, #136	@ 0x88
 8004b1e:	2100      	movs	r1, #0
 8004b20:	5099      	str	r1, [r3, r2]
  huart->RxState = HAL_UART_STATE_RESET;
 8004b22:	687b      	ldr	r3, [r7, #4]
 8004b24:	228c      	movs	r2, #140	@ 0x8c
 8004b26:	2100      	movs	r1, #0
 8004b28:	5099      	str	r1, [r3, r2]
  huart->ReceptionType = HAL_UART_RECEPTION_STANDARD;
 8004b2a:	687b      	ldr	r3, [r7, #4]
 8004b2c:	2200      	movs	r2, #0
 8004b2e:	66da      	str	r2, [r3, #108]	@ 0x6c
  huart->RxEventType = HAL_UART_RXEVENT_TC;
 8004b30:	687b      	ldr	r3, [r7, #4]
 8004b32:	2200      	movs	r2, #0
 8004b34:	671a      	str	r2, [r3, #112]	@ 0x70

  __HAL_UNLOCK(huart);
 8004b36:	687b      	ldr	r3, [r7, #4]
 8004b38:	2284      	movs	r2, #132	@ 0x84
 8004b3a:	2100      	movs	r1, #0
 8004b3c:	5499      	strb	r1, [r3, r2]

  return HAL_OK;
 8004b3e:	2300      	movs	r3, #0
}
 8004b40:	0018      	movs	r0, r3
 8004b42:	46bd      	mov	sp, r7
 8004b44:	b002      	add	sp, #8
 8004b46:	bd80      	pop	{r7, pc}

08004b48 <HAL_UART_Transmit>:
  * @param Size    Amount of data elements (u8 or u16) to be sent.
  * @param Timeout Timeout duration.
  * @retval HAL status
  */
HAL_StatusTypeDef HAL_UART_Transmit(UART_HandleTypeDef *huart, const uint8_t *pData, uint16_t Size, uint32_t Timeout)
{
 8004b48:	b580      	push	{r7, lr}
 8004b4a:	b08a      	sub	sp, #40	@ 0x28
 8004b4c:	af02      	add	r7, sp, #8
 8004b4e:	60f8      	str	r0, [r7, #12]
 8004b50:	60b9      	str	r1, [r7, #8]
 8004b52:	603b      	str	r3, [r7, #0]
 8004b54:	1dbb      	adds	r3, r7, #6
 8004b56:	801a      	strh	r2, [r3, #0]
  const uint8_t  *pdata8bits;
  const uint16_t *pdata16bits;
  uint32_t tickstart;

  /* Check that a Tx process is not already ongoing */
  if (huart->gState == HAL_UART_STATE_READY)
 8004b58:	68fb      	ldr	r3, [r7, #12]
 8004b5a:	2288      	movs	r2, #136	@ 0x88
 8004b5c:	589b      	ldr	r3, [r3, r2]
 8004b5e:	2b20      	cmp	r3, #32
 8004b60:	d000      	beq.n	8004b64 <HAL_UART_Transmit+0x1c>
 8004b62:	e090      	b.n	8004c86 <HAL_UART_Transmit+0x13e>
  {
    if ((pData == NULL) || (Size == 0U))
 8004b64:	68bb      	ldr	r3, [r7, #8]
 8004b66:	2b00      	cmp	r3, #0
 8004b68:	d003      	beq.n	8004b72 <HAL_UART_Transmit+0x2a>
 8004b6a:	1dbb      	adds	r3, r7, #6
 8004b6c:	881b      	ldrh	r3, [r3, #0]
 8004b6e:	2b00      	cmp	r3, #0
 8004b70:	d101      	bne.n	8004b76 <HAL_UART_Transmit+0x2e>
    {
      return  HAL_ERROR;
 8004b72:	2301      	movs	r3, #1
 8004b74:	e088      	b.n	8004c88 <HAL_UART_Transmit+0x140>
    }

    /* In case of 9bits/No Parity transfer, pData buffer provided as input parameter
       should be aligned on a u16 frontier, as data to be filled into TDR will be
       handled through a u16 cast. */
    if ((huart->Init.WordLength == UART_WORDLENGTH_9B) && (huart->Init.Parity == UART_PARITY_NONE))
 8004b76:	68fb      	ldr	r3, [r7, #12]
 8004b78:	689a      	ldr	r2, [r3, #8]
 8004b7a:	2380      	movs	r3, #128	@ 0x80
 8004b7c:	015b      	lsls	r3, r3, #5
 8004b7e:	429a      	cmp	r2, r3
 8004b80:	d109      	bne.n	8004b96 <HAL_UART_Transmit+0x4e>
 8004b82:	68fb      	ldr	r3, [r7, #12]
 8004b84:	691b      	ldr	r3, [r3, #16]
 8004b86:	2b00      	cmp	r3, #0
 8004b88:	d105      	bne.n	8004b96 <HAL_UART_Transmit+0x4e>
    {
      if ((((uint32_t)pData) & 1U) != 0U)
 8004b8a:	68bb      	ldr	r3, [r7, #8]
 8004b8c:	2201      	movs	r2, #1
 8004b8e:	4013      	ands	r3, r2
 8004b90:	d001      	beq.n	8004b96 <HAL_UART_Transmit+0x4e>
      {
        return  HAL_ERROR;
 8004b92:	2301      	movs	r3, #1
 8004b94:	e078      	b.n	8004c88 <HAL_UART_Transmit+0x140>
      }
    }

    huart->ErrorCode = HAL_UART_ERROR_NONE;
 8004b96:	68fb      	ldr	r3, [r7, #12]
 8004b98:	2290      	movs	r2, #144	@ 0x90
 8004b9a:	2100      	movs	r1, #0
 8004b9c:	5099      	str	r1, [r3, r2]
    huart->gState = HAL_UART_STATE_BUSY_TX;
 8004b9e:	68fb      	ldr	r3, [r7, #12]
 8004ba0:	2288      	movs	r2, #136	@ 0x88
 8004ba2:	2121      	movs	r1, #33	@ 0x21
 8004ba4:	5099      	str	r1, [r3, r2]

    /* Init tickstart for timeout management */
    tickstart = HAL_GetTick();
 8004ba6:	f7fd fe85 	bl	80028b4 <HAL_GetTick>
 8004baa:	0003      	movs	r3, r0
 8004bac:	617b      	str	r3, [r7, #20]

    huart->TxXferSize  = Size;
 8004bae:	68fb      	ldr	r3, [r7, #12]
 8004bb0:	1dba      	adds	r2, r7, #6
 8004bb2:	2154      	movs	r1, #84	@ 0x54
 8004bb4:	8812      	ldrh	r2, [r2, #0]
 8004bb6:	525a      	strh	r2, [r3, r1]
    huart->TxXferCount = Size;
 8004bb8:	68fb      	ldr	r3, [r7, #12]
 8004bba:	1dba      	adds	r2, r7, #6
 8004bbc:	2156      	movs	r1, #86	@ 0x56
 8004bbe:	8812      	ldrh	r2, [r2, #0]
 8004bc0:	525a      	strh	r2, [r3, r1]

    /* In case of 9bits/No Parity transfer, pData needs to be handled as a uint16_t pointer */
    if ((huart->Init.WordLength == UART_WORDLENGTH_9B) && (huart->Init.Parity == UART_PARITY_NONE))
 8004bc2:	68fb      	ldr	r3, [r7, #12]
 8004bc4:	689a      	ldr	r2, [r3, #8]
 8004bc6:	2380      	movs	r3, #128	@ 0x80
 8004bc8:	015b      	lsls	r3, r3, #5
 8004bca:	429a      	cmp	r2, r3
 8004bcc:	d108      	bne.n	8004be0 <HAL_UART_Transmit+0x98>
 8004bce:	68fb      	ldr	r3, [r7, #12]
 8004bd0:	691b      	ldr	r3, [r3, #16]
 8004bd2:	2b00      	cmp	r3, #0
 8004bd4:	d104      	bne.n	8004be0 <HAL_UART_Transmit+0x98>
    {
      pdata8bits  = NULL;
 8004bd6:	2300      	movs	r3, #0
 8004bd8:	61fb      	str	r3, [r7, #28]
      pdata16bits = (const uint16_t *) pData;
 8004bda:	68bb      	ldr	r3, [r7, #8]
 8004bdc:	61bb      	str	r3, [r7, #24]
 8004bde:	e003      	b.n	8004be8 <HAL_UART_Transmit+0xa0>
    }
    else
    {
      pdata8bits  = pData;
 8004be0:	68bb      	ldr	r3, [r7, #8]
 8004be2:	61fb      	str	r3, [r7, #28]
      pdata16bits = NULL;
 8004be4:	2300      	movs	r3, #0
 8004be6:	61bb      	str	r3, [r7, #24]
    }

    while (huart->TxXferCount > 0U)
 8004be8:	e030      	b.n	8004c4c <HAL_UART_Transmit+0x104>
    {
      if (UART_WaitOnFlagUntilTimeout(huart, UART_FLAG_TXE, RESET, tickstart, Timeout) != HAL_OK)
 8004bea:	697a      	ldr	r2, [r7, #20]
 8004bec:	68f8      	ldr	r0, [r7, #12]
 8004bee:	683b      	ldr	r3, [r7, #0]
 8004bf0:	9300      	str	r3, [sp, #0]
 8004bf2:	0013      	movs	r3, r2
 8004bf4:	2200      	movs	r2, #0
 8004bf6:	2180      	movs	r1, #128	@ 0x80
 8004bf8:	f000 fc66 	bl	80054c8 <UART_WaitOnFlagUntilTimeout>
 8004bfc:	1e03      	subs	r3, r0, #0
 8004bfe:	d005      	beq.n	8004c0c <HAL_UART_Transmit+0xc4>
      {

        huart->gState = HAL_UART_STATE_READY;
 8004c00:	68fb      	ldr	r3, [r7, #12]
 8004c02:	2288      	movs	r2, #136	@ 0x88
 8004c04:	2120      	movs	r1, #32
 8004c06:	5099      	str	r1, [r3, r2]

        return HAL_TIMEOUT;
 8004c08:	2303      	movs	r3, #3
 8004c0a:	e03d      	b.n	8004c88 <HAL_UART_Transmit+0x140>
      }
      if (pdata8bits == NULL)
 8004c0c:	69fb      	ldr	r3, [r7, #28]
 8004c0e:	2b00      	cmp	r3, #0
 8004c10:	d10b      	bne.n	8004c2a <HAL_UART_Transmit+0xe2>
      {
        huart->Instance->TDR = (uint16_t)(*pdata16bits & 0x01FFU);
 8004c12:	69bb      	ldr	r3, [r7, #24]
 8004c14:	881b      	ldrh	r3, [r3, #0]
 8004c16:	001a      	movs	r2, r3
 8004c18:	68fb      	ldr	r3, [r7, #12]
 8004c1a:	681b      	ldr	r3, [r3, #0]
 8004c1c:	05d2      	lsls	r2, r2, #23
 8004c1e:	0dd2      	lsrs	r2, r2, #23
 8004c20:	629a      	str	r2, [r3, #40]	@ 0x28
        pdata16bits++;
 8004c22:	69bb      	ldr	r3, [r7, #24]
 8004c24:	3302      	adds	r3, #2
 8004c26:	61bb      	str	r3, [r7, #24]
 8004c28:	e007      	b.n	8004c3a <HAL_UART_Transmit+0xf2>
      }
      else
      {
        huart->Instance->TDR = (uint8_t)(*pdata8bits & 0xFFU);
 8004c2a:	69fb      	ldr	r3, [r7, #28]
 8004c2c:	781a      	ldrb	r2, [r3, #0]
 8004c2e:	68fb      	ldr	r3, [r7, #12]
 8004c30:	681b      	ldr	r3, [r3, #0]
 8004c32:	629a      	str	r2, [r3, #40]	@ 0x28
        pdata8bits++;
 8004c34:	69fb      	ldr	r3, [r7, #28]
 8004c36:	3301      	adds	r3, #1
 8004c38:	61fb      	str	r3, [r7, #28]
      }
      huart->TxXferCount--;
 8004c3a:	68fb      	ldr	r3, [r7, #12]
 8004c3c:	2256      	movs	r2, #86	@ 0x56
 8004c3e:	5a9b      	ldrh	r3, [r3, r2]
 8004c40:	b29b      	uxth	r3, r3
 8004c42:	3b01      	subs	r3, #1
 8004c44:	b299      	uxth	r1, r3
 8004c46:	68fb      	ldr	r3, [r7, #12]
 8004c48:	2256      	movs	r2, #86	@ 0x56
 8004c4a:	5299      	strh	r1, [r3, r2]
    while (huart->TxXferCount > 0U)
 8004c4c:	68fb      	ldr	r3, [r7, #12]
 8004c4e:	2256      	movs	r2, #86	@ 0x56
 8004c50:	5a9b      	ldrh	r3, [r3, r2]
 8004c52:	b29b      	uxth	r3, r3
 8004c54:	2b00      	cmp	r3, #0
 8004c56:	d1c8      	bne.n	8004bea <HAL_UART_Transmit+0xa2>
    }

    if (UART_WaitOnFlagUntilTimeout(huart, UART_FLAG_TC, RESET, tickstart, Timeout) != HAL_OK)
 8004c58:	697a      	ldr	r2, [r7, #20]
 8004c5a:	68f8      	ldr	r0, [r7, #12]
 8004c5c:	683b      	ldr	r3, [r7, #0]
 8004c5e:	9300      	str	r3, [sp, #0]
 8004c60:	0013      	movs	r3, r2
 8004c62:	2200      	movs	r2, #0
 8004c64:	2140      	movs	r1, #64	@ 0x40
 8004c66:	f000 fc2f 	bl	80054c8 <UART_WaitOnFlagUntilTimeout>
 8004c6a:	1e03      	subs	r3, r0, #0
 8004c6c:	d005      	beq.n	8004c7a <HAL_UART_Transmit+0x132>
    {
      huart->gState = HAL_UART_STATE_READY;
 8004c6e:	68fb      	ldr	r3, [r7, #12]
 8004c70:	2288      	movs	r2, #136	@ 0x88
 8004c72:	2120      	movs	r1, #32
 8004c74:	5099      	str	r1, [r3, r2]

      return HAL_TIMEOUT;
 8004c76:	2303      	movs	r3, #3
 8004c78:	e006      	b.n	8004c88 <HAL_UART_Transmit+0x140>
    }

    /* At end of Tx process, restore huart->gState to Ready */
    huart->gState = HAL_UART_STATE_READY;
 8004c7a:	68fb      	ldr	r3, [r7, #12]
 8004c7c:	2288      	movs	r2, #136	@ 0x88
 8004c7e:	2120      	movs	r1, #32
 8004c80:	5099      	str	r1, [r3, r2]

    return HAL_OK;
 8004c82:	2300      	movs	r3, #0
 8004c84:	e000      	b.n	8004c88 <HAL_UART_Transmit+0x140>
  }
  else
  {
    return HAL_BUSY;
 8004c86:	2302      	movs	r3, #2
  }
}
 8004c88:	0018      	movs	r0, r3
 8004c8a:	46bd      	mov	sp, r7
 8004c8c:	b008      	add	sp, #32
 8004c8e:	bd80      	pop	{r7, pc}

08004c90 <UART_SetConfig>:
  * @brief Configure the UART peripheral.
  * @param huart UART handle.
  * @retval HAL status
  */
HAL_StatusTypeDef UART_SetConfig(UART_HandleTypeDef *huart)
{
 8004c90:	b5b0      	push	{r4, r5, r7, lr}
 8004c92:	b090      	sub	sp, #64	@ 0x40
 8004c94:	af00      	add	r7, sp, #0
 8004c96:	6278      	str	r0, [r7, #36]	@ 0x24
  uint32_t tmpreg;
  uint16_t brrtemp;
  UART_ClockSourceTypeDef clocksource;
  uint32_t usartdiv;
  HAL_StatusTypeDef ret               = HAL_OK;
 8004c98:	231a      	movs	r3, #26
 8004c9a:	2220      	movs	r2, #32
 8004c9c:	189b      	adds	r3, r3, r2
 8004c9e:	19db      	adds	r3, r3, r7
 8004ca0:	2200      	movs	r2, #0
 8004ca2:	701a      	strb	r2, [r3, #0]
  *  the UART Word Length, Parity, Mode and oversampling:
  *  set the M bits according to huart->Init.WordLength value
  *  set PCE and PS bits according to huart->Init.Parity value
  *  set TE and RE bits according to huart->Init.Mode value
  *  set OVER8 bit according to huart->Init.OverSampling value */
  tmpreg = (uint32_t)huart->Init.WordLength | huart->Init.Parity | huart->Init.Mode | huart->Init.OverSampling ;
 8004ca4:	6a7b      	ldr	r3, [r7, #36]	@ 0x24
 8004ca6:	689a      	ldr	r2, [r3, #8]
 8004ca8:	6a7b      	ldr	r3, [r7, #36]	@ 0x24
 8004caa:	691b      	ldr	r3, [r3, #16]
 8004cac:	431a      	orrs	r2, r3
 8004cae:	6a7b      	ldr	r3, [r7, #36]	@ 0x24
 8004cb0:	695b      	ldr	r3, [r3, #20]
 8004cb2:	431a      	orrs	r2, r3
 8004cb4:	6a7b      	ldr	r3, [r7, #36]	@ 0x24
 8004cb6:	69db      	ldr	r3, [r3, #28]
 8004cb8:	4313      	orrs	r3, r2
 8004cba:	63fb      	str	r3, [r7, #60]	@ 0x3c
  MODIFY_REG(huart->Instance->CR1, USART_CR1_FIELDS, tmpreg);
 8004cbc:	6a7b      	ldr	r3, [r7, #36]	@ 0x24
 8004cbe:	681b      	ldr	r3, [r3, #0]
 8004cc0:	681b      	ldr	r3, [r3, #0]
 8004cc2:	4aaf      	ldr	r2, [pc, #700]	@ (8004f80 <UART_SetConfig+0x2f0>)
 8004cc4:	4013      	ands	r3, r2
 8004cc6:	0019      	movs	r1, r3
 8004cc8:	6a7b      	ldr	r3, [r7, #36]	@ 0x24
 8004cca:	681a      	ldr	r2, [r3, #0]
 8004ccc:	6bfb      	ldr	r3, [r7, #60]	@ 0x3c
 8004cce:	430b      	orrs	r3, r1
 8004cd0:	6013      	str	r3, [r2, #0]

  /*-------------------------- USART CR2 Configuration -----------------------*/
  /* Configure the UART Stop Bits: Set STOP[13:12] bits according
  * to huart->Init.StopBits value */
  MODIFY_REG(huart->Instance->CR2, USART_CR2_STOP, huart->Init.StopBits);
 8004cd2:	6a7b      	ldr	r3, [r7, #36]	@ 0x24
 8004cd4:	681b      	ldr	r3, [r3, #0]
 8004cd6:	685b      	ldr	r3, [r3, #4]
 8004cd8:	4aaa      	ldr	r2, [pc, #680]	@ (8004f84 <UART_SetConfig+0x2f4>)
 8004cda:	4013      	ands	r3, r2
 8004cdc:	0018      	movs	r0, r3
 8004cde:	6a7b      	ldr	r3, [r7, #36]	@ 0x24
 8004ce0:	68d9      	ldr	r1, [r3, #12]
 8004ce2:	6a7b      	ldr	r3, [r7, #36]	@ 0x24
 8004ce4:	681a      	ldr	r2, [r3, #0]
 8004ce6:	0003      	movs	r3, r0
 8004ce8:	430b      	orrs	r3, r1
 8004cea:	6053      	str	r3, [r2, #4]
  /* Configure
  * - UART HardWare Flow Control: set CTSE and RTSE bits according
  *   to huart->Init.HwFlowCtl value
  * - one-bit sampling method versus three samples' majority rule according
  *   to huart->Init.OneBitSampling (not applicable to LPUART) */
  tmpreg = (uint32_t)huart->Init.HwFlowCtl;
 8004cec:	6a7b      	ldr	r3, [r7, #36]	@ 0x24
 8004cee:	699b      	ldr	r3, [r3, #24]
 8004cf0:	63fb      	str	r3, [r7, #60]	@ 0x3c

  if (!(UART_INSTANCE_LOWPOWER(huart)))
 8004cf2:	6a7b      	ldr	r3, [r7, #36]	@ 0x24
 8004cf4:	681b      	ldr	r3, [r3, #0]
 8004cf6:	4aa4      	ldr	r2, [pc, #656]	@ (8004f88 <UART_SetConfig+0x2f8>)
 8004cf8:	4293      	cmp	r3, r2
 8004cfa:	d004      	beq.n	8004d06 <UART_SetConfig+0x76>
  {
    tmpreg |= huart->Init.OneBitSampling;
 8004cfc:	6a7b      	ldr	r3, [r7, #36]	@ 0x24
 8004cfe:	6a1b      	ldr	r3, [r3, #32]
 8004d00:	6bfa      	ldr	r2, [r7, #60]	@ 0x3c
 8004d02:	4313      	orrs	r3, r2
 8004d04:	63fb      	str	r3, [r7, #60]	@ 0x3c
  }
  MODIFY_REG(huart->Instance->CR3, USART_CR3_FIELDS, tmpreg);
 8004d06:	6a7b      	ldr	r3, [r7, #36]	@ 0x24
 8004d08:	681b      	ldr	r3, [r3, #0]
 8004d0a:	689b      	ldr	r3, [r3, #8]
 8004d0c:	4a9f      	ldr	r2, [pc, #636]	@ (8004f8c <UART_SetConfig+0x2fc>)
 8004d0e:	4013      	ands	r3, r2
 8004d10:	0019      	movs	r1, r3
 8004d12:	6a7b      	ldr	r3, [r7, #36]	@ 0x24
 8004d14:	681a      	ldr	r2, [r3, #0]
 8004d16:	6bfb      	ldr	r3, [r7, #60]	@ 0x3c
 8004d18:	430b      	orrs	r3, r1
 8004d1a:	6093      	str	r3, [r2, #8]

  /*-------------------------- USART PRESC Configuration -----------------------*/
  /* Configure
  * - UART Clock Prescaler : set PRESCALER according to huart->Init.ClockPrescaler value */
  MODIFY_REG(huart->Instance->PRESC, USART_PRESC_PRESCALER, huart->Init.ClockPrescaler);
 8004d1c:	6a7b      	ldr	r3, [r7, #36]	@ 0x24
 8004d1e:	681b      	ldr	r3, [r3, #0]
 8004d20:	6adb      	ldr	r3, [r3, #44]	@ 0x2c
 8004d22:	220f      	movs	r2, #15
 8004d24:	4393      	bics	r3, r2
 8004d26:	0018      	movs	r0, r3
 8004d28:	6a7b      	ldr	r3, [r7, #36]	@ 0x24
 8004d2a:	6a59      	ldr	r1, [r3, #36]	@ 0x24
 8004d2c:	6a7b      	ldr	r3, [r7, #36]	@ 0x24
 8004d2e:	681a      	ldr	r2, [r3, #0]
 8004d30:	0003      	movs	r3, r0
 8004d32:	430b      	orrs	r3, r1
 8004d34:	62d3      	str	r3, [r2, #44]	@ 0x2c

  /*-------------------------- USART BRR Configuration -----------------------*/
  UART_GETCLOCKSOURCE(huart, clocksource);
 8004d36:	6a7b      	ldr	r3, [r7, #36]	@ 0x24
 8004d38:	681b      	ldr	r3, [r3, #0]
 8004d3a:	4a95      	ldr	r2, [pc, #596]	@ (8004f90 <UART_SetConfig+0x300>)
 8004d3c:	4293      	cmp	r3, r2
 8004d3e:	d131      	bne.n	8004da4 <UART_SetConfig+0x114>
 8004d40:	4b94      	ldr	r3, [pc, #592]	@ (8004f94 <UART_SetConfig+0x304>)
 8004d42:	6d5b      	ldr	r3, [r3, #84]	@ 0x54
 8004d44:	2203      	movs	r2, #3
 8004d46:	4013      	ands	r3, r2
 8004d48:	2b03      	cmp	r3, #3
 8004d4a:	d01d      	beq.n	8004d88 <UART_SetConfig+0xf8>
 8004d4c:	d823      	bhi.n	8004d96 <UART_SetConfig+0x106>
 8004d4e:	2b02      	cmp	r3, #2
 8004d50:	d00c      	beq.n	8004d6c <UART_SetConfig+0xdc>
 8004d52:	d820      	bhi.n	8004d96 <UART_SetConfig+0x106>
 8004d54:	2b00      	cmp	r3, #0
 8004d56:	d002      	beq.n	8004d5e <UART_SetConfig+0xce>
 8004d58:	2b01      	cmp	r3, #1
 8004d5a:	d00e      	beq.n	8004d7a <UART_SetConfig+0xea>
 8004d5c:	e01b      	b.n	8004d96 <UART_SetConfig+0x106>
 8004d5e:	231b      	movs	r3, #27
 8004d60:	2220      	movs	r2, #32
 8004d62:	189b      	adds	r3, r3, r2
 8004d64:	19db      	adds	r3, r3, r7
 8004d66:	2200      	movs	r2, #0
 8004d68:	701a      	strb	r2, [r3, #0]
 8004d6a:	e0b4      	b.n	8004ed6 <UART_SetConfig+0x246>
 8004d6c:	231b      	movs	r3, #27
 8004d6e:	2220      	movs	r2, #32
 8004d70:	189b      	adds	r3, r3, r2
 8004d72:	19db      	adds	r3, r3, r7
 8004d74:	2202      	movs	r2, #2
 8004d76:	701a      	strb	r2, [r3, #0]
 8004d78:	e0ad      	b.n	8004ed6 <UART_SetConfig+0x246>
 8004d7a:	231b      	movs	r3, #27
 8004d7c:	2220      	movs	r2, #32
 8004d7e:	189b      	adds	r3, r3, r2
 8004d80:	19db      	adds	r3, r3, r7
 8004d82:	2204      	movs	r2, #4
 8004d84:	701a      	strb	r2, [r3, #0]
 8004d86:	e0a6      	b.n	8004ed6 <UART_SetConfig+0x246>
 8004d88:	231b      	movs	r3, #27
 8004d8a:	2220      	movs	r2, #32
 8004d8c:	189b      	adds	r3, r3, r2
 8004d8e:	19db      	adds	r3, r3, r7
 8004d90:	2208      	movs	r2, #8
 8004d92:	701a      	strb	r2, [r3, #0]
 8004d94:	e09f      	b.n	8004ed6 <UART_SetConfig+0x246>
 8004d96:	231b      	movs	r3, #27
 8004d98:	2220      	movs	r2, #32
 8004d9a:	189b      	adds	r3, r3, r2
 8004d9c:	19db      	adds	r3, r3, r7
 8004d9e:	2210      	movs	r2, #16
 8004da0:	701a      	strb	r2, [r3, #0]
 8004da2:	e098      	b.n	8004ed6 <UART_SetConfig+0x246>
 8004da4:	6a7b      	ldr	r3, [r7, #36]	@ 0x24
 8004da6:	681b      	ldr	r3, [r3, #0]
 8004da8:	4a7b      	ldr	r2, [pc, #492]	@ (8004f98 <UART_SetConfig+0x308>)
 8004daa:	4293      	cmp	r3, r2
 8004dac:	d131      	bne.n	8004e12 <UART_SetConfig+0x182>
 8004dae:	4b79      	ldr	r3, [pc, #484]	@ (8004f94 <UART_SetConfig+0x304>)
 8004db0:	6d5b      	ldr	r3, [r3, #84]	@ 0x54
 8004db2:	220c      	movs	r2, #12
 8004db4:	4013      	ands	r3, r2
 8004db6:	2b0c      	cmp	r3, #12
 8004db8:	d01d      	beq.n	8004df6 <UART_SetConfig+0x166>
 8004dba:	d823      	bhi.n	8004e04 <UART_SetConfig+0x174>
 8004dbc:	2b08      	cmp	r3, #8
 8004dbe:	d00c      	beq.n	8004dda <UART_SetConfig+0x14a>
 8004dc0:	d820      	bhi.n	8004e04 <UART_SetConfig+0x174>
 8004dc2:	2b00      	cmp	r3, #0
 8004dc4:	d002      	beq.n	8004dcc <UART_SetConfig+0x13c>
 8004dc6:	2b04      	cmp	r3, #4
 8004dc8:	d00e      	beq.n	8004de8 <UART_SetConfig+0x158>
 8004dca:	e01b      	b.n	8004e04 <UART_SetConfig+0x174>
 8004dcc:	231b      	movs	r3, #27
 8004dce:	2220      	movs	r2, #32
 8004dd0:	189b      	adds	r3, r3, r2
 8004dd2:	19db      	adds	r3, r3, r7
 8004dd4:	2200      	movs	r2, #0
 8004dd6:	701a      	strb	r2, [r3, #0]
 8004dd8:	e07d      	b.n	8004ed6 <UART_SetConfig+0x246>
 8004dda:	231b      	movs	r3, #27
 8004ddc:	2220      	movs	r2, #32
 8004dde:	189b      	adds	r3, r3, r2
 8004de0:	19db      	adds	r3, r3, r7
 8004de2:	2202      	movs	r2, #2
 8004de4:	701a      	strb	r2, [r3, #0]
 8004de6:	e076      	b.n	8004ed6 <UART_SetConfig+0x246>
 8004de8:	231b      	movs	r3, #27
 8004dea:	2220      	movs	r2, #32
 8004dec:	189b      	adds	r3, r3, r2
 8004dee:	19db      	adds	r3, r3, r7
 8004df0:	2204      	movs	r2, #4
 8004df2:	701a      	strb	r2, [r3, #0]
 8004df4:	e06f      	b.n	8004ed6 <UART_SetConfig+0x246>
 8004df6:	231b      	movs	r3, #27
 8004df8:	2220      	movs	r2, #32
 8004dfa:	189b      	adds	r3, r3, r2
 8004dfc:	19db      	adds	r3, r3, r7
 8004dfe:	2208      	movs	r2, #8
 8004e00:	701a      	strb	r2, [r3, #0]
 8004e02:	e068      	b.n	8004ed6 <UART_SetConfig+0x246>
 8004e04:	231b      	movs	r3, #27
 8004e06:	2220      	movs	r2, #32
 8004e08:	189b      	adds	r3, r3, r2
 8004e0a:	19db      	adds	r3, r3, r7
 8004e0c:	2210      	movs	r2, #16
 8004e0e:	701a      	strb	r2, [r3, #0]
 8004e10:	e061      	b.n	8004ed6 <UART_SetConfig+0x246>
 8004e12:	6a7b      	ldr	r3, [r7, #36]	@ 0x24
 8004e14:	681b      	ldr	r3, [r3, #0]
 8004e16:	4a61      	ldr	r2, [pc, #388]	@ (8004f9c <UART_SetConfig+0x30c>)
 8004e18:	4293      	cmp	r3, r2
 8004e1a:	d106      	bne.n	8004e2a <UART_SetConfig+0x19a>
 8004e1c:	231b      	movs	r3, #27
 8004e1e:	2220      	movs	r2, #32
 8004e20:	189b      	adds	r3, r3, r2
 8004e22:	19db      	adds	r3, r3, r7
 8004e24:	2200      	movs	r2, #0
 8004e26:	701a      	strb	r2, [r3, #0]
 8004e28:	e055      	b.n	8004ed6 <UART_SetConfig+0x246>
 8004e2a:	6a7b      	ldr	r3, [r7, #36]	@ 0x24
 8004e2c:	681b      	ldr	r3, [r3, #0]
 8004e2e:	4a5c      	ldr	r2, [pc, #368]	@ (8004fa0 <UART_SetConfig+0x310>)
 8004e30:	4293      	cmp	r3, r2
 8004e32:	d106      	bne.n	8004e42 <UART_SetConfig+0x1b2>
 8004e34:	231b      	movs	r3, #27
 8004e36:	2220      	movs	r2, #32
 8004e38:	189b      	adds	r3, r3, r2
 8004e3a:	19db      	adds	r3, r3, r7
 8004e3c:	2200      	movs	r2, #0
 8004e3e:	701a      	strb	r2, [r3, #0]
 8004e40:	e049      	b.n	8004ed6 <UART_SetConfig+0x246>
 8004e42:	6a7b      	ldr	r3, [r7, #36]	@ 0x24
 8004e44:	681b      	ldr	r3, [r3, #0]
 8004e46:	4a50      	ldr	r2, [pc, #320]	@ (8004f88 <UART_SetConfig+0x2f8>)
 8004e48:	4293      	cmp	r3, r2
 8004e4a:	d13e      	bne.n	8004eca <UART_SetConfig+0x23a>
 8004e4c:	4b51      	ldr	r3, [pc, #324]	@ (8004f94 <UART_SetConfig+0x304>)
 8004e4e:	6d5a      	ldr	r2, [r3, #84]	@ 0x54
 8004e50:	23c0      	movs	r3, #192	@ 0xc0
 8004e52:	011b      	lsls	r3, r3, #4
 8004e54:	4013      	ands	r3, r2
 8004e56:	22c0      	movs	r2, #192	@ 0xc0
 8004e58:	0112      	lsls	r2, r2, #4
 8004e5a:	4293      	cmp	r3, r2
 8004e5c:	d027      	beq.n	8004eae <UART_SetConfig+0x21e>
 8004e5e:	22c0      	movs	r2, #192	@ 0xc0
 8004e60:	0112      	lsls	r2, r2, #4
 8004e62:	4293      	cmp	r3, r2
 8004e64:	d82a      	bhi.n	8004ebc <UART_SetConfig+0x22c>
 8004e66:	2280      	movs	r2, #128	@ 0x80
 8004e68:	0112      	lsls	r2, r2, #4
 8004e6a:	4293      	cmp	r3, r2
 8004e6c:	d011      	beq.n	8004e92 <UART_SetConfig+0x202>
 8004e6e:	2280      	movs	r2, #128	@ 0x80
 8004e70:	0112      	lsls	r2, r2, #4
 8004e72:	4293      	cmp	r3, r2
 8004e74:	d822      	bhi.n	8004ebc <UART_SetConfig+0x22c>
 8004e76:	2b00      	cmp	r3, #0
 8004e78:	d004      	beq.n	8004e84 <UART_SetConfig+0x1f4>
 8004e7a:	2280      	movs	r2, #128	@ 0x80
 8004e7c:	00d2      	lsls	r2, r2, #3
 8004e7e:	4293      	cmp	r3, r2
 8004e80:	d00e      	beq.n	8004ea0 <UART_SetConfig+0x210>
 8004e82:	e01b      	b.n	8004ebc <UART_SetConfig+0x22c>
 8004e84:	231b      	movs	r3, #27
 8004e86:	2220      	movs	r2, #32
 8004e88:	189b      	adds	r3, r3, r2
 8004e8a:	19db      	adds	r3, r3, r7
 8004e8c:	2200      	movs	r2, #0
 8004e8e:	701a      	strb	r2, [r3, #0]
 8004e90:	e021      	b.n	8004ed6 <UART_SetConfig+0x246>
 8004e92:	231b      	movs	r3, #27
 8004e94:	2220      	movs	r2, #32
 8004e96:	189b      	adds	r3, r3, r2
 8004e98:	19db      	adds	r3, r3, r7
 8004e9a:	2202      	movs	r2, #2
 8004e9c:	701a      	strb	r2, [r3, #0]
 8004e9e:	e01a      	b.n	8004ed6 <UART_SetConfig+0x246>
 8004ea0:	231b      	movs	r3, #27
 8004ea2:	2220      	movs	r2, #32
 8004ea4:	189b      	adds	r3, r3, r2
 8004ea6:	19db      	adds	r3, r3, r7
 8004ea8:	2204      	movs	r2, #4
 8004eaa:	701a      	strb	r2, [r3, #0]
 8004eac:	e013      	b.n	8004ed6 <UART_SetConfig+0x246>
 8004eae:	231b      	movs	r3, #27
 8004eb0:	2220      	movs	r2, #32
 8004eb2:	189b      	adds	r3, r3, r2
 8004eb4:	19db      	adds	r3, r3, r7
 8004eb6:	2208      	movs	r2, #8
 8004eb8:	701a      	strb	r2, [r3, #0]
 8004eba:	e00c      	b.n	8004ed6 <UART_SetConfig+0x246>
 8004ebc:	231b      	movs	r3, #27
 8004ebe:	2220      	movs	r2, #32
 8004ec0:	189b      	adds	r3, r3, r2
 8004ec2:	19db      	adds	r3, r3, r7
 8004ec4:	2210      	movs	r2, #16
 8004ec6:	701a      	strb	r2, [r3, #0]
 8004ec8:	e005      	b.n	8004ed6 <UART_SetConfig+0x246>
 8004eca:	231b      	movs	r3, #27
 8004ecc:	2220      	movs	r2, #32
 8004ece:	189b      	adds	r3, r3, r2
 8004ed0:	19db      	adds	r3, r3, r7
 8004ed2:	2210      	movs	r2, #16
 8004ed4:	701a      	strb	r2, [r3, #0]

  /* Check LPUART instance */
  if (UART_INSTANCE_LOWPOWER(huart))
 8004ed6:	6a7b      	ldr	r3, [r7, #36]	@ 0x24
 8004ed8:	681b      	ldr	r3, [r3, #0]
 8004eda:	4a2b      	ldr	r2, [pc, #172]	@ (8004f88 <UART_SetConfig+0x2f8>)
 8004edc:	4293      	cmp	r3, r2
 8004ede:	d000      	beq.n	8004ee2 <UART_SetConfig+0x252>
 8004ee0:	e0a9      	b.n	8005036 <UART_SetConfig+0x3a6>
  {
    /* Retrieve frequency clock */
    switch (clocksource)
 8004ee2:	231b      	movs	r3, #27
 8004ee4:	2220      	movs	r2, #32
 8004ee6:	189b      	adds	r3, r3, r2
 8004ee8:	19db      	adds	r3, r3, r7
 8004eea:	781b      	ldrb	r3, [r3, #0]
 8004eec:	2b08      	cmp	r3, #8
 8004eee:	d015      	beq.n	8004f1c <UART_SetConfig+0x28c>
 8004ef0:	dc18      	bgt.n	8004f24 <UART_SetConfig+0x294>
 8004ef2:	2b04      	cmp	r3, #4
 8004ef4:	d00d      	beq.n	8004f12 <UART_SetConfig+0x282>
 8004ef6:	dc15      	bgt.n	8004f24 <UART_SetConfig+0x294>
 8004ef8:	2b00      	cmp	r3, #0
 8004efa:	d002      	beq.n	8004f02 <UART_SetConfig+0x272>
 8004efc:	2b02      	cmp	r3, #2
 8004efe:	d005      	beq.n	8004f0c <UART_SetConfig+0x27c>
 8004f00:	e010      	b.n	8004f24 <UART_SetConfig+0x294>
    {
      case UART_CLOCKSOURCE_PCLK1:
        pclk = HAL_RCC_GetPCLK1Freq();
 8004f02:	f7ff fbbd 	bl	8004680 <HAL_RCC_GetPCLK1Freq>
 8004f06:	0003      	movs	r3, r0
 8004f08:	637b      	str	r3, [r7, #52]	@ 0x34
        break;
 8004f0a:	e014      	b.n	8004f36 <UART_SetConfig+0x2a6>
      case UART_CLOCKSOURCE_HSI:
        pclk = (uint32_t) HSI_VALUE;
 8004f0c:	4b25      	ldr	r3, [pc, #148]	@ (8004fa4 <UART_SetConfig+0x314>)
 8004f0e:	637b      	str	r3, [r7, #52]	@ 0x34
        break;
 8004f10:	e011      	b.n	8004f36 <UART_SetConfig+0x2a6>
      case UART_CLOCKSOURCE_SYSCLK:
        pclk = HAL_RCC_GetSysClockFreq();
 8004f12:	f7ff fb29 	bl	8004568 <HAL_RCC_GetSysClockFreq>
 8004f16:	0003      	movs	r3, r0
 8004f18:	637b      	str	r3, [r7, #52]	@ 0x34
        break;
 8004f1a:	e00c      	b.n	8004f36 <UART_SetConfig+0x2a6>
      case UART_CLOCKSOURCE_LSE:
        pclk = (uint32_t) LSE_VALUE;
 8004f1c:	2380      	movs	r3, #128	@ 0x80
 8004f1e:	021b      	lsls	r3, r3, #8
 8004f20:	637b      	str	r3, [r7, #52]	@ 0x34
        break;
 8004f22:	e008      	b.n	8004f36 <UART_SetConfig+0x2a6>
      default:
        pclk = 0U;
 8004f24:	2300      	movs	r3, #0
 8004f26:	637b      	str	r3, [r7, #52]	@ 0x34
        ret = HAL_ERROR;
 8004f28:	231a      	movs	r3, #26
 8004f2a:	2220      	movs	r2, #32
 8004f2c:	189b      	adds	r3, r3, r2
 8004f2e:	19db      	adds	r3, r3, r7
 8004f30:	2201      	movs	r2, #1
 8004f32:	701a      	strb	r2, [r3, #0]
        break;
 8004f34:	46c0      	nop			@ (mov r8, r8)
    }

    /* If proper clock source reported */
    if (pclk != 0U)
 8004f36:	6b7b      	ldr	r3, [r7, #52]	@ 0x34
 8004f38:	2b00      	cmp	r3, #0
 8004f3a:	d100      	bne.n	8004f3e <UART_SetConfig+0x2ae>
 8004f3c:	e14b      	b.n	80051d6 <UART_SetConfig+0x546>
    {
      /* Compute clock after Prescaler */
      lpuart_ker_ck_pres = (pclk / UARTPrescTable[huart->Init.ClockPrescaler]);
 8004f3e:	6a7b      	ldr	r3, [r7, #36]	@ 0x24
 8004f40:	6a5a      	ldr	r2, [r3, #36]	@ 0x24
 8004f42:	4b19      	ldr	r3, [pc, #100]	@ (8004fa8 <UART_SetConfig+0x318>)
 8004f44:	0052      	lsls	r2, r2, #1
 8004f46:	5ad3      	ldrh	r3, [r2, r3]
 8004f48:	0019      	movs	r1, r3
 8004f4a:	6b78      	ldr	r0, [r7, #52]	@ 0x34
 8004f4c:	f7fb f8e2 	bl	8000114 <__udivsi3>
 8004f50:	0003      	movs	r3, r0
 8004f52:	62bb      	str	r3, [r7, #40]	@ 0x28

      /* Ensure that Frequency clock is in the range [3 * baudrate, 4096 * baudrate] */
      if ((lpuart_ker_ck_pres < (3U * huart->Init.BaudRate)) ||
 8004f54:	6a7b      	ldr	r3, [r7, #36]	@ 0x24
 8004f56:	685a      	ldr	r2, [r3, #4]
 8004f58:	0013      	movs	r3, r2
 8004f5a:	005b      	lsls	r3, r3, #1
 8004f5c:	189b      	adds	r3, r3, r2
 8004f5e:	6aba      	ldr	r2, [r7, #40]	@ 0x28
 8004f60:	429a      	cmp	r2, r3
 8004f62:	d305      	bcc.n	8004f70 <UART_SetConfig+0x2e0>
          (lpuart_ker_ck_pres > (4096U * huart->Init.BaudRate)))
 8004f64:	6a7b      	ldr	r3, [r7, #36]	@ 0x24
 8004f66:	685b      	ldr	r3, [r3, #4]
 8004f68:	031b      	lsls	r3, r3, #12
      if ((lpuart_ker_ck_pres < (3U * huart->Init.BaudRate)) ||
 8004f6a:	6aba      	ldr	r2, [r7, #40]	@ 0x28
 8004f6c:	429a      	cmp	r2, r3
 8004f6e:	d91d      	bls.n	8004fac <UART_SetConfig+0x31c>
      {
        ret = HAL_ERROR;
 8004f70:	231a      	movs	r3, #26
 8004f72:	2220      	movs	r2, #32
 8004f74:	189b      	adds	r3, r3, r2
 8004f76:	19db      	adds	r3, r3, r7
 8004f78:	2201      	movs	r2, #1
 8004f7a:	701a      	strb	r2, [r3, #0]
 8004f7c:	e12b      	b.n	80051d6 <UART_SetConfig+0x546>
 8004f7e:	46c0      	nop			@ (mov r8, r8)
 8004f80:	cfff69f3 	.word	0xcfff69f3
 8004f84:	ffffcfff 	.word	0xffffcfff
 8004f88:	40008000 	.word	0x40008000
 8004f8c:	11fff4ff 	.word	0x11fff4ff
 8004f90:	40013800 	.word	0x40013800
 8004f94:	40021000 	.word	0x40021000
 8004f98:	40004400 	.word	0x40004400
 8004f9c:	40004800 	.word	0x40004800
 8004fa0:	40004c00 	.word	0x40004c00
 8004fa4:	00f42400 	.word	0x00f42400
 8004fa8:	08007f30 	.word	0x08007f30
      }
      else
      {
        /* Check computed UsartDiv value is in allocated range
           (it is forbidden to write values lower than 0x300 in the LPUART_BRR register) */
        usartdiv = (uint32_t)(UART_DIV_LPUART(pclk, huart->Init.BaudRate, huart->Init.ClockPrescaler));
 8004fac:	6b7b      	ldr	r3, [r7, #52]	@ 0x34
 8004fae:	61bb      	str	r3, [r7, #24]
 8004fb0:	2300      	movs	r3, #0
 8004fb2:	61fb      	str	r3, [r7, #28]
 8004fb4:	6a7b      	ldr	r3, [r7, #36]	@ 0x24
 8004fb6:	6a5a      	ldr	r2, [r3, #36]	@ 0x24
 8004fb8:	4b92      	ldr	r3, [pc, #584]	@ (8005204 <UART_SetConfig+0x574>)
 8004fba:	0052      	lsls	r2, r2, #1
 8004fbc:	5ad3      	ldrh	r3, [r2, r3]
 8004fbe:	613b      	str	r3, [r7, #16]
 8004fc0:	2300      	movs	r3, #0
 8004fc2:	617b      	str	r3, [r7, #20]
 8004fc4:	693a      	ldr	r2, [r7, #16]
 8004fc6:	697b      	ldr	r3, [r7, #20]
 8004fc8:	69b8      	ldr	r0, [r7, #24]
 8004fca:	69f9      	ldr	r1, [r7, #28]
 8004fcc:	f7fb fa56 	bl	800047c <__aeabi_uldivmod>
 8004fd0:	0002      	movs	r2, r0
 8004fd2:	000b      	movs	r3, r1
 8004fd4:	0e11      	lsrs	r1, r2, #24
 8004fd6:	021d      	lsls	r5, r3, #8
 8004fd8:	430d      	orrs	r5, r1
 8004fda:	0214      	lsls	r4, r2, #8
 8004fdc:	6a7b      	ldr	r3, [r7, #36]	@ 0x24
 8004fde:	685b      	ldr	r3, [r3, #4]
 8004fe0:	085b      	lsrs	r3, r3, #1
 8004fe2:	60bb      	str	r3, [r7, #8]
 8004fe4:	2300      	movs	r3, #0
 8004fe6:	60fb      	str	r3, [r7, #12]
 8004fe8:	68b8      	ldr	r0, [r7, #8]
 8004fea:	68f9      	ldr	r1, [r7, #12]
 8004fec:	1900      	adds	r0, r0, r4
 8004fee:	4169      	adcs	r1, r5
 8004ff0:	6a7b      	ldr	r3, [r7, #36]	@ 0x24
 8004ff2:	685b      	ldr	r3, [r3, #4]
 8004ff4:	603b      	str	r3, [r7, #0]
 8004ff6:	2300      	movs	r3, #0
 8004ff8:	607b      	str	r3, [r7, #4]
 8004ffa:	683a      	ldr	r2, [r7, #0]
 8004ffc:	687b      	ldr	r3, [r7, #4]
 8004ffe:	f7fb fa3d 	bl	800047c <__aeabi_uldivmod>
 8005002:	0002      	movs	r2, r0
 8005004:	000b      	movs	r3, r1
 8005006:	0013      	movs	r3, r2
 8005008:	633b      	str	r3, [r7, #48]	@ 0x30
        if ((usartdiv >= LPUART_BRR_MIN) && (usartdiv <= LPUART_BRR_MAX))
 800500a:	6b3a      	ldr	r2, [r7, #48]	@ 0x30
 800500c:	23c0      	movs	r3, #192	@ 0xc0
 800500e:	009b      	lsls	r3, r3, #2
 8005010:	429a      	cmp	r2, r3
 8005012:	d309      	bcc.n	8005028 <UART_SetConfig+0x398>
 8005014:	6b3a      	ldr	r2, [r7, #48]	@ 0x30
 8005016:	2380      	movs	r3, #128	@ 0x80
 8005018:	035b      	lsls	r3, r3, #13
 800501a:	429a      	cmp	r2, r3
 800501c:	d204      	bcs.n	8005028 <UART_SetConfig+0x398>
        {
          huart->Instance->BRR = usartdiv;
 800501e:	6a7b      	ldr	r3, [r7, #36]	@ 0x24
 8005020:	681b      	ldr	r3, [r3, #0]
 8005022:	6b3a      	ldr	r2, [r7, #48]	@ 0x30
 8005024:	60da      	str	r2, [r3, #12]
 8005026:	e0d6      	b.n	80051d6 <UART_SetConfig+0x546>
        }
        else
        {
          ret = HAL_ERROR;
 8005028:	231a      	movs	r3, #26
 800502a:	2220      	movs	r2, #32
 800502c:	189b      	adds	r3, r3, r2
 800502e:	19db      	adds	r3, r3, r7
 8005030:	2201      	movs	r2, #1
 8005032:	701a      	strb	r2, [r3, #0]
 8005034:	e0cf      	b.n	80051d6 <UART_SetConfig+0x546>
      } /* if ( (lpuart_ker_ck_pres < (3 * huart->Init.BaudRate) ) ||
                (lpuart_ker_ck_pres > (4096 * huart->Init.BaudRate) )) */
    } /* if (pclk != 0) */
  }
  /* Check UART Over Sampling to set Baud Rate Register */
  else if (huart->Init.OverSampling == UART_OVERSAMPLING_8)
 8005036:	6a7b      	ldr	r3, [r7, #36]	@ 0x24
 8005038:	69da      	ldr	r2, [r3, #28]
 800503a:	2380      	movs	r3, #128	@ 0x80
 800503c:	021b      	lsls	r3, r3, #8
 800503e:	429a      	cmp	r2, r3
 8005040:	d000      	beq.n	8005044 <UART_SetConfig+0x3b4>
 8005042:	e070      	b.n	8005126 <UART_SetConfig+0x496>
  {
    switch (clocksource)
 8005044:	231b      	movs	r3, #27
 8005046:	2220      	movs	r2, #32
 8005048:	189b      	adds	r3, r3, r2
 800504a:	19db      	adds	r3, r3, r7
 800504c:	781b      	ldrb	r3, [r3, #0]
 800504e:	2b08      	cmp	r3, #8
 8005050:	d015      	beq.n	800507e <UART_SetConfig+0x3ee>
 8005052:	dc18      	bgt.n	8005086 <UART_SetConfig+0x3f6>
 8005054:	2b04      	cmp	r3, #4
 8005056:	d00d      	beq.n	8005074 <UART_SetConfig+0x3e4>
 8005058:	dc15      	bgt.n	8005086 <UART_SetConfig+0x3f6>
 800505a:	2b00      	cmp	r3, #0
 800505c:	d002      	beq.n	8005064 <UART_SetConfig+0x3d4>
 800505e:	2b02      	cmp	r3, #2
 8005060:	d005      	beq.n	800506e <UART_SetConfig+0x3de>
 8005062:	e010      	b.n	8005086 <UART_SetConfig+0x3f6>
    {
      case UART_CLOCKSOURCE_PCLK1:
        pclk = HAL_RCC_GetPCLK1Freq();
 8005064:	f7ff fb0c 	bl	8004680 <HAL_RCC_GetPCLK1Freq>
 8005068:	0003      	movs	r3, r0
 800506a:	637b      	str	r3, [r7, #52]	@ 0x34
        break;
 800506c:	e014      	b.n	8005098 <UART_SetConfig+0x408>
      case UART_CLOCKSOURCE_HSI:
        pclk = (uint32_t) HSI_VALUE;
 800506e:	4b66      	ldr	r3, [pc, #408]	@ (8005208 <UART_SetConfig+0x578>)
 8005070:	637b      	str	r3, [r7, #52]	@ 0x34
        break;
 8005072:	e011      	b.n	8005098 <UART_SetConfig+0x408>
      case UART_CLOCKSOURCE_SYSCLK:
        pclk = HAL_RCC_GetSysClockFreq();
 8005074:	f7ff fa78 	bl	8004568 <HAL_RCC_GetSysClockFreq>
 8005078:	0003      	movs	r3, r0
 800507a:	637b      	str	r3, [r7, #52]	@ 0x34
        break;
 800507c:	e00c      	b.n	8005098 <UART_SetConfig+0x408>
      case UART_CLOCKSOURCE_LSE:
        pclk = (uint32_t) LSE_VALUE;
 800507e:	2380      	movs	r3, #128	@ 0x80
 8005080:	021b      	lsls	r3, r3, #8
 8005082:	637b      	str	r3, [r7, #52]	@ 0x34
        break;
 8005084:	e008      	b.n	8005098 <UART_SetConfig+0x408>
      default:
        pclk = 0U;
 8005086:	2300      	movs	r3, #0
 8005088:	637b      	str	r3, [r7, #52]	@ 0x34
        ret = HAL_ERROR;
 800508a:	231a      	movs	r3, #26
 800508c:	2220      	movs	r2, #32
 800508e:	189b      	adds	r3, r3, r2
 8005090:	19db      	adds	r3, r3, r7
 8005092:	2201      	movs	r2, #1
 8005094:	701a      	strb	r2, [r3, #0]
        break;
 8005096:	46c0      	nop			@ (mov r8, r8)
    }

    /* USARTDIV must be greater than or equal to 0d16 */
    if (pclk != 0U)
 8005098:	6b7b      	ldr	r3, [r7, #52]	@ 0x34
 800509a:	2b00      	cmp	r3, #0
 800509c:	d100      	bne.n	80050a0 <UART_SetConfig+0x410>
 800509e:	e09a      	b.n	80051d6 <UART_SetConfig+0x546>
    {
      usartdiv = (uint32_t)(UART_DIV_SAMPLING8(pclk, huart->Init.BaudRate, huart->Init.ClockPrescaler));
 80050a0:	6a7b      	ldr	r3, [r7, #36]	@ 0x24
 80050a2:	6a5a      	ldr	r2, [r3, #36]	@ 0x24
 80050a4:	4b57      	ldr	r3, [pc, #348]	@ (8005204 <UART_SetConfig+0x574>)
 80050a6:	0052      	lsls	r2, r2, #1
 80050a8:	5ad3      	ldrh	r3, [r2, r3]
 80050aa:	0019      	movs	r1, r3
 80050ac:	6b78      	ldr	r0, [r7, #52]	@ 0x34
 80050ae:	f7fb f831 	bl	8000114 <__udivsi3>
 80050b2:	0003      	movs	r3, r0
 80050b4:	005a      	lsls	r2, r3, #1
 80050b6:	6a7b      	ldr	r3, [r7, #36]	@ 0x24
 80050b8:	685b      	ldr	r3, [r3, #4]
 80050ba:	085b      	lsrs	r3, r3, #1
 80050bc:	18d2      	adds	r2, r2, r3
 80050be:	6a7b      	ldr	r3, [r7, #36]	@ 0x24
 80050c0:	685b      	ldr	r3, [r3, #4]
 80050c2:	0019      	movs	r1, r3
 80050c4:	0010      	movs	r0, r2
 80050c6:	f7fb f825 	bl	8000114 <__udivsi3>
 80050ca:	0003      	movs	r3, r0
 80050cc:	633b      	str	r3, [r7, #48]	@ 0x30
      if ((usartdiv >= UART_BRR_MIN) && (usartdiv <= UART_BRR_MAX))
 80050ce:	6b3b      	ldr	r3, [r7, #48]	@ 0x30
 80050d0:	2b0f      	cmp	r3, #15
 80050d2:	d921      	bls.n	8005118 <UART_SetConfig+0x488>
 80050d4:	6b3a      	ldr	r2, [r7, #48]	@ 0x30
 80050d6:	2380      	movs	r3, #128	@ 0x80
 80050d8:	025b      	lsls	r3, r3, #9
 80050da:	429a      	cmp	r2, r3
 80050dc:	d21c      	bcs.n	8005118 <UART_SetConfig+0x488>
      {
        brrtemp = (uint16_t)(usartdiv & 0xFFF0U);
 80050de:	6b3b      	ldr	r3, [r7, #48]	@ 0x30
 80050e0:	b29a      	uxth	r2, r3
 80050e2:	200e      	movs	r0, #14
 80050e4:	2420      	movs	r4, #32
 80050e6:	1903      	adds	r3, r0, r4
 80050e8:	19db      	adds	r3, r3, r7
 80050ea:	210f      	movs	r1, #15
 80050ec:	438a      	bics	r2, r1
 80050ee:	801a      	strh	r2, [r3, #0]
        brrtemp |= (uint16_t)((usartdiv & (uint16_t)0x000FU) >> 1U);
 80050f0:	6b3b      	ldr	r3, [r7, #48]	@ 0x30
 80050f2:	085b      	lsrs	r3, r3, #1
 80050f4:	b29b      	uxth	r3, r3
 80050f6:	2207      	movs	r2, #7
 80050f8:	4013      	ands	r3, r2
 80050fa:	b299      	uxth	r1, r3
 80050fc:	1903      	adds	r3, r0, r4
 80050fe:	19db      	adds	r3, r3, r7
 8005100:	1902      	adds	r2, r0, r4
 8005102:	19d2      	adds	r2, r2, r7
 8005104:	8812      	ldrh	r2, [r2, #0]
 8005106:	430a      	orrs	r2, r1
 8005108:	801a      	strh	r2, [r3, #0]
        huart->Instance->BRR = brrtemp;
 800510a:	6a7b      	ldr	r3, [r7, #36]	@ 0x24
 800510c:	681b      	ldr	r3, [r3, #0]
 800510e:	1902      	adds	r2, r0, r4
 8005110:	19d2      	adds	r2, r2, r7
 8005112:	8812      	ldrh	r2, [r2, #0]
 8005114:	60da      	str	r2, [r3, #12]
 8005116:	e05e      	b.n	80051d6 <UART_SetConfig+0x546>
      }
      else
      {
        ret = HAL_ERROR;
 8005118:	231a      	movs	r3, #26
 800511a:	2220      	movs	r2, #32
 800511c:	189b      	adds	r3, r3, r2
 800511e:	19db      	adds	r3, r3, r7
 8005120:	2201      	movs	r2, #1
 8005122:	701a      	strb	r2, [r3, #0]
 8005124:	e057      	b.n	80051d6 <UART_SetConfig+0x546>
      }
    }
  }
  else
  {
    switch (clocksource)
 8005126:	231b      	movs	r3, #27
 8005128:	2220      	movs	r2, #32
 800512a:	189b      	adds	r3, r3, r2
 800512c:	19db      	adds	r3, r3, r7
 800512e:	781b      	ldrb	r3, [r3, #0]
 8005130:	2b08      	cmp	r3, #8
 8005132:	d015      	beq.n	8005160 <UART_SetConfig+0x4d0>
 8005134:	dc18      	bgt.n	8005168 <UART_SetConfig+0x4d8>
 8005136:	2b04      	cmp	r3, #4
 8005138:	d00d      	beq.n	8005156 <UART_SetConfig+0x4c6>
 800513a:	dc15      	bgt.n	8005168 <UART_SetConfig+0x4d8>
 800513c:	2b00      	cmp	r3, #0
 800513e:	d002      	beq.n	8005146 <UART_SetConfig+0x4b6>
 8005140:	2b02      	cmp	r3, #2
 8005142:	d005      	beq.n	8005150 <UART_SetConfig+0x4c0>
 8005144:	e010      	b.n	8005168 <UART_SetConfig+0x4d8>
    {
      case UART_CLOCKSOURCE_PCLK1:
        pclk = HAL_RCC_GetPCLK1Freq();
 8005146:	f7ff fa9b 	bl	8004680 <HAL_RCC_GetPCLK1Freq>
 800514a:	0003      	movs	r3, r0
 800514c:	637b      	str	r3, [r7, #52]	@ 0x34
        break;
 800514e:	e014      	b.n	800517a <UART_SetConfig+0x4ea>
      case UART_CLOCKSOURCE_HSI:
        pclk = (uint32_t) HSI_VALUE;
 8005150:	4b2d      	ldr	r3, [pc, #180]	@ (8005208 <UART_SetConfig+0x578>)
 8005152:	637b      	str	r3, [r7, #52]	@ 0x34
        break;
 8005154:	e011      	b.n	800517a <UART_SetConfig+0x4ea>
      case UART_CLOCKSOURCE_SYSCLK:
        pclk = HAL_RCC_GetSysClockFreq();
 8005156:	f7ff fa07 	bl	8004568 <HAL_RCC_GetSysClockFreq>
 800515a:	0003      	movs	r3, r0
 800515c:	637b      	str	r3, [r7, #52]	@ 0x34
        break;
 800515e:	e00c      	b.n	800517a <UART_SetConfig+0x4ea>
      case UART_CLOCKSOURCE_LSE:
        pclk = (uint32_t) LSE_VALUE;
 8005160:	2380      	movs	r3, #128	@ 0x80
 8005162:	021b      	lsls	r3, r3, #8
 8005164:	637b      	str	r3, [r7, #52]	@ 0x34
        break;
 8005166:	e008      	b.n	800517a <UART_SetConfig+0x4ea>
      default:
        pclk = 0U;
 8005168:	2300      	movs	r3, #0
 800516a:	637b      	str	r3, [r7, #52]	@ 0x34
        ret = HAL_ERROR;
 800516c:	231a      	movs	r3, #26
 800516e:	2220      	movs	r2, #32
 8005170:	189b      	adds	r3, r3, r2
 8005172:	19db      	adds	r3, r3, r7
 8005174:	2201      	movs	r2, #1
 8005176:	701a      	strb	r2, [r3, #0]
        break;
 8005178:	46c0      	nop			@ (mov r8, r8)
    }

    if (pclk != 0U)
 800517a:	6b7b      	ldr	r3, [r7, #52]	@ 0x34
 800517c:	2b00      	cmp	r3, #0
 800517e:	d02a      	beq.n	80051d6 <UART_SetConfig+0x546>
    {
      /* USARTDIV must be greater than or equal to 0d16 */
      usartdiv = (uint32_t)(UART_DIV_SAMPLING16(pclk, huart->Init.BaudRate, huart->Init.ClockPrescaler));
 8005180:	6a7b      	ldr	r3, [r7, #36]	@ 0x24
 8005182:	6a5a      	ldr	r2, [r3, #36]	@ 0x24
 8005184:	4b1f      	ldr	r3, [pc, #124]	@ (8005204 <UART_SetConfig+0x574>)
 8005186:	0052      	lsls	r2, r2, #1
 8005188:	5ad3      	ldrh	r3, [r2, r3]
 800518a:	0019      	movs	r1, r3
 800518c:	6b78      	ldr	r0, [r7, #52]	@ 0x34
 800518e:	f7fa ffc1 	bl	8000114 <__udivsi3>
 8005192:	0003      	movs	r3, r0
 8005194:	001a      	movs	r2, r3
 8005196:	6a7b      	ldr	r3, [r7, #36]	@ 0x24
 8005198:	685b      	ldr	r3, [r3, #4]
 800519a:	085b      	lsrs	r3, r3, #1
 800519c:	18d2      	adds	r2, r2, r3
 800519e:	6a7b      	ldr	r3, [r7, #36]	@ 0x24
 80051a0:	685b      	ldr	r3, [r3, #4]
 80051a2:	0019      	movs	r1, r3
 80051a4:	0010      	movs	r0, r2
 80051a6:	f7fa ffb5 	bl	8000114 <__udivsi3>
 80051aa:	0003      	movs	r3, r0
 80051ac:	633b      	str	r3, [r7, #48]	@ 0x30
      if ((usartdiv >= UART_BRR_MIN) && (usartdiv <= UART_BRR_MAX))
 80051ae:	6b3b      	ldr	r3, [r7, #48]	@ 0x30
 80051b0:	2b0f      	cmp	r3, #15
 80051b2:	d90a      	bls.n	80051ca <UART_SetConfig+0x53a>
 80051b4:	6b3a      	ldr	r2, [r7, #48]	@ 0x30
 80051b6:	2380      	movs	r3, #128	@ 0x80
 80051b8:	025b      	lsls	r3, r3, #9
 80051ba:	429a      	cmp	r2, r3
 80051bc:	d205      	bcs.n	80051ca <UART_SetConfig+0x53a>
      {
        huart->Instance->BRR = (uint16_t)usartdiv;
 80051be:	6b3b      	ldr	r3, [r7, #48]	@ 0x30
 80051c0:	b29a      	uxth	r2, r3
 80051c2:	6a7b      	ldr	r3, [r7, #36]	@ 0x24
 80051c4:	681b      	ldr	r3, [r3, #0]
 80051c6:	60da      	str	r2, [r3, #12]
 80051c8:	e005      	b.n	80051d6 <UART_SetConfig+0x546>
      }
      else
      {
        ret = HAL_ERROR;
 80051ca:	231a      	movs	r3, #26
 80051cc:	2220      	movs	r2, #32
 80051ce:	189b      	adds	r3, r3, r2
 80051d0:	19db      	adds	r3, r3, r7
 80051d2:	2201      	movs	r2, #1
 80051d4:	701a      	strb	r2, [r3, #0]
      }
    }
  }

  /* Initialize the number of data to process during RX/TX ISR execution */
  huart->NbTxDataToProcess = 1;
 80051d6:	6a7b      	ldr	r3, [r7, #36]	@ 0x24
 80051d8:	226a      	movs	r2, #106	@ 0x6a
 80051da:	2101      	movs	r1, #1
 80051dc:	5299      	strh	r1, [r3, r2]
  huart->NbRxDataToProcess = 1;
 80051de:	6a7b      	ldr	r3, [r7, #36]	@ 0x24
 80051e0:	2268      	movs	r2, #104	@ 0x68
 80051e2:	2101      	movs	r1, #1
 80051e4:	5299      	strh	r1, [r3, r2]

  /* Clear ISR function pointers */
  huart->RxISR = NULL;
 80051e6:	6a7b      	ldr	r3, [r7, #36]	@ 0x24
 80051e8:	2200      	movs	r2, #0
 80051ea:	675a      	str	r2, [r3, #116]	@ 0x74
  huart->TxISR = NULL;
 80051ec:	6a7b      	ldr	r3, [r7, #36]	@ 0x24
 80051ee:	2200      	movs	r2, #0
 80051f0:	679a      	str	r2, [r3, #120]	@ 0x78

  return ret;
 80051f2:	231a      	movs	r3, #26
 80051f4:	2220      	movs	r2, #32
 80051f6:	189b      	adds	r3, r3, r2
 80051f8:	19db      	adds	r3, r3, r7
 80051fa:	781b      	ldrb	r3, [r3, #0]
}
 80051fc:	0018      	movs	r0, r3
 80051fe:	46bd      	mov	sp, r7
 8005200:	b010      	add	sp, #64	@ 0x40
 8005202:	bdb0      	pop	{r4, r5, r7, pc}
 8005204:	08007f30 	.word	0x08007f30
 8005208:	00f42400 	.word	0x00f42400

0800520c <UART_AdvFeatureConfig>:
  * @brief Configure the UART peripheral advanced features.
  * @param huart UART handle.
  * @retval None
  */
void UART_AdvFeatureConfig(UART_HandleTypeDef *huart)
{
 800520c:	b580      	push	{r7, lr}
 800520e:	b082      	sub	sp, #8
 8005210:	af00      	add	r7, sp, #0
 8005212:	6078      	str	r0, [r7, #4]
  /* Check whether the set of advanced features to configure is properly set */
  assert_param(IS_UART_ADVFEATURE_INIT(huart->AdvancedInit.AdvFeatureInit));

  /* if required, configure RX/TX pins swap */
  if (HAL_IS_BIT_SET(huart->AdvancedInit.AdvFeatureInit, UART_ADVFEATURE_SWAP_INIT))
 8005214:	687b      	ldr	r3, [r7, #4]
 8005216:	6a9b      	ldr	r3, [r3, #40]	@ 0x28
 8005218:	2208      	movs	r2, #8
 800521a:	4013      	ands	r3, r2
 800521c:	d00b      	beq.n	8005236 <UART_AdvFeatureConfig+0x2a>
  {
    assert_param(IS_UART_ADVFEATURE_SWAP(huart->AdvancedInit.Swap));
    MODIFY_REG(huart->Instance->CR2, USART_CR2_SWAP, huart->AdvancedInit.Swap);
 800521e:	687b      	ldr	r3, [r7, #4]
 8005220:	681b      	ldr	r3, [r3, #0]
 8005222:	685b      	ldr	r3, [r3, #4]
 8005224:	4a4a      	ldr	r2, [pc, #296]	@ (8005350 <UART_AdvFeatureConfig+0x144>)
 8005226:	4013      	ands	r3, r2
 8005228:	0019      	movs	r1, r3
 800522a:	687b      	ldr	r3, [r7, #4]
 800522c:	6b9a      	ldr	r2, [r3, #56]	@ 0x38
 800522e:	687b      	ldr	r3, [r7, #4]
 8005230:	681b      	ldr	r3, [r3, #0]
 8005232:	430a      	orrs	r2, r1
 8005234:	605a      	str	r2, [r3, #4]
  }

  /* if required, configure TX pin active level inversion */
  if (HAL_IS_BIT_SET(huart->AdvancedInit.AdvFeatureInit, UART_ADVFEATURE_TXINVERT_INIT))
 8005236:	687b      	ldr	r3, [r7, #4]
 8005238:	6a9b      	ldr	r3, [r3, #40]	@ 0x28
 800523a:	2201      	movs	r2, #1
 800523c:	4013      	ands	r3, r2
 800523e:	d00b      	beq.n	8005258 <UART_AdvFeatureConfig+0x4c>
  {
    assert_param(IS_UART_ADVFEATURE_TXINV(huart->AdvancedInit.TxPinLevelInvert));
    MODIFY_REG(huart->Instance->CR2, USART_CR2_TXINV, huart->AdvancedInit.TxPinLevelInvert);
 8005240:	687b      	ldr	r3, [r7, #4]
 8005242:	681b      	ldr	r3, [r3, #0]
 8005244:	685b      	ldr	r3, [r3, #4]
 8005246:	4a43      	ldr	r2, [pc, #268]	@ (8005354 <UART_AdvFeatureConfig+0x148>)
 8005248:	4013      	ands	r3, r2
 800524a:	0019      	movs	r1, r3
 800524c:	687b      	ldr	r3, [r7, #4]
 800524e:	6ada      	ldr	r2, [r3, #44]	@ 0x2c
 8005250:	687b      	ldr	r3, [r7, #4]
 8005252:	681b      	ldr	r3, [r3, #0]
 8005254:	430a      	orrs	r2, r1
 8005256:	605a      	str	r2, [r3, #4]
  }

  /* if required, configure RX pin active level inversion */
  if (HAL_IS_BIT_SET(huart->AdvancedInit.AdvFeatureInit, UART_ADVFEATURE_RXINVERT_INIT))
 8005258:	687b      	ldr	r3, [r7, #4]
 800525a:	6a9b      	ldr	r3, [r3, #40]	@ 0x28
 800525c:	2202      	movs	r2, #2
 800525e:	4013      	ands	r3, r2
 8005260:	d00b      	beq.n	800527a <UART_AdvFeatureConfig+0x6e>
  {
    assert_param(IS_UART_ADVFEATURE_RXINV(huart->AdvancedInit.RxPinLevelInvert));
    MODIFY_REG(huart->Instance->CR2, USART_CR2_RXINV, huart->AdvancedInit.RxPinLevelInvert);
 8005262:	687b      	ldr	r3, [r7, #4]
 8005264:	681b      	ldr	r3, [r3, #0]
 8005266:	685b      	ldr	r3, [r3, #4]
 8005268:	4a3b      	ldr	r2, [pc, #236]	@ (8005358 <UART_AdvFeatureConfig+0x14c>)
 800526a:	4013      	ands	r3, r2
 800526c:	0019      	movs	r1, r3
 800526e:	687b      	ldr	r3, [r7, #4]
 8005270:	6b1a      	ldr	r2, [r3, #48]	@ 0x30
 8005272:	687b      	ldr	r3, [r7, #4]
 8005274:	681b      	ldr	r3, [r3, #0]
 8005276:	430a      	orrs	r2, r1
 8005278:	605a      	str	r2, [r3, #4]
  }

  /* if required, configure data inversion */
  if (HAL_IS_BIT_SET(huart->AdvancedInit.AdvFeatureInit, UART_ADVFEATURE_DATAINVERT_INIT))
 800527a:	687b      	ldr	r3, [r7, #4]
 800527c:	6a9b      	ldr	r3, [r3, #40]	@ 0x28
 800527e:	2204      	movs	r2, #4
 8005280:	4013      	ands	r3, r2
 8005282:	d00b      	beq.n	800529c <UART_AdvFeatureConfig+0x90>
  {
    assert_param(IS_UART_ADVFEATURE_DATAINV(huart->AdvancedInit.DataInvert));
    MODIFY_REG(huart->Instance->CR2, USART_CR2_DATAINV, huart->AdvancedInit.DataInvert);
 8005284:	687b      	ldr	r3, [r7, #4]
 8005286:	681b      	ldr	r3, [r3, #0]
 8005288:	685b      	ldr	r3, [r3, #4]
 800528a:	4a34      	ldr	r2, [pc, #208]	@ (800535c <UART_AdvFeatureConfig+0x150>)
 800528c:	4013      	ands	r3, r2
 800528e:	0019      	movs	r1, r3
 8005290:	687b      	ldr	r3, [r7, #4]
 8005292:	6b5a      	ldr	r2, [r3, #52]	@ 0x34
 8005294:	687b      	ldr	r3, [r7, #4]
 8005296:	681b      	ldr	r3, [r3, #0]
 8005298:	430a      	orrs	r2, r1
 800529a:	605a      	str	r2, [r3, #4]
  }

  /* if required, configure RX overrun detection disabling */
  if (HAL_IS_BIT_SET(huart->AdvancedInit.AdvFeatureInit, UART_ADVFEATURE_RXOVERRUNDISABLE_INIT))
 800529c:	687b      	ldr	r3, [r7, #4]
 800529e:	6a9b      	ldr	r3, [r3, #40]	@ 0x28
 80052a0:	2210      	movs	r2, #16
 80052a2:	4013      	ands	r3, r2
 80052a4:	d00b      	beq.n	80052be <UART_AdvFeatureConfig+0xb2>
  {
    assert_param(IS_UART_OVERRUN(huart->AdvancedInit.OverrunDisable));
    MODIFY_REG(huart->Instance->CR3, USART_CR3_OVRDIS, huart->AdvancedInit.OverrunDisable);
 80052a6:	687b      	ldr	r3, [r7, #4]
 80052a8:	681b      	ldr	r3, [r3, #0]
 80052aa:	689b      	ldr	r3, [r3, #8]
 80052ac:	4a2c      	ldr	r2, [pc, #176]	@ (8005360 <UART_AdvFeatureConfig+0x154>)
 80052ae:	4013      	ands	r3, r2
 80052b0:	0019      	movs	r1, r3
 80052b2:	687b      	ldr	r3, [r7, #4]
 80052b4:	6bda      	ldr	r2, [r3, #60]	@ 0x3c
 80052b6:	687b      	ldr	r3, [r7, #4]
 80052b8:	681b      	ldr	r3, [r3, #0]
 80052ba:	430a      	orrs	r2, r1
 80052bc:	609a      	str	r2, [r3, #8]
  }

  /* if required, configure DMA disabling on reception error */
  if (HAL_IS_BIT_SET(huart->AdvancedInit.AdvFeatureInit, UART_ADVFEATURE_DMADISABLEONERROR_INIT))
 80052be:	687b      	ldr	r3, [r7, #4]
 80052c0:	6a9b      	ldr	r3, [r3, #40]	@ 0x28
 80052c2:	2220      	movs	r2, #32
 80052c4:	4013      	ands	r3, r2
 80052c6:	d00b      	beq.n	80052e0 <UART_AdvFeatureConfig+0xd4>
  {
    assert_param(IS_UART_ADVFEATURE_DMAONRXERROR(huart->AdvancedInit.DMADisableonRxError));
    MODIFY_REG(huart->Instance->CR3, USART_CR3_DDRE, huart->AdvancedInit.DMADisableonRxError);
 80052c8:	687b      	ldr	r3, [r7, #4]
 80052ca:	681b      	ldr	r3, [r3, #0]
 80052cc:	689b      	ldr	r3, [r3, #8]
 80052ce:	4a25      	ldr	r2, [pc, #148]	@ (8005364 <UART_AdvFeatureConfig+0x158>)
 80052d0:	4013      	ands	r3, r2
 80052d2:	0019      	movs	r1, r3
 80052d4:	687b      	ldr	r3, [r7, #4]
 80052d6:	6c1a      	ldr	r2, [r3, #64]	@ 0x40
 80052d8:	687b      	ldr	r3, [r7, #4]
 80052da:	681b      	ldr	r3, [r3, #0]
 80052dc:	430a      	orrs	r2, r1
 80052de:	609a      	str	r2, [r3, #8]
  }

  /* if required, configure auto Baud rate detection scheme */
  if (HAL_IS_BIT_SET(huart->AdvancedInit.AdvFeatureInit, UART_ADVFEATURE_AUTOBAUDRATE_INIT))
 80052e0:	687b      	ldr	r3, [r7, #4]
 80052e2:	6a9b      	ldr	r3, [r3, #40]	@ 0x28
 80052e4:	2240      	movs	r2, #64	@ 0x40
 80052e6:	4013      	ands	r3, r2
 80052e8:	d01d      	beq.n	8005326 <UART_AdvFeatureConfig+0x11a>
  {
    assert_param(IS_USART_AUTOBAUDRATE_DETECTION_INSTANCE(huart->Instance));
    assert_param(IS_UART_ADVFEATURE_AUTOBAUDRATE(huart->AdvancedInit.AutoBaudRateEnable));
    MODIFY_REG(huart->Instance->CR2, USART_CR2_ABREN, huart->AdvancedInit.AutoBaudRateEnable);
 80052ea:	687b      	ldr	r3, [r7, #4]
 80052ec:	681b      	ldr	r3, [r3, #0]
 80052ee:	685b      	ldr	r3, [r3, #4]
 80052f0:	4a1d      	ldr	r2, [pc, #116]	@ (8005368 <UART_AdvFeatureConfig+0x15c>)
 80052f2:	4013      	ands	r3, r2
 80052f4:	0019      	movs	r1, r3
 80052f6:	687b      	ldr	r3, [r7, #4]
 80052f8:	6c5a      	ldr	r2, [r3, #68]	@ 0x44
 80052fa:	687b      	ldr	r3, [r7, #4]
 80052fc:	681b      	ldr	r3, [r3, #0]
 80052fe:	430a      	orrs	r2, r1
 8005300:	605a      	str	r2, [r3, #4]
    /* set auto Baudrate detection parameters if detection is enabled */
    if (huart->AdvancedInit.AutoBaudRateEnable == UART_ADVFEATURE_AUTOBAUDRATE_ENABLE)
 8005302:	687b      	ldr	r3, [r7, #4]
 8005304:	6c5a      	ldr	r2, [r3, #68]	@ 0x44
 8005306:	2380      	movs	r3, #128	@ 0x80
 8005308:	035b      	lsls	r3, r3, #13
 800530a:	429a      	cmp	r2, r3
 800530c:	d10b      	bne.n	8005326 <UART_AdvFeatureConfig+0x11a>
    {
      assert_param(IS_UART_ADVFEATURE_AUTOBAUDRATEMODE(huart->AdvancedInit.AutoBaudRateMode));
      MODIFY_REG(huart->Instance->CR2, USART_CR2_ABRMODE, huart->AdvancedInit.AutoBaudRateMode);
 800530e:	687b      	ldr	r3, [r7, #4]
 8005310:	681b      	ldr	r3, [r3, #0]
 8005312:	685b      	ldr	r3, [r3, #4]
 8005314:	4a15      	ldr	r2, [pc, #84]	@ (800536c <UART_AdvFeatureConfig+0x160>)
 8005316:	4013      	ands	r3, r2
 8005318:	0019      	movs	r1, r3
 800531a:	687b      	ldr	r3, [r7, #4]
 800531c:	6c9a      	ldr	r2, [r3, #72]	@ 0x48
 800531e:	687b      	ldr	r3, [r7, #4]
 8005320:	681b      	ldr	r3, [r3, #0]
 8005322:	430a      	orrs	r2, r1
 8005324:	605a      	str	r2, [r3, #4]
    }
  }

  /* if required, configure MSB first on communication line */
  if (HAL_IS_BIT_SET(huart->AdvancedInit.AdvFeatureInit, UART_ADVFEATURE_MSBFIRST_INIT))
 8005326:	687b      	ldr	r3, [r7, #4]
 8005328:	6a9b      	ldr	r3, [r3, #40]	@ 0x28
 800532a:	2280      	movs	r2, #128	@ 0x80
 800532c:	4013      	ands	r3, r2
 800532e:	d00b      	beq.n	8005348 <UART_AdvFeatureConfig+0x13c>
  {
    assert_param(IS_UART_ADVFEATURE_MSBFIRST(huart->AdvancedInit.MSBFirst));
    MODIFY_REG(huart->Instance->CR2, USART_CR2_MSBFIRST, huart->AdvancedInit.MSBFirst);
 8005330:	687b      	ldr	r3, [r7, #4]
 8005332:	681b      	ldr	r3, [r3, #0]
 8005334:	685b      	ldr	r3, [r3, #4]
 8005336:	4a0e      	ldr	r2, [pc, #56]	@ (8005370 <UART_AdvFeatureConfig+0x164>)
 8005338:	4013      	ands	r3, r2
 800533a:	0019      	movs	r1, r3
 800533c:	687b      	ldr	r3, [r7, #4]
 800533e:	6cda      	ldr	r2, [r3, #76]	@ 0x4c
 8005340:	687b      	ldr	r3, [r7, #4]
 8005342:	681b      	ldr	r3, [r3, #0]
 8005344:	430a      	orrs	r2, r1
 8005346:	605a      	str	r2, [r3, #4]
  }
}
 8005348:	46c0      	nop			@ (mov r8, r8)
 800534a:	46bd      	mov	sp, r7
 800534c:	b002      	add	sp, #8
 800534e:	bd80      	pop	{r7, pc}
 8005350:	ffff7fff 	.word	0xffff7fff
 8005354:	fffdffff 	.word	0xfffdffff
 8005358:	fffeffff 	.word	0xfffeffff
 800535c:	fffbffff 	.word	0xfffbffff
 8005360:	ffffefff 	.word	0xffffefff
 8005364:	ffffdfff 	.word	0xffffdfff
 8005368:	ffefffff 	.word	0xffefffff
 800536c:	ff9fffff 	.word	0xff9fffff
 8005370:	fff7ffff 	.word	0xfff7ffff

08005374 <UART_CheckIdleState>:
  * @brief Check the UART Idle State.
  * @param huart UART handle.
  * @retval HAL status
  */
HAL_StatusTypeDef UART_CheckIdleState(UART_HandleTypeDef *huart)
{
 8005374:	b580      	push	{r7, lr}
 8005376:	b092      	sub	sp, #72	@ 0x48
 8005378:	af02      	add	r7, sp, #8
 800537a:	6078      	str	r0, [r7, #4]
  uint32_t tickstart;

  /* Initialize the UART ErrorCode */
  huart->ErrorCode = HAL_UART_ERROR_NONE;
 800537c:	687b      	ldr	r3, [r7, #4]
 800537e:	2290      	movs	r2, #144	@ 0x90
 8005380:	2100      	movs	r1, #0
 8005382:	5099      	str	r1, [r3, r2]

  /* Init tickstart for timeout management */
  tickstart = HAL_GetTick();
 8005384:	f7fd fa96 	bl	80028b4 <HAL_GetTick>
 8005388:	0003      	movs	r3, r0
 800538a:	63fb      	str	r3, [r7, #60]	@ 0x3c

  /* Check if the Transmitter is enabled */
  if ((huart->Instance->CR1 & USART_CR1_TE) == USART_CR1_TE)
 800538c:	687b      	ldr	r3, [r7, #4]
 800538e:	681b      	ldr	r3, [r3, #0]
 8005390:	681b      	ldr	r3, [r3, #0]
 8005392:	2208      	movs	r2, #8
 8005394:	4013      	ands	r3, r2
 8005396:	2b08      	cmp	r3, #8
 8005398:	d12d      	bne.n	80053f6 <UART_CheckIdleState+0x82>
  {
    /* Wait until TEACK flag is set */
    if (UART_WaitOnFlagUntilTimeout(huart, USART_ISR_TEACK, RESET, tickstart, HAL_UART_TIMEOUT_VALUE) != HAL_OK)
 800539a:	6bfb      	ldr	r3, [r7, #60]	@ 0x3c
 800539c:	2280      	movs	r2, #128	@ 0x80
 800539e:	0391      	lsls	r1, r2, #14
 80053a0:	6878      	ldr	r0, [r7, #4]
 80053a2:	4a47      	ldr	r2, [pc, #284]	@ (80054c0 <UART_CheckIdleState+0x14c>)
 80053a4:	9200      	str	r2, [sp, #0]
 80053a6:	2200      	movs	r2, #0
 80053a8:	f000 f88e 	bl	80054c8 <UART_WaitOnFlagUntilTimeout>
 80053ac:	1e03      	subs	r3, r0, #0
 80053ae:	d022      	beq.n	80053f6 <UART_CheckIdleState+0x82>
 */
__STATIC_FORCEINLINE uint32_t __get_PRIMASK(void)
{
  uint32_t result;

  __ASM volatile ("MRS %0, primask" : "=r" (result) :: "memory");
 80053b0:	f3ef 8310 	mrs	r3, PRIMASK
 80053b4:	627b      	str	r3, [r7, #36]	@ 0x24
  return(result);
 80053b6:	6a7b      	ldr	r3, [r7, #36]	@ 0x24
    {
      /* Disable TXE interrupt for the interrupt process */
      ATOMIC_CLEAR_BIT(huart->Instance->CR1, (USART_CR1_TXEIE_TXFNFIE));
 80053b8:	63bb      	str	r3, [r7, #56]	@ 0x38
 80053ba:	2301      	movs	r3, #1
 80053bc:	62bb      	str	r3, [r7, #40]	@ 0x28
  \details Assigns the given value to the Priority Mask Register.
  \param [in]    priMask  Priority Mask
 */
__STATIC_FORCEINLINE void __set_PRIMASK(uint32_t priMask)
{
  __ASM volatile ("MSR primask, %0" : : "r" (priMask) : "memory");
 80053be:	6abb      	ldr	r3, [r7, #40]	@ 0x28
 80053c0:	f383 8810 	msr	PRIMASK, r3
}
 80053c4:	46c0      	nop			@ (mov r8, r8)
 80053c6:	687b      	ldr	r3, [r7, #4]
 80053c8:	681b      	ldr	r3, [r3, #0]
 80053ca:	681a      	ldr	r2, [r3, #0]
 80053cc:	687b      	ldr	r3, [r7, #4]
 80053ce:	681b      	ldr	r3, [r3, #0]
 80053d0:	2180      	movs	r1, #128	@ 0x80
 80053d2:	438a      	bics	r2, r1
 80053d4:	601a      	str	r2, [r3, #0]
 80053d6:	6bbb      	ldr	r3, [r7, #56]	@ 0x38
 80053d8:	62fb      	str	r3, [r7, #44]	@ 0x2c
  __ASM volatile ("MSR primask, %0" : : "r" (priMask) : "memory");
 80053da:	6afb      	ldr	r3, [r7, #44]	@ 0x2c
 80053dc:	f383 8810 	msr	PRIMASK, r3
}
 80053e0:	46c0      	nop			@ (mov r8, r8)

      huart->gState = HAL_UART_STATE_READY;
 80053e2:	687b      	ldr	r3, [r7, #4]
 80053e4:	2288      	movs	r2, #136	@ 0x88
 80053e6:	2120      	movs	r1, #32
 80053e8:	5099      	str	r1, [r3, r2]

      __HAL_UNLOCK(huart);
 80053ea:	687b      	ldr	r3, [r7, #4]
 80053ec:	2284      	movs	r2, #132	@ 0x84
 80053ee:	2100      	movs	r1, #0
 80053f0:	5499      	strb	r1, [r3, r2]

      /* Timeout occurred */
      return HAL_TIMEOUT;
 80053f2:	2303      	movs	r3, #3
 80053f4:	e060      	b.n	80054b8 <UART_CheckIdleState+0x144>
    }
  }

  /* Check if the Receiver is enabled */
  if ((huart->Instance->CR1 & USART_CR1_RE) == USART_CR1_RE)
 80053f6:	687b      	ldr	r3, [r7, #4]
 80053f8:	681b      	ldr	r3, [r3, #0]
 80053fa:	681b      	ldr	r3, [r3, #0]
 80053fc:	2204      	movs	r2, #4
 80053fe:	4013      	ands	r3, r2
 8005400:	2b04      	cmp	r3, #4
 8005402:	d146      	bne.n	8005492 <UART_CheckIdleState+0x11e>
  {
    /* Wait until REACK flag is set */
    if (UART_WaitOnFlagUntilTimeout(huart, USART_ISR_REACK, RESET, tickstart, HAL_UART_TIMEOUT_VALUE) != HAL_OK)
 8005404:	6bfb      	ldr	r3, [r7, #60]	@ 0x3c
 8005406:	2280      	movs	r2, #128	@ 0x80
 8005408:	03d1      	lsls	r1, r2, #15
 800540a:	6878      	ldr	r0, [r7, #4]
 800540c:	4a2c      	ldr	r2, [pc, #176]	@ (80054c0 <UART_CheckIdleState+0x14c>)
 800540e:	9200      	str	r2, [sp, #0]
 8005410:	2200      	movs	r2, #0
 8005412:	f000 f859 	bl	80054c8 <UART_WaitOnFlagUntilTimeout>
 8005416:	1e03      	subs	r3, r0, #0
 8005418:	d03b      	beq.n	8005492 <UART_CheckIdleState+0x11e>
  __ASM volatile ("MRS %0, primask" : "=r" (result) :: "memory");
 800541a:	f3ef 8310 	mrs	r3, PRIMASK
 800541e:	60fb      	str	r3, [r7, #12]
  return(result);
 8005420:	68fb      	ldr	r3, [r7, #12]
    {
      /* Disable RXNE, PE and ERR (Frame error, noise error, overrun error)
      interrupts for the interrupt process */
      ATOMIC_CLEAR_BIT(huart->Instance->CR1, (USART_CR1_RXNEIE_RXFNEIE | USART_CR1_PEIE));
 8005422:	637b      	str	r3, [r7, #52]	@ 0x34
 8005424:	2301      	movs	r3, #1
 8005426:	613b      	str	r3, [r7, #16]
  __ASM volatile ("MSR primask, %0" : : "r" (priMask) : "memory");
 8005428:	693b      	ldr	r3, [r7, #16]
 800542a:	f383 8810 	msr	PRIMASK, r3
}
 800542e:	46c0      	nop			@ (mov r8, r8)
 8005430:	687b      	ldr	r3, [r7, #4]
 8005432:	681b      	ldr	r3, [r3, #0]
 8005434:	681a      	ldr	r2, [r3, #0]
 8005436:	687b      	ldr	r3, [r7, #4]
 8005438:	681b      	ldr	r3, [r3, #0]
 800543a:	4922      	ldr	r1, [pc, #136]	@ (80054c4 <UART_CheckIdleState+0x150>)
 800543c:	400a      	ands	r2, r1
 800543e:	601a      	str	r2, [r3, #0]
 8005440:	6b7b      	ldr	r3, [r7, #52]	@ 0x34
 8005442:	617b      	str	r3, [r7, #20]
  __ASM volatile ("MSR primask, %0" : : "r" (priMask) : "memory");
 8005444:	697b      	ldr	r3, [r7, #20]
 8005446:	f383 8810 	msr	PRIMASK, r3
}
 800544a:	46c0      	nop			@ (mov r8, r8)
  __ASM volatile ("MRS %0, primask" : "=r" (result) :: "memory");
 800544c:	f3ef 8310 	mrs	r3, PRIMASK
 8005450:	61bb      	str	r3, [r7, #24]
  return(result);
 8005452:	69bb      	ldr	r3, [r7, #24]
      ATOMIC_CLEAR_BIT(huart->Instance->CR3, USART_CR3_EIE);
 8005454:	633b      	str	r3, [r7, #48]	@ 0x30
 8005456:	2301      	movs	r3, #1
 8005458:	61fb      	str	r3, [r7, #28]
  __ASM volatile ("MSR primask, %0" : : "r" (priMask) : "memory");
 800545a:	69fb      	ldr	r3, [r7, #28]
 800545c:	f383 8810 	msr	PRIMASK, r3
}
 8005460:	46c0      	nop			@ (mov r8, r8)
 8005462:	687b      	ldr	r3, [r7, #4]
 8005464:	681b      	ldr	r3, [r3, #0]
 8005466:	689a      	ldr	r2, [r3, #8]
 8005468:	687b      	ldr	r3, [r7, #4]
 800546a:	681b      	ldr	r3, [r3, #0]
 800546c:	2101      	movs	r1, #1
 800546e:	438a      	bics	r2, r1
 8005470:	609a      	str	r2, [r3, #8]
 8005472:	6b3b      	ldr	r3, [r7, #48]	@ 0x30
 8005474:	623b      	str	r3, [r7, #32]
  __ASM volatile ("MSR primask, %0" : : "r" (priMask) : "memory");
 8005476:	6a3b      	ldr	r3, [r7, #32]
 8005478:	f383 8810 	msr	PRIMASK, r3
}
 800547c:	46c0      	nop			@ (mov r8, r8)

      huart->RxState = HAL_UART_STATE_READY;
 800547e:	687b      	ldr	r3, [r7, #4]
 8005480:	228c      	movs	r2, #140	@ 0x8c
 8005482:	2120      	movs	r1, #32
 8005484:	5099      	str	r1, [r3, r2]

      __HAL_UNLOCK(huart);
 8005486:	687b      	ldr	r3, [r7, #4]
 8005488:	2284      	movs	r2, #132	@ 0x84
 800548a:	2100      	movs	r1, #0
 800548c:	5499      	strb	r1, [r3, r2]

      /* Timeout occurred */
      return HAL_TIMEOUT;
 800548e:	2303      	movs	r3, #3
 8005490:	e012      	b.n	80054b8 <UART_CheckIdleState+0x144>
    }
  }

  /* Initialize the UART State */
  huart->gState = HAL_UART_STATE_READY;
 8005492:	687b      	ldr	r3, [r7, #4]
 8005494:	2288      	movs	r2, #136	@ 0x88
 8005496:	2120      	movs	r1, #32
 8005498:	5099      	str	r1, [r3, r2]
  huart->RxState = HAL_UART_STATE_READY;
 800549a:	687b      	ldr	r3, [r7, #4]
 800549c:	228c      	movs	r2, #140	@ 0x8c
 800549e:	2120      	movs	r1, #32
 80054a0:	5099      	str	r1, [r3, r2]
  huart->ReceptionType = HAL_UART_RECEPTION_STANDARD;
 80054a2:	687b      	ldr	r3, [r7, #4]
 80054a4:	2200      	movs	r2, #0
 80054a6:	66da      	str	r2, [r3, #108]	@ 0x6c
  huart->RxEventType = HAL_UART_RXEVENT_TC;
 80054a8:	687b      	ldr	r3, [r7, #4]
 80054aa:	2200      	movs	r2, #0
 80054ac:	671a      	str	r2, [r3, #112]	@ 0x70

  __HAL_UNLOCK(huart);
 80054ae:	687b      	ldr	r3, [r7, #4]
 80054b0:	2284      	movs	r2, #132	@ 0x84
 80054b2:	2100      	movs	r1, #0
 80054b4:	5499      	strb	r1, [r3, r2]

  return HAL_OK;
 80054b6:	2300      	movs	r3, #0
}
 80054b8:	0018      	movs	r0, r3
 80054ba:	46bd      	mov	sp, r7
 80054bc:	b010      	add	sp, #64	@ 0x40
 80054be:	bd80      	pop	{r7, pc}
 80054c0:	01ffffff 	.word	0x01ffffff
 80054c4:	fffffedf 	.word	0xfffffedf

080054c8 <UART_WaitOnFlagUntilTimeout>:
  * @param Timeout   Timeout duration
  * @retval HAL status
  */
HAL_StatusTypeDef UART_WaitOnFlagUntilTimeout(UART_HandleTypeDef *huart, uint32_t Flag, FlagStatus Status,
                                              uint32_t Tickstart, uint32_t Timeout)
{
 80054c8:	b580      	push	{r7, lr}
 80054ca:	b084      	sub	sp, #16
 80054cc:	af00      	add	r7, sp, #0
 80054ce:	60f8      	str	r0, [r7, #12]
 80054d0:	60b9      	str	r1, [r7, #8]
 80054d2:	603b      	str	r3, [r7, #0]
 80054d4:	1dfb      	adds	r3, r7, #7
 80054d6:	701a      	strb	r2, [r3, #0]
  /* Wait until flag is set */
  while ((__HAL_UART_GET_FLAG(huart, Flag) ? SET : RESET) == Status)
 80054d8:	e051      	b.n	800557e <UART_WaitOnFlagUntilTimeout+0xb6>
  {
    /* Check for the Timeout */
    if (Timeout != HAL_MAX_DELAY)
 80054da:	69bb      	ldr	r3, [r7, #24]
 80054dc:	3301      	adds	r3, #1
 80054de:	d04e      	beq.n	800557e <UART_WaitOnFlagUntilTimeout+0xb6>
    {
      if (((HAL_GetTick() - Tickstart) > Timeout) || (Timeout == 0U))
 80054e0:	f7fd f9e8 	bl	80028b4 <HAL_GetTick>
 80054e4:	0002      	movs	r2, r0
 80054e6:	683b      	ldr	r3, [r7, #0]
 80054e8:	1ad3      	subs	r3, r2, r3
 80054ea:	69ba      	ldr	r2, [r7, #24]
 80054ec:	429a      	cmp	r2, r3
 80054ee:	d302      	bcc.n	80054f6 <UART_WaitOnFlagUntilTimeout+0x2e>
 80054f0:	69bb      	ldr	r3, [r7, #24]
 80054f2:	2b00      	cmp	r3, #0
 80054f4:	d101      	bne.n	80054fa <UART_WaitOnFlagUntilTimeout+0x32>
      {

        return HAL_TIMEOUT;
 80054f6:	2303      	movs	r3, #3
 80054f8:	e051      	b.n	800559e <UART_WaitOnFlagUntilTimeout+0xd6>
      }

      if ((READ_BIT(huart->Instance->CR1, USART_CR1_RE) != 0U) && (Flag != UART_FLAG_TXE) && (Flag != UART_FLAG_TC))
 80054fa:	68fb      	ldr	r3, [r7, #12]
 80054fc:	681b      	ldr	r3, [r3, #0]
 80054fe:	681b      	ldr	r3, [r3, #0]
 8005500:	2204      	movs	r2, #4
 8005502:	4013      	ands	r3, r2
 8005504:	d03b      	beq.n	800557e <UART_WaitOnFlagUntilTimeout+0xb6>
 8005506:	68bb      	ldr	r3, [r7, #8]
 8005508:	2b80      	cmp	r3, #128	@ 0x80
 800550a:	d038      	beq.n	800557e <UART_WaitOnFlagUntilTimeout+0xb6>
 800550c:	68bb      	ldr	r3, [r7, #8]
 800550e:	2b40      	cmp	r3, #64	@ 0x40
 8005510:	d035      	beq.n	800557e <UART_WaitOnFlagUntilTimeout+0xb6>
      {
        if (__HAL_UART_GET_FLAG(huart, UART_FLAG_ORE) == SET)
 8005512:	68fb      	ldr	r3, [r7, #12]
 8005514:	681b      	ldr	r3, [r3, #0]
 8005516:	69db      	ldr	r3, [r3, #28]
 8005518:	2208      	movs	r2, #8
 800551a:	4013      	ands	r3, r2
 800551c:	2b08      	cmp	r3, #8
 800551e:	d111      	bne.n	8005544 <UART_WaitOnFlagUntilTimeout+0x7c>
        {
          /* Clear Overrun Error flag*/
          __HAL_UART_CLEAR_FLAG(huart, UART_CLEAR_OREF);
 8005520:	68fb      	ldr	r3, [r7, #12]
 8005522:	681b      	ldr	r3, [r3, #0]
 8005524:	2208      	movs	r2, #8
 8005526:	621a      	str	r2, [r3, #32]

          /* Blocking error : transfer is aborted
          Set the UART state ready to be able to start again the process,
          Disable Rx Interrupts if ongoing */
          UART_EndRxTransfer(huart);
 8005528:	68fb      	ldr	r3, [r7, #12]
 800552a:	0018      	movs	r0, r3
 800552c:	f000 f83c 	bl	80055a8 <UART_EndRxTransfer>

          huart->ErrorCode = HAL_UART_ERROR_ORE;
 8005530:	68fb      	ldr	r3, [r7, #12]
 8005532:	2290      	movs	r2, #144	@ 0x90
 8005534:	2108      	movs	r1, #8
 8005536:	5099      	str	r1, [r3, r2]

          /* Process Unlocked */
          __HAL_UNLOCK(huart);
 8005538:	68fb      	ldr	r3, [r7, #12]
 800553a:	2284      	movs	r2, #132	@ 0x84
 800553c:	2100      	movs	r1, #0
 800553e:	5499      	strb	r1, [r3, r2]

          return HAL_ERROR;
 8005540:	2301      	movs	r3, #1
 8005542:	e02c      	b.n	800559e <UART_WaitOnFlagUntilTimeout+0xd6>
        }
        if (__HAL_UART_GET_FLAG(huart, UART_FLAG_RTOF) == SET)
 8005544:	68fb      	ldr	r3, [r7, #12]
 8005546:	681b      	ldr	r3, [r3, #0]
 8005548:	69da      	ldr	r2, [r3, #28]
 800554a:	2380      	movs	r3, #128	@ 0x80
 800554c:	011b      	lsls	r3, r3, #4
 800554e:	401a      	ands	r2, r3
 8005550:	2380      	movs	r3, #128	@ 0x80
 8005552:	011b      	lsls	r3, r3, #4
 8005554:	429a      	cmp	r2, r3
 8005556:	d112      	bne.n	800557e <UART_WaitOnFlagUntilTimeout+0xb6>
        {
          /* Clear Receiver Timeout flag*/
          __HAL_UART_CLEAR_FLAG(huart, UART_CLEAR_RTOF);
 8005558:	68fb      	ldr	r3, [r7, #12]
 800555a:	681b      	ldr	r3, [r3, #0]
 800555c:	2280      	movs	r2, #128	@ 0x80
 800555e:	0112      	lsls	r2, r2, #4
 8005560:	621a      	str	r2, [r3, #32]

          /* Blocking error : transfer is aborted
          Set the UART state ready to be able to start again the process,
          Disable Rx Interrupts if ongoing */
          UART_EndRxTransfer(huart);
 8005562:	68fb      	ldr	r3, [r7, #12]
 8005564:	0018      	movs	r0, r3
 8005566:	f000 f81f 	bl	80055a8 <UART_EndRxTransfer>

          huart->ErrorCode = HAL_UART_ERROR_RTO;
 800556a:	68fb      	ldr	r3, [r7, #12]
 800556c:	2290      	movs	r2, #144	@ 0x90
 800556e:	2120      	movs	r1, #32
 8005570:	5099      	str	r1, [r3, r2]

          /* Process Unlocked */
          __HAL_UNLOCK(huart);
 8005572:	68fb      	ldr	r3, [r7, #12]
 8005574:	2284      	movs	r2, #132	@ 0x84
 8005576:	2100      	movs	r1, #0
 8005578:	5499      	strb	r1, [r3, r2]

          return HAL_TIMEOUT;
 800557a:	2303      	movs	r3, #3
 800557c:	e00f      	b.n	800559e <UART_WaitOnFlagUntilTimeout+0xd6>
  while ((__HAL_UART_GET_FLAG(huart, Flag) ? SET : RESET) == Status)
 800557e:	68fb      	ldr	r3, [r7, #12]
 8005580:	681b      	ldr	r3, [r3, #0]
 8005582:	69db      	ldr	r3, [r3, #28]
 8005584:	68ba      	ldr	r2, [r7, #8]
 8005586:	4013      	ands	r3, r2
 8005588:	68ba      	ldr	r2, [r7, #8]
 800558a:	1ad3      	subs	r3, r2, r3
 800558c:	425a      	negs	r2, r3
 800558e:	4153      	adcs	r3, r2
 8005590:	b2db      	uxtb	r3, r3
 8005592:	001a      	movs	r2, r3
 8005594:	1dfb      	adds	r3, r7, #7
 8005596:	781b      	ldrb	r3, [r3, #0]
 8005598:	429a      	cmp	r2, r3
 800559a:	d09e      	beq.n	80054da <UART_WaitOnFlagUntilTimeout+0x12>
        }
      }
    }
  }
  return HAL_OK;
 800559c:	2300      	movs	r3, #0
}
 800559e:	0018      	movs	r0, r3
 80055a0:	46bd      	mov	sp, r7
 80055a2:	b004      	add	sp, #16
 80055a4:	bd80      	pop	{r7, pc}
	...

080055a8 <UART_EndRxTransfer>:
  * @brief  End ongoing Rx transfer on UART peripheral (following error detection or Reception completion).
  * @param  huart UART handle.
  * @retval None
  */
static void UART_EndRxTransfer(UART_HandleTypeDef *huart)
{
 80055a8:	b580      	push	{r7, lr}
 80055aa:	b08e      	sub	sp, #56	@ 0x38
 80055ac:	af00      	add	r7, sp, #0
 80055ae:	6078      	str	r0, [r7, #4]
  __ASM volatile ("MRS %0, primask" : "=r" (result) :: "memory");
 80055b0:	f3ef 8310 	mrs	r3, PRIMASK
 80055b4:	617b      	str	r3, [r7, #20]
  return(result);
 80055b6:	697b      	ldr	r3, [r7, #20]
  /* Disable RXNE, PE and ERR (Frame error, noise error, overrun error) interrupts */
  ATOMIC_CLEAR_BIT(huart->Instance->CR1, (USART_CR1_RXNEIE_RXFNEIE | USART_CR1_PEIE));
 80055b8:	637b      	str	r3, [r7, #52]	@ 0x34
 80055ba:	2301      	movs	r3, #1
 80055bc:	61bb      	str	r3, [r7, #24]
  __ASM volatile ("MSR primask, %0" : : "r" (priMask) : "memory");
 80055be:	69bb      	ldr	r3, [r7, #24]
 80055c0:	f383 8810 	msr	PRIMASK, r3
}
 80055c4:	46c0      	nop			@ (mov r8, r8)
 80055c6:	687b      	ldr	r3, [r7, #4]
 80055c8:	681b      	ldr	r3, [r3, #0]
 80055ca:	681a      	ldr	r2, [r3, #0]
 80055cc:	687b      	ldr	r3, [r7, #4]
 80055ce:	681b      	ldr	r3, [r3, #0]
 80055d0:	4926      	ldr	r1, [pc, #152]	@ (800566c <UART_EndRxTransfer+0xc4>)
 80055d2:	400a      	ands	r2, r1
 80055d4:	601a      	str	r2, [r3, #0]
 80055d6:	6b7b      	ldr	r3, [r7, #52]	@ 0x34
 80055d8:	61fb      	str	r3, [r7, #28]
  __ASM volatile ("MSR primask, %0" : : "r" (priMask) : "memory");
 80055da:	69fb      	ldr	r3, [r7, #28]
 80055dc:	f383 8810 	msr	PRIMASK, r3
}
 80055e0:	46c0      	nop			@ (mov r8, r8)
  __ASM volatile ("MRS %0, primask" : "=r" (result) :: "memory");
 80055e2:	f3ef 8310 	mrs	r3, PRIMASK
 80055e6:	623b      	str	r3, [r7, #32]
  return(result);
 80055e8:	6a3b      	ldr	r3, [r7, #32]
  ATOMIC_CLEAR_BIT(huart->Instance->CR3, (USART_CR3_EIE | USART_CR3_RXFTIE));
 80055ea:	633b      	str	r3, [r7, #48]	@ 0x30
 80055ec:	2301      	movs	r3, #1
 80055ee:	627b      	str	r3, [r7, #36]	@ 0x24
  __ASM volatile ("MSR primask, %0" : : "r" (priMask) : "memory");
 80055f0:	6a7b      	ldr	r3, [r7, #36]	@ 0x24
 80055f2:	f383 8810 	msr	PRIMASK, r3
}
 80055f6:	46c0      	nop			@ (mov r8, r8)
 80055f8:	687b      	ldr	r3, [r7, #4]
 80055fa:	681b      	ldr	r3, [r3, #0]
 80055fc:	689a      	ldr	r2, [r3, #8]
 80055fe:	687b      	ldr	r3, [r7, #4]
 8005600:	681b      	ldr	r3, [r3, #0]
 8005602:	491b      	ldr	r1, [pc, #108]	@ (8005670 <UART_EndRxTransfer+0xc8>)
 8005604:	400a      	ands	r2, r1
 8005606:	609a      	str	r2, [r3, #8]
 8005608:	6b3b      	ldr	r3, [r7, #48]	@ 0x30
 800560a:	62bb      	str	r3, [r7, #40]	@ 0x28
  __ASM volatile ("MSR primask, %0" : : "r" (priMask) : "memory");
 800560c:	6abb      	ldr	r3, [r7, #40]	@ 0x28
 800560e:	f383 8810 	msr	PRIMASK, r3
}
 8005612:	46c0      	nop			@ (mov r8, r8)

  /* In case of reception waiting for IDLE event, disable also the IDLE IE interrupt source */
  if (huart->ReceptionType == HAL_UART_RECEPTION_TOIDLE)
 8005614:	687b      	ldr	r3, [r7, #4]
 8005616:	6edb      	ldr	r3, [r3, #108]	@ 0x6c
 8005618:	2b01      	cmp	r3, #1
 800561a:	d118      	bne.n	800564e <UART_EndRxTransfer+0xa6>
  __ASM volatile ("MRS %0, primask" : "=r" (result) :: "memory");
 800561c:	f3ef 8310 	mrs	r3, PRIMASK
 8005620:	60bb      	str	r3, [r7, #8]
  return(result);
 8005622:	68bb      	ldr	r3, [r7, #8]
  {
    ATOMIC_CLEAR_BIT(huart->Instance->CR1, USART_CR1_IDLEIE);
 8005624:	62fb      	str	r3, [r7, #44]	@ 0x2c
 8005626:	2301      	movs	r3, #1
 8005628:	60fb      	str	r3, [r7, #12]
  __ASM volatile ("MSR primask, %0" : : "r" (priMask) : "memory");
 800562a:	68fb      	ldr	r3, [r7, #12]
 800562c:	f383 8810 	msr	PRIMASK, r3
}
 8005630:	46c0      	nop			@ (mov r8, r8)
 8005632:	687b      	ldr	r3, [r7, #4]
 8005634:	681b      	ldr	r3, [r3, #0]
 8005636:	681a      	ldr	r2, [r3, #0]
 8005638:	687b      	ldr	r3, [r7, #4]
 800563a:	681b      	ldr	r3, [r3, #0]
 800563c:	2110      	movs	r1, #16
 800563e:	438a      	bics	r2, r1
 8005640:	601a      	str	r2, [r3, #0]
 8005642:	6afb      	ldr	r3, [r7, #44]	@ 0x2c
 8005644:	613b      	str	r3, [r7, #16]
  __ASM volatile ("MSR primask, %0" : : "r" (priMask) : "memory");
 8005646:	693b      	ldr	r3, [r7, #16]
 8005648:	f383 8810 	msr	PRIMASK, r3
}
 800564c:	46c0      	nop			@ (mov r8, r8)
  }

  /* At end of Rx process, restore huart->RxState to Ready */
  huart->RxState = HAL_UART_STATE_READY;
 800564e:	687b      	ldr	r3, [r7, #4]
 8005650:	228c      	movs	r2, #140	@ 0x8c
 8005652:	2120      	movs	r1, #32
 8005654:	5099      	str	r1, [r3, r2]
  huart->ReceptionType = HAL_UART_RECEPTION_STANDARD;
 8005656:	687b      	ldr	r3, [r7, #4]
 8005658:	2200      	movs	r2, #0
 800565a:	66da      	str	r2, [r3, #108]	@ 0x6c

  /* Reset RxIsr function pointer */
  huart->RxISR = NULL;
 800565c:	687b      	ldr	r3, [r7, #4]
 800565e:	2200      	movs	r2, #0
 8005660:	675a      	str	r2, [r3, #116]	@ 0x74
}
 8005662:	46c0      	nop			@ (mov r8, r8)
 8005664:	46bd      	mov	sp, r7
 8005666:	b00e      	add	sp, #56	@ 0x38
 8005668:	bd80      	pop	{r7, pc}
 800566a:	46c0      	nop			@ (mov r8, r8)
 800566c:	fffffedf 	.word	0xfffffedf
 8005670:	effffffe 	.word	0xeffffffe

08005674 <HAL_UARTEx_DisableFifoMode>:
  * @brief  Disable the FIFO mode.
  * @param huart      UART handle.
  * @retval HAL status
  */
HAL_StatusTypeDef HAL_UARTEx_DisableFifoMode(UART_HandleTypeDef *huart)
{
 8005674:	b580      	push	{r7, lr}
 8005676:	b084      	sub	sp, #16
 8005678:	af00      	add	r7, sp, #0
 800567a:	6078      	str	r0, [r7, #4]

  /* Check parameters */
  assert_param(IS_UART_FIFO_INSTANCE(huart->Instance));

  /* Process Locked */
  __HAL_LOCK(huart);
 800567c:	687b      	ldr	r3, [r7, #4]
 800567e:	2284      	movs	r2, #132	@ 0x84
 8005680:	5c9b      	ldrb	r3, [r3, r2]
 8005682:	2b01      	cmp	r3, #1
 8005684:	d101      	bne.n	800568a <HAL_UARTEx_DisableFifoMode+0x16>
 8005686:	2302      	movs	r3, #2
 8005688:	e027      	b.n	80056da <HAL_UARTEx_DisableFifoMode+0x66>
 800568a:	687b      	ldr	r3, [r7, #4]
 800568c:	2284      	movs	r2, #132	@ 0x84
 800568e:	2101      	movs	r1, #1
 8005690:	5499      	strb	r1, [r3, r2]

  huart->gState = HAL_UART_STATE_BUSY;
 8005692:	687b      	ldr	r3, [r7, #4]
 8005694:	2288      	movs	r2, #136	@ 0x88
 8005696:	2124      	movs	r1, #36	@ 0x24
 8005698:	5099      	str	r1, [r3, r2]

  /* Save actual UART configuration */
  tmpcr1 = READ_REG(huart->Instance->CR1);
 800569a:	687b      	ldr	r3, [r7, #4]
 800569c:	681b      	ldr	r3, [r3, #0]
 800569e:	681b      	ldr	r3, [r3, #0]
 80056a0:	60fb      	str	r3, [r7, #12]

  /* Disable UART */
  __HAL_UART_DISABLE(huart);
 80056a2:	687b      	ldr	r3, [r7, #4]
 80056a4:	681b      	ldr	r3, [r3, #0]
 80056a6:	681a      	ldr	r2, [r3, #0]
 80056a8:	687b      	ldr	r3, [r7, #4]
 80056aa:	681b      	ldr	r3, [r3, #0]
 80056ac:	2101      	movs	r1, #1
 80056ae:	438a      	bics	r2, r1
 80056b0:	601a      	str	r2, [r3, #0]

  /* Enable FIFO mode */
  CLEAR_BIT(tmpcr1, USART_CR1_FIFOEN);
 80056b2:	68fb      	ldr	r3, [r7, #12]
 80056b4:	4a0b      	ldr	r2, [pc, #44]	@ (80056e4 <HAL_UARTEx_DisableFifoMode+0x70>)
 80056b6:	4013      	ands	r3, r2
 80056b8:	60fb      	str	r3, [r7, #12]
  huart->FifoMode = UART_FIFOMODE_DISABLE;
 80056ba:	687b      	ldr	r3, [r7, #4]
 80056bc:	2200      	movs	r2, #0
 80056be:	665a      	str	r2, [r3, #100]	@ 0x64

  /* Restore UART configuration */
  WRITE_REG(huart->Instance->CR1, tmpcr1);
 80056c0:	687b      	ldr	r3, [r7, #4]
 80056c2:	681b      	ldr	r3, [r3, #0]
 80056c4:	68fa      	ldr	r2, [r7, #12]
 80056c6:	601a      	str	r2, [r3, #0]

  huart->gState = HAL_UART_STATE_READY;
 80056c8:	687b      	ldr	r3, [r7, #4]
 80056ca:	2288      	movs	r2, #136	@ 0x88
 80056cc:	2120      	movs	r1, #32
 80056ce:	5099      	str	r1, [r3, r2]

  /* Process Unlocked */
  __HAL_UNLOCK(huart);
 80056d0:	687b      	ldr	r3, [r7, #4]
 80056d2:	2284      	movs	r2, #132	@ 0x84
 80056d4:	2100      	movs	r1, #0
 80056d6:	5499      	strb	r1, [r3, r2]

  return HAL_OK;
 80056d8:	2300      	movs	r3, #0
}
 80056da:	0018      	movs	r0, r3
 80056dc:	46bd      	mov	sp, r7
 80056de:	b004      	add	sp, #16
 80056e0:	bd80      	pop	{r7, pc}
 80056e2:	46c0      	nop			@ (mov r8, r8)
 80056e4:	dfffffff 	.word	0xdfffffff

080056e8 <HAL_UARTEx_SetTxFifoThreshold>:
  *            @arg @ref UART_TXFIFO_THRESHOLD_7_8
  *            @arg @ref UART_TXFIFO_THRESHOLD_8_8
  * @retval HAL status
  */
HAL_StatusTypeDef HAL_UARTEx_SetTxFifoThreshold(UART_HandleTypeDef *huart, uint32_t Threshold)
{
 80056e8:	b580      	push	{r7, lr}
 80056ea:	b084      	sub	sp, #16
 80056ec:	af00      	add	r7, sp, #0
 80056ee:	6078      	str	r0, [r7, #4]
 80056f0:	6039      	str	r1, [r7, #0]
  /* Check parameters */
  assert_param(IS_UART_FIFO_INSTANCE(huart->Instance));
  assert_param(IS_UART_TXFIFO_THRESHOLD(Threshold));

  /* Process Locked */
  __HAL_LOCK(huart);
 80056f2:	687b      	ldr	r3, [r7, #4]
 80056f4:	2284      	movs	r2, #132	@ 0x84
 80056f6:	5c9b      	ldrb	r3, [r3, r2]
 80056f8:	2b01      	cmp	r3, #1
 80056fa:	d101      	bne.n	8005700 <HAL_UARTEx_SetTxFifoThreshold+0x18>
 80056fc:	2302      	movs	r3, #2
 80056fe:	e02e      	b.n	800575e <HAL_UARTEx_SetTxFifoThreshold+0x76>
 8005700:	687b      	ldr	r3, [r7, #4]
 8005702:	2284      	movs	r2, #132	@ 0x84
 8005704:	2101      	movs	r1, #1
 8005706:	5499      	strb	r1, [r3, r2]

  huart->gState = HAL_UART_STATE_BUSY;
 8005708:	687b      	ldr	r3, [r7, #4]
 800570a:	2288      	movs	r2, #136	@ 0x88
 800570c:	2124      	movs	r1, #36	@ 0x24
 800570e:	5099      	str	r1, [r3, r2]

  /* Save actual UART configuration */
  tmpcr1 = READ_REG(huart->Instance->CR1);
 8005710:	687b      	ldr	r3, [r7, #4]
 8005712:	681b      	ldr	r3, [r3, #0]
 8005714:	681b      	ldr	r3, [r3, #0]
 8005716:	60fb      	str	r3, [r7, #12]

  /* Disable UART */
  __HAL_UART_DISABLE(huart);
 8005718:	687b      	ldr	r3, [r7, #4]
 800571a:	681b      	ldr	r3, [r3, #0]
 800571c:	681a      	ldr	r2, [r3, #0]
 800571e:	687b      	ldr	r3, [r7, #4]
 8005720:	681b      	ldr	r3, [r3, #0]
 8005722:	2101      	movs	r1, #1
 8005724:	438a      	bics	r2, r1
 8005726:	601a      	str	r2, [r3, #0]

  /* Update TX threshold configuration */
  MODIFY_REG(huart->Instance->CR3, USART_CR3_TXFTCFG, Threshold);
 8005728:	687b      	ldr	r3, [r7, #4]
 800572a:	681b      	ldr	r3, [r3, #0]
 800572c:	689b      	ldr	r3, [r3, #8]
 800572e:	00db      	lsls	r3, r3, #3
 8005730:	08d9      	lsrs	r1, r3, #3
 8005732:	687b      	ldr	r3, [r7, #4]
 8005734:	681b      	ldr	r3, [r3, #0]
 8005736:	683a      	ldr	r2, [r7, #0]
 8005738:	430a      	orrs	r2, r1
 800573a:	609a      	str	r2, [r3, #8]

  /* Determine the number of data to process during RX/TX ISR execution */
  UARTEx_SetNbDataToProcess(huart);
 800573c:	687b      	ldr	r3, [r7, #4]
 800573e:	0018      	movs	r0, r3
 8005740:	f000 f854 	bl	80057ec <UARTEx_SetNbDataToProcess>

  /* Restore UART configuration */
  WRITE_REG(huart->Instance->CR1, tmpcr1);
 8005744:	687b      	ldr	r3, [r7, #4]
 8005746:	681b      	ldr	r3, [r3, #0]
 8005748:	68fa      	ldr	r2, [r7, #12]
 800574a:	601a      	str	r2, [r3, #0]

  huart->gState = HAL_UART_STATE_READY;
 800574c:	687b      	ldr	r3, [r7, #4]
 800574e:	2288      	movs	r2, #136	@ 0x88
 8005750:	2120      	movs	r1, #32
 8005752:	5099      	str	r1, [r3, r2]

  /* Process Unlocked */
  __HAL_UNLOCK(huart);
 8005754:	687b      	ldr	r3, [r7, #4]
 8005756:	2284      	movs	r2, #132	@ 0x84
 8005758:	2100      	movs	r1, #0
 800575a:	5499      	strb	r1, [r3, r2]

  return HAL_OK;
 800575c:	2300      	movs	r3, #0
}
 800575e:	0018      	movs	r0, r3
 8005760:	46bd      	mov	sp, r7
 8005762:	b004      	add	sp, #16
 8005764:	bd80      	pop	{r7, pc}
	...

08005768 <HAL_UARTEx_SetRxFifoThreshold>:
  *            @arg @ref UART_RXFIFO_THRESHOLD_7_8
  *            @arg @ref UART_RXFIFO_THRESHOLD_8_8
  * @retval HAL status
  */
HAL_StatusTypeDef HAL_UARTEx_SetRxFifoThreshold(UART_HandleTypeDef *huart, uint32_t Threshold)
{
 8005768:	b580      	push	{r7, lr}
 800576a:	b084      	sub	sp, #16
 800576c:	af00      	add	r7, sp, #0
 800576e:	6078      	str	r0, [r7, #4]
 8005770:	6039      	str	r1, [r7, #0]
  /* Check the parameters */
  assert_param(IS_UART_FIFO_INSTANCE(huart->Instance));
  assert_param(IS_UART_RXFIFO_THRESHOLD(Threshold));

  /* Process Locked */
  __HAL_LOCK(huart);
 8005772:	687b      	ldr	r3, [r7, #4]
 8005774:	2284      	movs	r2, #132	@ 0x84
 8005776:	5c9b      	ldrb	r3, [r3, r2]
 8005778:	2b01      	cmp	r3, #1
 800577a:	d101      	bne.n	8005780 <HAL_UARTEx_SetRxFifoThreshold+0x18>
 800577c:	2302      	movs	r3, #2
 800577e:	e02f      	b.n	80057e0 <HAL_UARTEx_SetRxFifoThreshold+0x78>
 8005780:	687b      	ldr	r3, [r7, #4]
 8005782:	2284      	movs	r2, #132	@ 0x84
 8005784:	2101      	movs	r1, #1
 8005786:	5499      	strb	r1, [r3, r2]

  huart->gState = HAL_UART_STATE_BUSY;
 8005788:	687b      	ldr	r3, [r7, #4]
 800578a:	2288      	movs	r2, #136	@ 0x88
 800578c:	2124      	movs	r1, #36	@ 0x24
 800578e:	5099      	str	r1, [r3, r2]

  /* Save actual UART configuration */
  tmpcr1 = READ_REG(huart->Instance->CR1);
 8005790:	687b      	ldr	r3, [r7, #4]
 8005792:	681b      	ldr	r3, [r3, #0]
 8005794:	681b      	ldr	r3, [r3, #0]
 8005796:	60fb      	str	r3, [r7, #12]

  /* Disable UART */
  __HAL_UART_DISABLE(huart);
 8005798:	687b      	ldr	r3, [r7, #4]
 800579a:	681b      	ldr	r3, [r3, #0]
 800579c:	681a      	ldr	r2, [r3, #0]
 800579e:	687b      	ldr	r3, [r7, #4]
 80057a0:	681b      	ldr	r3, [r3, #0]
 80057a2:	2101      	movs	r1, #1
 80057a4:	438a      	bics	r2, r1
 80057a6:	601a      	str	r2, [r3, #0]

  /* Update RX threshold configuration */
  MODIFY_REG(huart->Instance->CR3, USART_CR3_RXFTCFG, Threshold);
 80057a8:	687b      	ldr	r3, [r7, #4]
 80057aa:	681b      	ldr	r3, [r3, #0]
 80057ac:	689b      	ldr	r3, [r3, #8]
 80057ae:	4a0e      	ldr	r2, [pc, #56]	@ (80057e8 <HAL_UARTEx_SetRxFifoThreshold+0x80>)
 80057b0:	4013      	ands	r3, r2
 80057b2:	0019      	movs	r1, r3
 80057b4:	687b      	ldr	r3, [r7, #4]
 80057b6:	681b      	ldr	r3, [r3, #0]
 80057b8:	683a      	ldr	r2, [r7, #0]
 80057ba:	430a      	orrs	r2, r1
 80057bc:	609a      	str	r2, [r3, #8]

  /* Determine the number of data to process during RX/TX ISR execution */
  UARTEx_SetNbDataToProcess(huart);
 80057be:	687b      	ldr	r3, [r7, #4]
 80057c0:	0018      	movs	r0, r3
 80057c2:	f000 f813 	bl	80057ec <UARTEx_SetNbDataToProcess>

  /* Restore UART configuration */
  WRITE_REG(huart->Instance->CR1, tmpcr1);
 80057c6:	687b      	ldr	r3, [r7, #4]
 80057c8:	681b      	ldr	r3, [r3, #0]
 80057ca:	68fa      	ldr	r2, [r7, #12]
 80057cc:	601a      	str	r2, [r3, #0]

  huart->gState = HAL_UART_STATE_READY;
 80057ce:	687b      	ldr	r3, [r7, #4]
 80057d0:	2288      	movs	r2, #136	@ 0x88
 80057d2:	2120      	movs	r1, #32
 80057d4:	5099      	str	r1, [r3, r2]

  /* Process Unlocked */
  __HAL_UNLOCK(huart);
 80057d6:	687b      	ldr	r3, [r7, #4]
 80057d8:	2284      	movs	r2, #132	@ 0x84
 80057da:	2100      	movs	r1, #0
 80057dc:	5499      	strb	r1, [r3, r2]

  return HAL_OK;
 80057de:	2300      	movs	r3, #0
}
 80057e0:	0018      	movs	r0, r3
 80057e2:	46bd      	mov	sp, r7
 80057e4:	b004      	add	sp, #16
 80057e6:	bd80      	pop	{r7, pc}
 80057e8:	f1ffffff 	.word	0xf1ffffff

080057ec <UARTEx_SetNbDataToProcess>:
  *       the UART configuration registers.
  * @param huart UART handle.
  * @retval None
  */
static void UARTEx_SetNbDataToProcess(UART_HandleTypeDef *huart)
{
 80057ec:	b5f0      	push	{r4, r5, r6, r7, lr}
 80057ee:	b085      	sub	sp, #20
 80057f0:	af00      	add	r7, sp, #0
 80057f2:	6078      	str	r0, [r7, #4]
  uint8_t rx_fifo_threshold;
  uint8_t tx_fifo_threshold;
  static const uint8_t numerator[] = {1U, 1U, 1U, 3U, 7U, 1U, 0U, 0U};
  static const uint8_t denominator[] = {8U, 4U, 2U, 4U, 8U, 1U, 1U, 1U};

  if (huart->FifoMode == UART_FIFOMODE_DISABLE)
 80057f4:	687b      	ldr	r3, [r7, #4]
 80057f6:	6e5b      	ldr	r3, [r3, #100]	@ 0x64
 80057f8:	2b00      	cmp	r3, #0
 80057fa:	d108      	bne.n	800580e <UARTEx_SetNbDataToProcess+0x22>
  {
    huart->NbTxDataToProcess = 1U;
 80057fc:	687b      	ldr	r3, [r7, #4]
 80057fe:	226a      	movs	r2, #106	@ 0x6a
 8005800:	2101      	movs	r1, #1
 8005802:	5299      	strh	r1, [r3, r2]
    huart->NbRxDataToProcess = 1U;
 8005804:	687b      	ldr	r3, [r7, #4]
 8005806:	2268      	movs	r2, #104	@ 0x68
 8005808:	2101      	movs	r1, #1
 800580a:	5299      	strh	r1, [r3, r2]
    huart->NbTxDataToProcess = ((uint16_t)tx_fifo_depth * numerator[tx_fifo_threshold]) /
                               (uint16_t)denominator[tx_fifo_threshold];
    huart->NbRxDataToProcess = ((uint16_t)rx_fifo_depth * numerator[rx_fifo_threshold]) /
                               (uint16_t)denominator[rx_fifo_threshold];
  }
}
 800580c:	e043      	b.n	8005896 <UARTEx_SetNbDataToProcess+0xaa>
    rx_fifo_depth = RX_FIFO_DEPTH;
 800580e:	260f      	movs	r6, #15
 8005810:	19bb      	adds	r3, r7, r6
 8005812:	2208      	movs	r2, #8
 8005814:	701a      	strb	r2, [r3, #0]
    tx_fifo_depth = TX_FIFO_DEPTH;
 8005816:	200e      	movs	r0, #14
 8005818:	183b      	adds	r3, r7, r0
 800581a:	2208      	movs	r2, #8
 800581c:	701a      	strb	r2, [r3, #0]
    rx_fifo_threshold = (uint8_t)(READ_BIT(huart->Instance->CR3, USART_CR3_RXFTCFG) >> USART_CR3_RXFTCFG_Pos);
 800581e:	687b      	ldr	r3, [r7, #4]
 8005820:	681b      	ldr	r3, [r3, #0]
 8005822:	689b      	ldr	r3, [r3, #8]
 8005824:	0e5b      	lsrs	r3, r3, #25
 8005826:	b2da      	uxtb	r2, r3
 8005828:	240d      	movs	r4, #13
 800582a:	193b      	adds	r3, r7, r4
 800582c:	2107      	movs	r1, #7
 800582e:	400a      	ands	r2, r1
 8005830:	701a      	strb	r2, [r3, #0]
    tx_fifo_threshold = (uint8_t)(READ_BIT(huart->Instance->CR3, USART_CR3_TXFTCFG) >> USART_CR3_TXFTCFG_Pos);
 8005832:	687b      	ldr	r3, [r7, #4]
 8005834:	681b      	ldr	r3, [r3, #0]
 8005836:	689b      	ldr	r3, [r3, #8]
 8005838:	0f5b      	lsrs	r3, r3, #29
 800583a:	b2da      	uxtb	r2, r3
 800583c:	250c      	movs	r5, #12
 800583e:	197b      	adds	r3, r7, r5
 8005840:	2107      	movs	r1, #7
 8005842:	400a      	ands	r2, r1
 8005844:	701a      	strb	r2, [r3, #0]
    huart->NbTxDataToProcess = ((uint16_t)tx_fifo_depth * numerator[tx_fifo_threshold]) /
 8005846:	183b      	adds	r3, r7, r0
 8005848:	781b      	ldrb	r3, [r3, #0]
 800584a:	197a      	adds	r2, r7, r5
 800584c:	7812      	ldrb	r2, [r2, #0]
 800584e:	4914      	ldr	r1, [pc, #80]	@ (80058a0 <UARTEx_SetNbDataToProcess+0xb4>)
 8005850:	5c8a      	ldrb	r2, [r1, r2]
 8005852:	435a      	muls	r2, r3
 8005854:	0010      	movs	r0, r2
                               (uint16_t)denominator[tx_fifo_threshold];
 8005856:	197b      	adds	r3, r7, r5
 8005858:	781b      	ldrb	r3, [r3, #0]
 800585a:	4a12      	ldr	r2, [pc, #72]	@ (80058a4 <UARTEx_SetNbDataToProcess+0xb8>)
 800585c:	5cd3      	ldrb	r3, [r2, r3]
    huart->NbTxDataToProcess = ((uint16_t)tx_fifo_depth * numerator[tx_fifo_threshold]) /
 800585e:	0019      	movs	r1, r3
 8005860:	f7fa fce2 	bl	8000228 <__divsi3>
 8005864:	0003      	movs	r3, r0
 8005866:	b299      	uxth	r1, r3
 8005868:	687b      	ldr	r3, [r7, #4]
 800586a:	226a      	movs	r2, #106	@ 0x6a
 800586c:	5299      	strh	r1, [r3, r2]
    huart->NbRxDataToProcess = ((uint16_t)rx_fifo_depth * numerator[rx_fifo_threshold]) /
 800586e:	19bb      	adds	r3, r7, r6
 8005870:	781b      	ldrb	r3, [r3, #0]
 8005872:	193a      	adds	r2, r7, r4
 8005874:	7812      	ldrb	r2, [r2, #0]
 8005876:	490a      	ldr	r1, [pc, #40]	@ (80058a0 <UARTEx_SetNbDataToProcess+0xb4>)
 8005878:	5c8a      	ldrb	r2, [r1, r2]
 800587a:	435a      	muls	r2, r3
 800587c:	0010      	movs	r0, r2
                               (uint16_t)denominator[rx_fifo_threshold];
 800587e:	193b      	adds	r3, r7, r4
 8005880:	781b      	ldrb	r3, [r3, #0]
 8005882:	4a08      	ldr	r2, [pc, #32]	@ (80058a4 <UARTEx_SetNbDataToProcess+0xb8>)
 8005884:	5cd3      	ldrb	r3, [r2, r3]
    huart->NbRxDataToProcess = ((uint16_t)rx_fifo_depth * numerator[rx_fifo_threshold]) /
 8005886:	0019      	movs	r1, r3
 8005888:	f7fa fcce 	bl	8000228 <__divsi3>
 800588c:	0003      	movs	r3, r0
 800588e:	b299      	uxth	r1, r3
 8005890:	687b      	ldr	r3, [r7, #4]
 8005892:	2268      	movs	r2, #104	@ 0x68
 8005894:	5299      	strh	r1, [r3, r2]
}
 8005896:	46c0      	nop			@ (mov r8, r8)
 8005898:	46bd      	mov	sp, r7
 800589a:	b005      	add	sp, #20
 800589c:	bdf0      	pop	{r4, r5, r6, r7, pc}
 800589e:	46c0      	nop			@ (mov r8, r8)
 80058a0:	08007f48 	.word	0x08007f48
 80058a4:	08007f50 	.word	0x08007f50

080058a8 <uartSend>:
//---------------------------IMPLICIT FUNCTIONS---------------------------
/*
 * uart send/receive functions. fill it by hardware-specific uart send/receive functions
 * port
 */
espat_state_t uartSend(espat_uartInstance_t *uart, char *data, uint32_t size) {
 80058a8:	b5b0      	push	{r4, r5, r7, lr}
 80058aa:	b086      	sub	sp, #24
 80058ac:	af00      	add	r7, sp, #0
 80058ae:	60f8      	str	r0, [r7, #12]
 80058b0:	60b9      	str	r1, [r7, #8]
 80058b2:	607a      	str	r2, [r7, #4]


	HAL_StatusTypeDef state = HAL_UART_Transmit(uart->uart, (uint8_t*) data,
 80058b4:	68fb      	ldr	r3, [r7, #12]
 80058b6:	6818      	ldr	r0, [r3, #0]
 80058b8:	687b      	ldr	r3, [r7, #4]
 80058ba:	b29a      	uxth	r2, r3
 80058bc:	68fb      	ldr	r3, [r7, #12]
 80058be:	685b      	ldr	r3, [r3, #4]
 80058c0:	2517      	movs	r5, #23
 80058c2:	197c      	adds	r4, r7, r5
 80058c4:	68b9      	ldr	r1, [r7, #8]
 80058c6:	f7ff f93f 	bl	8004b48 <HAL_UART_Transmit>
 80058ca:	0003      	movs	r3, r0
 80058cc:	7023      	strb	r3, [r4, #0]
			size, uart->sendTimeout);

	if (state == HAL_OK)
 80058ce:	197b      	adds	r3, r7, r5
 80058d0:	781b      	ldrb	r3, [r3, #0]
 80058d2:	2b00      	cmp	r3, #0
 80058d4:	d101      	bne.n	80058da <uartSend+0x32>
		return ESPAT_STATE_OK;
 80058d6:	2300      	movs	r3, #0
 80058d8:	e007      	b.n	80058ea <uartSend+0x42>
	else if (state == HAL_TIMEOUT)
 80058da:	2317      	movs	r3, #23
 80058dc:	18fb      	adds	r3, r7, r3
 80058de:	781b      	ldrb	r3, [r3, #0]
 80058e0:	2b03      	cmp	r3, #3
 80058e2:	d101      	bne.n	80058e8 <uartSend+0x40>
		return ESPAT_STATE_TIMEOUT;
 80058e4:	2302      	movs	r3, #2
 80058e6:	e000      	b.n	80058ea <uartSend+0x42>
	else
		return ESPAT_STATE_ERR;
 80058e8:	2301      	movs	r3, #1
}
 80058ea:	0018      	movs	r0, r3
 80058ec:	46bd      	mov	sp, r7
 80058ee:	b006      	add	sp, #24
 80058f0:	bdb0      	pop	{r4, r5, r7, pc}

080058f2 <espAt_init>:
 * @param: timout for receive
 *
 * @retval: always ESPATHID_OK
 */
espat_state_t espAt_init(espat_radio_t *radio, UART_HandleTypeDef *uart,
		uint32_t txTimeout, uint32_t rxTimeout) { //port
 80058f2:	b580      	push	{r7, lr}
 80058f4:	b084      	sub	sp, #16
 80058f6:	af00      	add	r7, sp, #0
 80058f8:	60f8      	str	r0, [r7, #12]
 80058fa:	60b9      	str	r1, [r7, #8]
 80058fc:	607a      	str	r2, [r7, #4]
 80058fe:	603b      	str	r3, [r7, #0]

	radio->espUart.uart = uart;
 8005900:	68fb      	ldr	r3, [r7, #12]
 8005902:	68ba      	ldr	r2, [r7, #8]
 8005904:	601a      	str	r2, [r3, #0]
	radio->espUart.sendTimeout = txTimeout;
 8005906:	68fb      	ldr	r3, [r7, #12]
 8005908:	687a      	ldr	r2, [r7, #4]
 800590a:	605a      	str	r2, [r3, #4]
	radio->espUart.receiveTimeout = rxTimeout;
 800590c:	68fb      	ldr	r3, [r7, #12]
 800590e:	683a      	ldr	r2, [r7, #0]
 8005910:	609a      	str	r2, [r3, #8]
	return ESPAT_STATE_OK;
 8005912:	2300      	movs	r3, #0

}
 8005914:	0018      	movs	r0, r3
 8005916:	46bd      	mov	sp, r7
 8005918:	b004      	add	sp, #16
 800591a:	bd80      	pop	{r7, pc}

0800591c <espAt_sendCommand>:
 *
 * @retval: ESPAT state- OK if sent succesfully.
 * 			!NOTE: This parameter does not say whether and what ESP returns
 * 			in response to the command!
 */
espat_state_t espAt_sendCommand(espat_radio_t *radio, char *command) {
 800591c:	b5f0      	push	{r4, r5, r6, r7, lr}
 800591e:	46c6      	mov	lr, r8
 8005920:	b500      	push	{lr}
 8005922:	b08c      	sub	sp, #48	@ 0x30
 8005924:	af00      	add	r7, sp, #0
 8005926:	61f8      	str	r0, [r7, #28]
 8005928:	61b9      	str	r1, [r7, #24]
 800592a:	466b      	mov	r3, sp
 800592c:	4698      	mov	r8, r3
	//check if command and string are valid
	if (command == NULL)
 800592e:	69bb      	ldr	r3, [r7, #24]
 8005930:	2b00      	cmp	r3, #0
 8005932:	d101      	bne.n	8005938 <espAt_sendCommand+0x1c>
		return ESPAT_STATE_ERR;
 8005934:	2301      	movs	r3, #1
 8005936:	e093      	b.n	8005a60 <espAt_sendCommand+0x144>

	uint16_t prefixLength = strlen(AT_PREFIX);
 8005938:	2316      	movs	r3, #22
 800593a:	2618      	movs	r6, #24
 800593c:	199b      	adds	r3, r3, r6
 800593e:	19db      	adds	r3, r3, r7
 8005940:	2203      	movs	r2, #3
 8005942:	801a      	strh	r2, [r3, #0]
	uint16_t commandLength = strlen(command);
 8005944:	69bb      	ldr	r3, [r7, #24]
 8005946:	0018      	movs	r0, r3
 8005948:	f7fa fbdc 	bl	8000104 <strlen>
 800594c:	0002      	movs	r2, r0
 800594e:	2114      	movs	r1, #20
 8005950:	0030      	movs	r0, r6
 8005952:	180b      	adds	r3, r1, r0
 8005954:	19db      	adds	r3, r3, r7
 8005956:	801a      	strh	r2, [r3, #0]
	uint16_t endingLength = strlen(AT_ENDING);
 8005958:	2212      	movs	r2, #18
 800595a:	0016      	movs	r6, r2
 800595c:	1813      	adds	r3, r2, r0
 800595e:	19db      	adds	r3, r3, r7
 8005960:	2202      	movs	r2, #2
 8005962:	801a      	strh	r2, [r3, #0]

	uint16_t bufferSize = prefixLength + commandLength + endingLength;
 8005964:	2316      	movs	r3, #22
 8005966:	181b      	adds	r3, r3, r0
 8005968:	19da      	adds	r2, r3, r7
 800596a:	1809      	adds	r1, r1, r0
 800596c:	19cb      	adds	r3, r1, r7
 800596e:	8812      	ldrh	r2, [r2, #0]
 8005970:	881b      	ldrh	r3, [r3, #0]
 8005972:	18d3      	adds	r3, r2, r3
 8005974:	b299      	uxth	r1, r3
 8005976:	2010      	movs	r0, #16
 8005978:	2318      	movs	r3, #24
 800597a:	18c2      	adds	r2, r0, r3
 800597c:	19d3      	adds	r3, r2, r7
 800597e:	0032      	movs	r2, r6
 8005980:	2618      	movs	r6, #24
 8005982:	1992      	adds	r2, r2, r6
 8005984:	19d2      	adds	r2, r2, r7
 8005986:	8812      	ldrh	r2, [r2, #0]
 8005988:	188a      	adds	r2, r1, r2
 800598a:	801a      	strh	r2, [r3, #0]

	//create and clear buffer
	char buffer[bufferSize];
 800598c:	1983      	adds	r3, r0, r6
 800598e:	19db      	adds	r3, r3, r7
 8005990:	881b      	ldrh	r3, [r3, #0]
 8005992:	001a      	movs	r2, r3
 8005994:	3a01      	subs	r2, #1
 8005996:	627a      	str	r2, [r7, #36]	@ 0x24
 8005998:	60bb      	str	r3, [r7, #8]
 800599a:	2200      	movs	r2, #0
 800599c:	60fa      	str	r2, [r7, #12]
 800599e:	68b8      	ldr	r0, [r7, #8]
 80059a0:	68f9      	ldr	r1, [r7, #12]
 80059a2:	0006      	movs	r6, r0
 80059a4:	0f72      	lsrs	r2, r6, #29
 80059a6:	000e      	movs	r6, r1
 80059a8:	00f6      	lsls	r6, r6, #3
 80059aa:	617e      	str	r6, [r7, #20]
 80059ac:	697e      	ldr	r6, [r7, #20]
 80059ae:	4316      	orrs	r6, r2
 80059b0:	617e      	str	r6, [r7, #20]
 80059b2:	0006      	movs	r6, r0
 80059b4:	00f6      	lsls	r6, r6, #3
 80059b6:	613e      	str	r6, [r7, #16]
 80059b8:	603b      	str	r3, [r7, #0]
 80059ba:	2200      	movs	r2, #0
 80059bc:	607a      	str	r2, [r7, #4]
 80059be:	6838      	ldr	r0, [r7, #0]
 80059c0:	6879      	ldr	r1, [r7, #4]
 80059c2:	0006      	movs	r6, r0
 80059c4:	0f72      	lsrs	r2, r6, #29
 80059c6:	000e      	movs	r6, r1
 80059c8:	00f5      	lsls	r5, r6, #3
 80059ca:	4315      	orrs	r5, r2
 80059cc:	0006      	movs	r6, r0
 80059ce:	00f4      	lsls	r4, r6, #3
 80059d0:	3307      	adds	r3, #7
 80059d2:	08db      	lsrs	r3, r3, #3
 80059d4:	00db      	lsls	r3, r3, #3
 80059d6:	466e      	mov	r6, sp
 80059d8:	1af6      	subs	r6, r6, r3
 80059da:	46b5      	mov	sp, r6
 80059dc:	466b      	mov	r3, sp
 80059de:	3300      	adds	r3, #0
 80059e0:	623b      	str	r3, [r7, #32]
	memset(buffer, ' ', bufferSize);
 80059e2:	2010      	movs	r0, #16
 80059e4:	0006      	movs	r6, r0
 80059e6:	2518      	movs	r5, #24
 80059e8:	1943      	adds	r3, r0, r5
 80059ea:	19db      	adds	r3, r3, r7
 80059ec:	881a      	ldrh	r2, [r3, #0]
 80059ee:	6a3b      	ldr	r3, [r7, #32]
 80059f0:	2120      	movs	r1, #32
 80059f2:	0018      	movs	r0, r3
 80059f4:	f001 fae2 	bl	8006fbc <memset>

	//build command
	memcpy(&buffer[0], AT_PREFIX, prefixLength);
 80059f8:	6a38      	ldr	r0, [r7, #32]
 80059fa:	2416      	movs	r4, #22
 80059fc:	1963      	adds	r3, r4, r5
 80059fe:	19db      	adds	r3, r3, r7
 8005a00:	881a      	ldrh	r2, [r3, #0]
 8005a02:	4b1b      	ldr	r3, [pc, #108]	@ (8005a70 <espAt_sendCommand+0x154>)
 8005a04:	0019      	movs	r1, r3
 8005a06:	f001 fb0b 	bl	8007020 <memcpy>
	memcpy(&buffer[prefixLength], command, commandLength);
 8005a0a:	0029      	movs	r1, r5
 8005a0c:	1863      	adds	r3, r4, r1
 8005a0e:	19db      	adds	r3, r3, r7
 8005a10:	881b      	ldrh	r3, [r3, #0]
 8005a12:	6a3a      	ldr	r2, [r7, #32]
 8005a14:	18d0      	adds	r0, r2, r3
 8005a16:	2514      	movs	r5, #20
 8005a18:	186b      	adds	r3, r5, r1
 8005a1a:	19db      	adds	r3, r3, r7
 8005a1c:	881a      	ldrh	r2, [r3, #0]
 8005a1e:	69bb      	ldr	r3, [r7, #24]
 8005a20:	0019      	movs	r1, r3
 8005a22:	f001 fafd 	bl	8007020 <memcpy>
	memcpy(&buffer[prefixLength + commandLength], AT_ENDING, endingLength);
 8005a26:	2118      	movs	r1, #24
 8005a28:	1863      	adds	r3, r4, r1
 8005a2a:	19db      	adds	r3, r3, r7
 8005a2c:	881a      	ldrh	r2, [r3, #0]
 8005a2e:	000c      	movs	r4, r1
 8005a30:	192b      	adds	r3, r5, r4
 8005a32:	19db      	adds	r3, r3, r7
 8005a34:	881b      	ldrh	r3, [r3, #0]
 8005a36:	18d3      	adds	r3, r2, r3
 8005a38:	6a3a      	ldr	r2, [r7, #32]
 8005a3a:	18d0      	adds	r0, r2, r3
 8005a3c:	2212      	movs	r2, #18
 8005a3e:	1913      	adds	r3, r2, r4
 8005a40:	19db      	adds	r3, r3, r7
 8005a42:	881a      	ldrh	r2, [r3, #0]
 8005a44:	4b0b      	ldr	r3, [pc, #44]	@ (8005a74 <espAt_sendCommand+0x158>)
 8005a46:	0019      	movs	r1, r3
 8005a48:	f001 faea 	bl	8007020 <memcpy>

	return uartSend(&radio->espUart, buffer, bufferSize);
 8005a4c:	69f8      	ldr	r0, [r7, #28]
 8005a4e:	0033      	movs	r3, r6
 8005a50:	191b      	adds	r3, r3, r4
 8005a52:	19db      	adds	r3, r3, r7
 8005a54:	881a      	ldrh	r2, [r3, #0]
 8005a56:	6a3b      	ldr	r3, [r7, #32]
 8005a58:	0019      	movs	r1, r3
 8005a5a:	f7ff ff25 	bl	80058a8 <uartSend>
 8005a5e:	0003      	movs	r3, r0
 8005a60:	46c5      	mov	sp, r8
}
 8005a62:	0018      	movs	r0, r3
 8005a64:	46bd      	mov	sp, r7
 8005a66:	b00c      	add	sp, #48	@ 0x30
 8005a68:	bc80      	pop	{r7}
 8005a6a:	46b8      	mov	r8, r7
 8005a6c:	bdf0      	pop	{r4, r5, r6, r7, pc}
 8005a6e:	46c0      	nop			@ (mov r8, r8)
 8005a70:	08007ea0 	.word	0x08007ea0
 8005a74:	08007ea4 	.word	0x08007ea4

08005a78 <espAt_sendParams>:
 * @retval: ESPAT state- OK if sent succesfully.
 * 			!NOTE: This parameter does not say whether and what ESP returns
 * 			in response to the command!
 */
espat_state_t espAt_sendParams(espat_radio_t *radio, char *command,
		uint16_t paramCount, ...) {
 8005a78:	b40c      	push	{r2, r3}
 8005a7a:	b5f0      	push	{r4, r5, r6, r7, lr}
 8005a7c:	46c6      	mov	lr, r8
 8005a7e:	b500      	push	{lr}
 8005a80:	b0a2      	sub	sp, #136	@ 0x88
 8005a82:	af00      	add	r7, sp, #0
 8005a84:	63f8      	str	r0, [r7, #60]	@ 0x3c
 8005a86:	63b9      	str	r1, [r7, #56]	@ 0x38
 8005a88:	466b      	mov	r3, sp
 8005a8a:	4698      	mov	r8, r3

	//check if command are valid
	if (command == NULL)
 8005a8c:	6bbb      	ldr	r3, [r7, #56]	@ 0x38
 8005a8e:	2b00      	cmp	r3, #0
 8005a90:	d101      	bne.n	8005a96 <espAt_sendParams+0x1e>
		return ESPAT_STATE_ERR;
 8005a92:	2301      	movs	r3, #1
 8005a94:	e1b7      	b.n	8005e06 <espAt_sendParams+0x38e>

	va_list ap;
	va_start(ap, paramCount);
 8005a96:	236c      	movs	r3, #108	@ 0x6c
 8005a98:	2238      	movs	r2, #56	@ 0x38
 8005a9a:	189b      	adds	r3, r3, r2
 8005a9c:	19db      	adds	r3, r3, r7
 8005a9e:	663b      	str	r3, [r7, #96]	@ 0x60

	//make parameters array
	int32_t parameters[paramCount];
 8005aa0:	2368      	movs	r3, #104	@ 0x68
 8005aa2:	189b      	adds	r3, r3, r2
 8005aa4:	19db      	adds	r3, r3, r7
 8005aa6:	881a      	ldrh	r2, [r3, #0]
 8005aa8:	0013      	movs	r3, r2
 8005aaa:	3b01      	subs	r3, #1
 8005aac:	67fb      	str	r3, [r7, #124]	@ 0x7c
 8005aae:	61ba      	str	r2, [r7, #24]
 8005ab0:	2300      	movs	r3, #0
 8005ab2:	61fb      	str	r3, [r7, #28]
 8005ab4:	69b8      	ldr	r0, [r7, #24]
 8005ab6:	69f9      	ldr	r1, [r7, #28]
 8005ab8:	0003      	movs	r3, r0
 8005aba:	0edb      	lsrs	r3, r3, #27
 8005abc:	000e      	movs	r6, r1
 8005abe:	0175      	lsls	r5, r6, #5
 8005ac0:	431d      	orrs	r5, r3
 8005ac2:	0003      	movs	r3, r0
 8005ac4:	015c      	lsls	r4, r3, #5
 8005ac6:	613a      	str	r2, [r7, #16]
 8005ac8:	2300      	movs	r3, #0
 8005aca:	617b      	str	r3, [r7, #20]
 8005acc:	6938      	ldr	r0, [r7, #16]
 8005ace:	6979      	ldr	r1, [r7, #20]
 8005ad0:	0003      	movs	r3, r0
 8005ad2:	0edb      	lsrs	r3, r3, #27
 8005ad4:	000c      	movs	r4, r1
 8005ad6:	0164      	lsls	r4, r4, #5
 8005ad8:	637c      	str	r4, [r7, #52]	@ 0x34
 8005ada:	6b7c      	ldr	r4, [r7, #52]	@ 0x34
 8005adc:	431c      	orrs	r4, r3
 8005ade:	637c      	str	r4, [r7, #52]	@ 0x34
 8005ae0:	0003      	movs	r3, r0
 8005ae2:	015b      	lsls	r3, r3, #5
 8005ae4:	633b      	str	r3, [r7, #48]	@ 0x30
 8005ae6:	0013      	movs	r3, r2
 8005ae8:	009b      	lsls	r3, r3, #2
 8005aea:	3307      	adds	r3, #7
 8005aec:	08db      	lsrs	r3, r3, #3
 8005aee:	00db      	lsls	r3, r3, #3
 8005af0:	466a      	mov	r2, sp
 8005af2:	1ad3      	subs	r3, r2, r3
 8005af4:	469d      	mov	sp, r3
 8005af6:	466b      	mov	r3, sp
 8005af8:	3303      	adds	r3, #3
 8005afa:	089b      	lsrs	r3, r3, #2
 8005afc:	009b      	lsls	r3, r3, #2
 8005afe:	67bb      	str	r3, [r7, #120]	@ 0x78

	//fill parameters array
	for (uint16_t i = 0; i < paramCount; i++) {
 8005b00:	234e      	movs	r3, #78	@ 0x4e
 8005b02:	2238      	movs	r2, #56	@ 0x38
 8005b04:	189b      	adds	r3, r3, r2
 8005b06:	19db      	adds	r3, r3, r7
 8005b08:	2200      	movs	r2, #0
 8005b0a:	801a      	strh	r2, [r3, #0]
 8005b0c:	e012      	b.n	8005b34 <espAt_sendParams+0xbc>
		parameters[i] = va_arg(ap, int32_t);
 8005b0e:	204e      	movs	r0, #78	@ 0x4e
 8005b10:	2438      	movs	r4, #56	@ 0x38
 8005b12:	1903      	adds	r3, r0, r4
 8005b14:	19db      	adds	r3, r3, r7
 8005b16:	881a      	ldrh	r2, [r3, #0]
 8005b18:	6e3b      	ldr	r3, [r7, #96]	@ 0x60
 8005b1a:	1d19      	adds	r1, r3, #4
 8005b1c:	6639      	str	r1, [r7, #96]	@ 0x60
 8005b1e:	6819      	ldr	r1, [r3, #0]
 8005b20:	6fbb      	ldr	r3, [r7, #120]	@ 0x78
 8005b22:	0092      	lsls	r2, r2, #2
 8005b24:	50d1      	str	r1, [r2, r3]
	for (uint16_t i = 0; i < paramCount; i++) {
 8005b26:	1903      	adds	r3, r0, r4
 8005b28:	19db      	adds	r3, r3, r7
 8005b2a:	881a      	ldrh	r2, [r3, #0]
 8005b2c:	1903      	adds	r3, r0, r4
 8005b2e:	19db      	adds	r3, r3, r7
 8005b30:	3201      	adds	r2, #1
 8005b32:	801a      	strh	r2, [r3, #0]
 8005b34:	234e      	movs	r3, #78	@ 0x4e
 8005b36:	2138      	movs	r1, #56	@ 0x38
 8005b38:	185b      	adds	r3, r3, r1
 8005b3a:	19da      	adds	r2, r3, r7
 8005b3c:	2368      	movs	r3, #104	@ 0x68
 8005b3e:	185b      	adds	r3, r3, r1
 8005b40:	19db      	adds	r3, r3, r7
 8005b42:	8812      	ldrh	r2, [r2, #0]
 8005b44:	881b      	ldrh	r3, [r3, #0]
 8005b46:	429a      	cmp	r2, r3
 8005b48:	d3e1      	bcc.n	8005b0e <espAt_sendParams+0x96>
	}

	//make arguments list string
	uint16_t characterCounter = 0;
 8005b4a:	234c      	movs	r3, #76	@ 0x4c
 8005b4c:	185b      	adds	r3, r3, r1
 8005b4e:	19db      	adds	r3, r3, r7
 8005b50:	2200      	movs	r2, #0
 8005b52:	801a      	strh	r2, [r3, #0]
	char argumentsBuffer[AT_BUFFER_SIZE];
	memset(argumentsBuffer, '\0', AT_BUFFER_SIZE);
 8005b54:	2308      	movs	r3, #8
 8005b56:	000c      	movs	r4, r1
 8005b58:	185b      	adds	r3, r3, r1
 8005b5a:	19db      	adds	r3, r3, r7
 8005b5c:	221e      	movs	r2, #30
 8005b5e:	2100      	movs	r1, #0
 8005b60:	0018      	movs	r0, r3
 8005b62:	f001 fa2b 	bl	8006fbc <memset>

	for (uint16_t i = 0; i < paramCount; i++) {
 8005b66:	234a      	movs	r3, #74	@ 0x4a
 8005b68:	191b      	adds	r3, r3, r4
 8005b6a:	19db      	adds	r3, r3, r7
 8005b6c:	2200      	movs	r2, #0
 8005b6e:	801a      	strh	r2, [r3, #0]
 8005b70:	e048      	b.n	8005c04 <espAt_sendParams+0x18c>
		itoa(parameters[i], &argumentsBuffer[characterCounter], 10);
 8005b72:	234a      	movs	r3, #74	@ 0x4a
 8005b74:	001e      	movs	r6, r3
 8005b76:	2138      	movs	r1, #56	@ 0x38
 8005b78:	185b      	adds	r3, r3, r1
 8005b7a:	19db      	adds	r3, r3, r7
 8005b7c:	881a      	ldrh	r2, [r3, #0]
 8005b7e:	6fbb      	ldr	r3, [r7, #120]	@ 0x78
 8005b80:	0092      	lsls	r2, r2, #2
 8005b82:	58d0      	ldr	r0, [r2, r3]
 8005b84:	244c      	movs	r4, #76	@ 0x4c
 8005b86:	1863      	adds	r3, r4, r1
 8005b88:	19db      	adds	r3, r3, r7
 8005b8a:	881b      	ldrh	r3, [r3, #0]
 8005b8c:	2508      	movs	r5, #8
 8005b8e:	186a      	adds	r2, r5, r1
 8005b90:	19d2      	adds	r2, r2, r7
 8005b92:	18d3      	adds	r3, r2, r3
 8005b94:	220a      	movs	r2, #10
 8005b96:	0019      	movs	r1, r3
 8005b98:	f001 f9d7 	bl	8006f4a <itoa>
		characterCounter += strlen(&argumentsBuffer[characterCounter]) + 1;
 8005b9c:	2038      	movs	r0, #56	@ 0x38
 8005b9e:	1823      	adds	r3, r4, r0
 8005ba0:	19db      	adds	r3, r3, r7
 8005ba2:	881b      	ldrh	r3, [r3, #0]
 8005ba4:	182a      	adds	r2, r5, r0
 8005ba6:	19d2      	adds	r2, r2, r7
 8005ba8:	18d3      	adds	r3, r2, r3
 8005baa:	0018      	movs	r0, r3
 8005bac:	f7fa faaa 	bl	8000104 <strlen>
 8005bb0:	0003      	movs	r3, r0
 8005bb2:	b29a      	uxth	r2, r3
 8005bb4:	0021      	movs	r1, r4
 8005bb6:	2038      	movs	r0, #56	@ 0x38
 8005bb8:	180b      	adds	r3, r1, r0
 8005bba:	19db      	adds	r3, r3, r7
 8005bbc:	881b      	ldrh	r3, [r3, #0]
 8005bbe:	18d3      	adds	r3, r2, r3
 8005bc0:	b29a      	uxth	r2, r3
 8005bc2:	180b      	adds	r3, r1, r0
 8005bc4:	19db      	adds	r3, r3, r7
 8005bc6:	3201      	adds	r2, #1
 8005bc8:	801a      	strh	r2, [r3, #0]
		if (i < paramCount - 1)
 8005bca:	0033      	movs	r3, r6
 8005bcc:	181b      	adds	r3, r3, r0
 8005bce:	19db      	adds	r3, r3, r7
 8005bd0:	881a      	ldrh	r2, [r3, #0]
 8005bd2:	2368      	movs	r3, #104	@ 0x68
 8005bd4:	181b      	adds	r3, r3, r0
 8005bd6:	19db      	adds	r3, r3, r7
 8005bd8:	881b      	ldrh	r3, [r3, #0]
 8005bda:	3b01      	subs	r3, #1
 8005bdc:	429a      	cmp	r2, r3
 8005bde:	da08      	bge.n	8005bf2 <espAt_sendParams+0x17a>
			argumentsBuffer[characterCounter - 1] = ','; //add comma only if NOT last parameter
 8005be0:	0002      	movs	r2, r0
 8005be2:	188b      	adds	r3, r1, r2
 8005be4:	19db      	adds	r3, r3, r7
 8005be6:	881b      	ldrh	r3, [r3, #0]
 8005be8:	3b01      	subs	r3, #1
 8005bea:	18aa      	adds	r2, r5, r2
 8005bec:	19d2      	adds	r2, r2, r7
 8005bee:	212c      	movs	r1, #44	@ 0x2c
 8005bf0:	54d1      	strb	r1, [r2, r3]
	for (uint16_t i = 0; i < paramCount; i++) {
 8005bf2:	214a      	movs	r1, #74	@ 0x4a
 8005bf4:	2038      	movs	r0, #56	@ 0x38
 8005bf6:	180b      	adds	r3, r1, r0
 8005bf8:	19db      	adds	r3, r3, r7
 8005bfa:	881a      	ldrh	r2, [r3, #0]
 8005bfc:	180b      	adds	r3, r1, r0
 8005bfe:	19db      	adds	r3, r3, r7
 8005c00:	3201      	adds	r2, #1
 8005c02:	801a      	strh	r2, [r3, #0]
 8005c04:	234a      	movs	r3, #74	@ 0x4a
 8005c06:	2638      	movs	r6, #56	@ 0x38
 8005c08:	199b      	adds	r3, r3, r6
 8005c0a:	19da      	adds	r2, r3, r7
 8005c0c:	2368      	movs	r3, #104	@ 0x68
 8005c0e:	199b      	adds	r3, r3, r6
 8005c10:	19db      	adds	r3, r3, r7
 8005c12:	8812      	ldrh	r2, [r2, #0]
 8005c14:	881b      	ldrh	r3, [r3, #0]
 8005c16:	429a      	cmp	r2, r3
 8005c18:	d3ab      	bcc.n	8005b72 <espAt_sendParams+0xfa>
	}

	va_end(ap);

	//count buffer length
	uint16_t prefixLength = strlen(AT_PREFIX);
 8005c1a:	243e      	movs	r4, #62	@ 0x3e
 8005c1c:	19a3      	adds	r3, r4, r6
 8005c1e:	19db      	adds	r3, r3, r7
 8005c20:	2203      	movs	r2, #3
 8005c22:	801a      	strh	r2, [r3, #0]
	uint16_t commandLength = strlen(command);
 8005c24:	6bbb      	ldr	r3, [r7, #56]	@ 0x38
 8005c26:	0018      	movs	r0, r3
 8005c28:	f7fa fa6c 	bl	8000104 <strlen>
 8005c2c:	0002      	movs	r2, r0
 8005c2e:	253c      	movs	r5, #60	@ 0x3c
 8005c30:	19ab      	adds	r3, r5, r6
 8005c32:	19db      	adds	r3, r3, r7
 8005c34:	801a      	strh	r2, [r3, #0]
	uint16_t assignmentLength = strlen(AT_ASSIGNMENT);
 8005c36:	213a      	movs	r1, #58	@ 0x3a
 8005c38:	198b      	adds	r3, r1, r6
 8005c3a:	19db      	adds	r3, r3, r7
 8005c3c:	2201      	movs	r2, #1
 8005c3e:	801a      	strh	r2, [r3, #0]
	uint16_t parametersLength = --characterCounter;
 8005c40:	224c      	movs	r2, #76	@ 0x4c
 8005c42:	0030      	movs	r0, r6
 8005c44:	1993      	adds	r3, r2, r6
 8005c46:	19db      	adds	r3, r3, r7
 8005c48:	0016      	movs	r6, r2
 8005c4a:	1812      	adds	r2, r2, r0
 8005c4c:	19d2      	adds	r2, r2, r7
 8005c4e:	8812      	ldrh	r2, [r2, #0]
 8005c50:	3a01      	subs	r2, #1
 8005c52:	801a      	strh	r2, [r3, #0]
 8005c54:	2038      	movs	r0, #56	@ 0x38
 8005c56:	2338      	movs	r3, #56	@ 0x38
 8005c58:	18c2      	adds	r2, r0, r3
 8005c5a:	19d3      	adds	r3, r2, r7
 8005c5c:	0032      	movs	r2, r6
 8005c5e:	2638      	movs	r6, #56	@ 0x38
 8005c60:	1992      	adds	r2, r2, r6
 8005c62:	19d2      	adds	r2, r2, r7
 8005c64:	8812      	ldrh	r2, [r2, #0]
 8005c66:	801a      	strh	r2, [r3, #0]
	uint16_t endingLength = strlen(AT_ENDING);
 8005c68:	2336      	movs	r3, #54	@ 0x36
 8005c6a:	001e      	movs	r6, r3
 8005c6c:	2238      	movs	r2, #56	@ 0x38
 8005c6e:	189a      	adds	r2, r3, r2
 8005c70:	19d3      	adds	r3, r2, r7
 8005c72:	2202      	movs	r2, #2
 8005c74:	801a      	strh	r2, [r3, #0]

	//create master buffer and clear it
	uint16_t bufferSize = prefixLength + commandLength + assignmentLength
 8005c76:	2338      	movs	r3, #56	@ 0x38
 8005c78:	18e2      	adds	r2, r4, r3
 8005c7a:	19d2      	adds	r2, r2, r7
 8005c7c:	18eb      	adds	r3, r5, r3
 8005c7e:	19db      	adds	r3, r3, r7
 8005c80:	8812      	ldrh	r2, [r2, #0]
 8005c82:	881b      	ldrh	r3, [r3, #0]
 8005c84:	18d3      	adds	r3, r2, r3
 8005c86:	b29a      	uxth	r2, r3
 8005c88:	2338      	movs	r3, #56	@ 0x38
 8005c8a:	18c9      	adds	r1, r1, r3
 8005c8c:	19cb      	adds	r3, r1, r7
 8005c8e:	881b      	ldrh	r3, [r3, #0]
 8005c90:	18d3      	adds	r3, r2, r3
 8005c92:	b29a      	uxth	r2, r3
			+ parametersLength + endingLength;
 8005c94:	2338      	movs	r3, #56	@ 0x38
 8005c96:	18c1      	adds	r1, r0, r3
 8005c98:	19cb      	adds	r3, r1, r7
 8005c9a:	881b      	ldrh	r3, [r3, #0]
 8005c9c:	18d3      	adds	r3, r2, r3
 8005c9e:	b299      	uxth	r1, r3
	uint16_t bufferSize = prefixLength + commandLength + assignmentLength
 8005ca0:	2234      	movs	r2, #52	@ 0x34
 8005ca2:	0010      	movs	r0, r2
 8005ca4:	2338      	movs	r3, #56	@ 0x38
 8005ca6:	18d2      	adds	r2, r2, r3
 8005ca8:	19d3      	adds	r3, r2, r7
 8005caa:	0032      	movs	r2, r6
 8005cac:	2638      	movs	r6, #56	@ 0x38
 8005cae:	1992      	adds	r2, r2, r6
 8005cb0:	19d2      	adds	r2, r2, r7
 8005cb2:	8812      	ldrh	r2, [r2, #0]
 8005cb4:	188a      	adds	r2, r1, r2
 8005cb6:	801a      	strh	r2, [r3, #0]
	char buffer[bufferSize];
 8005cb8:	0002      	movs	r2, r0
 8005cba:	1993      	adds	r3, r2, r6
 8005cbc:	19db      	adds	r3, r3, r7
 8005cbe:	881b      	ldrh	r3, [r3, #0]
 8005cc0:	001a      	movs	r2, r3
 8005cc2:	3a01      	subs	r2, #1
 8005cc4:	66ba      	str	r2, [r7, #104]	@ 0x68
 8005cc6:	60bb      	str	r3, [r7, #8]
 8005cc8:	2200      	movs	r2, #0
 8005cca:	60fa      	str	r2, [r7, #12]
 8005ccc:	68b8      	ldr	r0, [r7, #8]
 8005cce:	68f9      	ldr	r1, [r7, #12]
 8005cd0:	0006      	movs	r6, r0
 8005cd2:	0f72      	lsrs	r2, r6, #29
 8005cd4:	000e      	movs	r6, r1
 8005cd6:	00f6      	lsls	r6, r6, #3
 8005cd8:	62fe      	str	r6, [r7, #44]	@ 0x2c
 8005cda:	6afe      	ldr	r6, [r7, #44]	@ 0x2c
 8005cdc:	4316      	orrs	r6, r2
 8005cde:	62fe      	str	r6, [r7, #44]	@ 0x2c
 8005ce0:	0006      	movs	r6, r0
 8005ce2:	00f6      	lsls	r6, r6, #3
 8005ce4:	62be      	str	r6, [r7, #40]	@ 0x28
 8005ce6:	603b      	str	r3, [r7, #0]
 8005ce8:	2200      	movs	r2, #0
 8005cea:	607a      	str	r2, [r7, #4]
 8005cec:	6838      	ldr	r0, [r7, #0]
 8005cee:	6879      	ldr	r1, [r7, #4]
 8005cf0:	0006      	movs	r6, r0
 8005cf2:	0f72      	lsrs	r2, r6, #29
 8005cf4:	000e      	movs	r6, r1
 8005cf6:	00f6      	lsls	r6, r6, #3
 8005cf8:	627e      	str	r6, [r7, #36]	@ 0x24
 8005cfa:	6a7e      	ldr	r6, [r7, #36]	@ 0x24
 8005cfc:	4316      	orrs	r6, r2
 8005cfe:	627e      	str	r6, [r7, #36]	@ 0x24
 8005d00:	0006      	movs	r6, r0
 8005d02:	00f6      	lsls	r6, r6, #3
 8005d04:	623e      	str	r6, [r7, #32]
 8005d06:	3307      	adds	r3, #7
 8005d08:	08db      	lsrs	r3, r3, #3
 8005d0a:	00db      	lsls	r3, r3, #3
 8005d0c:	466e      	mov	r6, sp
 8005d0e:	1af6      	subs	r6, r6, r3
 8005d10:	46b5      	mov	sp, r6
 8005d12:	466b      	mov	r3, sp
 8005d14:	3300      	adds	r3, #0
 8005d16:	667b      	str	r3, [r7, #100]	@ 0x64
	memset(buffer, ' ', bufferSize);
 8005d18:	2234      	movs	r2, #52	@ 0x34
 8005d1a:	2638      	movs	r6, #56	@ 0x38
 8005d1c:	1993      	adds	r3, r2, r6
 8005d1e:	19db      	adds	r3, r3, r7
 8005d20:	881a      	ldrh	r2, [r3, #0]
 8005d22:	6e7b      	ldr	r3, [r7, #100]	@ 0x64
 8005d24:	2120      	movs	r1, #32
 8005d26:	0018      	movs	r0, r3
 8005d28:	f001 f948 	bl	8006fbc <memset>

	//build command
	memcpy(&buffer[0], AT_PREFIX, prefixLength);
 8005d2c:	6e78      	ldr	r0, [r7, #100]	@ 0x64
 8005d2e:	19a3      	adds	r3, r4, r6
 8005d30:	19db      	adds	r3, r3, r7
 8005d32:	881a      	ldrh	r2, [r3, #0]
 8005d34:	4b39      	ldr	r3, [pc, #228]	@ (8005e1c <espAt_sendParams+0x3a4>)
 8005d36:	0019      	movs	r1, r3
 8005d38:	f001 f972 	bl	8007020 <memcpy>
	memcpy(&buffer[prefixLength], command, commandLength);
 8005d3c:	0031      	movs	r1, r6
 8005d3e:	19a3      	adds	r3, r4, r6
 8005d40:	19db      	adds	r3, r3, r7
 8005d42:	881b      	ldrh	r3, [r3, #0]
 8005d44:	6e7a      	ldr	r2, [r7, #100]	@ 0x64
 8005d46:	18d0      	adds	r0, r2, r3
 8005d48:	000e      	movs	r6, r1
 8005d4a:	186b      	adds	r3, r5, r1
 8005d4c:	19db      	adds	r3, r3, r7
 8005d4e:	881a      	ldrh	r2, [r3, #0]
 8005d50:	6bbb      	ldr	r3, [r7, #56]	@ 0x38
 8005d52:	0019      	movs	r1, r3
 8005d54:	f001 f964 	bl	8007020 <memcpy>
	memcpy(&buffer[prefixLength + commandLength], AT_ASSIGNMENT,
 8005d58:	0031      	movs	r1, r6
 8005d5a:	1863      	adds	r3, r4, r1
 8005d5c:	19db      	adds	r3, r3, r7
 8005d5e:	881a      	ldrh	r2, [r3, #0]
 8005d60:	1868      	adds	r0, r5, r1
 8005d62:	19c3      	adds	r3, r0, r7
 8005d64:	881b      	ldrh	r3, [r3, #0]
 8005d66:	18d3      	adds	r3, r2, r3
 8005d68:	6e7a      	ldr	r2, [r7, #100]	@ 0x64
 8005d6a:	18d0      	adds	r0, r2, r3
 8005d6c:	213a      	movs	r1, #58	@ 0x3a
 8005d6e:	000e      	movs	r6, r1
 8005d70:	2338      	movs	r3, #56	@ 0x38
 8005d72:	18ca      	adds	r2, r1, r3
 8005d74:	19d3      	adds	r3, r2, r7
 8005d76:	881a      	ldrh	r2, [r3, #0]
 8005d78:	4b29      	ldr	r3, [pc, #164]	@ (8005e20 <espAt_sendParams+0x3a8>)
 8005d7a:	0019      	movs	r1, r3
 8005d7c:	f001 f950 	bl	8007020 <memcpy>
			assignmentLength);
	memcpy(&buffer[prefixLength + commandLength + assignmentLength],
 8005d80:	2038      	movs	r0, #56	@ 0x38
 8005d82:	1823      	adds	r3, r4, r0
 8005d84:	19db      	adds	r3, r3, r7
 8005d86:	881a      	ldrh	r2, [r3, #0]
 8005d88:	182b      	adds	r3, r5, r0
 8005d8a:	19db      	adds	r3, r3, r7
 8005d8c:	881b      	ldrh	r3, [r3, #0]
 8005d8e:	18d2      	adds	r2, r2, r3
 8005d90:	0031      	movs	r1, r6
 8005d92:	0006      	movs	r6, r0
 8005d94:	180b      	adds	r3, r1, r0
 8005d96:	19db      	adds	r3, r3, r7
 8005d98:	881b      	ldrh	r3, [r3, #0]
 8005d9a:	18d3      	adds	r3, r2, r3
 8005d9c:	6e7a      	ldr	r2, [r7, #100]	@ 0x64
 8005d9e:	18d0      	adds	r0, r2, r3
 8005da0:	2338      	movs	r3, #56	@ 0x38
 8005da2:	0031      	movs	r1, r6
 8005da4:	185b      	adds	r3, r3, r1
 8005da6:	19db      	adds	r3, r3, r7
 8005da8:	881a      	ldrh	r2, [r3, #0]
 8005daa:	2608      	movs	r6, #8
 8005dac:	1873      	adds	r3, r6, r1
 8005dae:	19db      	adds	r3, r3, r7
 8005db0:	0019      	movs	r1, r3
 8005db2:	f001 f935 	bl	8007020 <memcpy>
			argumentsBuffer, parametersLength);
	memcpy(
			&buffer[prefixLength + commandLength + assignmentLength
 8005db6:	2038      	movs	r0, #56	@ 0x38
 8005db8:	1823      	adds	r3, r4, r0
 8005dba:	19db      	adds	r3, r3, r7
 8005dbc:	881a      	ldrh	r2, [r3, #0]
 8005dbe:	182b      	adds	r3, r5, r0
 8005dc0:	19db      	adds	r3, r3, r7
 8005dc2:	881b      	ldrh	r3, [r3, #0]
 8005dc4:	18d2      	adds	r2, r2, r3
 8005dc6:	213a      	movs	r1, #58	@ 0x3a
 8005dc8:	180b      	adds	r3, r1, r0
 8005dca:	19db      	adds	r3, r3, r7
 8005dcc:	881b      	ldrh	r3, [r3, #0]
 8005dce:	18d2      	adds	r2, r2, r3
					+ parametersLength], AT_ENDING, endingLength);
 8005dd0:	2338      	movs	r3, #56	@ 0x38
 8005dd2:	0001      	movs	r1, r0
 8005dd4:	185b      	adds	r3, r3, r1
 8005dd6:	19db      	adds	r3, r3, r7
 8005dd8:	881b      	ldrh	r3, [r3, #0]
 8005dda:	18d3      	adds	r3, r2, r3
			&buffer[prefixLength + commandLength + assignmentLength
 8005ddc:	6e7a      	ldr	r2, [r7, #100]	@ 0x64
 8005dde:	18d0      	adds	r0, r2, r3
	memcpy(
 8005de0:	2336      	movs	r3, #54	@ 0x36
 8005de2:	000c      	movs	r4, r1
 8005de4:	185b      	adds	r3, r3, r1
 8005de6:	19db      	adds	r3, r3, r7
 8005de8:	881a      	ldrh	r2, [r3, #0]
 8005dea:	4b0e      	ldr	r3, [pc, #56]	@ (8005e24 <espAt_sendParams+0x3ac>)
 8005dec:	0019      	movs	r1, r3
 8005dee:	f001 f917 	bl	8007020 <memcpy>

	return uartSend(&radio->espUart, buffer, bufferSize);
 8005df2:	6bf8      	ldr	r0, [r7, #60]	@ 0x3c
 8005df4:	2234      	movs	r2, #52	@ 0x34
 8005df6:	1913      	adds	r3, r2, r4
 8005df8:	19db      	adds	r3, r3, r7
 8005dfa:	881a      	ldrh	r2, [r3, #0]
 8005dfc:	6e7b      	ldr	r3, [r7, #100]	@ 0x64
 8005dfe:	0019      	movs	r1, r3
 8005e00:	f7ff fd52 	bl	80058a8 <uartSend>
 8005e04:	0003      	movs	r3, r0
 8005e06:	46c5      	mov	sp, r8

}
 8005e08:	0018      	movs	r0, r3
 8005e0a:	46bd      	mov	sp, r7
 8005e0c:	b022      	add	sp, #136	@ 0x88
 8005e0e:	bc80      	pop	{r7}
 8005e10:	46b8      	mov	r8, r7
 8005e12:	bcf0      	pop	{r4, r5, r6, r7}
 8005e14:	bc08      	pop	{r3}
 8005e16:	b002      	add	sp, #8
 8005e18:	4718      	bx	r3
 8005e1a:	46c0      	nop			@ (mov r8, r8)
 8005e1c:	08007ea0 	.word	0x08007ea0
 8005e20:	08007ea8 	.word	0x08007ea8
 8005e24:	08007ea4 	.word	0x08007ea4

08005e28 <espAt_sendString>:
 * @retval: ESPAT state- OK if sent succesfully.
 * 			!NOTE: This parameter does not say whether and what ESP returns
 * 			in response to the command!
 */
espat_state_t espAt_sendString(espat_radio_t *radio, char *command,
		char *string) {
 8005e28:	b5f0      	push	{r4, r5, r6, r7, lr}
 8005e2a:	46c6      	mov	lr, r8
 8005e2c:	b500      	push	{lr}
 8005e2e:	b090      	sub	sp, #64	@ 0x40
 8005e30:	af00      	add	r7, sp, #0
 8005e32:	6278      	str	r0, [r7, #36]	@ 0x24
 8005e34:	6239      	str	r1, [r7, #32]
 8005e36:	61fa      	str	r2, [r7, #28]
 8005e38:	466b      	mov	r3, sp
 8005e3a:	4698      	mov	r8, r3

	//check if command and string are valid
	if (command == NULL || string == NULL)
 8005e3c:	6a3b      	ldr	r3, [r7, #32]
 8005e3e:	2b00      	cmp	r3, #0
 8005e40:	d002      	beq.n	8005e48 <espAt_sendString+0x20>
 8005e42:	69fb      	ldr	r3, [r7, #28]
 8005e44:	2b00      	cmp	r3, #0
 8005e46:	d101      	bne.n	8005e4c <espAt_sendString+0x24>
		return ESPAT_STATE_ERR;
 8005e48:	2301      	movs	r3, #1
 8005e4a:	e139      	b.n	80060c0 <espAt_sendString+0x298>

	uint16_t prefixLength = strlen(AT_PREFIX);
 8005e4c:	2326      	movs	r3, #38	@ 0x26
 8005e4e:	2618      	movs	r6, #24
 8005e50:	199b      	adds	r3, r3, r6
 8005e52:	19db      	adds	r3, r3, r7
 8005e54:	2203      	movs	r2, #3
 8005e56:	801a      	strh	r2, [r3, #0]
	uint16_t commandLength = strlen(command);
 8005e58:	6a3b      	ldr	r3, [r7, #32]
 8005e5a:	0018      	movs	r0, r3
 8005e5c:	f7fa f952 	bl	8000104 <strlen>
 8005e60:	0002      	movs	r2, r0
 8005e62:	2124      	movs	r1, #36	@ 0x24
 8005e64:	198b      	adds	r3, r1, r6
 8005e66:	19db      	adds	r3, r3, r7
 8005e68:	801a      	strh	r2, [r3, #0]
	uint16_t assignmentLength = strlen(AT_ASSIGNMENT);
 8005e6a:	2222      	movs	r2, #34	@ 0x22
 8005e6c:	1993      	adds	r3, r2, r6
 8005e6e:	19db      	adds	r3, r3, r7
 8005e70:	2201      	movs	r2, #1
 8005e72:	801a      	strh	r2, [r3, #0]
	uint16_t quoteLength = strlen(AT_STRING_QUOTE_MARK);
 8005e74:	2220      	movs	r2, #32
 8005e76:	1993      	adds	r3, r2, r6
 8005e78:	19db      	adds	r3, r3, r7
 8005e7a:	2201      	movs	r2, #1
 8005e7c:	801a      	strh	r2, [r3, #0]
	uint16_t stringLength = strlen(string);
 8005e7e:	69fb      	ldr	r3, [r7, #28]
 8005e80:	0018      	movs	r0, r3
 8005e82:	f7fa f93f 	bl	8000104 <strlen>
 8005e86:	0002      	movs	r2, r0
 8005e88:	231e      	movs	r3, #30
 8005e8a:	0031      	movs	r1, r6
 8005e8c:	185b      	adds	r3, r3, r1
 8005e8e:	19db      	adds	r3, r3, r7
 8005e90:	801a      	strh	r2, [r3, #0]
	uint16_t endingLength = strlen(AT_ENDING);
 8005e92:	221c      	movs	r2, #28
 8005e94:	0016      	movs	r6, r2
 8005e96:	1853      	adds	r3, r2, r1
 8005e98:	19db      	adds	r3, r3, r7
 8005e9a:	2202      	movs	r2, #2
 8005e9c:	801a      	strh	r2, [r3, #0]

	uint16_t bufferSize = prefixLength + commandLength + assignmentLength
 8005e9e:	2326      	movs	r3, #38	@ 0x26
 8005ea0:	0008      	movs	r0, r1
 8005ea2:	185b      	adds	r3, r3, r1
 8005ea4:	19da      	adds	r2, r3, r7
 8005ea6:	2124      	movs	r1, #36	@ 0x24
 8005ea8:	180b      	adds	r3, r1, r0
 8005eaa:	19db      	adds	r3, r3, r7
 8005eac:	8812      	ldrh	r2, [r2, #0]
 8005eae:	881b      	ldrh	r3, [r3, #0]
 8005eb0:	18d3      	adds	r3, r2, r3
 8005eb2:	b29a      	uxth	r2, r3
 8005eb4:	2022      	movs	r0, #34	@ 0x22
 8005eb6:	2118      	movs	r1, #24
 8005eb8:	1843      	adds	r3, r0, r1
 8005eba:	19db      	adds	r3, r3, r7
 8005ebc:	881b      	ldrh	r3, [r3, #0]
 8005ebe:	18d3      	adds	r3, r2, r3
 8005ec0:	b29a      	uxth	r2, r3
			+ (quoteLength * 2) + stringLength + endingLength;
 8005ec2:	2020      	movs	r0, #32
 8005ec4:	1840      	adds	r0, r0, r1
 8005ec6:	19c3      	adds	r3, r0, r7
 8005ec8:	881b      	ldrh	r3, [r3, #0]
 8005eca:	18db      	adds	r3, r3, r3
 8005ecc:	b29b      	uxth	r3, r3
 8005ece:	18d3      	adds	r3, r2, r3
 8005ed0:	b29a      	uxth	r2, r3
 8005ed2:	211e      	movs	r1, #30
 8005ed4:	2318      	movs	r3, #24
 8005ed6:	18c9      	adds	r1, r1, r3
 8005ed8:	19cb      	adds	r3, r1, r7
 8005eda:	881b      	ldrh	r3, [r3, #0]
 8005edc:	18d3      	adds	r3, r2, r3
 8005ede:	b299      	uxth	r1, r3
	uint16_t bufferSize = prefixLength + commandLength + assignmentLength
 8005ee0:	201a      	movs	r0, #26
 8005ee2:	2318      	movs	r3, #24
 8005ee4:	18c2      	adds	r2, r0, r3
 8005ee6:	19d3      	adds	r3, r2, r7
 8005ee8:	0032      	movs	r2, r6
 8005eea:	2618      	movs	r6, #24
 8005eec:	1992      	adds	r2, r2, r6
 8005eee:	19d2      	adds	r2, r2, r7
 8005ef0:	8812      	ldrh	r2, [r2, #0]
 8005ef2:	188a      	adds	r2, r1, r2
 8005ef4:	801a      	strh	r2, [r3, #0]

	//create and clear buffer
	char buffer[bufferSize];
 8005ef6:	1983      	adds	r3, r0, r6
 8005ef8:	19db      	adds	r3, r3, r7
 8005efa:	881b      	ldrh	r3, [r3, #0]
 8005efc:	001a      	movs	r2, r3
 8005efe:	3a01      	subs	r2, #1
 8005f00:	62fa      	str	r2, [r7, #44]	@ 0x2c
 8005f02:	60bb      	str	r3, [r7, #8]
 8005f04:	2200      	movs	r2, #0
 8005f06:	60fa      	str	r2, [r7, #12]
 8005f08:	68b8      	ldr	r0, [r7, #8]
 8005f0a:	68f9      	ldr	r1, [r7, #12]
 8005f0c:	0006      	movs	r6, r0
 8005f0e:	0f72      	lsrs	r2, r6, #29
 8005f10:	000e      	movs	r6, r1
 8005f12:	00f6      	lsls	r6, r6, #3
 8005f14:	617e      	str	r6, [r7, #20]
 8005f16:	697e      	ldr	r6, [r7, #20]
 8005f18:	4316      	orrs	r6, r2
 8005f1a:	617e      	str	r6, [r7, #20]
 8005f1c:	0006      	movs	r6, r0
 8005f1e:	00f6      	lsls	r6, r6, #3
 8005f20:	613e      	str	r6, [r7, #16]
 8005f22:	603b      	str	r3, [r7, #0]
 8005f24:	2200      	movs	r2, #0
 8005f26:	607a      	str	r2, [r7, #4]
 8005f28:	6838      	ldr	r0, [r7, #0]
 8005f2a:	6879      	ldr	r1, [r7, #4]
 8005f2c:	0006      	movs	r6, r0
 8005f2e:	0f72      	lsrs	r2, r6, #29
 8005f30:	000e      	movs	r6, r1
 8005f32:	00f5      	lsls	r5, r6, #3
 8005f34:	4315      	orrs	r5, r2
 8005f36:	0006      	movs	r6, r0
 8005f38:	00f4      	lsls	r4, r6, #3
 8005f3a:	3307      	adds	r3, #7
 8005f3c:	08db      	lsrs	r3, r3, #3
 8005f3e:	00db      	lsls	r3, r3, #3
 8005f40:	466e      	mov	r6, sp
 8005f42:	1af6      	subs	r6, r6, r3
 8005f44:	46b5      	mov	sp, r6
 8005f46:	466b      	mov	r3, sp
 8005f48:	3300      	adds	r3, #0
 8005f4a:	62bb      	str	r3, [r7, #40]	@ 0x28
	memset(buffer, ' ', bufferSize);
 8005f4c:	221a      	movs	r2, #26
 8005f4e:	2618      	movs	r6, #24
 8005f50:	1993      	adds	r3, r2, r6
 8005f52:	19db      	adds	r3, r3, r7
 8005f54:	881a      	ldrh	r2, [r3, #0]
 8005f56:	6abb      	ldr	r3, [r7, #40]	@ 0x28
 8005f58:	2120      	movs	r1, #32
 8005f5a:	0018      	movs	r0, r3
 8005f5c:	f001 f82e 	bl	8006fbc <memset>

	//build command
	memcpy(&buffer[0], AT_PREFIX, prefixLength);
 8005f60:	6ab8      	ldr	r0, [r7, #40]	@ 0x28
 8005f62:	2426      	movs	r4, #38	@ 0x26
 8005f64:	19a3      	adds	r3, r4, r6
 8005f66:	19db      	adds	r3, r3, r7
 8005f68:	881a      	ldrh	r2, [r3, #0]
 8005f6a:	4b59      	ldr	r3, [pc, #356]	@ (80060d0 <espAt_sendString+0x2a8>)
 8005f6c:	0019      	movs	r1, r3
 8005f6e:	f001 f857 	bl	8007020 <memcpy>
	memcpy(&buffer[prefixLength], command, commandLength);
 8005f72:	19a3      	adds	r3, r4, r6
 8005f74:	19db      	adds	r3, r3, r7
 8005f76:	881b      	ldrh	r3, [r3, #0]
 8005f78:	6aba      	ldr	r2, [r7, #40]	@ 0x28
 8005f7a:	18d0      	adds	r0, r2, r3
 8005f7c:	2524      	movs	r5, #36	@ 0x24
 8005f7e:	19ab      	adds	r3, r5, r6
 8005f80:	19db      	adds	r3, r3, r7
 8005f82:	881a      	ldrh	r2, [r3, #0]
 8005f84:	6a3b      	ldr	r3, [r7, #32]
 8005f86:	0019      	movs	r1, r3
 8005f88:	f001 f84a 	bl	8007020 <memcpy>
	memcpy(&buffer[prefixLength + commandLength], AT_ASSIGNMENT,
 8005f8c:	0031      	movs	r1, r6
 8005f8e:	1863      	adds	r3, r4, r1
 8005f90:	19db      	adds	r3, r3, r7
 8005f92:	881a      	ldrh	r2, [r3, #0]
 8005f94:	186b      	adds	r3, r5, r1
 8005f96:	19db      	adds	r3, r3, r7
 8005f98:	881b      	ldrh	r3, [r3, #0]
 8005f9a:	18d3      	adds	r3, r2, r3
 8005f9c:	6aba      	ldr	r2, [r7, #40]	@ 0x28
 8005f9e:	18d0      	adds	r0, r2, r3
 8005fa0:	2222      	movs	r2, #34	@ 0x22
 8005fa2:	0016      	movs	r6, r2
 8005fa4:	1853      	adds	r3, r2, r1
 8005fa6:	19db      	adds	r3, r3, r7
 8005fa8:	881a      	ldrh	r2, [r3, #0]
 8005faa:	4b4a      	ldr	r3, [pc, #296]	@ (80060d4 <espAt_sendString+0x2ac>)
 8005fac:	0019      	movs	r1, r3
 8005fae:	f001 f837 	bl	8007020 <memcpy>
			assignmentLength);
	memcpy(&buffer[prefixLength + commandLength + assignmentLength],
 8005fb2:	2118      	movs	r1, #24
 8005fb4:	1863      	adds	r3, r4, r1
 8005fb6:	19db      	adds	r3, r3, r7
 8005fb8:	881a      	ldrh	r2, [r3, #0]
 8005fba:	186b      	adds	r3, r5, r1
 8005fbc:	19db      	adds	r3, r3, r7
 8005fbe:	881b      	ldrh	r3, [r3, #0]
 8005fc0:	18d2      	adds	r2, r2, r3
 8005fc2:	0030      	movs	r0, r6
 8005fc4:	1843      	adds	r3, r0, r1
 8005fc6:	19db      	adds	r3, r3, r7
 8005fc8:	881b      	ldrh	r3, [r3, #0]
 8005fca:	18d3      	adds	r3, r2, r3
 8005fcc:	6aba      	ldr	r2, [r7, #40]	@ 0x28
 8005fce:	18d0      	adds	r0, r2, r3
 8005fd0:	2320      	movs	r3, #32
 8005fd2:	001e      	movs	r6, r3
 8005fd4:	185b      	adds	r3, r3, r1
 8005fd6:	19db      	adds	r3, r3, r7
 8005fd8:	881a      	ldrh	r2, [r3, #0]
 8005fda:	4b3f      	ldr	r3, [pc, #252]	@ (80060d8 <espAt_sendString+0x2b0>)
 8005fdc:	0019      	movs	r1, r3
 8005fde:	f001 f81f 	bl	8007020 <memcpy>
	AT_STRING_QUOTE_MARK, quoteLength);
	memcpy(
			&buffer[prefixLength + commandLength + assignmentLength
 8005fe2:	2118      	movs	r1, #24
 8005fe4:	1863      	adds	r3, r4, r1
 8005fe6:	19db      	adds	r3, r3, r7
 8005fe8:	881a      	ldrh	r2, [r3, #0]
 8005fea:	186b      	adds	r3, r5, r1
 8005fec:	19db      	adds	r3, r3, r7
 8005fee:	881b      	ldrh	r3, [r3, #0]
 8005ff0:	18d2      	adds	r2, r2, r3
 8005ff2:	2022      	movs	r0, #34	@ 0x22
 8005ff4:	1843      	adds	r3, r0, r1
 8005ff6:	19db      	adds	r3, r3, r7
 8005ff8:	881b      	ldrh	r3, [r3, #0]
 8005ffa:	18d2      	adds	r2, r2, r3
					+ quoteLength], string, stringLength);
 8005ffc:	0033      	movs	r3, r6
 8005ffe:	1858      	adds	r0, r3, r1
 8006000:	19c3      	adds	r3, r0, r7
 8006002:	881b      	ldrh	r3, [r3, #0]
 8006004:	18d3      	adds	r3, r2, r3
			&buffer[prefixLength + commandLength + assignmentLength
 8006006:	6aba      	ldr	r2, [r7, #40]	@ 0x28
 8006008:	18d0      	adds	r0, r2, r3
	memcpy(
 800600a:	211e      	movs	r1, #30
 800600c:	000e      	movs	r6, r1
 800600e:	2318      	movs	r3, #24
 8006010:	18ca      	adds	r2, r1, r3
 8006012:	19d3      	adds	r3, r2, r7
 8006014:	881a      	ldrh	r2, [r3, #0]
 8006016:	69fb      	ldr	r3, [r7, #28]
 8006018:	0019      	movs	r1, r3
 800601a:	f001 f801 	bl	8007020 <memcpy>
	memcpy(
			&buffer[prefixLength + commandLength + assignmentLength
 800601e:	2118      	movs	r1, #24
 8006020:	1863      	adds	r3, r4, r1
 8006022:	19db      	adds	r3, r3, r7
 8006024:	881a      	ldrh	r2, [r3, #0]
 8006026:	186b      	adds	r3, r5, r1
 8006028:	19db      	adds	r3, r3, r7
 800602a:	881b      	ldrh	r3, [r3, #0]
 800602c:	18d2      	adds	r2, r2, r3
 800602e:	2022      	movs	r0, #34	@ 0x22
 8006030:	1843      	adds	r3, r0, r1
 8006032:	19db      	adds	r3, r3, r7
 8006034:	881b      	ldrh	r3, [r3, #0]
 8006036:	18d2      	adds	r2, r2, r3
					+ quoteLength + stringLength], AT_STRING_QUOTE_MARK,
 8006038:	2320      	movs	r3, #32
 800603a:	0008      	movs	r0, r1
 800603c:	185b      	adds	r3, r3, r1
 800603e:	19db      	adds	r3, r3, r7
 8006040:	881b      	ldrh	r3, [r3, #0]
 8006042:	18d2      	adds	r2, r2, r3
 8006044:	0031      	movs	r1, r6
 8006046:	180e      	adds	r6, r1, r0
 8006048:	19f3      	adds	r3, r6, r7
 800604a:	881b      	ldrh	r3, [r3, #0]
 800604c:	18d3      	adds	r3, r2, r3
			&buffer[prefixLength + commandLength + assignmentLength
 800604e:	6aba      	ldr	r2, [r7, #40]	@ 0x28
 8006050:	18d0      	adds	r0, r2, r3
	memcpy(
 8006052:	000e      	movs	r6, r1
 8006054:	2318      	movs	r3, #24
 8006056:	18ca      	adds	r2, r1, r3
 8006058:	19d3      	adds	r3, r2, r7
 800605a:	881a      	ldrh	r2, [r3, #0]
 800605c:	4b1e      	ldr	r3, [pc, #120]	@ (80060d8 <espAt_sendString+0x2b0>)
 800605e:	0019      	movs	r1, r3
 8006060:	f000 ffde 	bl	8007020 <memcpy>
			stringLength);
	memcpy(
			&buffer[prefixLength + commandLength + assignmentLength
 8006064:	2118      	movs	r1, #24
 8006066:	1863      	adds	r3, r4, r1
 8006068:	19db      	adds	r3, r3, r7
 800606a:	881a      	ldrh	r2, [r3, #0]
 800606c:	186b      	adds	r3, r5, r1
 800606e:	19db      	adds	r3, r3, r7
 8006070:	881b      	ldrh	r3, [r3, #0]
 8006072:	18d2      	adds	r2, r2, r3
 8006074:	2022      	movs	r0, #34	@ 0x22
 8006076:	1843      	adds	r3, r0, r1
 8006078:	19db      	adds	r3, r3, r7
 800607a:	881b      	ldrh	r3, [r3, #0]
 800607c:	18d2      	adds	r2, r2, r3
					+ (quoteLength * 2) + stringLength], AT_ENDING,
 800607e:	2320      	movs	r3, #32
 8006080:	0008      	movs	r0, r1
 8006082:	185b      	adds	r3, r3, r1
 8006084:	19db      	adds	r3, r3, r7
 8006086:	881b      	ldrh	r3, [r3, #0]
 8006088:	005b      	lsls	r3, r3, #1
 800608a:	18d2      	adds	r2, r2, r3
 800608c:	0031      	movs	r1, r6
 800608e:	0004      	movs	r4, r0
 8006090:	180b      	adds	r3, r1, r0
 8006092:	19db      	adds	r3, r3, r7
 8006094:	881b      	ldrh	r3, [r3, #0]
 8006096:	18d3      	adds	r3, r2, r3
			&buffer[prefixLength + commandLength + assignmentLength
 8006098:	6aba      	ldr	r2, [r7, #40]	@ 0x28
 800609a:	18d0      	adds	r0, r2, r3
	memcpy(
 800609c:	231c      	movs	r3, #28
 800609e:	191b      	adds	r3, r3, r4
 80060a0:	19db      	adds	r3, r3, r7
 80060a2:	881a      	ldrh	r2, [r3, #0]
 80060a4:	4b0d      	ldr	r3, [pc, #52]	@ (80060dc <espAt_sendString+0x2b4>)
 80060a6:	0019      	movs	r1, r3
 80060a8:	f000 ffba 	bl	8007020 <memcpy>
			endingLength);

	return uartSend(&radio->espUart, buffer, bufferSize);
 80060ac:	6a78      	ldr	r0, [r7, #36]	@ 0x24
 80060ae:	221a      	movs	r2, #26
 80060b0:	1913      	adds	r3, r2, r4
 80060b2:	19db      	adds	r3, r3, r7
 80060b4:	881a      	ldrh	r2, [r3, #0]
 80060b6:	6abb      	ldr	r3, [r7, #40]	@ 0x28
 80060b8:	0019      	movs	r1, r3
 80060ba:	f7ff fbf5 	bl	80058a8 <uartSend>
 80060be:	0003      	movs	r3, r0
 80060c0:	46c5      	mov	sp, r8

}
 80060c2:	0018      	movs	r0, r3
 80060c4:	46bd      	mov	sp, r7
 80060c6:	b010      	add	sp, #64	@ 0x40
 80060c8:	bc80      	pop	{r7}
 80060ca:	46b8      	mov	r8, r7
 80060cc:	bdf0      	pop	{r4, r5, r6, r7, pc}
 80060ce:	46c0      	nop			@ (mov r8, r8)
 80060d0:	08007ea0 	.word	0x08007ea0
 80060d4:	08007ea8 	.word	0x08007ea8
 80060d8:	08007eac 	.word	0x08007eac
 80060dc:	08007ea4 	.word	0x08007ea4

080060e0 <MX_GPIO_Init>:
/* USER CODE END 1 */

/** Configure pins
*/
void MX_GPIO_Init(void)
{
 80060e0:	b590      	push	{r4, r7, lr}
 80060e2:	b089      	sub	sp, #36	@ 0x24
 80060e4:	af00      	add	r7, sp, #0

  GPIO_InitTypeDef GPIO_InitStruct = {0};
 80060e6:	240c      	movs	r4, #12
 80060e8:	193b      	adds	r3, r7, r4
 80060ea:	0018      	movs	r0, r3
 80060ec:	2314      	movs	r3, #20
 80060ee:	001a      	movs	r2, r3
 80060f0:	2100      	movs	r1, #0
 80060f2:	f000 ff63 	bl	8006fbc <memset>

  /* GPIO Ports Clock Enable */
  __HAL_RCC_GPIOC_CLK_ENABLE();
 80060f6:	4b32      	ldr	r3, [pc, #200]	@ (80061c0 <MX_GPIO_Init+0xe0>)
 80060f8:	6b5a      	ldr	r2, [r3, #52]	@ 0x34
 80060fa:	4b31      	ldr	r3, [pc, #196]	@ (80061c0 <MX_GPIO_Init+0xe0>)
 80060fc:	2104      	movs	r1, #4
 80060fe:	430a      	orrs	r2, r1
 8006100:	635a      	str	r2, [r3, #52]	@ 0x34
 8006102:	4b2f      	ldr	r3, [pc, #188]	@ (80061c0 <MX_GPIO_Init+0xe0>)
 8006104:	6b5b      	ldr	r3, [r3, #52]	@ 0x34
 8006106:	2204      	movs	r2, #4
 8006108:	4013      	ands	r3, r2
 800610a:	60bb      	str	r3, [r7, #8]
 800610c:	68bb      	ldr	r3, [r7, #8]
  __HAL_RCC_GPIOA_CLK_ENABLE();
 800610e:	4b2c      	ldr	r3, [pc, #176]	@ (80061c0 <MX_GPIO_Init+0xe0>)
 8006110:	6b5a      	ldr	r2, [r3, #52]	@ 0x34
 8006112:	4b2b      	ldr	r3, [pc, #172]	@ (80061c0 <MX_GPIO_Init+0xe0>)
 8006114:	2101      	movs	r1, #1
 8006116:	430a      	orrs	r2, r1
 8006118:	635a      	str	r2, [r3, #52]	@ 0x34
 800611a:	4b29      	ldr	r3, [pc, #164]	@ (80061c0 <MX_GPIO_Init+0xe0>)
 800611c:	6b5b      	ldr	r3, [r3, #52]	@ 0x34
 800611e:	2201      	movs	r2, #1
 8006120:	4013      	ands	r3, r2
 8006122:	607b      	str	r3, [r7, #4]
 8006124:	687b      	ldr	r3, [r7, #4]
  __HAL_RCC_GPIOB_CLK_ENABLE();
 8006126:	4b26      	ldr	r3, [pc, #152]	@ (80061c0 <MX_GPIO_Init+0xe0>)
 8006128:	6b5a      	ldr	r2, [r3, #52]	@ 0x34
 800612a:	4b25      	ldr	r3, [pc, #148]	@ (80061c0 <MX_GPIO_Init+0xe0>)
 800612c:	2102      	movs	r1, #2
 800612e:	430a      	orrs	r2, r1
 8006130:	635a      	str	r2, [r3, #52]	@ 0x34
 8006132:	4b23      	ldr	r3, [pc, #140]	@ (80061c0 <MX_GPIO_Init+0xe0>)
 8006134:	6b5b      	ldr	r3, [r3, #52]	@ 0x34
 8006136:	2202      	movs	r2, #2
 8006138:	4013      	ands	r3, r2
 800613a:	603b      	str	r3, [r7, #0]
 800613c:	683b      	ldr	r3, [r7, #0]

  /*Configure GPIO pin Output Level */
  HAL_GPIO_WritePin(LED_GREEN_GPIO_Port, LED_GREEN_Pin, GPIO_PIN_RESET);
 800613e:	23a0      	movs	r3, #160	@ 0xa0
 8006140:	05db      	lsls	r3, r3, #23
 8006142:	2200      	movs	r2, #0
 8006144:	2120      	movs	r1, #32
 8006146:	0018      	movs	r0, r3
 8006148:	f7fc fee7 	bl	8002f1a <HAL_GPIO_WritePin>

  /*Configure GPIO pin : BUTTON_BLUE_Pin */
  GPIO_InitStruct.Pin = BUTTON_BLUE_Pin;
 800614c:	193b      	adds	r3, r7, r4
 800614e:	2280      	movs	r2, #128	@ 0x80
 8006150:	0192      	lsls	r2, r2, #6
 8006152:	601a      	str	r2, [r3, #0]
  GPIO_InitStruct.Mode = GPIO_MODE_INPUT;
 8006154:	193b      	adds	r3, r7, r4
 8006156:	2200      	movs	r2, #0
 8006158:	605a      	str	r2, [r3, #4]
  GPIO_InitStruct.Pull = GPIO_NOPULL;
 800615a:	193b      	adds	r3, r7, r4
 800615c:	2200      	movs	r2, #0
 800615e:	609a      	str	r2, [r3, #8]
  HAL_GPIO_Init(BUTTON_BLUE_GPIO_Port, &GPIO_InitStruct);
 8006160:	193b      	adds	r3, r7, r4
 8006162:	4a18      	ldr	r2, [pc, #96]	@ (80061c4 <MX_GPIO_Init+0xe4>)
 8006164:	0019      	movs	r1, r3
 8006166:	0010      	movs	r0, r2
 8006168:	f7fc fc86 	bl	8002a78 <HAL_GPIO_Init>

  /*Configure GPIO pin : INT1_Pin */
  GPIO_InitStruct.Pin = INT1_Pin;
 800616c:	193b      	adds	r3, r7, r4
 800616e:	2201      	movs	r2, #1
 8006170:	601a      	str	r2, [r3, #0]
  GPIO_InitStruct.Mode = GPIO_MODE_IT_RISING;
 8006172:	193b      	adds	r3, r7, r4
 8006174:	2288      	movs	r2, #136	@ 0x88
 8006176:	0352      	lsls	r2, r2, #13
 8006178:	605a      	str	r2, [r3, #4]
  GPIO_InitStruct.Pull = GPIO_NOPULL;
 800617a:	193b      	adds	r3, r7, r4
 800617c:	2200      	movs	r2, #0
 800617e:	609a      	str	r2, [r3, #8]
  HAL_GPIO_Init(INT1_GPIO_Port, &GPIO_InitStruct);
 8006180:	193a      	adds	r2, r7, r4
 8006182:	23a0      	movs	r3, #160	@ 0xa0
 8006184:	05db      	lsls	r3, r3, #23
 8006186:	0011      	movs	r1, r2
 8006188:	0018      	movs	r0, r3
 800618a:	f7fc fc75 	bl	8002a78 <HAL_GPIO_Init>

  /*Configure GPIO pin : LED_GREEN_Pin */
  GPIO_InitStruct.Pin = LED_GREEN_Pin;
 800618e:	0021      	movs	r1, r4
 8006190:	187b      	adds	r3, r7, r1
 8006192:	2220      	movs	r2, #32
 8006194:	601a      	str	r2, [r3, #0]
  GPIO_InitStruct.Mode = GPIO_MODE_OUTPUT_PP;
 8006196:	187b      	adds	r3, r7, r1
 8006198:	2201      	movs	r2, #1
 800619a:	605a      	str	r2, [r3, #4]
  GPIO_InitStruct.Pull = GPIO_NOPULL;
 800619c:	187b      	adds	r3, r7, r1
 800619e:	2200      	movs	r2, #0
 80061a0:	609a      	str	r2, [r3, #8]
  GPIO_InitStruct.Speed = GPIO_SPEED_FREQ_LOW;
 80061a2:	187b      	adds	r3, r7, r1
 80061a4:	2200      	movs	r2, #0
 80061a6:	60da      	str	r2, [r3, #12]
  HAL_GPIO_Init(LED_GREEN_GPIO_Port, &GPIO_InitStruct);
 80061a8:	187a      	adds	r2, r7, r1
 80061aa:	23a0      	movs	r3, #160	@ 0xa0
 80061ac:	05db      	lsls	r3, r3, #23
 80061ae:	0011      	movs	r1, r2
 80061b0:	0018      	movs	r0, r3
 80061b2:	f7fc fc61 	bl	8002a78 <HAL_GPIO_Init>

}
 80061b6:	46c0      	nop			@ (mov r8, r8)
 80061b8:	46bd      	mov	sp, r7
 80061ba:	b009      	add	sp, #36	@ 0x24
 80061bc:	bd90      	pop	{r4, r7, pc}
 80061be:	46c0      	nop			@ (mov r8, r8)
 80061c0:	40021000 	.word	0x40021000
 80061c4:	50000800 	.word	0x50000800

080061c8 <MX_I2C1_Init>:

I2C_HandleTypeDef hi2c1;

/* I2C1 init function */
void MX_I2C1_Init(void)
{
 80061c8:	b580      	push	{r7, lr}
 80061ca:	af00      	add	r7, sp, #0
  /* USER CODE END I2C1_Init 0 */

  /* USER CODE BEGIN I2C1_Init 1 */

  /* USER CODE END I2C1_Init 1 */
  hi2c1.Instance = I2C1;
 80061cc:	4b1b      	ldr	r3, [pc, #108]	@ (800623c <MX_I2C1_Init+0x74>)
 80061ce:	4a1c      	ldr	r2, [pc, #112]	@ (8006240 <MX_I2C1_Init+0x78>)
 80061d0:	601a      	str	r2, [r3, #0]
  hi2c1.Init.Timing = 0x00C12166;
 80061d2:	4b1a      	ldr	r3, [pc, #104]	@ (800623c <MX_I2C1_Init+0x74>)
 80061d4:	4a1b      	ldr	r2, [pc, #108]	@ (8006244 <MX_I2C1_Init+0x7c>)
 80061d6:	605a      	str	r2, [r3, #4]
  hi2c1.Init.OwnAddress1 = 0;
 80061d8:	4b18      	ldr	r3, [pc, #96]	@ (800623c <MX_I2C1_Init+0x74>)
 80061da:	2200      	movs	r2, #0
 80061dc:	609a      	str	r2, [r3, #8]
  hi2c1.Init.AddressingMode = I2C_ADDRESSINGMODE_7BIT;
 80061de:	4b17      	ldr	r3, [pc, #92]	@ (800623c <MX_I2C1_Init+0x74>)
 80061e0:	2201      	movs	r2, #1
 80061e2:	60da      	str	r2, [r3, #12]
  hi2c1.Init.DualAddressMode = I2C_DUALADDRESS_DISABLE;
 80061e4:	4b15      	ldr	r3, [pc, #84]	@ (800623c <MX_I2C1_Init+0x74>)
 80061e6:	2200      	movs	r2, #0
 80061e8:	611a      	str	r2, [r3, #16]
  hi2c1.Init.OwnAddress2 = 0;
 80061ea:	4b14      	ldr	r3, [pc, #80]	@ (800623c <MX_I2C1_Init+0x74>)
 80061ec:	2200      	movs	r2, #0
 80061ee:	615a      	str	r2, [r3, #20]
  hi2c1.Init.OwnAddress2Masks = I2C_OA2_NOMASK;
 80061f0:	4b12      	ldr	r3, [pc, #72]	@ (800623c <MX_I2C1_Init+0x74>)
 80061f2:	2200      	movs	r2, #0
 80061f4:	619a      	str	r2, [r3, #24]
  hi2c1.Init.GeneralCallMode = I2C_GENERALCALL_DISABLE;
 80061f6:	4b11      	ldr	r3, [pc, #68]	@ (800623c <MX_I2C1_Init+0x74>)
 80061f8:	2200      	movs	r2, #0
 80061fa:	61da      	str	r2, [r3, #28]
  hi2c1.Init.NoStretchMode = I2C_NOSTRETCH_DISABLE;
 80061fc:	4b0f      	ldr	r3, [pc, #60]	@ (800623c <MX_I2C1_Init+0x74>)
 80061fe:	2200      	movs	r2, #0
 8006200:	621a      	str	r2, [r3, #32]
  if (HAL_I2C_Init(&hi2c1) != HAL_OK)
 8006202:	4b0e      	ldr	r3, [pc, #56]	@ (800623c <MX_I2C1_Init+0x74>)
 8006204:	0018      	movs	r0, r3
 8006206:	f7fc fea5 	bl	8002f54 <HAL_I2C_Init>
 800620a:	1e03      	subs	r3, r0, #0
 800620c:	d001      	beq.n	8006212 <MX_I2C1_Init+0x4a>
  {
    Error_Handler();
 800620e:	f000 fc7f 	bl	8006b10 <Error_Handler>
  }

  /** Configure Analogue filter
  */
  if (HAL_I2CEx_ConfigAnalogFilter(&hi2c1, I2C_ANALOGFILTER_ENABLE) != HAL_OK)
 8006212:	4b0a      	ldr	r3, [pc, #40]	@ (800623c <MX_I2C1_Init+0x74>)
 8006214:	2100      	movs	r1, #0
 8006216:	0018      	movs	r0, r3
 8006218:	f7fd fca0 	bl	8003b5c <HAL_I2CEx_ConfigAnalogFilter>
 800621c:	1e03      	subs	r3, r0, #0
 800621e:	d001      	beq.n	8006224 <MX_I2C1_Init+0x5c>
  {
    Error_Handler();
 8006220:	f000 fc76 	bl	8006b10 <Error_Handler>
  }

  /** Configure Digital filter
  */
  if (HAL_I2CEx_ConfigDigitalFilter(&hi2c1, 0) != HAL_OK)
 8006224:	4b05      	ldr	r3, [pc, #20]	@ (800623c <MX_I2C1_Init+0x74>)
 8006226:	2100      	movs	r1, #0
 8006228:	0018      	movs	r0, r3
 800622a:	f7fd fce3 	bl	8003bf4 <HAL_I2CEx_ConfigDigitalFilter>
 800622e:	1e03      	subs	r3, r0, #0
 8006230:	d001      	beq.n	8006236 <MX_I2C1_Init+0x6e>
  {
    Error_Handler();
 8006232:	f000 fc6d 	bl	8006b10 <Error_Handler>
  }
  /* USER CODE BEGIN I2C1_Init 2 */

  /* USER CODE END I2C1_Init 2 */

}
 8006236:	46c0      	nop			@ (mov r8, r8)
 8006238:	46bd      	mov	sp, r7
 800623a:	bd80      	pop	{r7, pc}
 800623c:	20000090 	.word	0x20000090
 8006240:	40005400 	.word	0x40005400
 8006244:	00c12166 	.word	0x00c12166

08006248 <HAL_I2C_MspInit>:

void HAL_I2C_MspInit(I2C_HandleTypeDef* i2cHandle)
{
 8006248:	b590      	push	{r4, r7, lr}
 800624a:	b097      	sub	sp, #92	@ 0x5c
 800624c:	af00      	add	r7, sp, #0
 800624e:	6078      	str	r0, [r7, #4]

  GPIO_InitTypeDef GPIO_InitStruct = {0};
 8006250:	2344      	movs	r3, #68	@ 0x44
 8006252:	18fb      	adds	r3, r7, r3
 8006254:	0018      	movs	r0, r3
 8006256:	2314      	movs	r3, #20
 8006258:	001a      	movs	r2, r3
 800625a:	2100      	movs	r1, #0
 800625c:	f000 feae 	bl	8006fbc <memset>
  RCC_PeriphCLKInitTypeDef PeriphClkInit = {0};
 8006260:	2410      	movs	r4, #16
 8006262:	193b      	adds	r3, r7, r4
 8006264:	0018      	movs	r0, r3
 8006266:	2334      	movs	r3, #52	@ 0x34
 8006268:	001a      	movs	r2, r3
 800626a:	2100      	movs	r1, #0
 800626c:	f000 fea6 	bl	8006fbc <memset>
  if(i2cHandle->Instance==I2C1)
 8006270:	687b      	ldr	r3, [r7, #4]
 8006272:	681b      	ldr	r3, [r3, #0]
 8006274:	4a22      	ldr	r2, [pc, #136]	@ (8006300 <HAL_I2C_MspInit+0xb8>)
 8006276:	4293      	cmp	r3, r2
 8006278:	d13e      	bne.n	80062f8 <HAL_I2C_MspInit+0xb0>

  /* USER CODE END I2C1_MspInit 0 */

  /** Initializes the peripherals clocks
  */
    PeriphClkInit.PeriphClockSelection = RCC_PERIPHCLK_I2C1;
 800627a:	193b      	adds	r3, r7, r4
 800627c:	2220      	movs	r2, #32
 800627e:	601a      	str	r2, [r3, #0]
    PeriphClkInit.I2c1ClockSelection = RCC_I2C1CLKSOURCE_PCLK1;
 8006280:	193b      	adds	r3, r7, r4
 8006282:	2200      	movs	r2, #0
 8006284:	611a      	str	r2, [r3, #16]
    if (HAL_RCCEx_PeriphCLKConfig(&PeriphClkInit) != HAL_OK)
 8006286:	193b      	adds	r3, r7, r4
 8006288:	0018      	movs	r0, r3
 800628a:	f7fe fa0f 	bl	80046ac <HAL_RCCEx_PeriphCLKConfig>
 800628e:	1e03      	subs	r3, r0, #0
 8006290:	d001      	beq.n	8006296 <HAL_I2C_MspInit+0x4e>
    {
      Error_Handler();
 8006292:	f000 fc3d 	bl	8006b10 <Error_Handler>
    }

    __HAL_RCC_GPIOB_CLK_ENABLE();
 8006296:	4b1b      	ldr	r3, [pc, #108]	@ (8006304 <HAL_I2C_MspInit+0xbc>)
 8006298:	6b5a      	ldr	r2, [r3, #52]	@ 0x34
 800629a:	4b1a      	ldr	r3, [pc, #104]	@ (8006304 <HAL_I2C_MspInit+0xbc>)
 800629c:	2102      	movs	r1, #2
 800629e:	430a      	orrs	r2, r1
 80062a0:	635a      	str	r2, [r3, #52]	@ 0x34
 80062a2:	4b18      	ldr	r3, [pc, #96]	@ (8006304 <HAL_I2C_MspInit+0xbc>)
 80062a4:	6b5b      	ldr	r3, [r3, #52]	@ 0x34
 80062a6:	2202      	movs	r2, #2
 80062a8:	4013      	ands	r3, r2
 80062aa:	60fb      	str	r3, [r7, #12]
 80062ac:	68fb      	ldr	r3, [r7, #12]
    /**I2C1 GPIO Configuration
    PB8     ------> I2C1_SCL
    PB9     ------> I2C1_SDA
    */
    GPIO_InitStruct.Pin = GPIO_PIN_8|GPIO_PIN_9;
 80062ae:	2144      	movs	r1, #68	@ 0x44
 80062b0:	187b      	adds	r3, r7, r1
 80062b2:	22c0      	movs	r2, #192	@ 0xc0
 80062b4:	0092      	lsls	r2, r2, #2
 80062b6:	601a      	str	r2, [r3, #0]
    GPIO_InitStruct.Mode = GPIO_MODE_AF_OD;
 80062b8:	187b      	adds	r3, r7, r1
 80062ba:	2212      	movs	r2, #18
 80062bc:	605a      	str	r2, [r3, #4]
    GPIO_InitStruct.Pull = GPIO_NOPULL;
 80062be:	187b      	adds	r3, r7, r1
 80062c0:	2200      	movs	r2, #0
 80062c2:	609a      	str	r2, [r3, #8]
    GPIO_InitStruct.Speed = GPIO_SPEED_FREQ_LOW;
 80062c4:	187b      	adds	r3, r7, r1
 80062c6:	2200      	movs	r2, #0
 80062c8:	60da      	str	r2, [r3, #12]
    GPIO_InitStruct.Alternate = GPIO_AF6_I2C1;
 80062ca:	187b      	adds	r3, r7, r1
 80062cc:	2206      	movs	r2, #6
 80062ce:	611a      	str	r2, [r3, #16]
    HAL_GPIO_Init(GPIOB, &GPIO_InitStruct);
 80062d0:	187b      	adds	r3, r7, r1
 80062d2:	4a0d      	ldr	r2, [pc, #52]	@ (8006308 <HAL_I2C_MspInit+0xc0>)
 80062d4:	0019      	movs	r1, r3
 80062d6:	0010      	movs	r0, r2
 80062d8:	f7fc fbce 	bl	8002a78 <HAL_GPIO_Init>

    /* I2C1 clock enable */
    __HAL_RCC_I2C1_CLK_ENABLE();
 80062dc:	4b09      	ldr	r3, [pc, #36]	@ (8006304 <HAL_I2C_MspInit+0xbc>)
 80062de:	6bda      	ldr	r2, [r3, #60]	@ 0x3c
 80062e0:	4b08      	ldr	r3, [pc, #32]	@ (8006304 <HAL_I2C_MspInit+0xbc>)
 80062e2:	2180      	movs	r1, #128	@ 0x80
 80062e4:	0389      	lsls	r1, r1, #14
 80062e6:	430a      	orrs	r2, r1
 80062e8:	63da      	str	r2, [r3, #60]	@ 0x3c
 80062ea:	4b06      	ldr	r3, [pc, #24]	@ (8006304 <HAL_I2C_MspInit+0xbc>)
 80062ec:	6bda      	ldr	r2, [r3, #60]	@ 0x3c
 80062ee:	2380      	movs	r3, #128	@ 0x80
 80062f0:	039b      	lsls	r3, r3, #14
 80062f2:	4013      	ands	r3, r2
 80062f4:	60bb      	str	r3, [r7, #8]
 80062f6:	68bb      	ldr	r3, [r7, #8]
  /* USER CODE BEGIN I2C1_MspInit 1 */

  /* USER CODE END I2C1_MspInit 1 */
  }
}
 80062f8:	46c0      	nop			@ (mov r8, r8)
 80062fa:	46bd      	mov	sp, r7
 80062fc:	b017      	add	sp, #92	@ 0x5c
 80062fe:	bd90      	pop	{r4, r7, pc}
 8006300:	40005400 	.word	0x40005400
 8006304:	40021000 	.word	0x40021000
 8006308:	50000400 	.word	0x50000400

0800630c <i2cSend>:
/*
 * uart send/receive functions. fill it by hardware-specific uart send/receive functions
 * port
 */
lsm6ds_state_t i2cSend(lsm6ds_i2cInstance_t *i2c, uint16_t devAddr,
		uint16_t memAddr, uint8_t *data, uint32_t size) {
 800630c:	b5f0      	push	{r4, r5, r6, r7, lr}
 800630e:	b08b      	sub	sp, #44	@ 0x2c
 8006310:	af04      	add	r7, sp, #16
 8006312:	60f8      	str	r0, [r7, #12]
 8006314:	0008      	movs	r0, r1
 8006316:	0011      	movs	r1, r2
 8006318:	607b      	str	r3, [r7, #4]
 800631a:	260a      	movs	r6, #10
 800631c:	19bb      	adds	r3, r7, r6
 800631e:	1c02      	adds	r2, r0, #0
 8006320:	801a      	strh	r2, [r3, #0]
 8006322:	2508      	movs	r5, #8
 8006324:	197b      	adds	r3, r7, r5
 8006326:	1c0a      	adds	r2, r1, #0
 8006328:	801a      	strh	r2, [r3, #0]

	HAL_StatusTypeDef state = HAL_I2C_Mem_Write(i2c->i2c, devAddr, memAddr,
 800632a:	68fb      	ldr	r3, [r7, #12]
 800632c:	6818      	ldr	r0, [r3, #0]
 800632e:	6b3b      	ldr	r3, [r7, #48]	@ 0x30
 8006330:	b29a      	uxth	r2, r3
 8006332:	68fb      	ldr	r3, [r7, #12]
 8006334:	685b      	ldr	r3, [r3, #4]
 8006336:	2117      	movs	r1, #23
 8006338:	187c      	adds	r4, r7, r1
 800633a:	1979      	adds	r1, r7, r5
 800633c:	880d      	ldrh	r5, [r1, #0]
 800633e:	19b9      	adds	r1, r7, r6
 8006340:	8809      	ldrh	r1, [r1, #0]
 8006342:	9302      	str	r3, [sp, #8]
 8006344:	9201      	str	r2, [sp, #4]
 8006346:	687b      	ldr	r3, [r7, #4]
 8006348:	9300      	str	r3, [sp, #0]
 800634a:	2301      	movs	r3, #1
 800634c:	002a      	movs	r2, r5
 800634e:	f7fc fea7 	bl	80030a0 <HAL_I2C_Mem_Write>
 8006352:	0003      	movs	r3, r0
 8006354:	7023      	strb	r3, [r4, #0]
	LSM6DS_REGISTER_ADDR_LENGTH, data, size, i2c->sendTimeout);

	if (state == HAL_OK)
 8006356:	2117      	movs	r1, #23
 8006358:	187b      	adds	r3, r7, r1
 800635a:	781b      	ldrb	r3, [r3, #0]
 800635c:	2b00      	cmp	r3, #0
 800635e:	d101      	bne.n	8006364 <i2cSend+0x58>
		return LSM6DS_STATE_OK;
 8006360:	2300      	movs	r3, #0
 8006362:	e007      	b.n	8006374 <i2cSend+0x68>
	else if (state == HAL_TIMEOUT)
 8006364:	2317      	movs	r3, #23
 8006366:	18fb      	adds	r3, r7, r3
 8006368:	781b      	ldrb	r3, [r3, #0]
 800636a:	2b03      	cmp	r3, #3
 800636c:	d101      	bne.n	8006372 <i2cSend+0x66>
		return LSM6DS_STATE_TIMEOUT;
 800636e:	2302      	movs	r3, #2
 8006370:	e000      	b.n	8006374 <i2cSend+0x68>
	else
		return LSM6DS_STATE_ERR;
 8006372:	2301      	movs	r3, #1
}
 8006374:	0018      	movs	r0, r3
 8006376:	46bd      	mov	sp, r7
 8006378:	b007      	add	sp, #28
 800637a:	bdf0      	pop	{r4, r5, r6, r7, pc}

0800637c <i2cReceive>:

//port
lsm6ds_state_t i2cReceive(lsm6ds_i2cInstance_t *i2c, uint16_t devAddr,
		uint16_t memAddr, uint8_t *data, uint32_t size) {
 800637c:	b5f0      	push	{r4, r5, r6, r7, lr}
 800637e:	b08b      	sub	sp, #44	@ 0x2c
 8006380:	af04      	add	r7, sp, #16
 8006382:	60f8      	str	r0, [r7, #12]
 8006384:	0008      	movs	r0, r1
 8006386:	0011      	movs	r1, r2
 8006388:	607b      	str	r3, [r7, #4]
 800638a:	260a      	movs	r6, #10
 800638c:	19bb      	adds	r3, r7, r6
 800638e:	1c02      	adds	r2, r0, #0
 8006390:	801a      	strh	r2, [r3, #0]
 8006392:	2508      	movs	r5, #8
 8006394:	197b      	adds	r3, r7, r5
 8006396:	1c0a      	adds	r2, r1, #0
 8006398:	801a      	strh	r2, [r3, #0]

	HAL_StatusTypeDef state = HAL_I2C_Mem_Read(i2c->i2c, devAddr, memAddr,
 800639a:	68fb      	ldr	r3, [r7, #12]
 800639c:	6818      	ldr	r0, [r3, #0]
 800639e:	6b3b      	ldr	r3, [r7, #48]	@ 0x30
 80063a0:	b29a      	uxth	r2, r3
 80063a2:	68fb      	ldr	r3, [r7, #12]
 80063a4:	689b      	ldr	r3, [r3, #8]
 80063a6:	2117      	movs	r1, #23
 80063a8:	187c      	adds	r4, r7, r1
 80063aa:	1979      	adds	r1, r7, r5
 80063ac:	880d      	ldrh	r5, [r1, #0]
 80063ae:	19b9      	adds	r1, r7, r6
 80063b0:	8809      	ldrh	r1, [r1, #0]
 80063b2:	9302      	str	r3, [sp, #8]
 80063b4:	9201      	str	r2, [sp, #4]
 80063b6:	687b      	ldr	r3, [r7, #4]
 80063b8:	9300      	str	r3, [sp, #0]
 80063ba:	2301      	movs	r3, #1
 80063bc:	002a      	movs	r2, r5
 80063be:	f7fc ff9d 	bl	80032fc <HAL_I2C_Mem_Read>
 80063c2:	0003      	movs	r3, r0
 80063c4:	7023      	strb	r3, [r4, #0]
	LSM6DS_REGISTER_ADDR_LENGTH, data, size, i2c->receiveTimeout);

	if (state == HAL_OK)
 80063c6:	2117      	movs	r1, #23
 80063c8:	187b      	adds	r3, r7, r1
 80063ca:	781b      	ldrb	r3, [r3, #0]
 80063cc:	2b00      	cmp	r3, #0
 80063ce:	d101      	bne.n	80063d4 <i2cReceive+0x58>
		return LSM6DS_STATE_OK;
 80063d0:	2300      	movs	r3, #0
 80063d2:	e007      	b.n	80063e4 <i2cReceive+0x68>
	else if (state == HAL_TIMEOUT)
 80063d4:	2317      	movs	r3, #23
 80063d6:	18fb      	adds	r3, r7, r3
 80063d8:	781b      	ldrb	r3, [r3, #0]
 80063da:	2b03      	cmp	r3, #3
 80063dc:	d101      	bne.n	80063e2 <i2cReceive+0x66>
		return LSM6DS_STATE_TIMEOUT;
 80063de:	2302      	movs	r3, #2
 80063e0:	e000      	b.n	80063e4 <i2cReceive+0x68>
	else
		return LSM6DS_STATE_ERR;
 80063e2:	2301      	movs	r3, #1
}
 80063e4:	0018      	movs	r0, r3
 80063e6:	46bd      	mov	sp, r7
 80063e8:	b007      	add	sp, #28
 80063ea:	bdf0      	pop	{r4, r5, r6, r7, pc}

080063ec <modifyReg>:
 * @param: register address
 * @param: bitmask
 * @param: value
 */
lsm6ds_state_t modifyReg(lsm6ds_sensor_t *sensor, uint16_t regAddr,
		uint8_t bitmask, uint16_t value) {
 80063ec:	b5f0      	push	{r4, r5, r6, r7, lr}
 80063ee:	b089      	sub	sp, #36	@ 0x24
 80063f0:	af02      	add	r7, sp, #8
 80063f2:	60f8      	str	r0, [r7, #12]
 80063f4:	000c      	movs	r4, r1
 80063f6:	0010      	movs	r0, r2
 80063f8:	0019      	movs	r1, r3
 80063fa:	230a      	movs	r3, #10
 80063fc:	18fb      	adds	r3, r7, r3
 80063fe:	1c22      	adds	r2, r4, #0
 8006400:	801a      	strh	r2, [r3, #0]
 8006402:	2209      	movs	r2, #9
 8006404:	18bb      	adds	r3, r7, r2
 8006406:	1c02      	adds	r2, r0, #0
 8006408:	701a      	strb	r2, [r3, #0]
 800640a:	1dbb      	adds	r3, r7, #6
 800640c:	1c0a      	adds	r2, r1, #0
 800640e:	801a      	strh	r2, [r3, #0]

	uint8_t readedReg = 0;
 8006410:	2516      	movs	r5, #22
 8006412:	197b      	adds	r3, r7, r5
 8006414:	2200      	movs	r2, #0
 8006416:	701a      	strb	r2, [r3, #0]
	lsm6ds_state_t state = LSM6DS_STATE_ERR;
 8006418:	2617      	movs	r6, #23
 800641a:	19bb      	adds	r3, r7, r6
 800641c:	2201      	movs	r2, #1
 800641e:	701a      	strb	r2, [r3, #0]

	//read original register
	state = i2cReceive(&sensor->lsm6dsI2c, sensor->deviceAddr, regAddr,
 8006420:	68f8      	ldr	r0, [r7, #12]
 8006422:	68fb      	ldr	r3, [r7, #12]
 8006424:	8999      	ldrh	r1, [r3, #12]
 8006426:	19bc      	adds	r4, r7, r6
 8006428:	197d      	adds	r5, r7, r5
 800642a:	230a      	movs	r3, #10
 800642c:	18fb      	adds	r3, r7, r3
 800642e:	881a      	ldrh	r2, [r3, #0]
 8006430:	2301      	movs	r3, #1
 8006432:	9300      	str	r3, [sp, #0]
 8006434:	002b      	movs	r3, r5
 8006436:	f7ff ffa1 	bl	800637c <i2cReceive>
 800643a:	0003      	movs	r3, r0
 800643c:	7023      	strb	r3, [r4, #0]
			&readedReg, 1);

	if (state != LSM6DS_STATE_OK)
 800643e:	19bb      	adds	r3, r7, r6
 8006440:	781b      	ldrb	r3, [r3, #0]
 8006442:	2b00      	cmp	r3, #0
 8006444:	d002      	beq.n	800644c <modifyReg+0x60>
		return state;
 8006446:	19bb      	adds	r3, r7, r6
 8006448:	781b      	ldrb	r3, [r3, #0]
 800644a:	e02c      	b.n	80064a6 <modifyReg+0xba>

	//clear bits corresponding to mask
	readedReg &= ~(bitmask);
 800644c:	2009      	movs	r0, #9
 800644e:	183b      	adds	r3, r7, r0
 8006450:	781b      	ldrb	r3, [r3, #0]
 8006452:	b25b      	sxtb	r3, r3
 8006454:	43db      	mvns	r3, r3
 8006456:	b25b      	sxtb	r3, r3
 8006458:	2116      	movs	r1, #22
 800645a:	187a      	adds	r2, r7, r1
 800645c:	7812      	ldrb	r2, [r2, #0]
 800645e:	b252      	sxtb	r2, r2
 8006460:	4013      	ands	r3, r2
 8006462:	b25b      	sxtb	r3, r3
 8006464:	b2da      	uxtb	r2, r3
 8006466:	187b      	adds	r3, r7, r1
 8006468:	701a      	strb	r2, [r3, #0]

	//modify register
	uint8_t regToWrite = readedReg | (bitmask & value);
 800646a:	1dbb      	adds	r3, r7, #6
 800646c:	881b      	ldrh	r3, [r3, #0]
 800646e:	b2db      	uxtb	r3, r3
 8006470:	183a      	adds	r2, r7, r0
 8006472:	7812      	ldrb	r2, [r2, #0]
 8006474:	4013      	ands	r3, r2
 8006476:	b2db      	uxtb	r3, r3
 8006478:	b25a      	sxtb	r2, r3
 800647a:	187b      	adds	r3, r7, r1
 800647c:	781b      	ldrb	r3, [r3, #0]
 800647e:	b25b      	sxtb	r3, r3
 8006480:	4313      	orrs	r3, r2
 8006482:	b25b      	sxtb	r3, r3
 8006484:	b2da      	uxtb	r2, r3
 8006486:	2415      	movs	r4, #21
 8006488:	193b      	adds	r3, r7, r4
 800648a:	701a      	strb	r2, [r3, #0]

	//write register
	return i2cSend(&sensor->lsm6dsI2c, sensor->deviceAddr, regAddr, &regToWrite,
 800648c:	68f8      	ldr	r0, [r7, #12]
 800648e:	68fb      	ldr	r3, [r7, #12]
 8006490:	8999      	ldrh	r1, [r3, #12]
 8006492:	193c      	adds	r4, r7, r4
 8006494:	230a      	movs	r3, #10
 8006496:	18fb      	adds	r3, r7, r3
 8006498:	881a      	ldrh	r2, [r3, #0]
 800649a:	2301      	movs	r3, #1
 800649c:	9300      	str	r3, [sp, #0]
 800649e:	0023      	movs	r3, r4
 80064a0:	f7ff ff34 	bl	800630c <i2cSend>
 80064a4:	0003      	movs	r3, r0
			1);

}
 80064a6:	0018      	movs	r0, r3
 80064a8:	46bd      	mov	sp, r7
 80064aa:	b007      	add	sp, #28
 80064ac:	bdf0      	pop	{r4, r5, r6, r7, pc}

080064ae <lsm6ds_init>:
 * @param: rxTimeout
 *
 * @retval: status
 */
lsm6ds_state_t lsm6ds_init(lsm6ds_sensor_t *sensor, uint16_t devAddr,
		I2C_HandleTypeDef *i2c, uint32_t txTimeout, uint32_t rxTimeout) { //port
 80064ae:	b5f0      	push	{r4, r5, r6, r7, lr}
 80064b0:	b089      	sub	sp, #36	@ 0x24
 80064b2:	af02      	add	r7, sp, #8
 80064b4:	60f8      	str	r0, [r7, #12]
 80064b6:	607a      	str	r2, [r7, #4]
 80064b8:	603b      	str	r3, [r7, #0]
 80064ba:	200a      	movs	r0, #10
 80064bc:	183b      	adds	r3, r7, r0
 80064be:	1c0a      	adds	r2, r1, #0
 80064c0:	801a      	strh	r2, [r3, #0]

	sensor->deviceAddr = devAddr;
 80064c2:	68fb      	ldr	r3, [r7, #12]
 80064c4:	183a      	adds	r2, r7, r0
 80064c6:	8812      	ldrh	r2, [r2, #0]
 80064c8:	819a      	strh	r2, [r3, #12]
	sensor->lsm6dsI2c.i2c = i2c;
 80064ca:	68fb      	ldr	r3, [r7, #12]
 80064cc:	687a      	ldr	r2, [r7, #4]
 80064ce:	601a      	str	r2, [r3, #0]
	sensor->lsm6dsI2c.receiveTimeout = rxTimeout;
 80064d0:	68fb      	ldr	r3, [r7, #12]
 80064d2:	6b3a      	ldr	r2, [r7, #48]	@ 0x30
 80064d4:	609a      	str	r2, [r3, #8]
	sensor->lsm6dsI2c.sendTimeout = txTimeout;
 80064d6:	68fb      	ldr	r3, [r7, #12]
 80064d8:	683a      	ldr	r2, [r7, #0]
 80064da:	605a      	str	r2, [r3, #4]

	memset(&sensor->outGR, 0, sizeof(sensor->outGR));
 80064dc:	68fb      	ldr	r3, [r7, #12]
 80064de:	3314      	adds	r3, #20
 80064e0:	2206      	movs	r2, #6
 80064e2:	2100      	movs	r1, #0
 80064e4:	0018      	movs	r0, r3
 80064e6:	f000 fd69 	bl	8006fbc <memset>
	memset(&sensor->outXL, 0, sizeof(sensor->outXL));
 80064ea:	68fb      	ldr	r3, [r7, #12]
 80064ec:	330e      	adds	r3, #14
 80064ee:	2206      	movs	r2, #6
 80064f0:	2100      	movs	r1, #0
 80064f2:	0018      	movs	r0, r3
 80064f4:	f000 fd62 	bl	8006fbc <memset>
	sensor->outTemperature = 0;
 80064f8:	68fb      	ldr	r3, [r7, #12]
 80064fa:	2200      	movs	r2, #0
 80064fc:	835a      	strh	r2, [r3, #26]

	//check communication
	lsm6ds_state_t state = LSM6DS_STATE_ERR;
 80064fe:	2417      	movs	r4, #23
 8006500:	193b      	adds	r3, r7, r4
 8006502:	2201      	movs	r2, #1
 8006504:	701a      	strb	r2, [r3, #0]
	uint8_t receivedWhoIAm = 0;
 8006506:	2616      	movs	r6, #22
 8006508:	19bb      	adds	r3, r7, r6
 800650a:	2200      	movs	r2, #0
 800650c:	701a      	strb	r2, [r3, #0]
	state = i2cReceive(&sensor->lsm6dsI2c, sensor->deviceAddr,
 800650e:	68f8      	ldr	r0, [r7, #12]
 8006510:	68fb      	ldr	r3, [r7, #12]
 8006512:	8999      	ldrh	r1, [r3, #12]
 8006514:	0025      	movs	r5, r4
 8006516:	193c      	adds	r4, r7, r4
 8006518:	19bb      	adds	r3, r7, r6
 800651a:	2201      	movs	r2, #1
 800651c:	9200      	str	r2, [sp, #0]
 800651e:	220f      	movs	r2, #15
 8006520:	f7ff ff2c 	bl	800637c <i2cReceive>
 8006524:	0003      	movs	r3, r0
 8006526:	7023      	strb	r3, [r4, #0]
	LSM6DS_REG_WHO_AM_I, &receivedWhoIAm, 1);
	if (state == LSM6DS_STATE_ERR)
 8006528:	197b      	adds	r3, r7, r5
 800652a:	781b      	ldrb	r3, [r3, #0]
 800652c:	2b01      	cmp	r3, #1
 800652e:	d101      	bne.n	8006534 <lsm6ds_init+0x86>
		return LSM6DS_STATE_ERR_I2C;
 8006530:	2303      	movs	r3, #3
 8006532:	e00f      	b.n	8006554 <lsm6ds_init+0xa6>
	else if (state == LSM6DS_STATE_TIMEOUT)
 8006534:	2217      	movs	r2, #23
 8006536:	18bb      	adds	r3, r7, r2
 8006538:	781b      	ldrb	r3, [r3, #0]
 800653a:	2b02      	cmp	r3, #2
 800653c:	d102      	bne.n	8006544 <lsm6ds_init+0x96>
		return state;
 800653e:	18bb      	adds	r3, r7, r2
 8006540:	781b      	ldrb	r3, [r3, #0]
 8006542:	e007      	b.n	8006554 <lsm6ds_init+0xa6>
	else {
		if (receivedWhoIAm == LSM6DS_WHO_AM_I)
 8006544:	2316      	movs	r3, #22
 8006546:	18fb      	adds	r3, r7, r3
 8006548:	781b      	ldrb	r3, [r3, #0]
 800654a:	2b6a      	cmp	r3, #106	@ 0x6a
 800654c:	d101      	bne.n	8006552 <lsm6ds_init+0xa4>
			return LSM6DS_STATE_OK;
 800654e:	2300      	movs	r3, #0
 8006550:	e000      	b.n	8006554 <lsm6ds_init+0xa6>
		else
			return LSM6DS_STATE_WRONG_WHOAMI;
 8006552:	2304      	movs	r3, #4
	}

}
 8006554:	0018      	movs	r0, r3
 8006556:	46bd      	mov	sp, r7
 8006558:	b007      	add	sp, #28
 800655a:	bdf0      	pop	{r4, r5, r6, r7, pc}

0800655c <lsm6ds_setXLOutputDataRate>:
 * @param: sensor
 * @param: LSM6DS_ODR_XL_*
 *
 * @retval: status
 */
lsm6ds_state_t lsm6ds_setXLOutputDataRate(lsm6ds_sensor_t *sensor, uint8_t odr) {
 800655c:	b580      	push	{r7, lr}
 800655e:	b082      	sub	sp, #8
 8006560:	af00      	add	r7, sp, #0
 8006562:	6078      	str	r0, [r7, #4]
 8006564:	000a      	movs	r2, r1
 8006566:	1cfb      	adds	r3, r7, #3
 8006568:	701a      	strb	r2, [r3, #0]

	return modifyReg(sensor, LSM6DS_REG_CTRL1_XL, LSM6DS_MASK_ODR_XL, odr);
 800656a:	1cfb      	adds	r3, r7, #3
 800656c:	781b      	ldrb	r3, [r3, #0]
 800656e:	b29b      	uxth	r3, r3
 8006570:	6878      	ldr	r0, [r7, #4]
 8006572:	22f0      	movs	r2, #240	@ 0xf0
 8006574:	2110      	movs	r1, #16
 8006576:	f7ff ff39 	bl	80063ec <modifyReg>
 800657a:	0003      	movs	r3, r0

}
 800657c:	0018      	movs	r0, r3
 800657e:	46bd      	mov	sp, r7
 8006580:	b002      	add	sp, #8
 8006582:	bd80      	pop	{r7, pc}

08006584 <lsm6ds_setXLFullScale>:
 * @param: sensor
 * @param: LSM6DS_FS_XL_*
 *
 * @retval: status
 */
lsm6ds_state_t lsm6ds_setXLFullScale(lsm6ds_sensor_t *sensor, uint8_t fs) {
 8006584:	b580      	push	{r7, lr}
 8006586:	b082      	sub	sp, #8
 8006588:	af00      	add	r7, sp, #0
 800658a:	6078      	str	r0, [r7, #4]
 800658c:	000a      	movs	r2, r1
 800658e:	1cfb      	adds	r3, r7, #3
 8006590:	701a      	strb	r2, [r3, #0]

	return modifyReg(sensor, LSM6DS_REG_CTRL1_XL, LSM6DS_MASK_FS_XL, fs);
 8006592:	1cfb      	adds	r3, r7, #3
 8006594:	781b      	ldrb	r3, [r3, #0]
 8006596:	b29b      	uxth	r3, r3
 8006598:	6878      	ldr	r0, [r7, #4]
 800659a:	220c      	movs	r2, #12
 800659c:	2110      	movs	r1, #16
 800659e:	f7ff ff25 	bl	80063ec <modifyReg>
 80065a2:	0003      	movs	r3, r0

}
 80065a4:	0018      	movs	r0, r3
 80065a6:	46bd      	mov	sp, r7
 80065a8:	b002      	add	sp, #8
 80065aa:	bd80      	pop	{r7, pc}

080065ac <lsm6ds_setGROutputDataRate>:
 * @param: sensor
 * @param: LSM6DS_ODR_G_*
 *
 * @retval: status
 */
lsm6ds_state_t lsm6ds_setGROutputDataRate(lsm6ds_sensor_t *sensor, uint8_t odr) {
 80065ac:	b580      	push	{r7, lr}
 80065ae:	b082      	sub	sp, #8
 80065b0:	af00      	add	r7, sp, #0
 80065b2:	6078      	str	r0, [r7, #4]
 80065b4:	000a      	movs	r2, r1
 80065b6:	1cfb      	adds	r3, r7, #3
 80065b8:	701a      	strb	r2, [r3, #0]
	return modifyReg(sensor, LSM6DS_REG_CTRL2_G, LSM6DS_MASK_ODR_G, odr);
 80065ba:	1cfb      	adds	r3, r7, #3
 80065bc:	781b      	ldrb	r3, [r3, #0]
 80065be:	b29b      	uxth	r3, r3
 80065c0:	6878      	ldr	r0, [r7, #4]
 80065c2:	22f0      	movs	r2, #240	@ 0xf0
 80065c4:	2111      	movs	r1, #17
 80065c6:	f7ff ff11 	bl	80063ec <modifyReg>
 80065ca:	0003      	movs	r3, r0

}
 80065cc:	0018      	movs	r0, r3
 80065ce:	46bd      	mov	sp, r7
 80065d0:	b002      	add	sp, #8
 80065d2:	bd80      	pop	{r7, pc}

080065d4 <lsm6ds_setGRFullScale>:
 * @param: sensor
 * @param: LSM6DS_FS_G_*
 *
 * @retval: status
 */
lsm6ds_state_t lsm6ds_setGRFullScale(lsm6ds_sensor_t *sensor, uint8_t fs) {
 80065d4:	b5b0      	push	{r4, r5, r7, lr}
 80065d6:	b084      	sub	sp, #16
 80065d8:	af00      	add	r7, sp, #0
 80065da:	6078      	str	r0, [r7, #4]
 80065dc:	000a      	movs	r2, r1
 80065de:	1cfb      	adds	r3, r7, #3
 80065e0:	701a      	strb	r2, [r3, #0]

	lsm6ds_state_t stat = LSM6DS_STATE_ERR;
 80065e2:	250f      	movs	r5, #15
 80065e4:	197b      	adds	r3, r7, r5
 80065e6:	2201      	movs	r2, #1
 80065e8:	701a      	strb	r2, [r3, #0]

	if (fs == LSM6DS_FS_G_125DPS) {
 80065ea:	1cfb      	adds	r3, r7, #3
 80065ec:	781b      	ldrb	r3, [r3, #0]
 80065ee:	2b02      	cmp	r3, #2
 80065f0:	d120      	bne.n	8006634 <lsm6ds_setGRFullScale+0x60>
		stat = modifyReg(sensor, LSM6DS_REG_CTRL2_G, LSM6DS_MASK_FS_G,
 80065f2:	197c      	adds	r4, r7, r5
 80065f4:	6878      	ldr	r0, [r7, #4]
 80065f6:	2300      	movs	r3, #0
 80065f8:	220c      	movs	r2, #12
 80065fa:	2111      	movs	r1, #17
 80065fc:	f7ff fef6 	bl	80063ec <modifyReg>
 8006600:	0003      	movs	r3, r0
 8006602:	7023      	strb	r3, [r4, #0]
		LSM6DS_FS_G_245DPS);
		if (stat != LSM6DS_STATE_OK)
 8006604:	197b      	adds	r3, r7, r5
 8006606:	781b      	ldrb	r3, [r3, #0]
 8006608:	2b00      	cmp	r3, #0
 800660a:	d002      	beq.n	8006612 <lsm6ds_setGRFullScale+0x3e>
			return stat;
 800660c:	197b      	adds	r3, r7, r5
 800660e:	781b      	ldrb	r3, [r3, #0]
 8006610:	e037      	b.n	8006682 <lsm6ds_setGRFullScale+0xae>
		stat = modifyReg(sensor, LSM6DS_REG_CTRL2_G, LSM6DS_MASK_FS_125,
 8006612:	250f      	movs	r5, #15
 8006614:	197c      	adds	r4, r7, r5
 8006616:	6878      	ldr	r0, [r7, #4]
 8006618:	2302      	movs	r3, #2
 800661a:	2202      	movs	r2, #2
 800661c:	2111      	movs	r1, #17
 800661e:	f7ff fee5 	bl	80063ec <modifyReg>
 8006622:	0003      	movs	r3, r0
 8006624:	7023      	strb	r3, [r4, #0]
		LSM6DS_FS_G_125DPS);
		if (stat != LSM6DS_STATE_OK)
 8006626:	197b      	adds	r3, r7, r5
 8006628:	781b      	ldrb	r3, [r3, #0]
 800662a:	2b00      	cmp	r3, #0
 800662c:	d026      	beq.n	800667c <lsm6ds_setGRFullScale+0xa8>
			return stat;
 800662e:	197b      	adds	r3, r7, r5
 8006630:	781b      	ldrb	r3, [r3, #0]
 8006632:	e026      	b.n	8006682 <lsm6ds_setGRFullScale+0xae>

	} else {

		stat = modifyReg(sensor, LSM6DS_REG_CTRL2_G, LSM6DS_MASK_FS_125, 0);
 8006634:	250f      	movs	r5, #15
 8006636:	197c      	adds	r4, r7, r5
 8006638:	6878      	ldr	r0, [r7, #4]
 800663a:	2300      	movs	r3, #0
 800663c:	2202      	movs	r2, #2
 800663e:	2111      	movs	r1, #17
 8006640:	f7ff fed4 	bl	80063ec <modifyReg>
 8006644:	0003      	movs	r3, r0
 8006646:	7023      	strb	r3, [r4, #0]
		if (stat != LSM6DS_STATE_OK)
 8006648:	197b      	adds	r3, r7, r5
 800664a:	781b      	ldrb	r3, [r3, #0]
 800664c:	2b00      	cmp	r3, #0
 800664e:	d002      	beq.n	8006656 <lsm6ds_setGRFullScale+0x82>
			return stat;
 8006650:	197b      	adds	r3, r7, r5
 8006652:	781b      	ldrb	r3, [r3, #0]
 8006654:	e015      	b.n	8006682 <lsm6ds_setGRFullScale+0xae>
		stat = modifyReg(sensor, LSM6DS_REG_CTRL2_G, LSM6DS_MASK_FS_G, fs);
 8006656:	1cfb      	adds	r3, r7, #3
 8006658:	781b      	ldrb	r3, [r3, #0]
 800665a:	b29b      	uxth	r3, r3
 800665c:	250f      	movs	r5, #15
 800665e:	197c      	adds	r4, r7, r5
 8006660:	6878      	ldr	r0, [r7, #4]
 8006662:	220c      	movs	r2, #12
 8006664:	2111      	movs	r1, #17
 8006666:	f7ff fec1 	bl	80063ec <modifyReg>
 800666a:	0003      	movs	r3, r0
 800666c:	7023      	strb	r3, [r4, #0]
		if (stat != LSM6DS_STATE_OK)
 800666e:	197b      	adds	r3, r7, r5
 8006670:	781b      	ldrb	r3, [r3, #0]
 8006672:	2b00      	cmp	r3, #0
 8006674:	d002      	beq.n	800667c <lsm6ds_setGRFullScale+0xa8>
			return stat;
 8006676:	197b      	adds	r3, r7, r5
 8006678:	781b      	ldrb	r3, [r3, #0]
 800667a:	e002      	b.n	8006682 <lsm6ds_setGRFullScale+0xae>

	}

	return stat;
 800667c:	230f      	movs	r3, #15
 800667e:	18fb      	adds	r3, r7, r3
 8006680:	781b      	ldrb	r3, [r3, #0]

}
 8006682:	0018      	movs	r0, r3
 8006684:	46bd      	mov	sp, r7
 8006686:	b004      	add	sp, #16
 8006688:	bdb0      	pop	{r4, r5, r7, pc}

0800668a <lsm6ds_reset>:
 * software reset
 * @param: sensor
 *
 * @retval: status
 */
lsm6ds_state_t lsm6ds_reset(lsm6ds_sensor_t *sensor) {
 800668a:	b580      	push	{r7, lr}
 800668c:	b082      	sub	sp, #8
 800668e:	af00      	add	r7, sp, #0
 8006690:	6078      	str	r0, [r7, #4]
	return modifyReg(sensor, LSM6DS_REG_CTRL3_C, LSM6DS_MASK_SW_RESET,
 8006692:	6878      	ldr	r0, [r7, #4]
 8006694:	2301      	movs	r3, #1
 8006696:	2201      	movs	r2, #1
 8006698:	2112      	movs	r1, #18
 800669a:	f7ff fea7 	bl	80063ec <modifyReg>
 800669e:	0003      	movs	r3, r0
	LSM6DS_SW_RESET);
}
 80066a0:	0018      	movs	r0, r3
 80066a2:	46bd      	mov	sp, r7
 80066a4:	b002      	add	sp, #8
 80066a6:	bd80      	pop	{r7, pc}

080066a8 <lsm6ds_newDataAvailableCheck>:
 * @output: check output with LSM6DS_TDA/GDA/XLDA
 *
 * @retval: status
 */
lsm6ds_state_t lsm6ds_newDataAvailableCheck(lsm6ds_sensor_t *sensor,
		uint8_t *newData) {
 80066a8:	b580      	push	{r7, lr}
 80066aa:	b084      	sub	sp, #16
 80066ac:	af02      	add	r7, sp, #8
 80066ae:	6078      	str	r0, [r7, #4]
 80066b0:	6039      	str	r1, [r7, #0]

	return i2cReceive(&sensor->lsm6dsI2c, sensor->deviceAddr,
 80066b2:	6878      	ldr	r0, [r7, #4]
 80066b4:	687b      	ldr	r3, [r7, #4]
 80066b6:	8999      	ldrh	r1, [r3, #12]
 80066b8:	683b      	ldr	r3, [r7, #0]
 80066ba:	2201      	movs	r2, #1
 80066bc:	9200      	str	r2, [sp, #0]
 80066be:	221e      	movs	r2, #30
 80066c0:	f7ff fe5c 	bl	800637c <i2cReceive>
 80066c4:	0003      	movs	r3, r0
			LSM6DS_REG_STATUS_REG, newData, 1);

}
 80066c6:	0018      	movs	r0, r3
 80066c8:	46bd      	mov	sp, r7
 80066ca:	b002      	add	sp, #8
 80066cc:	bd80      	pop	{r7, pc}

080066ce <lsm6ds_updateGR>:
 * updates gyro data in sensor struct
 * @param: sensor
 *
 * @retval: status
 */
lsm6ds_state_t lsm6ds_updateGR(lsm6ds_sensor_t *sensor){
 80066ce:	b5f0      	push	{r4, r5, r6, r7, lr}
 80066d0:	b087      	sub	sp, #28
 80066d2:	af02      	add	r7, sp, #8
 80066d4:	6078      	str	r0, [r7, #4]

	lsm6ds_state_t status = LSM6DS_STATE_ERR;
 80066d6:	250f      	movs	r5, #15
 80066d8:	197b      	adds	r3, r7, r5
 80066da:	2201      	movs	r2, #1
 80066dc:	701a      	strb	r2, [r3, #0]
	union{
		uint8_t raw[6];
		int16_t separated[3];
	}outputData;

	memset(&outputData, 0, sizeof(outputData));
 80066de:	2608      	movs	r6, #8
 80066e0:	19bb      	adds	r3, r7, r6
 80066e2:	2206      	movs	r2, #6
 80066e4:	2100      	movs	r1, #0
 80066e6:	0018      	movs	r0, r3
 80066e8:	f000 fc68 	bl	8006fbc <memset>

	status = i2cReceive(&sensor->lsm6dsI2c, sensor->deviceAddr, LSM6DS_REG_OUTX_L_G, outputData.raw, 6);
 80066ec:	6878      	ldr	r0, [r7, #4]
 80066ee:	687b      	ldr	r3, [r7, #4]
 80066f0:	8999      	ldrh	r1, [r3, #12]
 80066f2:	197c      	adds	r4, r7, r5
 80066f4:	19bb      	adds	r3, r7, r6
 80066f6:	2206      	movs	r2, #6
 80066f8:	9200      	str	r2, [sp, #0]
 80066fa:	2222      	movs	r2, #34	@ 0x22
 80066fc:	f7ff fe3e 	bl	800637c <i2cReceive>
 8006700:	0003      	movs	r3, r0
 8006702:	7023      	strb	r3, [r4, #0]

	if(status != LSM6DS_STATE_OK)
 8006704:	197b      	adds	r3, r7, r5
 8006706:	781b      	ldrb	r3, [r3, #0]
 8006708:	2b00      	cmp	r3, #0
 800670a:	d002      	beq.n	8006712 <lsm6ds_updateGR+0x44>
		return status;
 800670c:	197b      	adds	r3, r7, r5
 800670e:	781b      	ldrb	r3, [r3, #0]
 8006710:	e012      	b.n	8006738 <lsm6ds_updateGR+0x6a>

	sensor->outGR.x = outputData.separated[0];
 8006712:	2108      	movs	r1, #8
 8006714:	187b      	adds	r3, r7, r1
 8006716:	2200      	movs	r2, #0
 8006718:	5e9a      	ldrsh	r2, [r3, r2]
 800671a:	687b      	ldr	r3, [r7, #4]
 800671c:	829a      	strh	r2, [r3, #20]
	sensor->outGR.y = outputData.separated[1];
 800671e:	187b      	adds	r3, r7, r1
 8006720:	2202      	movs	r2, #2
 8006722:	5e9a      	ldrsh	r2, [r3, r2]
 8006724:	687b      	ldr	r3, [r7, #4]
 8006726:	82da      	strh	r2, [r3, #22]
	sensor->outGR.z = outputData.separated[2];
 8006728:	187b      	adds	r3, r7, r1
 800672a:	2204      	movs	r2, #4
 800672c:	5e9a      	ldrsh	r2, [r3, r2]
 800672e:	687b      	ldr	r3, [r7, #4]
 8006730:	831a      	strh	r2, [r3, #24]


	return status;
 8006732:	230f      	movs	r3, #15
 8006734:	18fb      	adds	r3, r7, r3
 8006736:	781b      	ldrb	r3, [r3, #0]

}
 8006738:	0018      	movs	r0, r3
 800673a:	46bd      	mov	sp, r7
 800673c:	b005      	add	sp, #20
 800673e:	bdf0      	pop	{r4, r5, r6, r7, pc}

08006740 <main>:

/**
 * @brief  The application entry point.
 * @retval int
 */
int main(void) {
 8006740:	b5f0      	push	{r4, r5, r6, r7, lr}
 8006742:	b095      	sub	sp, #84	@ 0x54
 8006744:	af04      	add	r7, sp, #16
	/* USER CODE END 1 */

	/* MCU Configuration--------------------------------------------------------*/

	/* Reset of all peripherals, Initializes the Flash interface and the Systick. */
	HAL_Init();
 8006746:	f7fc f839 	bl	80027bc <HAL_Init>
	/* USER CODE BEGIN Init */

	/* USER CODE END Init */

	/* Configure the system clock */
	SystemClock_Config();
 800674a:	f000 f983 	bl	8006a54 <SystemClock_Config>
	/* USER CODE BEGIN SysInit */

	/* USER CODE END SysInit */

	/* Initialize all configured peripherals */
	MX_GPIO_Init();
 800674e:	f7ff fcc7 	bl	80060e0 <MX_GPIO_Init>
	MX_USART1_UART_Init();
 8006752:	f000 fa25 	bl	8006ba0 <MX_USART1_UART_Init>
	MX_USART2_UART_Init();
 8006756:	f000 fa71 	bl	8006c3c <MX_USART2_UART_Init>
	MX_I2C1_Init();
 800675a:	f7ff fd35 	bl	80061c8 <MX_I2C1_Init>
	/* USER CODE BEGIN 2 */
	lsm6ds_state_t sensorStat = lsm6ds_init(&mems, LSM6DS_ADDR_SA0_L, &hi2c1,
 800675e:	2517      	movs	r5, #23
 8006760:	2620      	movs	r6, #32
 8006762:	19ab      	adds	r3, r5, r6
 8006764:	19dc      	adds	r4, r3, r7
 8006766:	4aad      	ldr	r2, [pc, #692]	@ (8006a1c <main+0x2dc>)
 8006768:	48ad      	ldr	r0, [pc, #692]	@ (8006a20 <main+0x2e0>)
 800676a:	2364      	movs	r3, #100	@ 0x64
 800676c:	9300      	str	r3, [sp, #0]
 800676e:	2364      	movs	r3, #100	@ 0x64
 8006770:	21d4      	movs	r1, #212	@ 0xd4
 8006772:	f7ff fe9c 	bl	80064ae <lsm6ds_init>
 8006776:	0003      	movs	r3, r0
 8006778:	7023      	strb	r3, [r4, #0]
			100, 100);

	espAt_init(&bleRadio, &huart1, 50, 2000);
 800677a:	23fa      	movs	r3, #250	@ 0xfa
 800677c:	00db      	lsls	r3, r3, #3
 800677e:	49a9      	ldr	r1, [pc, #676]	@ (8006a24 <main+0x2e4>)
 8006780:	48a9      	ldr	r0, [pc, #676]	@ (8006a28 <main+0x2e8>)
 8006782:	2232      	movs	r2, #50	@ 0x32
 8006784:	f7ff f8b5 	bl	80058f2 <espAt_init>

	espAt_sendCommand(&bleRadio, G_RST);
 8006788:	4aa8      	ldr	r2, [pc, #672]	@ (8006a2c <main+0x2ec>)
 800678a:	4ba7      	ldr	r3, [pc, #668]	@ (8006a28 <main+0x2e8>)
 800678c:	0011      	movs	r1, r2
 800678e:	0018      	movs	r0, r3
 8006790:	f7ff f8c4 	bl	800591c <espAt_sendCommand>
	HAL_Delay(1000);
 8006794:	23fa      	movs	r3, #250	@ 0xfa
 8006796:	009b      	lsls	r3, r3, #2
 8006798:	0018      	movs	r0, r3
 800679a:	f7fc f895 	bl	80028c8 <HAL_Delay>

	espAt_sendString(&bleRadio, S_BHN, "bartsHID2");
 800679e:	4aa4      	ldr	r2, [pc, #656]	@ (8006a30 <main+0x2f0>)
 80067a0:	49a4      	ldr	r1, [pc, #656]	@ (8006a34 <main+0x2f4>)
 80067a2:	4ba1      	ldr	r3, [pc, #644]	@ (8006a28 <main+0x2e8>)
 80067a4:	0018      	movs	r0, r3
 80067a6:	f7ff fb3f 	bl	8005e28 <espAt_sendString>
	HAL_Delay(200);
 80067aa:	20c8      	movs	r0, #200	@ 0xc8
 80067ac:	f7fc f88c 	bl	80028c8 <HAL_Delay>
	espAt_sendParams(&bleRadio, P_BHI, 1, 1);
 80067b0:	49a1      	ldr	r1, [pc, #644]	@ (8006a38 <main+0x2f8>)
 80067b2:	489d      	ldr	r0, [pc, #628]	@ (8006a28 <main+0x2e8>)
 80067b4:	2301      	movs	r3, #1
 80067b6:	2201      	movs	r2, #1
 80067b8:	f7ff f95e 	bl	8005a78 <espAt_sendParams>
	HAL_Delay(200);
 80067bc:	20c8      	movs	r0, #200	@ 0xc8
 80067be:	f7fc f883 	bl	80028c8 <HAL_Delay>

	//change baudrate
	espAt_sendParams(&bleRadio, P_UC, 5, 1152000, 8, 1, 0, 0);
 80067c2:	4a9e      	ldr	r2, [pc, #632]	@ (8006a3c <main+0x2fc>)
 80067c4:	499e      	ldr	r1, [pc, #632]	@ (8006a40 <main+0x300>)
 80067c6:	4898      	ldr	r0, [pc, #608]	@ (8006a28 <main+0x2e8>)
 80067c8:	2300      	movs	r3, #0
 80067ca:	9303      	str	r3, [sp, #12]
 80067cc:	2300      	movs	r3, #0
 80067ce:	9302      	str	r3, [sp, #8]
 80067d0:	2301      	movs	r3, #1
 80067d2:	9301      	str	r3, [sp, #4]
 80067d4:	2308      	movs	r3, #8
 80067d6:	9300      	str	r3, [sp, #0]
 80067d8:	0013      	movs	r3, r2
 80067da:	2205      	movs	r2, #5
 80067dc:	f7ff f94c 	bl	8005a78 <espAt_sendParams>
	HAL_Delay(200);
 80067e0:	20c8      	movs	r0, #200	@ 0xc8
 80067e2:	f7fc f871 	bl	80028c8 <HAL_Delay>
	HAL_UART_ChangeSpeed(&huart1, 1152000);
 80067e6:	4a95      	ldr	r2, [pc, #596]	@ (8006a3c <main+0x2fc>)
 80067e8:	4b8e      	ldr	r3, [pc, #568]	@ (8006a24 <main+0x2e4>)
 80067ea:	0011      	movs	r1, r2
 80067ec:	0018      	movs	r0, r3
 80067ee:	f000 fb53 	bl	8006e98 <HAL_UART_ChangeSpeed>

	sensorStat = lsm6ds_reset(&mems);
 80067f2:	19ab      	adds	r3, r5, r6
 80067f4:	19dc      	adds	r4, r3, r7
 80067f6:	4b8a      	ldr	r3, [pc, #552]	@ (8006a20 <main+0x2e0>)
 80067f8:	0018      	movs	r0, r3
 80067fa:	f7ff ff46 	bl	800668a <lsm6ds_reset>
 80067fe:	0003      	movs	r3, r0
 8006800:	7023      	strb	r3, [r4, #0]

	sensorStat = lsm6ds_setXLOutputDataRate(&mems, LSM6DS_ODR_XL_12_5_HZ);
 8006802:	19ab      	adds	r3, r5, r6
 8006804:	19dc      	adds	r4, r3, r7
 8006806:	4b86      	ldr	r3, [pc, #536]	@ (8006a20 <main+0x2e0>)
 8006808:	2110      	movs	r1, #16
 800680a:	0018      	movs	r0, r3
 800680c:	f7ff fea6 	bl	800655c <lsm6ds_setXLOutputDataRate>
 8006810:	0003      	movs	r3, r0
 8006812:	7023      	strb	r3, [r4, #0]
	sensorStat = lsm6ds_setGROutputDataRate(&mems, LSM6DS_ODR_G_208_HZ);
 8006814:	19ab      	adds	r3, r5, r6
 8006816:	19dc      	adds	r4, r3, r7
 8006818:	4b81      	ldr	r3, [pc, #516]	@ (8006a20 <main+0x2e0>)
 800681a:	2150      	movs	r1, #80	@ 0x50
 800681c:	0018      	movs	r0, r3
 800681e:	f7ff fec5 	bl	80065ac <lsm6ds_setGROutputDataRate>
 8006822:	0003      	movs	r3, r0
 8006824:	7023      	strb	r3, [r4, #0]

	sensorStat = lsm6ds_setXLFullScale(&mems, LSM6DS_FS_XL_16G);
 8006826:	19ab      	adds	r3, r5, r6
 8006828:	19dc      	adds	r4, r3, r7
 800682a:	4b7d      	ldr	r3, [pc, #500]	@ (8006a20 <main+0x2e0>)
 800682c:	2104      	movs	r1, #4
 800682e:	0018      	movs	r0, r3
 8006830:	f7ff fea8 	bl	8006584 <lsm6ds_setXLFullScale>
 8006834:	0003      	movs	r3, r0
 8006836:	7023      	strb	r3, [r4, #0]
	sensorStat = lsm6ds_setGRFullScale(&mems, LSM6DS_FS_G_2000DPS);
 8006838:	19ab      	adds	r3, r5, r6
 800683a:	19dc      	adds	r4, r3, r7
 800683c:	4b78      	ldr	r3, [pc, #480]	@ (8006a20 <main+0x2e0>)
 800683e:	210c      	movs	r1, #12
 8006840:	0018      	movs	r0, r3
 8006842:	f7ff fec7 	bl	80065d4 <lsm6ds_setGRFullScale>
 8006846:	0003      	movs	r3, r0
 8006848:	7023      	strb	r3, [r4, #0]

	int32_t amx = 0;
 800684a:	2300      	movs	r3, #0
 800684c:	63fb      	str	r3, [r7, #60]	@ 0x3c
	int32_t amy = 0;
 800684e:	2300      	movs	r3, #0
 8006850:	633b      	str	r3, [r7, #48]	@ 0x30
	int32_t amz = 0;
 8006852:	2300      	movs	r3, #0
 8006854:	63bb      	str	r3, [r7, #56]	@ 0x38

	float amMultiplier = 0.005;
 8006856:	4b7b      	ldr	r3, [pc, #492]	@ (8006a44 <main+0x304>)
 8006858:	62fb      	str	r3, [r7, #44]	@ 0x2c
	float amAcceleration = 1.8;
 800685a:	4b7b      	ldr	r3, [pc, #492]	@ (8006a48 <main+0x308>)
 800685c:	62bb      	str	r3, [r7, #40]	@ 0x28

	/* Infinite loop */
	/* USER CODE BEGIN WHILE */
	while (1) {

		uint8_t newDataAvailable = 0;
 800685e:	2127      	movs	r1, #39	@ 0x27
 8006860:	187b      	adds	r3, r7, r1
 8006862:	2200      	movs	r2, #0
 8006864:	701a      	strb	r2, [r3, #0]
		sensorStat = lsm6ds_newDataAvailableCheck(&mems, &newDataAvailable);
 8006866:	2517      	movs	r5, #23
 8006868:	2320      	movs	r3, #32
 800686a:	18ea      	adds	r2, r5, r3
 800686c:	19d4      	adds	r4, r2, r7
 800686e:	000e      	movs	r6, r1
 8006870:	187a      	adds	r2, r7, r1
 8006872:	4b6b      	ldr	r3, [pc, #428]	@ (8006a20 <main+0x2e0>)
 8006874:	0011      	movs	r1, r2
 8006876:	0018      	movs	r0, r3
 8006878:	f7ff ff16 	bl	80066a8 <lsm6ds_newDataAvailableCheck>
 800687c:	0003      	movs	r3, r0
 800687e:	7023      	strb	r3, [r4, #0]
//		}
//		if (newDataAvailable & LSM6DS_XLDA) {
//			sensorStat = lsm6ds_updateXL(&mems);
//		}

		if (newDataAvailable & LSM6DS_GDA) {
 8006880:	19bb      	adds	r3, r7, r6
 8006882:	781b      	ldrb	r3, [r3, #0]
 8006884:	001a      	movs	r2, r3
 8006886:	2302      	movs	r3, #2
 8006888:	4013      	ands	r3, r2
 800688a:	d0e8      	beq.n	800685e <main+0x11e>
			sensorStat = lsm6ds_updateGR(&mems);
 800688c:	2320      	movs	r3, #32
 800688e:	18eb      	adds	r3, r5, r3
 8006890:	19dc      	adds	r4, r3, r7
 8006892:	4b63      	ldr	r3, [pc, #396]	@ (8006a20 <main+0x2e0>)
 8006894:	0018      	movs	r0, r3
 8006896:	f7ff ff1a 	bl	80066ce <lsm6ds_updateGR>
 800689a:	0003      	movs	r3, r0
 800689c:	7023      	strb	r3, [r4, #0]
			amx = mems.outGR.x *= amMultiplier;
 800689e:	4b60      	ldr	r3, [pc, #384]	@ (8006a20 <main+0x2e0>)
 80068a0:	2214      	movs	r2, #20
 80068a2:	5e9b      	ldrsh	r3, [r3, r2]
 80068a4:	0018      	movs	r0, r3
 80068a6:	f7fa f833 	bl	8000910 <__aeabi_i2f>
 80068aa:	1c03      	adds	r3, r0, #0
 80068ac:	6af9      	ldr	r1, [r7, #44]	@ 0x2c
 80068ae:	1c18      	adds	r0, r3, #0
 80068b0:	f7f9 fed0 	bl	8000654 <__aeabi_fmul>
 80068b4:	1c03      	adds	r3, r0, #0
 80068b6:	1c18      	adds	r0, r3, #0
 80068b8:	f7fa f80a 	bl	80008d0 <__aeabi_f2iz>
 80068bc:	0003      	movs	r3, r0
 80068be:	b21a      	sxth	r2, r3
 80068c0:	4b57      	ldr	r3, [pc, #348]	@ (8006a20 <main+0x2e0>)
 80068c2:	829a      	strh	r2, [r3, #20]
 80068c4:	4b56      	ldr	r3, [pc, #344]	@ (8006a20 <main+0x2e0>)
 80068c6:	2214      	movs	r2, #20
 80068c8:	5e9b      	ldrsh	r3, [r3, r2]
 80068ca:	63fb      	str	r3, [r7, #60]	@ 0x3c
			amz = mems.outGR.z *= amMultiplier;
 80068cc:	4b54      	ldr	r3, [pc, #336]	@ (8006a20 <main+0x2e0>)
 80068ce:	2218      	movs	r2, #24
 80068d0:	5e9b      	ldrsh	r3, [r3, r2]
 80068d2:	0018      	movs	r0, r3
 80068d4:	f7fa f81c 	bl	8000910 <__aeabi_i2f>
 80068d8:	1c03      	adds	r3, r0, #0
 80068da:	6af9      	ldr	r1, [r7, #44]	@ 0x2c
 80068dc:	1c18      	adds	r0, r3, #0
 80068de:	f7f9 feb9 	bl	8000654 <__aeabi_fmul>
 80068e2:	1c03      	adds	r3, r0, #0
 80068e4:	1c18      	adds	r0, r3, #0
 80068e6:	f7f9 fff3 	bl	80008d0 <__aeabi_f2iz>
 80068ea:	0003      	movs	r3, r0
 80068ec:	b21a      	sxth	r2, r3
 80068ee:	4b4c      	ldr	r3, [pc, #304]	@ (8006a20 <main+0x2e0>)
 80068f0:	831a      	strh	r2, [r3, #24]
 80068f2:	4b4b      	ldr	r3, [pc, #300]	@ (8006a20 <main+0x2e0>)
 80068f4:	2218      	movs	r2, #24
 80068f6:	5e9b      	ldrsh	r3, [r3, r2]
 80068f8:	63bb      	str	r3, [r7, #56]	@ 0x38

			//power with preserving sign
			if (amx < 0) {
 80068fa:	6bfb      	ldr	r3, [r7, #60]	@ 0x3c
 80068fc:	2b00      	cmp	r3, #0
 80068fe:	da22      	bge.n	8006946 <main+0x206>
				amx = -pow(-(double) amx, amAcceleration);
 8006900:	6bf8      	ldr	r0, [r7, #60]	@ 0x3c
 8006902:	f7fb febb 	bl	800267c <__aeabi_i2d>
 8006906:	0002      	movs	r2, r0
 8006908:	000b      	movs	r3, r1
 800690a:	0011      	movs	r1, r2
 800690c:	61b9      	str	r1, [r7, #24]
 800690e:	2180      	movs	r1, #128	@ 0x80
 8006910:	0609      	lsls	r1, r1, #24
 8006912:	4059      	eors	r1, r3
 8006914:	61f9      	str	r1, [r7, #28]
 8006916:	6ab8      	ldr	r0, [r7, #40]	@ 0x28
 8006918:	f7fb fede 	bl	80026d8 <__aeabi_f2d>
 800691c:	0002      	movs	r2, r0
 800691e:	000b      	movs	r3, r1
 8006920:	69b8      	ldr	r0, [r7, #24]
 8006922:	69f9      	ldr	r1, [r7, #28]
 8006924:	f000 fb86 	bl	8007034 <pow>
 8006928:	0002      	movs	r2, r0
 800692a:	000b      	movs	r3, r1
 800692c:	0011      	movs	r1, r2
 800692e:	6139      	str	r1, [r7, #16]
 8006930:	2180      	movs	r1, #128	@ 0x80
 8006932:	0609      	lsls	r1, r1, #24
 8006934:	4059      	eors	r1, r3
 8006936:	6179      	str	r1, [r7, #20]
 8006938:	6938      	ldr	r0, [r7, #16]
 800693a:	6979      	ldr	r1, [r7, #20]
 800693c:	f7fb fe62 	bl	8002604 <__aeabi_d2iz>
 8006940:	0003      	movs	r3, r0
 8006942:	63fb      	str	r3, [r7, #60]	@ 0x3c
 8006944:	e015      	b.n	8006972 <main+0x232>
			} else {
				amx = pow((double) amx, amAcceleration);
 8006946:	6bf8      	ldr	r0, [r7, #60]	@ 0x3c
 8006948:	f7fb fe98 	bl	800267c <__aeabi_i2d>
 800694c:	0004      	movs	r4, r0
 800694e:	000d      	movs	r5, r1
 8006950:	6ab8      	ldr	r0, [r7, #40]	@ 0x28
 8006952:	f7fb fec1 	bl	80026d8 <__aeabi_f2d>
 8006956:	0002      	movs	r2, r0
 8006958:	000b      	movs	r3, r1
 800695a:	0020      	movs	r0, r4
 800695c:	0029      	movs	r1, r5
 800695e:	f000 fb69 	bl	8007034 <pow>
 8006962:	0002      	movs	r2, r0
 8006964:	000b      	movs	r3, r1
 8006966:	0010      	movs	r0, r2
 8006968:	0019      	movs	r1, r3
 800696a:	f7fb fe4b 	bl	8002604 <__aeabi_d2iz>
 800696e:	0003      	movs	r3, r0
 8006970:	63fb      	str	r3, [r7, #60]	@ 0x3c
			}

			if (amz < 0) {
 8006972:	6bbb      	ldr	r3, [r7, #56]	@ 0x38
 8006974:	2b00      	cmp	r3, #0
 8006976:	da22      	bge.n	80069be <main+0x27e>
				amz = -pow(-(double) amz, amAcceleration);
 8006978:	6bb8      	ldr	r0, [r7, #56]	@ 0x38
 800697a:	f7fb fe7f 	bl	800267c <__aeabi_i2d>
 800697e:	0002      	movs	r2, r0
 8006980:	000b      	movs	r3, r1
 8006982:	0011      	movs	r1, r2
 8006984:	60b9      	str	r1, [r7, #8]
 8006986:	2180      	movs	r1, #128	@ 0x80
 8006988:	0609      	lsls	r1, r1, #24
 800698a:	4059      	eors	r1, r3
 800698c:	60f9      	str	r1, [r7, #12]
 800698e:	6ab8      	ldr	r0, [r7, #40]	@ 0x28
 8006990:	f7fb fea2 	bl	80026d8 <__aeabi_f2d>
 8006994:	0002      	movs	r2, r0
 8006996:	000b      	movs	r3, r1
 8006998:	68b8      	ldr	r0, [r7, #8]
 800699a:	68f9      	ldr	r1, [r7, #12]
 800699c:	f000 fb4a 	bl	8007034 <pow>
 80069a0:	0002      	movs	r2, r0
 80069a2:	000b      	movs	r3, r1
 80069a4:	0011      	movs	r1, r2
 80069a6:	6039      	str	r1, [r7, #0]
 80069a8:	2180      	movs	r1, #128	@ 0x80
 80069aa:	0609      	lsls	r1, r1, #24
 80069ac:	4059      	eors	r1, r3
 80069ae:	6079      	str	r1, [r7, #4]
 80069b0:	6838      	ldr	r0, [r7, #0]
 80069b2:	6879      	ldr	r1, [r7, #4]
 80069b4:	f7fb fe26 	bl	8002604 <__aeabi_d2iz>
 80069b8:	0003      	movs	r3, r0
 80069ba:	63bb      	str	r3, [r7, #56]	@ 0x38
 80069bc:	e015      	b.n	80069ea <main+0x2aa>
			} else {
				amz = pow((double) amz, amAcceleration);
 80069be:	6bb8      	ldr	r0, [r7, #56]	@ 0x38
 80069c0:	f7fb fe5c 	bl	800267c <__aeabi_i2d>
 80069c4:	0004      	movs	r4, r0
 80069c6:	000d      	movs	r5, r1
 80069c8:	6ab8      	ldr	r0, [r7, #40]	@ 0x28
 80069ca:	f7fb fe85 	bl	80026d8 <__aeabi_f2d>
 80069ce:	0002      	movs	r2, r0
 80069d0:	000b      	movs	r3, r1
 80069d2:	0020      	movs	r0, r4
 80069d4:	0029      	movs	r1, r5
 80069d6:	f000 fb2d 	bl	8007034 <pow>
 80069da:	0002      	movs	r2, r0
 80069dc:	000b      	movs	r3, r1
 80069de:	0010      	movs	r0, r2
 80069e0:	0019      	movs	r1, r3
 80069e2:	f7fb fe0f 	bl	8002604 <__aeabi_d2iz>
 80069e6:	0003      	movs	r3, r0
 80069e8:	63bb      	str	r3, [r7, #56]	@ 0x38
			}

			if (HAL_GPIO_ReadPin(BUTTON_BLUE_GPIO_Port, BUTTON_BLUE_Pin)
 80069ea:	2380      	movs	r3, #128	@ 0x80
 80069ec:	019b      	lsls	r3, r3, #6
 80069ee:	4a17      	ldr	r2, [pc, #92]	@ (8006a4c <main+0x30c>)
 80069f0:	0019      	movs	r1, r3
 80069f2:	0010      	movs	r0, r2
 80069f4:	f7fc fa74 	bl	8002ee0 <HAL_GPIO_ReadPin>
 80069f8:	1e03      	subs	r3, r0, #0
 80069fa:	d000      	beq.n	80069fe <main+0x2be>
 80069fc:	e72f      	b.n	800685e <main+0x11e>
					== GPIO_PIN_RESET) {
				espAt_sendParams(&bleRadio, P_BHM, 4, 0, amz * -1, amx * -1, 0);
 80069fe:	6bbb      	ldr	r3, [r7, #56]	@ 0x38
 8006a00:	425a      	negs	r2, r3
 8006a02:	6bfb      	ldr	r3, [r7, #60]	@ 0x3c
 8006a04:	425b      	negs	r3, r3
 8006a06:	4912      	ldr	r1, [pc, #72]	@ (8006a50 <main+0x310>)
 8006a08:	4807      	ldr	r0, [pc, #28]	@ (8006a28 <main+0x2e8>)
 8006a0a:	2400      	movs	r4, #0
 8006a0c:	9402      	str	r4, [sp, #8]
 8006a0e:	9301      	str	r3, [sp, #4]
 8006a10:	9200      	str	r2, [sp, #0]
 8006a12:	2300      	movs	r3, #0
 8006a14:	2204      	movs	r2, #4
 8006a16:	f7ff f82f 	bl	8005a78 <espAt_sendParams>
	while (1) {
 8006a1a:	e720      	b.n	800685e <main+0x11e>
 8006a1c:	20000090 	.word	0x20000090
 8006a20:	200000f0 	.word	0x200000f0
 8006a24:	2000010c 	.word	0x2000010c
 8006a28:	200000e4 	.word	0x200000e4
 8006a2c:	08007eb0 	.word	0x08007eb0
 8006a30:	08007eb4 	.word	0x08007eb4
 8006a34:	08007ec0 	.word	0x08007ec0
 8006a38:	08007ecc 	.word	0x08007ecc
 8006a3c:	00119400 	.word	0x00119400
 8006a40:	08007ed8 	.word	0x08007ed8
 8006a44:	3ba3d70a 	.word	0x3ba3d70a
 8006a48:	3fe66666 	.word	0x3fe66666
 8006a4c:	50000800 	.word	0x50000800
 8006a50:	08007ee4 	.word	0x08007ee4

08006a54 <SystemClock_Config>:

/**
 * @brief System Clock Configuration
 * @retval None
 */
void SystemClock_Config(void) {
 8006a54:	b590      	push	{r4, r7, lr}
 8006a56:	b093      	sub	sp, #76	@ 0x4c
 8006a58:	af00      	add	r7, sp, #0
	RCC_OscInitTypeDef RCC_OscInitStruct = { 0 };
 8006a5a:	2410      	movs	r4, #16
 8006a5c:	193b      	adds	r3, r7, r4
 8006a5e:	0018      	movs	r0, r3
 8006a60:	2338      	movs	r3, #56	@ 0x38
 8006a62:	001a      	movs	r2, r3
 8006a64:	2100      	movs	r1, #0
 8006a66:	f000 faa9 	bl	8006fbc <memset>
	RCC_ClkInitTypeDef RCC_ClkInitStruct = { 0 };
 8006a6a:	003b      	movs	r3, r7
 8006a6c:	0018      	movs	r0, r3
 8006a6e:	2310      	movs	r3, #16
 8006a70:	001a      	movs	r2, r3
 8006a72:	2100      	movs	r1, #0
 8006a74:	f000 faa2 	bl	8006fbc <memset>

	/** Configure the main internal regulator output voltage
	 */
	HAL_PWREx_ControlVoltageScaling(PWR_REGULATOR_VOLTAGE_SCALE1);
 8006a78:	2380      	movs	r3, #128	@ 0x80
 8006a7a:	009b      	lsls	r3, r3, #2
 8006a7c:	0018      	movs	r0, r3
 8006a7e:	f7fd f905 	bl	8003c8c <HAL_PWREx_ControlVoltageScaling>

	/** Initializes the RCC Oscillators according to the specified parameters
	 * in the RCC_OscInitTypeDef structure.
	 */
	RCC_OscInitStruct.OscillatorType = RCC_OSCILLATORTYPE_HSI;
 8006a82:	193b      	adds	r3, r7, r4
 8006a84:	2202      	movs	r2, #2
 8006a86:	601a      	str	r2, [r3, #0]
	RCC_OscInitStruct.HSIState = RCC_HSI_ON;
 8006a88:	193b      	adds	r3, r7, r4
 8006a8a:	2280      	movs	r2, #128	@ 0x80
 8006a8c:	0052      	lsls	r2, r2, #1
 8006a8e:	60da      	str	r2, [r3, #12]
	RCC_OscInitStruct.HSIDiv = RCC_HSI_DIV1;
 8006a90:	0021      	movs	r1, r4
 8006a92:	187b      	adds	r3, r7, r1
 8006a94:	2200      	movs	r2, #0
 8006a96:	611a      	str	r2, [r3, #16]
	RCC_OscInitStruct.HSICalibrationValue = RCC_HSICALIBRATION_DEFAULT;
 8006a98:	187b      	adds	r3, r7, r1
 8006a9a:	2240      	movs	r2, #64	@ 0x40
 8006a9c:	615a      	str	r2, [r3, #20]
	RCC_OscInitStruct.PLL.PLLState = RCC_PLL_ON;
 8006a9e:	187b      	adds	r3, r7, r1
 8006aa0:	2202      	movs	r2, #2
 8006aa2:	61da      	str	r2, [r3, #28]
	RCC_OscInitStruct.PLL.PLLSource = RCC_PLLSOURCE_HSI;
 8006aa4:	187b      	adds	r3, r7, r1
 8006aa6:	2202      	movs	r2, #2
 8006aa8:	621a      	str	r2, [r3, #32]
	RCC_OscInitStruct.PLL.PLLM = RCC_PLLM_DIV1;
 8006aaa:	187b      	adds	r3, r7, r1
 8006aac:	2200      	movs	r2, #0
 8006aae:	625a      	str	r2, [r3, #36]	@ 0x24
	RCC_OscInitStruct.PLL.PLLN = 8;
 8006ab0:	187b      	adds	r3, r7, r1
 8006ab2:	2208      	movs	r2, #8
 8006ab4:	629a      	str	r2, [r3, #40]	@ 0x28
	RCC_OscInitStruct.PLL.PLLP = RCC_PLLP_DIV2;
 8006ab6:	187b      	adds	r3, r7, r1
 8006ab8:	2280      	movs	r2, #128	@ 0x80
 8006aba:	0292      	lsls	r2, r2, #10
 8006abc:	62da      	str	r2, [r3, #44]	@ 0x2c
	RCC_OscInitStruct.PLL.PLLQ = RCC_PLLQ_DIV2;
 8006abe:	187b      	adds	r3, r7, r1
 8006ac0:	2280      	movs	r2, #128	@ 0x80
 8006ac2:	0492      	lsls	r2, r2, #18
 8006ac4:	631a      	str	r2, [r3, #48]	@ 0x30
	RCC_OscInitStruct.PLL.PLLR = RCC_PLLR_DIV2;
 8006ac6:	187b      	adds	r3, r7, r1
 8006ac8:	2280      	movs	r2, #128	@ 0x80
 8006aca:	0592      	lsls	r2, r2, #22
 8006acc:	635a      	str	r2, [r3, #52]	@ 0x34
	if (HAL_RCC_OscConfig(&RCC_OscInitStruct) != HAL_OK) {
 8006ace:	187b      	adds	r3, r7, r1
 8006ad0:	0018      	movs	r0, r3
 8006ad2:	f7fd f927 	bl	8003d24 <HAL_RCC_OscConfig>
 8006ad6:	1e03      	subs	r3, r0, #0
 8006ad8:	d001      	beq.n	8006ade <SystemClock_Config+0x8a>
		Error_Handler();
 8006ada:	f000 f819 	bl	8006b10 <Error_Handler>
	}

	/** Initializes the CPU, AHB and APB buses clocks
	 */
	RCC_ClkInitStruct.ClockType = RCC_CLOCKTYPE_HCLK | RCC_CLOCKTYPE_SYSCLK
 8006ade:	003b      	movs	r3, r7
 8006ae0:	2207      	movs	r2, #7
 8006ae2:	601a      	str	r2, [r3, #0]
			| RCC_CLOCKTYPE_PCLK1;
	RCC_ClkInitStruct.SYSCLKSource = RCC_SYSCLKSOURCE_PLLCLK;
 8006ae4:	003b      	movs	r3, r7
 8006ae6:	2202      	movs	r2, #2
 8006ae8:	605a      	str	r2, [r3, #4]
	RCC_ClkInitStruct.AHBCLKDivider = RCC_SYSCLK_DIV1;
 8006aea:	003b      	movs	r3, r7
 8006aec:	2200      	movs	r2, #0
 8006aee:	609a      	str	r2, [r3, #8]
	RCC_ClkInitStruct.APB1CLKDivider = RCC_HCLK_DIV1;
 8006af0:	003b      	movs	r3, r7
 8006af2:	2200      	movs	r2, #0
 8006af4:	60da      	str	r2, [r3, #12]

	if (HAL_RCC_ClockConfig(&RCC_ClkInitStruct, FLASH_LATENCY_2) != HAL_OK) {
 8006af6:	003b      	movs	r3, r7
 8006af8:	2102      	movs	r1, #2
 8006afa:	0018      	movs	r0, r3
 8006afc:	f7fd fc2c 	bl	8004358 <HAL_RCC_ClockConfig>
 8006b00:	1e03      	subs	r3, r0, #0
 8006b02:	d001      	beq.n	8006b08 <SystemClock_Config+0xb4>
		Error_Handler();
 8006b04:	f000 f804 	bl	8006b10 <Error_Handler>
	}
}
 8006b08:	46c0      	nop			@ (mov r8, r8)
 8006b0a:	46bd      	mov	sp, r7
 8006b0c:	b013      	add	sp, #76	@ 0x4c
 8006b0e:	bd90      	pop	{r4, r7, pc}

08006b10 <Error_Handler>:

/**
 * @brief  This function is executed in case of error occurrence.
 * @retval None
 */
void Error_Handler(void) {
 8006b10:	b580      	push	{r7, lr}
 8006b12:	af00      	add	r7, sp, #0
  __ASM volatile ("cpsid i" : : : "memory");
 8006b14:	b672      	cpsid	i
}
 8006b16:	46c0      	nop			@ (mov r8, r8)
	/* USER CODE BEGIN Error_Handler_Debug */
	/* User can add his own implementation to report the HAL error return state */
	__disable_irq();
	while (1) {
 8006b18:	46c0      	nop			@ (mov r8, r8)
 8006b1a:	e7fd      	b.n	8006b18 <Error_Handler+0x8>

08006b1c <HAL_MspInit>:
/* USER CODE END 0 */
/**
  * Initializes the Global MSP.
  */
void HAL_MspInit(void)
{
 8006b1c:	b580      	push	{r7, lr}
 8006b1e:	b082      	sub	sp, #8
 8006b20:	af00      	add	r7, sp, #0

  /* USER CODE BEGIN MspInit 0 */

  /* USER CODE END MspInit 0 */

  __HAL_RCC_SYSCFG_CLK_ENABLE();
 8006b22:	4b0f      	ldr	r3, [pc, #60]	@ (8006b60 <HAL_MspInit+0x44>)
 8006b24:	6c1a      	ldr	r2, [r3, #64]	@ 0x40
 8006b26:	4b0e      	ldr	r3, [pc, #56]	@ (8006b60 <HAL_MspInit+0x44>)
 8006b28:	2101      	movs	r1, #1
 8006b2a:	430a      	orrs	r2, r1
 8006b2c:	641a      	str	r2, [r3, #64]	@ 0x40
 8006b2e:	4b0c      	ldr	r3, [pc, #48]	@ (8006b60 <HAL_MspInit+0x44>)
 8006b30:	6c1b      	ldr	r3, [r3, #64]	@ 0x40
 8006b32:	2201      	movs	r2, #1
 8006b34:	4013      	ands	r3, r2
 8006b36:	607b      	str	r3, [r7, #4]
 8006b38:	687b      	ldr	r3, [r7, #4]
  __HAL_RCC_PWR_CLK_ENABLE();
 8006b3a:	4b09      	ldr	r3, [pc, #36]	@ (8006b60 <HAL_MspInit+0x44>)
 8006b3c:	6bda      	ldr	r2, [r3, #60]	@ 0x3c
 8006b3e:	4b08      	ldr	r3, [pc, #32]	@ (8006b60 <HAL_MspInit+0x44>)
 8006b40:	2180      	movs	r1, #128	@ 0x80
 8006b42:	0549      	lsls	r1, r1, #21
 8006b44:	430a      	orrs	r2, r1
 8006b46:	63da      	str	r2, [r3, #60]	@ 0x3c
 8006b48:	4b05      	ldr	r3, [pc, #20]	@ (8006b60 <HAL_MspInit+0x44>)
 8006b4a:	6bda      	ldr	r2, [r3, #60]	@ 0x3c
 8006b4c:	2380      	movs	r3, #128	@ 0x80
 8006b4e:	055b      	lsls	r3, r3, #21
 8006b50:	4013      	ands	r3, r2
 8006b52:	603b      	str	r3, [r7, #0]
 8006b54:	683b      	ldr	r3, [r7, #0]
  /* System interrupt init*/

  /* USER CODE BEGIN MspInit 1 */

  /* USER CODE END MspInit 1 */
}
 8006b56:	46c0      	nop			@ (mov r8, r8)
 8006b58:	46bd      	mov	sp, r7
 8006b5a:	b002      	add	sp, #8
 8006b5c:	bd80      	pop	{r7, pc}
 8006b5e:	46c0      	nop			@ (mov r8, r8)
 8006b60:	40021000 	.word	0x40021000

08006b64 <NMI_Handler>:
/******************************************************************************/
/**
  * @brief This function handles Non maskable interrupt.
  */
void NMI_Handler(void)
{
 8006b64:	b580      	push	{r7, lr}
 8006b66:	af00      	add	r7, sp, #0
  /* USER CODE BEGIN NonMaskableInt_IRQn 0 */

  /* USER CODE END NonMaskableInt_IRQn 0 */
  /* USER CODE BEGIN NonMaskableInt_IRQn 1 */
   while (1)
 8006b68:	46c0      	nop			@ (mov r8, r8)
 8006b6a:	e7fd      	b.n	8006b68 <NMI_Handler+0x4>

08006b6c <HardFault_Handler>:

/**
  * @brief This function handles Hard fault interrupt.
  */
void HardFault_Handler(void)
{
 8006b6c:	b580      	push	{r7, lr}
 8006b6e:	af00      	add	r7, sp, #0
  /* USER CODE BEGIN HardFault_IRQn 0 */

  /* USER CODE END HardFault_IRQn 0 */
  while (1)
 8006b70:	46c0      	nop			@ (mov r8, r8)
 8006b72:	e7fd      	b.n	8006b70 <HardFault_Handler+0x4>

08006b74 <SVC_Handler>:

/**
  * @brief This function handles System service call via SWI instruction.
  */
void SVC_Handler(void)
{
 8006b74:	b580      	push	{r7, lr}
 8006b76:	af00      	add	r7, sp, #0

  /* USER CODE END SVC_IRQn 0 */
  /* USER CODE BEGIN SVC_IRQn 1 */

  /* USER CODE END SVC_IRQn 1 */
}
 8006b78:	46c0      	nop			@ (mov r8, r8)
 8006b7a:	46bd      	mov	sp, r7
 8006b7c:	bd80      	pop	{r7, pc}

08006b7e <PendSV_Handler>:

/**
  * @brief This function handles Pendable request for system service.
  */
void PendSV_Handler(void)
{
 8006b7e:	b580      	push	{r7, lr}
 8006b80:	af00      	add	r7, sp, #0

  /* USER CODE END PendSV_IRQn 0 */
  /* USER CODE BEGIN PendSV_IRQn 1 */

  /* USER CODE END PendSV_IRQn 1 */
}
 8006b82:	46c0      	nop			@ (mov r8, r8)
 8006b84:	46bd      	mov	sp, r7
 8006b86:	bd80      	pop	{r7, pc}

08006b88 <SysTick_Handler>:

/**
  * @brief This function handles System tick timer.
  */
void SysTick_Handler(void)
{
 8006b88:	b580      	push	{r7, lr}
 8006b8a:	af00      	add	r7, sp, #0
  /* USER CODE BEGIN SysTick_IRQn 0 */

  /* USER CODE END SysTick_IRQn 0 */
  HAL_IncTick();
 8006b8c:	f7fb fe80 	bl	8002890 <HAL_IncTick>
  /* USER CODE BEGIN SysTick_IRQn 1 */

  /* USER CODE END SysTick_IRQn 1 */
}
 8006b90:	46c0      	nop			@ (mov r8, r8)
 8006b92:	46bd      	mov	sp, r7
 8006b94:	bd80      	pop	{r7, pc}

08006b96 <SystemInit>:
  * @brief  Setup the microcontroller system.
  * @param  None
  * @retval None
  */
void SystemInit(void)
{
 8006b96:	b580      	push	{r7, lr}
 8006b98:	af00      	add	r7, sp, #0
  /* Configure the Vector Table location -------------------------------------*/
#if defined(USER_VECT_TAB_ADDRESS)
  SCB->VTOR = VECT_TAB_BASE_ADDRESS | VECT_TAB_OFFSET; /* Vector Table Relocation */
#endif /* USER_VECT_TAB_ADDRESS */
}
 8006b9a:	46c0      	nop			@ (mov r8, r8)
 8006b9c:	46bd      	mov	sp, r7
 8006b9e:	bd80      	pop	{r7, pc}

08006ba0 <MX_USART1_UART_Init>:
UART_HandleTypeDef huart2;

/* USART1 init function */

void MX_USART1_UART_Init(void)
{
 8006ba0:	b580      	push	{r7, lr}
 8006ba2:	af00      	add	r7, sp, #0
  /* USER CODE END USART1_Init 0 */

  /* USER CODE BEGIN USART1_Init 1 */

  /* USER CODE END USART1_Init 1 */
  huart1.Instance = USART1;
 8006ba4:	4b23      	ldr	r3, [pc, #140]	@ (8006c34 <MX_USART1_UART_Init+0x94>)
 8006ba6:	4a24      	ldr	r2, [pc, #144]	@ (8006c38 <MX_USART1_UART_Init+0x98>)
 8006ba8:	601a      	str	r2, [r3, #0]
  huart1.Init.BaudRate = 115200;
 8006baa:	4b22      	ldr	r3, [pc, #136]	@ (8006c34 <MX_USART1_UART_Init+0x94>)
 8006bac:	22e1      	movs	r2, #225	@ 0xe1
 8006bae:	0252      	lsls	r2, r2, #9
 8006bb0:	605a      	str	r2, [r3, #4]
  huart1.Init.WordLength = UART_WORDLENGTH_8B;
 8006bb2:	4b20      	ldr	r3, [pc, #128]	@ (8006c34 <MX_USART1_UART_Init+0x94>)
 8006bb4:	2200      	movs	r2, #0
 8006bb6:	609a      	str	r2, [r3, #8]
  huart1.Init.StopBits = UART_STOPBITS_1;
 8006bb8:	4b1e      	ldr	r3, [pc, #120]	@ (8006c34 <MX_USART1_UART_Init+0x94>)
 8006bba:	2200      	movs	r2, #0
 8006bbc:	60da      	str	r2, [r3, #12]
  huart1.Init.Parity = UART_PARITY_NONE;
 8006bbe:	4b1d      	ldr	r3, [pc, #116]	@ (8006c34 <MX_USART1_UART_Init+0x94>)
 8006bc0:	2200      	movs	r2, #0
 8006bc2:	611a      	str	r2, [r3, #16]
  huart1.Init.Mode = UART_MODE_TX_RX;
 8006bc4:	4b1b      	ldr	r3, [pc, #108]	@ (8006c34 <MX_USART1_UART_Init+0x94>)
 8006bc6:	220c      	movs	r2, #12
 8006bc8:	615a      	str	r2, [r3, #20]
  huart1.Init.HwFlowCtl = UART_HWCONTROL_NONE;
 8006bca:	4b1a      	ldr	r3, [pc, #104]	@ (8006c34 <MX_USART1_UART_Init+0x94>)
 8006bcc:	2200      	movs	r2, #0
 8006bce:	619a      	str	r2, [r3, #24]
  huart1.Init.OverSampling = UART_OVERSAMPLING_16;
 8006bd0:	4b18      	ldr	r3, [pc, #96]	@ (8006c34 <MX_USART1_UART_Init+0x94>)
 8006bd2:	2200      	movs	r2, #0
 8006bd4:	61da      	str	r2, [r3, #28]
  huart1.Init.OneBitSampling = UART_ONE_BIT_SAMPLE_DISABLE;
 8006bd6:	4b17      	ldr	r3, [pc, #92]	@ (8006c34 <MX_USART1_UART_Init+0x94>)
 8006bd8:	2200      	movs	r2, #0
 8006bda:	621a      	str	r2, [r3, #32]
  huart1.Init.ClockPrescaler = UART_PRESCALER_DIV1;
 8006bdc:	4b15      	ldr	r3, [pc, #84]	@ (8006c34 <MX_USART1_UART_Init+0x94>)
 8006bde:	2200      	movs	r2, #0
 8006be0:	625a      	str	r2, [r3, #36]	@ 0x24
  huart1.AdvancedInit.AdvFeatureInit = UART_ADVFEATURE_NO_INIT;
 8006be2:	4b14      	ldr	r3, [pc, #80]	@ (8006c34 <MX_USART1_UART_Init+0x94>)
 8006be4:	2200      	movs	r2, #0
 8006be6:	629a      	str	r2, [r3, #40]	@ 0x28
  if (HAL_UART_Init(&huart1) != HAL_OK)
 8006be8:	4b12      	ldr	r3, [pc, #72]	@ (8006c34 <MX_USART1_UART_Init+0x94>)
 8006bea:	0018      	movs	r0, r3
 8006bec:	f7fd ff16 	bl	8004a1c <HAL_UART_Init>
 8006bf0:	1e03      	subs	r3, r0, #0
 8006bf2:	d001      	beq.n	8006bf8 <MX_USART1_UART_Init+0x58>
  {
    Error_Handler();
 8006bf4:	f7ff ff8c 	bl	8006b10 <Error_Handler>
  }
  if (HAL_UARTEx_SetTxFifoThreshold(&huart1, UART_TXFIFO_THRESHOLD_1_8) != HAL_OK)
 8006bf8:	4b0e      	ldr	r3, [pc, #56]	@ (8006c34 <MX_USART1_UART_Init+0x94>)
 8006bfa:	2100      	movs	r1, #0
 8006bfc:	0018      	movs	r0, r3
 8006bfe:	f7fe fd73 	bl	80056e8 <HAL_UARTEx_SetTxFifoThreshold>
 8006c02:	1e03      	subs	r3, r0, #0
 8006c04:	d001      	beq.n	8006c0a <MX_USART1_UART_Init+0x6a>
  {
    Error_Handler();
 8006c06:	f7ff ff83 	bl	8006b10 <Error_Handler>
  }
  if (HAL_UARTEx_SetRxFifoThreshold(&huart1, UART_RXFIFO_THRESHOLD_1_8) != HAL_OK)
 8006c0a:	4b0a      	ldr	r3, [pc, #40]	@ (8006c34 <MX_USART1_UART_Init+0x94>)
 8006c0c:	2100      	movs	r1, #0
 8006c0e:	0018      	movs	r0, r3
 8006c10:	f7fe fdaa 	bl	8005768 <HAL_UARTEx_SetRxFifoThreshold>
 8006c14:	1e03      	subs	r3, r0, #0
 8006c16:	d001      	beq.n	8006c1c <MX_USART1_UART_Init+0x7c>
  {
    Error_Handler();
 8006c18:	f7ff ff7a 	bl	8006b10 <Error_Handler>
  }
  if (HAL_UARTEx_DisableFifoMode(&huart1) != HAL_OK)
 8006c1c:	4b05      	ldr	r3, [pc, #20]	@ (8006c34 <MX_USART1_UART_Init+0x94>)
 8006c1e:	0018      	movs	r0, r3
 8006c20:	f7fe fd28 	bl	8005674 <HAL_UARTEx_DisableFifoMode>
 8006c24:	1e03      	subs	r3, r0, #0
 8006c26:	d001      	beq.n	8006c2c <MX_USART1_UART_Init+0x8c>
  {
    Error_Handler();
 8006c28:	f7ff ff72 	bl	8006b10 <Error_Handler>
  }
  /* USER CODE BEGIN USART1_Init 2 */

  /* USER CODE END USART1_Init 2 */

}
 8006c2c:	46c0      	nop			@ (mov r8, r8)
 8006c2e:	46bd      	mov	sp, r7
 8006c30:	bd80      	pop	{r7, pc}
 8006c32:	46c0      	nop			@ (mov r8, r8)
 8006c34:	2000010c 	.word	0x2000010c
 8006c38:	40013800 	.word	0x40013800

08006c3c <MX_USART2_UART_Init>:
/* USART2 init function */

void MX_USART2_UART_Init(void)
{
 8006c3c:	b580      	push	{r7, lr}
 8006c3e:	af00      	add	r7, sp, #0
  /* USER CODE END USART2_Init 0 */

  /* USER CODE BEGIN USART2_Init 1 */

  /* USER CODE END USART2_Init 1 */
  huart2.Instance = USART2;
 8006c40:	4b23      	ldr	r3, [pc, #140]	@ (8006cd0 <MX_USART2_UART_Init+0x94>)
 8006c42:	4a24      	ldr	r2, [pc, #144]	@ (8006cd4 <MX_USART2_UART_Init+0x98>)
 8006c44:	601a      	str	r2, [r3, #0]
  huart2.Init.BaudRate = 115200;
 8006c46:	4b22      	ldr	r3, [pc, #136]	@ (8006cd0 <MX_USART2_UART_Init+0x94>)
 8006c48:	22e1      	movs	r2, #225	@ 0xe1
 8006c4a:	0252      	lsls	r2, r2, #9
 8006c4c:	605a      	str	r2, [r3, #4]
  huart2.Init.WordLength = UART_WORDLENGTH_8B;
 8006c4e:	4b20      	ldr	r3, [pc, #128]	@ (8006cd0 <MX_USART2_UART_Init+0x94>)
 8006c50:	2200      	movs	r2, #0
 8006c52:	609a      	str	r2, [r3, #8]
  huart2.Init.StopBits = UART_STOPBITS_1;
 8006c54:	4b1e      	ldr	r3, [pc, #120]	@ (8006cd0 <MX_USART2_UART_Init+0x94>)
 8006c56:	2200      	movs	r2, #0
 8006c58:	60da      	str	r2, [r3, #12]
  huart2.Init.Parity = UART_PARITY_NONE;
 8006c5a:	4b1d      	ldr	r3, [pc, #116]	@ (8006cd0 <MX_USART2_UART_Init+0x94>)
 8006c5c:	2200      	movs	r2, #0
 8006c5e:	611a      	str	r2, [r3, #16]
  huart2.Init.Mode = UART_MODE_TX_RX;
 8006c60:	4b1b      	ldr	r3, [pc, #108]	@ (8006cd0 <MX_USART2_UART_Init+0x94>)
 8006c62:	220c      	movs	r2, #12
 8006c64:	615a      	str	r2, [r3, #20]
  huart2.Init.HwFlowCtl = UART_HWCONTROL_NONE;
 8006c66:	4b1a      	ldr	r3, [pc, #104]	@ (8006cd0 <MX_USART2_UART_Init+0x94>)
 8006c68:	2200      	movs	r2, #0
 8006c6a:	619a      	str	r2, [r3, #24]
  huart2.Init.OverSampling = UART_OVERSAMPLING_16;
 8006c6c:	4b18      	ldr	r3, [pc, #96]	@ (8006cd0 <MX_USART2_UART_Init+0x94>)
 8006c6e:	2200      	movs	r2, #0
 8006c70:	61da      	str	r2, [r3, #28]
  huart2.Init.OneBitSampling = UART_ONE_BIT_SAMPLE_DISABLE;
 8006c72:	4b17      	ldr	r3, [pc, #92]	@ (8006cd0 <MX_USART2_UART_Init+0x94>)
 8006c74:	2200      	movs	r2, #0
 8006c76:	621a      	str	r2, [r3, #32]
  huart2.Init.ClockPrescaler = UART_PRESCALER_DIV1;
 8006c78:	4b15      	ldr	r3, [pc, #84]	@ (8006cd0 <MX_USART2_UART_Init+0x94>)
 8006c7a:	2200      	movs	r2, #0
 8006c7c:	625a      	str	r2, [r3, #36]	@ 0x24
  huart2.AdvancedInit.AdvFeatureInit = UART_ADVFEATURE_NO_INIT;
 8006c7e:	4b14      	ldr	r3, [pc, #80]	@ (8006cd0 <MX_USART2_UART_Init+0x94>)
 8006c80:	2200      	movs	r2, #0
 8006c82:	629a      	str	r2, [r3, #40]	@ 0x28
  if (HAL_UART_Init(&huart2) != HAL_OK)
 8006c84:	4b12      	ldr	r3, [pc, #72]	@ (8006cd0 <MX_USART2_UART_Init+0x94>)
 8006c86:	0018      	movs	r0, r3
 8006c88:	f7fd fec8 	bl	8004a1c <HAL_UART_Init>
 8006c8c:	1e03      	subs	r3, r0, #0
 8006c8e:	d001      	beq.n	8006c94 <MX_USART2_UART_Init+0x58>
  {
    Error_Handler();
 8006c90:	f7ff ff3e 	bl	8006b10 <Error_Handler>
  }
  if (HAL_UARTEx_SetTxFifoThreshold(&huart2, UART_TXFIFO_THRESHOLD_1_8) != HAL_OK)
 8006c94:	4b0e      	ldr	r3, [pc, #56]	@ (8006cd0 <MX_USART2_UART_Init+0x94>)
 8006c96:	2100      	movs	r1, #0
 8006c98:	0018      	movs	r0, r3
 8006c9a:	f7fe fd25 	bl	80056e8 <HAL_UARTEx_SetTxFifoThreshold>
 8006c9e:	1e03      	subs	r3, r0, #0
 8006ca0:	d001      	beq.n	8006ca6 <MX_USART2_UART_Init+0x6a>
  {
    Error_Handler();
 8006ca2:	f7ff ff35 	bl	8006b10 <Error_Handler>
  }
  if (HAL_UARTEx_SetRxFifoThreshold(&huart2, UART_RXFIFO_THRESHOLD_1_8) != HAL_OK)
 8006ca6:	4b0a      	ldr	r3, [pc, #40]	@ (8006cd0 <MX_USART2_UART_Init+0x94>)
 8006ca8:	2100      	movs	r1, #0
 8006caa:	0018      	movs	r0, r3
 8006cac:	f7fe fd5c 	bl	8005768 <HAL_UARTEx_SetRxFifoThreshold>
 8006cb0:	1e03      	subs	r3, r0, #0
 8006cb2:	d001      	beq.n	8006cb8 <MX_USART2_UART_Init+0x7c>
  {
    Error_Handler();
 8006cb4:	f7ff ff2c 	bl	8006b10 <Error_Handler>
  }
  if (HAL_UARTEx_DisableFifoMode(&huart2) != HAL_OK)
 8006cb8:	4b05      	ldr	r3, [pc, #20]	@ (8006cd0 <MX_USART2_UART_Init+0x94>)
 8006cba:	0018      	movs	r0, r3
 8006cbc:	f7fe fcda 	bl	8005674 <HAL_UARTEx_DisableFifoMode>
 8006cc0:	1e03      	subs	r3, r0, #0
 8006cc2:	d001      	beq.n	8006cc8 <MX_USART2_UART_Init+0x8c>
  {
    Error_Handler();
 8006cc4:	f7ff ff24 	bl	8006b10 <Error_Handler>
  }
  /* USER CODE BEGIN USART2_Init 2 */

  /* USER CODE END USART2_Init 2 */

}
 8006cc8:	46c0      	nop			@ (mov r8, r8)
 8006cca:	46bd      	mov	sp, r7
 8006ccc:	bd80      	pop	{r7, pc}
 8006cce:	46c0      	nop			@ (mov r8, r8)
 8006cd0:	200001a0 	.word	0x200001a0
 8006cd4:	40004400 	.word	0x40004400

08006cd8 <HAL_UART_MspInit>:

void HAL_UART_MspInit(UART_HandleTypeDef* uartHandle)
{
 8006cd8:	b590      	push	{r4, r7, lr}
 8006cda:	b099      	sub	sp, #100	@ 0x64
 8006cdc:	af00      	add	r7, sp, #0
 8006cde:	6078      	str	r0, [r7, #4]

  GPIO_InitTypeDef GPIO_InitStruct = {0};
 8006ce0:	234c      	movs	r3, #76	@ 0x4c
 8006ce2:	18fb      	adds	r3, r7, r3
 8006ce4:	0018      	movs	r0, r3
 8006ce6:	2314      	movs	r3, #20
 8006ce8:	001a      	movs	r2, r3
 8006cea:	2100      	movs	r1, #0
 8006cec:	f000 f966 	bl	8006fbc <memset>
  RCC_PeriphCLKInitTypeDef PeriphClkInit = {0};
 8006cf0:	2418      	movs	r4, #24
 8006cf2:	193b      	adds	r3, r7, r4
 8006cf4:	0018      	movs	r0, r3
 8006cf6:	2334      	movs	r3, #52	@ 0x34
 8006cf8:	001a      	movs	r2, r3
 8006cfa:	2100      	movs	r1, #0
 8006cfc:	f000 f95e 	bl	8006fbc <memset>
  if(uartHandle->Instance==USART1)
 8006d00:	687b      	ldr	r3, [r7, #4]
 8006d02:	681b      	ldr	r3, [r3, #0]
 8006d04:	4a45      	ldr	r2, [pc, #276]	@ (8006e1c <HAL_UART_MspInit+0x144>)
 8006d06:	4293      	cmp	r3, r2
 8006d08:	d13e      	bne.n	8006d88 <HAL_UART_MspInit+0xb0>

  /* USER CODE END USART1_MspInit 0 */

  /** Initializes the peripherals clocks
  */
    PeriphClkInit.PeriphClockSelection = RCC_PERIPHCLK_USART1;
 8006d0a:	193b      	adds	r3, r7, r4
 8006d0c:	2201      	movs	r2, #1
 8006d0e:	601a      	str	r2, [r3, #0]
    PeriphClkInit.Usart1ClockSelection = RCC_USART1CLKSOURCE_PCLK1;
 8006d10:	193b      	adds	r3, r7, r4
 8006d12:	2200      	movs	r2, #0
 8006d14:	605a      	str	r2, [r3, #4]
    if (HAL_RCCEx_PeriphCLKConfig(&PeriphClkInit) != HAL_OK)
 8006d16:	193b      	adds	r3, r7, r4
 8006d18:	0018      	movs	r0, r3
 8006d1a:	f7fd fcc7 	bl	80046ac <HAL_RCCEx_PeriphCLKConfig>
 8006d1e:	1e03      	subs	r3, r0, #0
 8006d20:	d001      	beq.n	8006d26 <HAL_UART_MspInit+0x4e>
    {
      Error_Handler();
 8006d22:	f7ff fef5 	bl	8006b10 <Error_Handler>
    }

    /* USART1 clock enable */
    __HAL_RCC_USART1_CLK_ENABLE();
 8006d26:	4b3e      	ldr	r3, [pc, #248]	@ (8006e20 <HAL_UART_MspInit+0x148>)
 8006d28:	6c1a      	ldr	r2, [r3, #64]	@ 0x40
 8006d2a:	4b3d      	ldr	r3, [pc, #244]	@ (8006e20 <HAL_UART_MspInit+0x148>)
 8006d2c:	2180      	movs	r1, #128	@ 0x80
 8006d2e:	01c9      	lsls	r1, r1, #7
 8006d30:	430a      	orrs	r2, r1
 8006d32:	641a      	str	r2, [r3, #64]	@ 0x40
 8006d34:	4b3a      	ldr	r3, [pc, #232]	@ (8006e20 <HAL_UART_MspInit+0x148>)
 8006d36:	6c1a      	ldr	r2, [r3, #64]	@ 0x40
 8006d38:	2380      	movs	r3, #128	@ 0x80
 8006d3a:	01db      	lsls	r3, r3, #7
 8006d3c:	4013      	ands	r3, r2
 8006d3e:	617b      	str	r3, [r7, #20]
 8006d40:	697b      	ldr	r3, [r7, #20]

    __HAL_RCC_GPIOC_CLK_ENABLE();
 8006d42:	4b37      	ldr	r3, [pc, #220]	@ (8006e20 <HAL_UART_MspInit+0x148>)
 8006d44:	6b5a      	ldr	r2, [r3, #52]	@ 0x34
 8006d46:	4b36      	ldr	r3, [pc, #216]	@ (8006e20 <HAL_UART_MspInit+0x148>)
 8006d48:	2104      	movs	r1, #4
 8006d4a:	430a      	orrs	r2, r1
 8006d4c:	635a      	str	r2, [r3, #52]	@ 0x34
 8006d4e:	4b34      	ldr	r3, [pc, #208]	@ (8006e20 <HAL_UART_MspInit+0x148>)
 8006d50:	6b5b      	ldr	r3, [r3, #52]	@ 0x34
 8006d52:	2204      	movs	r2, #4
 8006d54:	4013      	ands	r3, r2
 8006d56:	613b      	str	r3, [r7, #16]
 8006d58:	693b      	ldr	r3, [r7, #16]
    /**USART1 GPIO Configuration
    PC4     ------> USART1_TX
    PC5     ------> USART1_RX
    */
    GPIO_InitStruct.Pin = ESP_TX_Pin|ESP_RX_Pin;
 8006d5a:	214c      	movs	r1, #76	@ 0x4c
 8006d5c:	187b      	adds	r3, r7, r1
 8006d5e:	2230      	movs	r2, #48	@ 0x30
 8006d60:	601a      	str	r2, [r3, #0]
    GPIO_InitStruct.Mode = GPIO_MODE_AF_PP;
 8006d62:	187b      	adds	r3, r7, r1
 8006d64:	2202      	movs	r2, #2
 8006d66:	605a      	str	r2, [r3, #4]
    GPIO_InitStruct.Pull = GPIO_NOPULL;
 8006d68:	187b      	adds	r3, r7, r1
 8006d6a:	2200      	movs	r2, #0
 8006d6c:	609a      	str	r2, [r3, #8]
    GPIO_InitStruct.Speed = GPIO_SPEED_FREQ_LOW;
 8006d6e:	187b      	adds	r3, r7, r1
 8006d70:	2200      	movs	r2, #0
 8006d72:	60da      	str	r2, [r3, #12]
    GPIO_InitStruct.Alternate = GPIO_AF1_USART1;
 8006d74:	187b      	adds	r3, r7, r1
 8006d76:	2201      	movs	r2, #1
 8006d78:	611a      	str	r2, [r3, #16]
    HAL_GPIO_Init(GPIOC, &GPIO_InitStruct);
 8006d7a:	187b      	adds	r3, r7, r1
 8006d7c:	4a29      	ldr	r2, [pc, #164]	@ (8006e24 <HAL_UART_MspInit+0x14c>)
 8006d7e:	0019      	movs	r1, r3
 8006d80:	0010      	movs	r0, r2
 8006d82:	f7fb fe79 	bl	8002a78 <HAL_GPIO_Init>

  /* USER CODE BEGIN USART2_MspInit 1 */

  /* USER CODE END USART2_MspInit 1 */
  }
}
 8006d86:	e044      	b.n	8006e12 <HAL_UART_MspInit+0x13a>
  else if(uartHandle->Instance==USART2)
 8006d88:	687b      	ldr	r3, [r7, #4]
 8006d8a:	681b      	ldr	r3, [r3, #0]
 8006d8c:	4a26      	ldr	r2, [pc, #152]	@ (8006e28 <HAL_UART_MspInit+0x150>)
 8006d8e:	4293      	cmp	r3, r2
 8006d90:	d13f      	bne.n	8006e12 <HAL_UART_MspInit+0x13a>
    PeriphClkInit.PeriphClockSelection = RCC_PERIPHCLK_USART2;
 8006d92:	2118      	movs	r1, #24
 8006d94:	187b      	adds	r3, r7, r1
 8006d96:	2202      	movs	r2, #2
 8006d98:	601a      	str	r2, [r3, #0]
    PeriphClkInit.Usart2ClockSelection = RCC_USART2CLKSOURCE_PCLK1;
 8006d9a:	187b      	adds	r3, r7, r1
 8006d9c:	2200      	movs	r2, #0
 8006d9e:	609a      	str	r2, [r3, #8]
    if (HAL_RCCEx_PeriphCLKConfig(&PeriphClkInit) != HAL_OK)
 8006da0:	187b      	adds	r3, r7, r1
 8006da2:	0018      	movs	r0, r3
 8006da4:	f7fd fc82 	bl	80046ac <HAL_RCCEx_PeriphCLKConfig>
 8006da8:	1e03      	subs	r3, r0, #0
 8006daa:	d001      	beq.n	8006db0 <HAL_UART_MspInit+0xd8>
      Error_Handler();
 8006dac:	f7ff feb0 	bl	8006b10 <Error_Handler>
    __HAL_RCC_USART2_CLK_ENABLE();
 8006db0:	4b1b      	ldr	r3, [pc, #108]	@ (8006e20 <HAL_UART_MspInit+0x148>)
 8006db2:	6bda      	ldr	r2, [r3, #60]	@ 0x3c
 8006db4:	4b1a      	ldr	r3, [pc, #104]	@ (8006e20 <HAL_UART_MspInit+0x148>)
 8006db6:	2180      	movs	r1, #128	@ 0x80
 8006db8:	0289      	lsls	r1, r1, #10
 8006dba:	430a      	orrs	r2, r1
 8006dbc:	63da      	str	r2, [r3, #60]	@ 0x3c
 8006dbe:	4b18      	ldr	r3, [pc, #96]	@ (8006e20 <HAL_UART_MspInit+0x148>)
 8006dc0:	6bda      	ldr	r2, [r3, #60]	@ 0x3c
 8006dc2:	2380      	movs	r3, #128	@ 0x80
 8006dc4:	029b      	lsls	r3, r3, #10
 8006dc6:	4013      	ands	r3, r2
 8006dc8:	60fb      	str	r3, [r7, #12]
 8006dca:	68fb      	ldr	r3, [r7, #12]
    __HAL_RCC_GPIOA_CLK_ENABLE();
 8006dcc:	4b14      	ldr	r3, [pc, #80]	@ (8006e20 <HAL_UART_MspInit+0x148>)
 8006dce:	6b5a      	ldr	r2, [r3, #52]	@ 0x34
 8006dd0:	4b13      	ldr	r3, [pc, #76]	@ (8006e20 <HAL_UART_MspInit+0x148>)
 8006dd2:	2101      	movs	r1, #1
 8006dd4:	430a      	orrs	r2, r1
 8006dd6:	635a      	str	r2, [r3, #52]	@ 0x34
 8006dd8:	4b11      	ldr	r3, [pc, #68]	@ (8006e20 <HAL_UART_MspInit+0x148>)
 8006dda:	6b5b      	ldr	r3, [r3, #52]	@ 0x34
 8006ddc:	2201      	movs	r2, #1
 8006dde:	4013      	ands	r3, r2
 8006de0:	60bb      	str	r3, [r7, #8]
 8006de2:	68bb      	ldr	r3, [r7, #8]
    GPIO_InitStruct.Pin = GPIO_PIN_2|GPIO_PIN_3;
 8006de4:	214c      	movs	r1, #76	@ 0x4c
 8006de6:	187b      	adds	r3, r7, r1
 8006de8:	220c      	movs	r2, #12
 8006dea:	601a      	str	r2, [r3, #0]
    GPIO_InitStruct.Mode = GPIO_MODE_AF_PP;
 8006dec:	187b      	adds	r3, r7, r1
 8006dee:	2202      	movs	r2, #2
 8006df0:	605a      	str	r2, [r3, #4]
    GPIO_InitStruct.Pull = GPIO_NOPULL;
 8006df2:	187b      	adds	r3, r7, r1
 8006df4:	2200      	movs	r2, #0
 8006df6:	609a      	str	r2, [r3, #8]
    GPIO_InitStruct.Speed = GPIO_SPEED_FREQ_LOW;
 8006df8:	187b      	adds	r3, r7, r1
 8006dfa:	2200      	movs	r2, #0
 8006dfc:	60da      	str	r2, [r3, #12]
    GPIO_InitStruct.Alternate = GPIO_AF1_USART2;
 8006dfe:	187b      	adds	r3, r7, r1
 8006e00:	2201      	movs	r2, #1
 8006e02:	611a      	str	r2, [r3, #16]
    HAL_GPIO_Init(GPIOA, &GPIO_InitStruct);
 8006e04:	187a      	adds	r2, r7, r1
 8006e06:	23a0      	movs	r3, #160	@ 0xa0
 8006e08:	05db      	lsls	r3, r3, #23
 8006e0a:	0011      	movs	r1, r2
 8006e0c:	0018      	movs	r0, r3
 8006e0e:	f7fb fe33 	bl	8002a78 <HAL_GPIO_Init>
}
 8006e12:	46c0      	nop			@ (mov r8, r8)
 8006e14:	46bd      	mov	sp, r7
 8006e16:	b019      	add	sp, #100	@ 0x64
 8006e18:	bd90      	pop	{r4, r7, pc}
 8006e1a:	46c0      	nop			@ (mov r8, r8)
 8006e1c:	40013800 	.word	0x40013800
 8006e20:	40021000 	.word	0x40021000
 8006e24:	50000800 	.word	0x50000800
 8006e28:	40004400 	.word	0x40004400

08006e2c <HAL_UART_MspDeInit>:

void HAL_UART_MspDeInit(UART_HandleTypeDef* uartHandle)
{
 8006e2c:	b580      	push	{r7, lr}
 8006e2e:	b082      	sub	sp, #8
 8006e30:	af00      	add	r7, sp, #0
 8006e32:	6078      	str	r0, [r7, #4]

  if(uartHandle->Instance==USART1)
 8006e34:	687b      	ldr	r3, [r7, #4]
 8006e36:	681b      	ldr	r3, [r3, #0]
 8006e38:	4a11      	ldr	r2, [pc, #68]	@ (8006e80 <HAL_UART_MspDeInit+0x54>)
 8006e3a:	4293      	cmp	r3, r2
 8006e3c:	d10b      	bne.n	8006e56 <HAL_UART_MspDeInit+0x2a>
  {
  /* USER CODE BEGIN USART1_MspDeInit 0 */

  /* USER CODE END USART1_MspDeInit 0 */
    /* Peripheral clock disable */
    __HAL_RCC_USART1_CLK_DISABLE();
 8006e3e:	4b11      	ldr	r3, [pc, #68]	@ (8006e84 <HAL_UART_MspDeInit+0x58>)
 8006e40:	6c1a      	ldr	r2, [r3, #64]	@ 0x40
 8006e42:	4b10      	ldr	r3, [pc, #64]	@ (8006e84 <HAL_UART_MspDeInit+0x58>)
 8006e44:	4910      	ldr	r1, [pc, #64]	@ (8006e88 <HAL_UART_MspDeInit+0x5c>)
 8006e46:	400a      	ands	r2, r1
 8006e48:	641a      	str	r2, [r3, #64]	@ 0x40

    /**USART1 GPIO Configuration
    PC4     ------> USART1_TX
    PC5     ------> USART1_RX
    */
    HAL_GPIO_DeInit(GPIOC, ESP_TX_Pin|ESP_RX_Pin);
 8006e4a:	4b10      	ldr	r3, [pc, #64]	@ (8006e8c <HAL_UART_MspDeInit+0x60>)
 8006e4c:	2130      	movs	r1, #48	@ 0x30
 8006e4e:	0018      	movs	r0, r3
 8006e50:	f7fb ff76 	bl	8002d40 <HAL_GPIO_DeInit>

  /* USER CODE BEGIN USART2_MspDeInit 1 */

  /* USER CODE END USART2_MspDeInit 1 */
  }
}
 8006e54:	e010      	b.n	8006e78 <HAL_UART_MspDeInit+0x4c>
  else if(uartHandle->Instance==USART2)
 8006e56:	687b      	ldr	r3, [r7, #4]
 8006e58:	681b      	ldr	r3, [r3, #0]
 8006e5a:	4a0d      	ldr	r2, [pc, #52]	@ (8006e90 <HAL_UART_MspDeInit+0x64>)
 8006e5c:	4293      	cmp	r3, r2
 8006e5e:	d10b      	bne.n	8006e78 <HAL_UART_MspDeInit+0x4c>
    __HAL_RCC_USART2_CLK_DISABLE();
 8006e60:	4b08      	ldr	r3, [pc, #32]	@ (8006e84 <HAL_UART_MspDeInit+0x58>)
 8006e62:	6bda      	ldr	r2, [r3, #60]	@ 0x3c
 8006e64:	4b07      	ldr	r3, [pc, #28]	@ (8006e84 <HAL_UART_MspDeInit+0x58>)
 8006e66:	490b      	ldr	r1, [pc, #44]	@ (8006e94 <HAL_UART_MspDeInit+0x68>)
 8006e68:	400a      	ands	r2, r1
 8006e6a:	63da      	str	r2, [r3, #60]	@ 0x3c
    HAL_GPIO_DeInit(GPIOA, GPIO_PIN_2|GPIO_PIN_3);
 8006e6c:	23a0      	movs	r3, #160	@ 0xa0
 8006e6e:	05db      	lsls	r3, r3, #23
 8006e70:	210c      	movs	r1, #12
 8006e72:	0018      	movs	r0, r3
 8006e74:	f7fb ff64 	bl	8002d40 <HAL_GPIO_DeInit>
}
 8006e78:	46c0      	nop			@ (mov r8, r8)
 8006e7a:	46bd      	mov	sp, r7
 8006e7c:	b002      	add	sp, #8
 8006e7e:	bd80      	pop	{r7, pc}
 8006e80:	40013800 	.word	0x40013800
 8006e84:	40021000 	.word	0x40021000
 8006e88:	ffffbfff 	.word	0xffffbfff
 8006e8c:	50000800 	.word	0x50000800
 8006e90:	40004400 	.word	0x40004400
 8006e94:	fffdffff 	.word	0xfffdffff

08006e98 <HAL_UART_ChangeSpeed>:

/* USER CODE BEGIN 1 */

void HAL_UART_ChangeSpeed(UART_HandleTypeDef *huart, uint32_t baudrate){
 8006e98:	b580      	push	{r7, lr}
 8006e9a:	b082      	sub	sp, #8
 8006e9c:	af00      	add	r7, sp, #0
 8006e9e:	6078      	str	r0, [r7, #4]
 8006ea0:	6039      	str	r1, [r7, #0]

	HAL_UART_DeInit(huart);
 8006ea2:	687b      	ldr	r3, [r7, #4]
 8006ea4:	0018      	movs	r0, r3
 8006ea6:	f7fd fe0f 	bl	8004ac8 <HAL_UART_DeInit>

	huart->Init.BaudRate = baudrate;
 8006eaa:	687b      	ldr	r3, [r7, #4]
 8006eac:	683a      	ldr	r2, [r7, #0]
 8006eae:	605a      	str	r2, [r3, #4]

	if(HAL_UART_Init(huart)!=HAL_OK)
 8006eb0:	687b      	ldr	r3, [r7, #4]
 8006eb2:	0018      	movs	r0, r3
 8006eb4:	f7fd fdb2 	bl	8004a1c <HAL_UART_Init>
 8006eb8:	1e03      	subs	r3, r0, #0
 8006eba:	d001      	beq.n	8006ec0 <HAL_UART_ChangeSpeed+0x28>
		Error_Handler();
 8006ebc:	f7ff fe28 	bl	8006b10 <Error_Handler>

}
 8006ec0:	46c0      	nop			@ (mov r8, r8)
 8006ec2:	46bd      	mov	sp, r7
 8006ec4:	b002      	add	sp, #8
 8006ec6:	bd80      	pop	{r7, pc}

08006ec8 <Reset_Handler>:

  .section .text.Reset_Handler
  .weak Reset_Handler
  .type Reset_Handler, %function
Reset_Handler:
  ldr   r0, =_estack
 8006ec8:	480d      	ldr	r0, [pc, #52]	@ (8006f00 <LoopForever+0x2>)
  mov   sp, r0          /* set stack pointer */
 8006eca:	4685      	mov	sp, r0

/* Call the clock system initialization function.*/
  bl  SystemInit
 8006ecc:	f7ff fe63 	bl	8006b96 <SystemInit>

/* Copy the data segment initializers from flash to SRAM */
  ldr r0, =_sdata
 8006ed0:	480c      	ldr	r0, [pc, #48]	@ (8006f04 <LoopForever+0x6>)
  ldr r1, =_edata
 8006ed2:	490d      	ldr	r1, [pc, #52]	@ (8006f08 <LoopForever+0xa>)
  ldr r2, =_sidata
 8006ed4:	4a0d      	ldr	r2, [pc, #52]	@ (8006f0c <LoopForever+0xe>)
  movs r3, #0
 8006ed6:	2300      	movs	r3, #0
  b LoopCopyDataInit
 8006ed8:	e002      	b.n	8006ee0 <LoopCopyDataInit>

08006eda <CopyDataInit>:

CopyDataInit:
  ldr r4, [r2, r3]
 8006eda:	58d4      	ldr	r4, [r2, r3]
  str r4, [r0, r3]
 8006edc:	50c4      	str	r4, [r0, r3]
  adds r3, r3, #4
 8006ede:	3304      	adds	r3, #4

08006ee0 <LoopCopyDataInit>:

LoopCopyDataInit:
  adds r4, r0, r3
 8006ee0:	18c4      	adds	r4, r0, r3
  cmp r4, r1
 8006ee2:	428c      	cmp	r4, r1
  bcc CopyDataInit
 8006ee4:	d3f9      	bcc.n	8006eda <CopyDataInit>

/* Zero fill the bss segment. */
  ldr r2, =_sbss
 8006ee6:	4a0a      	ldr	r2, [pc, #40]	@ (8006f10 <LoopForever+0x12>)
  ldr r4, =_ebss
 8006ee8:	4c0a      	ldr	r4, [pc, #40]	@ (8006f14 <LoopForever+0x16>)
  movs r3, #0
 8006eea:	2300      	movs	r3, #0
  b LoopFillZerobss
 8006eec:	e001      	b.n	8006ef2 <LoopFillZerobss>

08006eee <FillZerobss>:

FillZerobss:
  str  r3, [r2]
 8006eee:	6013      	str	r3, [r2, #0]
  adds r2, r2, #4
 8006ef0:	3204      	adds	r2, #4

08006ef2 <LoopFillZerobss>:

LoopFillZerobss:
  cmp r2, r4
 8006ef2:	42a2      	cmp	r2, r4
  bcc FillZerobss
 8006ef4:	d3fb      	bcc.n	8006eee <FillZerobss>

/* Call static constructors */
  bl __libc_init_array
 8006ef6:	f000 f86f 	bl	8006fd8 <__libc_init_array>
/* Call the application s entry point.*/
  bl main
 8006efa:	f7ff fc21 	bl	8006740 <main>

08006efe <LoopForever>:

LoopForever:
  b LoopForever
 8006efe:	e7fe      	b.n	8006efe <LoopForever>
  ldr   r0, =_estack
 8006f00:	20009000 	.word	0x20009000
  ldr r0, =_sdata
 8006f04:	20000000 	.word	0x20000000
  ldr r1, =_edata
 8006f08:	20000070 	.word	0x20000070
  ldr r2, =_sidata
 8006f0c:	08008020 	.word	0x08008020
  ldr r2, =_sbss
 8006f10:	20000070 	.word	0x20000070
  ldr r4, =_ebss
 8006f14:	2000036c 	.word	0x2000036c

08006f18 <ADC1_COMP_IRQHandler>:
 * @retval None
*/
  .section .text.Default_Handler,"ax",%progbits
Default_Handler:
Infinite_Loop:
  b Infinite_Loop
 8006f18:	e7fe      	b.n	8006f18 <ADC1_COMP_IRQHandler>

08006f1a <__itoa>:
 8006f1a:	1e93      	subs	r3, r2, #2
 8006f1c:	b510      	push	{r4, lr}
 8006f1e:	000c      	movs	r4, r1
 8006f20:	2b22      	cmp	r3, #34	@ 0x22
 8006f22:	d904      	bls.n	8006f2e <__itoa+0x14>
 8006f24:	2300      	movs	r3, #0
 8006f26:	001c      	movs	r4, r3
 8006f28:	700b      	strb	r3, [r1, #0]
 8006f2a:	0020      	movs	r0, r4
 8006f2c:	bd10      	pop	{r4, pc}
 8006f2e:	2a0a      	cmp	r2, #10
 8006f30:	d109      	bne.n	8006f46 <__itoa+0x2c>
 8006f32:	2800      	cmp	r0, #0
 8006f34:	da07      	bge.n	8006f46 <__itoa+0x2c>
 8006f36:	232d      	movs	r3, #45	@ 0x2d
 8006f38:	700b      	strb	r3, [r1, #0]
 8006f3a:	2101      	movs	r1, #1
 8006f3c:	4240      	negs	r0, r0
 8006f3e:	1861      	adds	r1, r4, r1
 8006f40:	f000 f808 	bl	8006f54 <__utoa>
 8006f44:	e7f1      	b.n	8006f2a <__itoa+0x10>
 8006f46:	2100      	movs	r1, #0
 8006f48:	e7f9      	b.n	8006f3e <__itoa+0x24>

08006f4a <itoa>:
 8006f4a:	b510      	push	{r4, lr}
 8006f4c:	f7ff ffe5 	bl	8006f1a <__itoa>
 8006f50:	bd10      	pop	{r4, pc}
	...

08006f54 <__utoa>:
 8006f54:	b5f0      	push	{r4, r5, r6, r7, lr}
 8006f56:	000c      	movs	r4, r1
 8006f58:	0016      	movs	r6, r2
 8006f5a:	b08d      	sub	sp, #52	@ 0x34
 8006f5c:	2225      	movs	r2, #37	@ 0x25
 8006f5e:	0007      	movs	r7, r0
 8006f60:	4915      	ldr	r1, [pc, #84]	@ (8006fb8 <__utoa+0x64>)
 8006f62:	a802      	add	r0, sp, #8
 8006f64:	f000 f85c 	bl	8007020 <memcpy>
 8006f68:	1e62      	subs	r2, r4, #1
 8006f6a:	1eb3      	subs	r3, r6, #2
 8006f6c:	2500      	movs	r5, #0
 8006f6e:	9201      	str	r2, [sp, #4]
 8006f70:	2b22      	cmp	r3, #34	@ 0x22
 8006f72:	d904      	bls.n	8006f7e <__utoa+0x2a>
 8006f74:	7025      	strb	r5, [r4, #0]
 8006f76:	002c      	movs	r4, r5
 8006f78:	0020      	movs	r0, r4
 8006f7a:	b00d      	add	sp, #52	@ 0x34
 8006f7c:	bdf0      	pop	{r4, r5, r6, r7, pc}
 8006f7e:	0038      	movs	r0, r7
 8006f80:	0031      	movs	r1, r6
 8006f82:	f7f9 f94d 	bl	8000220 <__aeabi_uidivmod>
 8006f86:	000b      	movs	r3, r1
 8006f88:	aa02      	add	r2, sp, #8
 8006f8a:	5cd3      	ldrb	r3, [r2, r3]
 8006f8c:	9a01      	ldr	r2, [sp, #4]
 8006f8e:	0029      	movs	r1, r5
 8006f90:	3501      	adds	r5, #1
 8006f92:	5553      	strb	r3, [r2, r5]
 8006f94:	003b      	movs	r3, r7
 8006f96:	0007      	movs	r7, r0
 8006f98:	429e      	cmp	r6, r3
 8006f9a:	d9f0      	bls.n	8006f7e <__utoa+0x2a>
 8006f9c:	2300      	movs	r3, #0
 8006f9e:	0022      	movs	r2, r4
 8006fa0:	5563      	strb	r3, [r4, r5]
 8006fa2:	000b      	movs	r3, r1
 8006fa4:	1ac8      	subs	r0, r1, r3
 8006fa6:	4283      	cmp	r3, r0
 8006fa8:	dde6      	ble.n	8006f78 <__utoa+0x24>
 8006faa:	7810      	ldrb	r0, [r2, #0]
 8006fac:	5ce5      	ldrb	r5, [r4, r3]
 8006fae:	7015      	strb	r5, [r2, #0]
 8006fb0:	54e0      	strb	r0, [r4, r3]
 8006fb2:	3201      	adds	r2, #1
 8006fb4:	3b01      	subs	r3, #1
 8006fb6:	e7f5      	b.n	8006fa4 <__utoa+0x50>
 8006fb8:	08007fb8 	.word	0x08007fb8

08006fbc <memset>:
 8006fbc:	0003      	movs	r3, r0
 8006fbe:	1882      	adds	r2, r0, r2
 8006fc0:	4293      	cmp	r3, r2
 8006fc2:	d100      	bne.n	8006fc6 <memset+0xa>
 8006fc4:	4770      	bx	lr
 8006fc6:	7019      	strb	r1, [r3, #0]
 8006fc8:	3301      	adds	r3, #1
 8006fca:	e7f9      	b.n	8006fc0 <memset+0x4>

08006fcc <__errno>:
 8006fcc:	4b01      	ldr	r3, [pc, #4]	@ (8006fd4 <__errno+0x8>)
 8006fce:	6818      	ldr	r0, [r3, #0]
 8006fd0:	4770      	bx	lr
 8006fd2:	46c0      	nop			@ (mov r8, r8)
 8006fd4:	2000000c 	.word	0x2000000c

08006fd8 <__libc_init_array>:
 8006fd8:	b570      	push	{r4, r5, r6, lr}
 8006fda:	2600      	movs	r6, #0
 8006fdc:	4c0c      	ldr	r4, [pc, #48]	@ (8007010 <__libc_init_array+0x38>)
 8006fde:	4d0d      	ldr	r5, [pc, #52]	@ (8007014 <__libc_init_array+0x3c>)
 8006fe0:	1b64      	subs	r4, r4, r5
 8006fe2:	10a4      	asrs	r4, r4, #2
 8006fe4:	42a6      	cmp	r6, r4
 8006fe6:	d109      	bne.n	8006ffc <__libc_init_array+0x24>
 8006fe8:	2600      	movs	r6, #0
 8006fea:	f000 ff4b 	bl	8007e84 <_init>
 8006fee:	4c0a      	ldr	r4, [pc, #40]	@ (8007018 <__libc_init_array+0x40>)
 8006ff0:	4d0a      	ldr	r5, [pc, #40]	@ (800701c <__libc_init_array+0x44>)
 8006ff2:	1b64      	subs	r4, r4, r5
 8006ff4:	10a4      	asrs	r4, r4, #2
 8006ff6:	42a6      	cmp	r6, r4
 8006ff8:	d105      	bne.n	8007006 <__libc_init_array+0x2e>
 8006ffa:	bd70      	pop	{r4, r5, r6, pc}
 8006ffc:	00b3      	lsls	r3, r6, #2
 8006ffe:	58eb      	ldr	r3, [r5, r3]
 8007000:	4798      	blx	r3
 8007002:	3601      	adds	r6, #1
 8007004:	e7ee      	b.n	8006fe4 <__libc_init_array+0xc>
 8007006:	00b3      	lsls	r3, r6, #2
 8007008:	58eb      	ldr	r3, [r5, r3]
 800700a:	4798      	blx	r3
 800700c:	3601      	adds	r6, #1
 800700e:	e7f2      	b.n	8006ff6 <__libc_init_array+0x1e>
 8007010:	08008018 	.word	0x08008018
 8007014:	08008018 	.word	0x08008018
 8007018:	0800801c 	.word	0x0800801c
 800701c:	08008018 	.word	0x08008018

08007020 <memcpy>:
 8007020:	2300      	movs	r3, #0
 8007022:	b510      	push	{r4, lr}
 8007024:	429a      	cmp	r2, r3
 8007026:	d100      	bne.n	800702a <memcpy+0xa>
 8007028:	bd10      	pop	{r4, pc}
 800702a:	5ccc      	ldrb	r4, [r1, r3]
 800702c:	54c4      	strb	r4, [r0, r3]
 800702e:	3301      	adds	r3, #1
 8007030:	e7f8      	b.n	8007024 <memcpy+0x4>
	...

08007034 <pow>:
 8007034:	b5f7      	push	{r0, r1, r2, r4, r5, r6, r7, lr}
 8007036:	0014      	movs	r4, r2
 8007038:	001d      	movs	r5, r3
 800703a:	9000      	str	r0, [sp, #0]
 800703c:	9101      	str	r1, [sp, #4]
 800703e:	f000 f86f 	bl	8007120 <__ieee754_pow>
 8007042:	0022      	movs	r2, r4
 8007044:	0006      	movs	r6, r0
 8007046:	000f      	movs	r7, r1
 8007048:	002b      	movs	r3, r5
 800704a:	0020      	movs	r0, r4
 800704c:	0029      	movs	r1, r5
 800704e:	f7fb fab7 	bl	80025c0 <__aeabi_dcmpun>
 8007052:	2800      	cmp	r0, #0
 8007054:	d13f      	bne.n	80070d6 <pow+0xa2>
 8007056:	9800      	ldr	r0, [sp, #0]
 8007058:	9901      	ldr	r1, [sp, #4]
 800705a:	2200      	movs	r2, #0
 800705c:	2300      	movs	r3, #0
 800705e:	f7f9 f9df 	bl	8000420 <__aeabi_dcmpeq>
 8007062:	2800      	cmp	r0, #0
 8007064:	d019      	beq.n	800709a <pow+0x66>
 8007066:	2200      	movs	r2, #0
 8007068:	2300      	movs	r3, #0
 800706a:	0020      	movs	r0, r4
 800706c:	0029      	movs	r1, r5
 800706e:	f7f9 f9d7 	bl	8000420 <__aeabi_dcmpeq>
 8007072:	2800      	cmp	r0, #0
 8007074:	d146      	bne.n	8007104 <pow+0xd0>
 8007076:	0020      	movs	r0, r4
 8007078:	0029      	movs	r1, r5
 800707a:	f000 f849 	bl	8007110 <finite>
 800707e:	2800      	cmp	r0, #0
 8007080:	d029      	beq.n	80070d6 <pow+0xa2>
 8007082:	2200      	movs	r2, #0
 8007084:	2300      	movs	r3, #0
 8007086:	0020      	movs	r0, r4
 8007088:	0029      	movs	r1, r5
 800708a:	f7f9 f9cf 	bl	800042c <__aeabi_dcmplt>
 800708e:	2800      	cmp	r0, #0
 8007090:	d021      	beq.n	80070d6 <pow+0xa2>
 8007092:	f7ff ff9b 	bl	8006fcc <__errno>
 8007096:	2322      	movs	r3, #34	@ 0x22
 8007098:	e01c      	b.n	80070d4 <pow+0xa0>
 800709a:	0030      	movs	r0, r6
 800709c:	0039      	movs	r1, r7
 800709e:	f000 f837 	bl	8007110 <finite>
 80070a2:	2800      	cmp	r0, #0
 80070a4:	d11b      	bne.n	80070de <pow+0xaa>
 80070a6:	9800      	ldr	r0, [sp, #0]
 80070a8:	9901      	ldr	r1, [sp, #4]
 80070aa:	f000 f831 	bl	8007110 <finite>
 80070ae:	2800      	cmp	r0, #0
 80070b0:	d015      	beq.n	80070de <pow+0xaa>
 80070b2:	0020      	movs	r0, r4
 80070b4:	0029      	movs	r1, r5
 80070b6:	f000 f82b 	bl	8007110 <finite>
 80070ba:	2800      	cmp	r0, #0
 80070bc:	d00f      	beq.n	80070de <pow+0xaa>
 80070be:	0032      	movs	r2, r6
 80070c0:	003b      	movs	r3, r7
 80070c2:	0030      	movs	r0, r6
 80070c4:	0039      	movs	r1, r7
 80070c6:	f7fb fa7b 	bl	80025c0 <__aeabi_dcmpun>
 80070ca:	2800      	cmp	r0, #0
 80070cc:	d0e1      	beq.n	8007092 <pow+0x5e>
 80070ce:	f7ff ff7d 	bl	8006fcc <__errno>
 80070d2:	2321      	movs	r3, #33	@ 0x21
 80070d4:	6003      	str	r3, [r0, #0]
 80070d6:	0030      	movs	r0, r6
 80070d8:	0039      	movs	r1, r7
 80070da:	b003      	add	sp, #12
 80070dc:	bdf0      	pop	{r4, r5, r6, r7, pc}
 80070de:	2200      	movs	r2, #0
 80070e0:	2300      	movs	r3, #0
 80070e2:	0030      	movs	r0, r6
 80070e4:	0039      	movs	r1, r7
 80070e6:	f7f9 f99b 	bl	8000420 <__aeabi_dcmpeq>
 80070ea:	2800      	cmp	r0, #0
 80070ec:	d0f3      	beq.n	80070d6 <pow+0xa2>
 80070ee:	9800      	ldr	r0, [sp, #0]
 80070f0:	9901      	ldr	r1, [sp, #4]
 80070f2:	f000 f80d 	bl	8007110 <finite>
 80070f6:	2800      	cmp	r0, #0
 80070f8:	d0ed      	beq.n	80070d6 <pow+0xa2>
 80070fa:	0020      	movs	r0, r4
 80070fc:	0029      	movs	r1, r5
 80070fe:	f000 f807 	bl	8007110 <finite>
 8007102:	e7c4      	b.n	800708e <pow+0x5a>
 8007104:	2600      	movs	r6, #0
 8007106:	4f01      	ldr	r7, [pc, #4]	@ (800710c <pow+0xd8>)
 8007108:	e7e5      	b.n	80070d6 <pow+0xa2>
 800710a:	46c0      	nop			@ (mov r8, r8)
 800710c:	3ff00000 	.word	0x3ff00000

08007110 <finite>:
 8007110:	4b02      	ldr	r3, [pc, #8]	@ (800711c <finite+0xc>)
 8007112:	0048      	lsls	r0, r1, #1
 8007114:	0840      	lsrs	r0, r0, #1
 8007116:	18c0      	adds	r0, r0, r3
 8007118:	0fc0      	lsrs	r0, r0, #31
 800711a:	4770      	bx	lr
 800711c:	80100000 	.word	0x80100000

08007120 <__ieee754_pow>:
 8007120:	b5f0      	push	{r4, r5, r6, r7, lr}
 8007122:	b095      	sub	sp, #84	@ 0x54
 8007124:	9202      	str	r2, [sp, #8]
 8007126:	9303      	str	r3, [sp, #12]
 8007128:	9b03      	ldr	r3, [sp, #12]
 800712a:	9a03      	ldr	r2, [sp, #12]
 800712c:	9306      	str	r3, [sp, #24]
 800712e:	0052      	lsls	r2, r2, #1
 8007130:	9b02      	ldr	r3, [sp, #8]
 8007132:	0852      	lsrs	r2, r2, #1
 8007134:	9204      	str	r2, [sp, #16]
 8007136:	001a      	movs	r2, r3
 8007138:	000f      	movs	r7, r1
 800713a:	9904      	ldr	r1, [sp, #16]
 800713c:	0006      	movs	r6, r0
 800713e:	430a      	orrs	r2, r1
 8007140:	d119      	bne.n	8007176 <__ieee754_pow+0x56>
 8007142:	2180      	movs	r1, #128	@ 0x80
 8007144:	0309      	lsls	r1, r1, #12
 8007146:	4079      	eors	r1, r7
 8007148:	0002      	movs	r2, r0
 800714a:	000b      	movs	r3, r1
 800714c:	1892      	adds	r2, r2, r2
 800714e:	415b      	adcs	r3, r3
 8007150:	499b      	ldr	r1, [pc, #620]	@ (80073c0 <__ieee754_pow+0x2a0>)
 8007152:	428b      	cmp	r3, r1
 8007154:	d806      	bhi.n	8007164 <__ieee754_pow+0x44>
 8007156:	d001      	beq.n	800715c <__ieee754_pow+0x3c>
 8007158:	f000 fcde 	bl	8007b18 <__ieee754_pow+0x9f8>
 800715c:	2a00      	cmp	r2, #0
 800715e:	d101      	bne.n	8007164 <__ieee754_pow+0x44>
 8007160:	f000 fcda 	bl	8007b18 <__ieee754_pow+0x9f8>
 8007164:	9a02      	ldr	r2, [sp, #8]
 8007166:	9b03      	ldr	r3, [sp, #12]
 8007168:	0030      	movs	r0, r6
 800716a:	0039      	movs	r1, r7
 800716c:	f7f9 fc1c 	bl	80009a8 <__aeabi_dadd>
 8007170:	9000      	str	r0, [sp, #0]
 8007172:	9101      	str	r1, [sp, #4]
 8007174:	e0af      	b.n	80072d6 <__ieee754_pow+0x1b6>
 8007176:	4a93      	ldr	r2, [pc, #588]	@ (80073c4 <__ieee754_pow+0x2a4>)
 8007178:	007c      	lsls	r4, r7, #1
 800717a:	9708      	str	r7, [sp, #32]
 800717c:	900e      	str	r0, [sp, #56]	@ 0x38
 800717e:	0864      	lsrs	r4, r4, #1
 8007180:	4294      	cmp	r4, r2
 8007182:	d809      	bhi.n	8007198 <__ieee754_pow+0x78>
 8007184:	d101      	bne.n	800718a <__ieee754_pow+0x6a>
 8007186:	2800      	cmp	r0, #0
 8007188:	d1ec      	bne.n	8007164 <__ieee754_pow+0x44>
 800718a:	9904      	ldr	r1, [sp, #16]
 800718c:	4a8d      	ldr	r2, [pc, #564]	@ (80073c4 <__ieee754_pow+0x2a4>)
 800718e:	4291      	cmp	r1, r2
 8007190:	d802      	bhi.n	8007198 <__ieee754_pow+0x78>
 8007192:	d10c      	bne.n	80071ae <__ieee754_pow+0x8e>
 8007194:	2b00      	cmp	r3, #0
 8007196:	d00a      	beq.n	80071ae <__ieee754_pow+0x8e>
 8007198:	4b8b      	ldr	r3, [pc, #556]	@ (80073c8 <__ieee754_pow+0x2a8>)
 800719a:	18fb      	adds	r3, r7, r3
 800719c:	4333      	orrs	r3, r6
 800719e:	d1e1      	bne.n	8007164 <__ieee754_pow+0x44>
 80071a0:	2180      	movs	r1, #128	@ 0x80
 80071a2:	9803      	ldr	r0, [sp, #12]
 80071a4:	0309      	lsls	r1, r1, #12
 80071a6:	4048      	eors	r0, r1
 80071a8:	0003      	movs	r3, r0
 80071aa:	9a02      	ldr	r2, [sp, #8]
 80071ac:	e7ce      	b.n	800714c <__ieee754_pow+0x2c>
 80071ae:	2500      	movs	r5, #0
 80071b0:	9a08      	ldr	r2, [sp, #32]
 80071b2:	940a      	str	r4, [sp, #40]	@ 0x28
 80071b4:	42aa      	cmp	r2, r5
 80071b6:	da68      	bge.n	800728a <__ieee754_pow+0x16a>
 80071b8:	4a84      	ldr	r2, [pc, #528]	@ (80073cc <__ieee754_pow+0x2ac>)
 80071ba:	9904      	ldr	r1, [sp, #16]
 80071bc:	4291      	cmp	r1, r2
 80071be:	d863      	bhi.n	8007288 <__ieee754_pow+0x168>
 80071c0:	4a83      	ldr	r2, [pc, #524]	@ (80073d0 <__ieee754_pow+0x2b0>)
 80071c2:	4291      	cmp	r1, r2
 80071c4:	d910      	bls.n	80071e8 <__ieee754_pow+0xc8>
 80071c6:	150a      	asrs	r2, r1, #20
 80071c8:	4982      	ldr	r1, [pc, #520]	@ (80073d4 <__ieee754_pow+0x2b4>)
 80071ca:	1852      	adds	r2, r2, r1
 80071cc:	2a14      	cmp	r2, #20
 80071ce:	dd3b      	ble.n	8007248 <__ieee754_pow+0x128>
 80071d0:	2134      	movs	r1, #52	@ 0x34
 80071d2:	1a89      	subs	r1, r1, r2
 80071d4:	9a02      	ldr	r2, [sp, #8]
 80071d6:	40ca      	lsrs	r2, r1
 80071d8:	0010      	movs	r0, r2
 80071da:	4088      	lsls	r0, r1
 80071dc:	4298      	cmp	r0, r3
 80071de:	d103      	bne.n	80071e8 <__ieee754_pow+0xc8>
 80071e0:	2101      	movs	r1, #1
 80071e2:	3502      	adds	r5, #2
 80071e4:	400a      	ands	r2, r1
 80071e6:	1aad      	subs	r5, r5, r2
 80071e8:	2b00      	cmp	r3, #0
 80071ea:	d03d      	beq.n	8007268 <__ieee754_pow+0x148>
 80071ec:	0030      	movs	r0, r6
 80071ee:	0039      	movs	r1, r7
 80071f0:	f000 fcc2 	bl	8007b78 <fabs>
 80071f4:	9b0e      	ldr	r3, [sp, #56]	@ 0x38
 80071f6:	9000      	str	r0, [sp, #0]
 80071f8:	9101      	str	r1, [sp, #4]
 80071fa:	2b00      	cmp	r3, #0
 80071fc:	d000      	beq.n	8007200 <__ieee754_pow+0xe0>
 80071fe:	e093      	b.n	8007328 <__ieee754_pow+0x208>
 8007200:	4a75      	ldr	r2, [pc, #468]	@ (80073d8 <__ieee754_pow+0x2b8>)
 8007202:	00bb      	lsls	r3, r7, #2
 8007204:	089b      	lsrs	r3, r3, #2
 8007206:	4293      	cmp	r3, r2
 8007208:	d002      	beq.n	8007210 <__ieee754_pow+0xf0>
 800720a:	2c00      	cmp	r4, #0
 800720c:	d000      	beq.n	8007210 <__ieee754_pow+0xf0>
 800720e:	e08b      	b.n	8007328 <__ieee754_pow+0x208>
 8007210:	9b06      	ldr	r3, [sp, #24]
 8007212:	2b00      	cmp	r3, #0
 8007214:	da07      	bge.n	8007226 <__ieee754_pow+0x106>
 8007216:	9a00      	ldr	r2, [sp, #0]
 8007218:	9b01      	ldr	r3, [sp, #4]
 800721a:	2000      	movs	r0, #0
 800721c:	496e      	ldr	r1, [pc, #440]	@ (80073d8 <__ieee754_pow+0x2b8>)
 800721e:	f7f9 ff27 	bl	8001070 <__aeabi_ddiv>
 8007222:	9000      	str	r0, [sp, #0]
 8007224:	9101      	str	r1, [sp, #4]
 8007226:	9b08      	ldr	r3, [sp, #32]
 8007228:	2b00      	cmp	r3, #0
 800722a:	da54      	bge.n	80072d6 <__ieee754_pow+0x1b6>
 800722c:	4b66      	ldr	r3, [pc, #408]	@ (80073c8 <__ieee754_pow+0x2a8>)
 800722e:	18e4      	adds	r4, r4, r3
 8007230:	432c      	orrs	r4, r5
 8007232:	d000      	beq.n	8007236 <__ieee754_pow+0x116>
 8007234:	e06d      	b.n	8007312 <__ieee754_pow+0x1f2>
 8007236:	9a00      	ldr	r2, [sp, #0]
 8007238:	9b01      	ldr	r3, [sp, #4]
 800723a:	0010      	movs	r0, r2
 800723c:	0019      	movs	r1, r3
 800723e:	f7fa fe23 	bl	8001e88 <__aeabi_dsub>
 8007242:	0002      	movs	r2, r0
 8007244:	000b      	movs	r3, r1
 8007246:	e01c      	b.n	8007282 <__ieee754_pow+0x162>
 8007248:	2b00      	cmp	r3, #0
 800724a:	d1cf      	bne.n	80071ec <__ieee754_pow+0xcc>
 800724c:	3314      	adds	r3, #20
 800724e:	1a9a      	subs	r2, r3, r2
 8007250:	9b04      	ldr	r3, [sp, #16]
 8007252:	4113      	asrs	r3, r2
 8007254:	0019      	movs	r1, r3
 8007256:	4091      	lsls	r1, r2
 8007258:	000a      	movs	r2, r1
 800725a:	9904      	ldr	r1, [sp, #16]
 800725c:	428a      	cmp	r2, r1
 800725e:	d103      	bne.n	8007268 <__ieee754_pow+0x148>
 8007260:	2201      	movs	r2, #1
 8007262:	2502      	movs	r5, #2
 8007264:	4013      	ands	r3, r2
 8007266:	1aed      	subs	r5, r5, r3
 8007268:	4b5b      	ldr	r3, [pc, #364]	@ (80073d8 <__ieee754_pow+0x2b8>)
 800726a:	9a04      	ldr	r2, [sp, #16]
 800726c:	429a      	cmp	r2, r3
 800726e:	d136      	bne.n	80072de <__ieee754_pow+0x1be>
 8007270:	9b06      	ldr	r3, [sp, #24]
 8007272:	9600      	str	r6, [sp, #0]
 8007274:	9701      	str	r7, [sp, #4]
 8007276:	2b00      	cmp	r3, #0
 8007278:	da2d      	bge.n	80072d6 <__ieee754_pow+0x1b6>
 800727a:	0032      	movs	r2, r6
 800727c:	003b      	movs	r3, r7
 800727e:	2000      	movs	r0, #0
 8007280:	4955      	ldr	r1, [pc, #340]	@ (80073d8 <__ieee754_pow+0x2b8>)
 8007282:	f7f9 fef5 	bl	8001070 <__aeabi_ddiv>
 8007286:	e773      	b.n	8007170 <__ieee754_pow+0x50>
 8007288:	2502      	movs	r5, #2
 800728a:	2b00      	cmp	r3, #0
 800728c:	d1ae      	bne.n	80071ec <__ieee754_pow+0xcc>
 800728e:	9b04      	ldr	r3, [sp, #16]
 8007290:	4a4c      	ldr	r2, [pc, #304]	@ (80073c4 <__ieee754_pow+0x2a4>)
 8007292:	4293      	cmp	r3, r2
 8007294:	d1e8      	bne.n	8007268 <__ieee754_pow+0x148>
 8007296:	4b4c      	ldr	r3, [pc, #304]	@ (80073c8 <__ieee754_pow+0x2a8>)
 8007298:	18e3      	adds	r3, r4, r3
 800729a:	4333      	orrs	r3, r6
 800729c:	d101      	bne.n	80072a2 <__ieee754_pow+0x182>
 800729e:	f000 fc3b 	bl	8007b18 <__ieee754_pow+0x9f8>
 80072a2:	4b4b      	ldr	r3, [pc, #300]	@ (80073d0 <__ieee754_pow+0x2b0>)
 80072a4:	429c      	cmp	r4, r3
 80072a6:	d909      	bls.n	80072bc <__ieee754_pow+0x19c>
 80072a8:	9b06      	ldr	r3, [sp, #24]
 80072aa:	2b00      	cmp	r3, #0
 80072ac:	da01      	bge.n	80072b2 <__ieee754_pow+0x192>
 80072ae:	f000 fc37 	bl	8007b20 <__ieee754_pow+0xa00>
 80072b2:	9b02      	ldr	r3, [sp, #8]
 80072b4:	9c03      	ldr	r4, [sp, #12]
 80072b6:	9300      	str	r3, [sp, #0]
 80072b8:	9401      	str	r4, [sp, #4]
 80072ba:	e00c      	b.n	80072d6 <__ieee754_pow+0x1b6>
 80072bc:	9b06      	ldr	r3, [sp, #24]
 80072be:	2b00      	cmp	r3, #0
 80072c0:	db01      	blt.n	80072c6 <__ieee754_pow+0x1a6>
 80072c2:	f000 fc2d 	bl	8007b20 <__ieee754_pow+0xa00>
 80072c6:	2280      	movs	r2, #128	@ 0x80
 80072c8:	0612      	lsls	r2, r2, #24
 80072ca:	4694      	mov	ip, r2
 80072cc:	9b02      	ldr	r3, [sp, #8]
 80072ce:	9300      	str	r3, [sp, #0]
 80072d0:	9b03      	ldr	r3, [sp, #12]
 80072d2:	4463      	add	r3, ip
 80072d4:	9301      	str	r3, [sp, #4]
 80072d6:	9800      	ldr	r0, [sp, #0]
 80072d8:	9901      	ldr	r1, [sp, #4]
 80072da:	b015      	add	sp, #84	@ 0x54
 80072dc:	bdf0      	pop	{r4, r5, r6, r7, pc}
 80072de:	2380      	movs	r3, #128	@ 0x80
 80072e0:	9a06      	ldr	r2, [sp, #24]
 80072e2:	05db      	lsls	r3, r3, #23
 80072e4:	429a      	cmp	r2, r3
 80072e6:	d106      	bne.n	80072f6 <__ieee754_pow+0x1d6>
 80072e8:	0032      	movs	r2, r6
 80072ea:	003b      	movs	r3, r7
 80072ec:	0030      	movs	r0, r6
 80072ee:	0039      	movs	r1, r7
 80072f0:	f7fa fb02 	bl	80018f8 <__aeabi_dmul>
 80072f4:	e73c      	b.n	8007170 <__ieee754_pow+0x50>
 80072f6:	4b39      	ldr	r3, [pc, #228]	@ (80073dc <__ieee754_pow+0x2bc>)
 80072f8:	9a06      	ldr	r2, [sp, #24]
 80072fa:	429a      	cmp	r2, r3
 80072fc:	d000      	beq.n	8007300 <__ieee754_pow+0x1e0>
 80072fe:	e775      	b.n	80071ec <__ieee754_pow+0xcc>
 8007300:	9b08      	ldr	r3, [sp, #32]
 8007302:	2b00      	cmp	r3, #0
 8007304:	da00      	bge.n	8007308 <__ieee754_pow+0x1e8>
 8007306:	e771      	b.n	80071ec <__ieee754_pow+0xcc>
 8007308:	0030      	movs	r0, r6
 800730a:	0039      	movs	r1, r7
 800730c:	f000 fcd2 	bl	8007cb4 <__ieee754_sqrt>
 8007310:	e72e      	b.n	8007170 <__ieee754_pow+0x50>
 8007312:	2d01      	cmp	r5, #1
 8007314:	d1df      	bne.n	80072d6 <__ieee754_pow+0x1b6>
 8007316:	9800      	ldr	r0, [sp, #0]
 8007318:	2180      	movs	r1, #128	@ 0x80
 800731a:	0002      	movs	r2, r0
 800731c:	9801      	ldr	r0, [sp, #4]
 800731e:	0609      	lsls	r1, r1, #24
 8007320:	1843      	adds	r3, r0, r1
 8007322:	9200      	str	r2, [sp, #0]
 8007324:	9301      	str	r3, [sp, #4]
 8007326:	e7d6      	b.n	80072d6 <__ieee754_pow+0x1b6>
 8007328:	0ffb      	lsrs	r3, r7, #31
 800732a:	3b01      	subs	r3, #1
 800732c:	001a      	movs	r2, r3
 800732e:	432a      	orrs	r2, r5
 8007330:	d104      	bne.n	800733c <__ieee754_pow+0x21c>
 8007332:	0032      	movs	r2, r6
 8007334:	003b      	movs	r3, r7
 8007336:	0030      	movs	r0, r6
 8007338:	0039      	movs	r1, r7
 800733a:	e780      	b.n	800723e <__ieee754_pow+0x11e>
 800733c:	3d01      	subs	r5, #1
 800733e:	2200      	movs	r2, #0
 8007340:	431d      	orrs	r5, r3
 8007342:	d015      	beq.n	8007370 <__ieee754_pow+0x250>
 8007344:	4b24      	ldr	r3, [pc, #144]	@ (80073d8 <__ieee754_pow+0x2b8>)
 8007346:	9208      	str	r2, [sp, #32]
 8007348:	9309      	str	r3, [sp, #36]	@ 0x24
 800734a:	2384      	movs	r3, #132	@ 0x84
 800734c:	9a04      	ldr	r2, [sp, #16]
 800734e:	05db      	lsls	r3, r3, #23
 8007350:	429a      	cmp	r2, r3
 8007352:	d800      	bhi.n	8007356 <__ieee754_pow+0x236>
 8007354:	e102      	b.n	800755c <__ieee754_pow+0x43c>
 8007356:	4b22      	ldr	r3, [pc, #136]	@ (80073e0 <__ieee754_pow+0x2c0>)
 8007358:	429a      	cmp	r2, r3
 800735a:	d912      	bls.n	8007382 <__ieee754_pow+0x262>
 800735c:	4b1c      	ldr	r3, [pc, #112]	@ (80073d0 <__ieee754_pow+0x2b0>)
 800735e:	429c      	cmp	r4, r3
 8007360:	d808      	bhi.n	8007374 <__ieee754_pow+0x254>
 8007362:	9b06      	ldr	r3, [sp, #24]
 8007364:	2b00      	cmp	r3, #0
 8007366:	da08      	bge.n	800737a <__ieee754_pow+0x25a>
 8007368:	2000      	movs	r0, #0
 800736a:	f000 fc9b 	bl	8007ca4 <__math_oflow>
 800736e:	e6ff      	b.n	8007170 <__ieee754_pow+0x50>
 8007370:	4b1c      	ldr	r3, [pc, #112]	@ (80073e4 <__ieee754_pow+0x2c4>)
 8007372:	e7e8      	b.n	8007346 <__ieee754_pow+0x226>
 8007374:	9b06      	ldr	r3, [sp, #24]
 8007376:	2b00      	cmp	r3, #0
 8007378:	dcf6      	bgt.n	8007368 <__ieee754_pow+0x248>
 800737a:	2000      	movs	r0, #0
 800737c:	f000 fc8b 	bl	8007c96 <__math_uflow>
 8007380:	e6f6      	b.n	8007170 <__ieee754_pow+0x50>
 8007382:	4b19      	ldr	r3, [pc, #100]	@ (80073e8 <__ieee754_pow+0x2c8>)
 8007384:	429c      	cmp	r4, r3
 8007386:	d80b      	bhi.n	80073a0 <__ieee754_pow+0x280>
 8007388:	9808      	ldr	r0, [sp, #32]
 800738a:	9909      	ldr	r1, [sp, #36]	@ 0x24
 800738c:	2300      	movs	r3, #0
 800738e:	2200      	movs	r2, #0
 8007390:	f7f9 f84c 	bl	800042c <__aeabi_dcmplt>
 8007394:	1e43      	subs	r3, r0, #1
 8007396:	4198      	sbcs	r0, r3
 8007398:	9b06      	ldr	r3, [sp, #24]
 800739a:	2b00      	cmp	r3, #0
 800739c:	daee      	bge.n	800737c <__ieee754_pow+0x25c>
 800739e:	e7e4      	b.n	800736a <__ieee754_pow+0x24a>
 80073a0:	4b0d      	ldr	r3, [pc, #52]	@ (80073d8 <__ieee754_pow+0x2b8>)
 80073a2:	2200      	movs	r2, #0
 80073a4:	429c      	cmp	r4, r3
 80073a6:	d921      	bls.n	80073ec <__ieee754_pow+0x2cc>
 80073a8:	9808      	ldr	r0, [sp, #32]
 80073aa:	9909      	ldr	r1, [sp, #36]	@ 0x24
 80073ac:	2300      	movs	r3, #0
 80073ae:	f7f9 f83d 	bl	800042c <__aeabi_dcmplt>
 80073b2:	1e43      	subs	r3, r0, #1
 80073b4:	4198      	sbcs	r0, r3
 80073b6:	9b06      	ldr	r3, [sp, #24]
 80073b8:	2b00      	cmp	r3, #0
 80073ba:	dcd6      	bgt.n	800736a <__ieee754_pow+0x24a>
 80073bc:	e7de      	b.n	800737c <__ieee754_pow+0x25c>
 80073be:	46c0      	nop			@ (mov r8, r8)
 80073c0:	fff00000 	.word	0xfff00000
 80073c4:	7ff00000 	.word	0x7ff00000
 80073c8:	c0100000 	.word	0xc0100000
 80073cc:	433fffff 	.word	0x433fffff
 80073d0:	3fefffff 	.word	0x3fefffff
 80073d4:	fffffc01 	.word	0xfffffc01
 80073d8:	3ff00000 	.word	0x3ff00000
 80073dc:	3fe00000 	.word	0x3fe00000
 80073e0:	43f00000 	.word	0x43f00000
 80073e4:	bff00000 	.word	0xbff00000
 80073e8:	3feffffe 	.word	0x3feffffe
 80073ec:	9800      	ldr	r0, [sp, #0]
 80073ee:	9901      	ldr	r1, [sp, #4]
 80073f0:	4b4f      	ldr	r3, [pc, #316]	@ (8007530 <__ieee754_pow+0x410>)
 80073f2:	f7fa fd49 	bl	8001e88 <__aeabi_dsub>
 80073f6:	22c0      	movs	r2, #192	@ 0xc0
 80073f8:	4b4e      	ldr	r3, [pc, #312]	@ (8007534 <__ieee754_pow+0x414>)
 80073fa:	05d2      	lsls	r2, r2, #23
 80073fc:	0006      	movs	r6, r0
 80073fe:	000f      	movs	r7, r1
 8007400:	f7fa fa7a 	bl	80018f8 <__aeabi_dmul>
 8007404:	4a4c      	ldr	r2, [pc, #304]	@ (8007538 <__ieee754_pow+0x418>)
 8007406:	9004      	str	r0, [sp, #16]
 8007408:	9105      	str	r1, [sp, #20]
 800740a:	4b4c      	ldr	r3, [pc, #304]	@ (800753c <__ieee754_pow+0x41c>)
 800740c:	0030      	movs	r0, r6
 800740e:	0039      	movs	r1, r7
 8007410:	f7fa fa72 	bl	80018f8 <__aeabi_dmul>
 8007414:	2200      	movs	r2, #0
 8007416:	9000      	str	r0, [sp, #0]
 8007418:	9101      	str	r1, [sp, #4]
 800741a:	4b49      	ldr	r3, [pc, #292]	@ (8007540 <__ieee754_pow+0x420>)
 800741c:	0030      	movs	r0, r6
 800741e:	0039      	movs	r1, r7
 8007420:	f7fa fa6a 	bl	80018f8 <__aeabi_dmul>
 8007424:	0002      	movs	r2, r0
 8007426:	000b      	movs	r3, r1
 8007428:	4846      	ldr	r0, [pc, #280]	@ (8007544 <__ieee754_pow+0x424>)
 800742a:	4947      	ldr	r1, [pc, #284]	@ (8007548 <__ieee754_pow+0x428>)
 800742c:	f7fa fd2c 	bl	8001e88 <__aeabi_dsub>
 8007430:	0032      	movs	r2, r6
 8007432:	003b      	movs	r3, r7
 8007434:	f7fa fa60 	bl	80018f8 <__aeabi_dmul>
 8007438:	0002      	movs	r2, r0
 800743a:	000b      	movs	r3, r1
 800743c:	2000      	movs	r0, #0
 800743e:	4943      	ldr	r1, [pc, #268]	@ (800754c <__ieee754_pow+0x42c>)
 8007440:	f7fa fd22 	bl	8001e88 <__aeabi_dsub>
 8007444:	0032      	movs	r2, r6
 8007446:	0004      	movs	r4, r0
 8007448:	000d      	movs	r5, r1
 800744a:	003b      	movs	r3, r7
 800744c:	0030      	movs	r0, r6
 800744e:	0039      	movs	r1, r7
 8007450:	f7fa fa52 	bl	80018f8 <__aeabi_dmul>
 8007454:	0002      	movs	r2, r0
 8007456:	000b      	movs	r3, r1
 8007458:	0020      	movs	r0, r4
 800745a:	0029      	movs	r1, r5
 800745c:	f7fa fa4c 	bl	80018f8 <__aeabi_dmul>
 8007460:	4a3b      	ldr	r2, [pc, #236]	@ (8007550 <__ieee754_pow+0x430>)
 8007462:	4b34      	ldr	r3, [pc, #208]	@ (8007534 <__ieee754_pow+0x414>)
 8007464:	f7fa fa48 	bl	80018f8 <__aeabi_dmul>
 8007468:	0002      	movs	r2, r0
 800746a:	000b      	movs	r3, r1
 800746c:	9800      	ldr	r0, [sp, #0]
 800746e:	9901      	ldr	r1, [sp, #4]
 8007470:	f7fa fd0a 	bl	8001e88 <__aeabi_dsub>
 8007474:	0002      	movs	r2, r0
 8007476:	000b      	movs	r3, r1
 8007478:	0004      	movs	r4, r0
 800747a:	000d      	movs	r5, r1
 800747c:	9804      	ldr	r0, [sp, #16]
 800747e:	9905      	ldr	r1, [sp, #20]
 8007480:	f7f9 fa92 	bl	80009a8 <__aeabi_dadd>
 8007484:	9a04      	ldr	r2, [sp, #16]
 8007486:	9b05      	ldr	r3, [sp, #20]
 8007488:	2000      	movs	r0, #0
 800748a:	9000      	str	r0, [sp, #0]
 800748c:	9101      	str	r1, [sp, #4]
 800748e:	f7fa fcfb 	bl	8001e88 <__aeabi_dsub>
 8007492:	0002      	movs	r2, r0
 8007494:	000b      	movs	r3, r1
 8007496:	0020      	movs	r0, r4
 8007498:	0029      	movs	r1, r5
 800749a:	f7fa fcf5 	bl	8001e88 <__aeabi_dsub>
 800749e:	9b02      	ldr	r3, [sp, #8]
 80074a0:	9c03      	ldr	r4, [sp, #12]
 80074a2:	9304      	str	r3, [sp, #16]
 80074a4:	9405      	str	r4, [sp, #20]
 80074a6:	2300      	movs	r3, #0
 80074a8:	9304      	str	r3, [sp, #16]
 80074aa:	9c04      	ldr	r4, [sp, #16]
 80074ac:	9d05      	ldr	r5, [sp, #20]
 80074ae:	0006      	movs	r6, r0
 80074b0:	000f      	movs	r7, r1
 80074b2:	9802      	ldr	r0, [sp, #8]
 80074b4:	9903      	ldr	r1, [sp, #12]
 80074b6:	0022      	movs	r2, r4
 80074b8:	002b      	movs	r3, r5
 80074ba:	f7fa fce5 	bl	8001e88 <__aeabi_dsub>
 80074be:	9a00      	ldr	r2, [sp, #0]
 80074c0:	9b01      	ldr	r3, [sp, #4]
 80074c2:	f7fa fa19 	bl	80018f8 <__aeabi_dmul>
 80074c6:	9a02      	ldr	r2, [sp, #8]
 80074c8:	9b03      	ldr	r3, [sp, #12]
 80074ca:	9006      	str	r0, [sp, #24]
 80074cc:	9107      	str	r1, [sp, #28]
 80074ce:	0030      	movs	r0, r6
 80074d0:	0039      	movs	r1, r7
 80074d2:	f7fa fa11 	bl	80018f8 <__aeabi_dmul>
 80074d6:	0002      	movs	r2, r0
 80074d8:	000b      	movs	r3, r1
 80074da:	9806      	ldr	r0, [sp, #24]
 80074dc:	9907      	ldr	r1, [sp, #28]
 80074de:	f7f9 fa63 	bl	80009a8 <__aeabi_dadd>
 80074e2:	0022      	movs	r2, r4
 80074e4:	002b      	movs	r3, r5
 80074e6:	9002      	str	r0, [sp, #8]
 80074e8:	9103      	str	r1, [sp, #12]
 80074ea:	9800      	ldr	r0, [sp, #0]
 80074ec:	9901      	ldr	r1, [sp, #4]
 80074ee:	f7fa fa03 	bl	80018f8 <__aeabi_dmul>
 80074f2:	000b      	movs	r3, r1
 80074f4:	0002      	movs	r2, r0
 80074f6:	0006      	movs	r6, r0
 80074f8:	000f      	movs	r7, r1
 80074fa:	9802      	ldr	r0, [sp, #8]
 80074fc:	9903      	ldr	r1, [sp, #12]
 80074fe:	f7f9 fa53 	bl	80009a8 <__aeabi_dadd>
 8007502:	9000      	str	r0, [sp, #0]
 8007504:	9101      	str	r1, [sp, #4]
 8007506:	9c01      	ldr	r4, [sp, #4]
 8007508:	4b12      	ldr	r3, [pc, #72]	@ (8007554 <__ieee754_pow+0x434>)
 800750a:	9406      	str	r4, [sp, #24]
 800750c:	429c      	cmp	r4, r3
 800750e:	dc00      	bgt.n	8007512 <__ieee754_pow+0x3f2>
 8007510:	e222      	b.n	8007958 <__ieee754_pow+0x838>
 8007512:	4a11      	ldr	r2, [pc, #68]	@ (8007558 <__ieee754_pow+0x438>)
 8007514:	18a3      	adds	r3, r4, r2
 8007516:	9a00      	ldr	r2, [sp, #0]
 8007518:	4313      	orrs	r3, r2
 800751a:	d100      	bne.n	800751e <__ieee754_pow+0x3fe>
 800751c:	e1a0      	b.n	8007860 <__ieee754_pow+0x740>
 800751e:	9808      	ldr	r0, [sp, #32]
 8007520:	9909      	ldr	r1, [sp, #36]	@ 0x24
 8007522:	2300      	movs	r3, #0
 8007524:	2200      	movs	r2, #0
 8007526:	f7f8 ff81 	bl	800042c <__aeabi_dcmplt>
 800752a:	1e43      	subs	r3, r0, #1
 800752c:	4198      	sbcs	r0, r3
 800752e:	e71c      	b.n	800736a <__ieee754_pow+0x24a>
 8007530:	3ff00000 	.word	0x3ff00000
 8007534:	3ff71547 	.word	0x3ff71547
 8007538:	f85ddf44 	.word	0xf85ddf44
 800753c:	3e54ae0b 	.word	0x3e54ae0b
 8007540:	3fd00000 	.word	0x3fd00000
 8007544:	55555555 	.word	0x55555555
 8007548:	3fd55555 	.word	0x3fd55555
 800754c:	3fe00000 	.word	0x3fe00000
 8007550:	652b82fe 	.word	0x652b82fe
 8007554:	408fffff 	.word	0x408fffff
 8007558:	bf700000 	.word	0xbf700000
 800755c:	4be0      	ldr	r3, [pc, #896]	@ (80078e0 <__ieee754_pow+0x7c0>)
 800755e:	2200      	movs	r2, #0
 8007560:	423b      	tst	r3, r7
 8007562:	d10b      	bne.n	800757c <__ieee754_pow+0x45c>
 8007564:	9800      	ldr	r0, [sp, #0]
 8007566:	9901      	ldr	r1, [sp, #4]
 8007568:	2200      	movs	r2, #0
 800756a:	4bde      	ldr	r3, [pc, #888]	@ (80078e4 <__ieee754_pow+0x7c4>)
 800756c:	f7fa f9c4 	bl	80018f8 <__aeabi_dmul>
 8007570:	2235      	movs	r2, #53	@ 0x35
 8007572:	9000      	str	r0, [sp, #0]
 8007574:	9101      	str	r1, [sp, #4]
 8007576:	9b01      	ldr	r3, [sp, #4]
 8007578:	4252      	negs	r2, r2
 800757a:	930a      	str	r3, [sp, #40]	@ 0x28
 800757c:	9b0a      	ldr	r3, [sp, #40]	@ 0x28
 800757e:	49da      	ldr	r1, [pc, #872]	@ (80078e8 <__ieee754_pow+0x7c8>)
 8007580:	151b      	asrs	r3, r3, #20
 8007582:	185b      	adds	r3, r3, r1
 8007584:	189b      	adds	r3, r3, r2
 8007586:	930e      	str	r3, [sp, #56]	@ 0x38
 8007588:	9b0a      	ldr	r3, [sp, #40]	@ 0x28
 800758a:	4dd8      	ldr	r5, [pc, #864]	@ (80078ec <__ieee754_pow+0x7cc>)
 800758c:	031b      	lsls	r3, r3, #12
 800758e:	4ad8      	ldr	r2, [pc, #864]	@ (80078f0 <__ieee754_pow+0x7d0>)
 8007590:	0b1b      	lsrs	r3, r3, #12
 8007592:	2600      	movs	r6, #0
 8007594:	431d      	orrs	r5, r3
 8007596:	4293      	cmp	r3, r2
 8007598:	dd09      	ble.n	80075ae <__ieee754_pow+0x48e>
 800759a:	4ad6      	ldr	r2, [pc, #856]	@ (80078f4 <__ieee754_pow+0x7d4>)
 800759c:	3601      	adds	r6, #1
 800759e:	4293      	cmp	r3, r2
 80075a0:	dd05      	ble.n	80075ae <__ieee754_pow+0x48e>
 80075a2:	9b0e      	ldr	r3, [sp, #56]	@ 0x38
 80075a4:	199b      	adds	r3, r3, r6
 80075a6:	2600      	movs	r6, #0
 80075a8:	930e      	str	r3, [sp, #56]	@ 0x38
 80075aa:	4bd3      	ldr	r3, [pc, #844]	@ (80078f8 <__ieee754_pow+0x7d8>)
 80075ac:	18ed      	adds	r5, r5, r3
 80075ae:	9800      	ldr	r0, [sp, #0]
 80075b0:	9901      	ldr	r1, [sp, #4]
 80075b2:	0029      	movs	r1, r5
 80075b4:	4bd1      	ldr	r3, [pc, #836]	@ (80078fc <__ieee754_pow+0x7dc>)
 80075b6:	00f2      	lsls	r2, r6, #3
 80075b8:	189b      	adds	r3, r3, r2
 80075ba:	685c      	ldr	r4, [r3, #4]
 80075bc:	681b      	ldr	r3, [r3, #0]
 80075be:	920f      	str	r2, [sp, #60]	@ 0x3c
 80075c0:	930a      	str	r3, [sp, #40]	@ 0x28
 80075c2:	940b      	str	r4, [sp, #44]	@ 0x2c
 80075c4:	001a      	movs	r2, r3
 80075c6:	0023      	movs	r3, r4
 80075c8:	900c      	str	r0, [sp, #48]	@ 0x30
 80075ca:	910d      	str	r1, [sp, #52]	@ 0x34
 80075cc:	f7fa fc5c 	bl	8001e88 <__aeabi_dsub>
 80075d0:	9a0c      	ldr	r2, [sp, #48]	@ 0x30
 80075d2:	9b0d      	ldr	r3, [sp, #52]	@ 0x34
 80075d4:	9010      	str	r0, [sp, #64]	@ 0x40
 80075d6:	9111      	str	r1, [sp, #68]	@ 0x44
 80075d8:	980a      	ldr	r0, [sp, #40]	@ 0x28
 80075da:	990b      	ldr	r1, [sp, #44]	@ 0x2c
 80075dc:	f7f9 f9e4 	bl	80009a8 <__aeabi_dadd>
 80075e0:	0002      	movs	r2, r0
 80075e2:	000b      	movs	r3, r1
 80075e4:	2000      	movs	r0, #0
 80075e6:	49c1      	ldr	r1, [pc, #772]	@ (80078ec <__ieee754_pow+0x7cc>)
 80075e8:	f7f9 fd42 	bl	8001070 <__aeabi_ddiv>
 80075ec:	0002      	movs	r2, r0
 80075ee:	000b      	movs	r3, r1
 80075f0:	9012      	str	r0, [sp, #72]	@ 0x48
 80075f2:	9113      	str	r1, [sp, #76]	@ 0x4c
 80075f4:	9810      	ldr	r0, [sp, #64]	@ 0x40
 80075f6:	9911      	ldr	r1, [sp, #68]	@ 0x44
 80075f8:	f7fa f97e 	bl	80018f8 <__aeabi_dmul>
 80075fc:	9006      	str	r0, [sp, #24]
 80075fe:	9107      	str	r1, [sp, #28]
 8007600:	9b06      	ldr	r3, [sp, #24]
 8007602:	9c07      	ldr	r4, [sp, #28]
 8007604:	2180      	movs	r1, #128	@ 0x80
 8007606:	9304      	str	r3, [sp, #16]
 8007608:	9405      	str	r4, [sp, #20]
 800760a:	2080      	movs	r0, #128	@ 0x80
 800760c:	2300      	movs	r3, #0
 800760e:	2200      	movs	r2, #0
 8007610:	106d      	asrs	r5, r5, #1
 8007612:	0589      	lsls	r1, r1, #22
 8007614:	9304      	str	r3, [sp, #16]
 8007616:	4329      	orrs	r1, r5
 8007618:	0300      	lsls	r0, r0, #12
 800761a:	9b04      	ldr	r3, [sp, #16]
 800761c:	9c05      	ldr	r4, [sp, #20]
 800761e:	1809      	adds	r1, r1, r0
 8007620:	9300      	str	r3, [sp, #0]
 8007622:	9401      	str	r4, [sp, #4]
 8007624:	04b6      	lsls	r6, r6, #18
 8007626:	198b      	adds	r3, r1, r6
 8007628:	9800      	ldr	r0, [sp, #0]
 800762a:	9901      	ldr	r1, [sp, #4]
 800762c:	0014      	movs	r4, r2
 800762e:	001d      	movs	r5, r3
 8007630:	f7fa f962 	bl	80018f8 <__aeabi_dmul>
 8007634:	0002      	movs	r2, r0
 8007636:	000b      	movs	r3, r1
 8007638:	9810      	ldr	r0, [sp, #64]	@ 0x40
 800763a:	9911      	ldr	r1, [sp, #68]	@ 0x44
 800763c:	f7fa fc24 	bl	8001e88 <__aeabi_dsub>
 8007640:	9a0a      	ldr	r2, [sp, #40]	@ 0x28
 8007642:	9b0b      	ldr	r3, [sp, #44]	@ 0x2c
 8007644:	0006      	movs	r6, r0
 8007646:	000f      	movs	r7, r1
 8007648:	0020      	movs	r0, r4
 800764a:	0029      	movs	r1, r5
 800764c:	f7fa fc1c 	bl	8001e88 <__aeabi_dsub>
 8007650:	0002      	movs	r2, r0
 8007652:	000b      	movs	r3, r1
 8007654:	980c      	ldr	r0, [sp, #48]	@ 0x30
 8007656:	990d      	ldr	r1, [sp, #52]	@ 0x34
 8007658:	f7fa fc16 	bl	8001e88 <__aeabi_dsub>
 800765c:	9a00      	ldr	r2, [sp, #0]
 800765e:	9b01      	ldr	r3, [sp, #4]
 8007660:	f7fa f94a 	bl	80018f8 <__aeabi_dmul>
 8007664:	0002      	movs	r2, r0
 8007666:	000b      	movs	r3, r1
 8007668:	0030      	movs	r0, r6
 800766a:	0039      	movs	r1, r7
 800766c:	f7fa fc0c 	bl	8001e88 <__aeabi_dsub>
 8007670:	9a12      	ldr	r2, [sp, #72]	@ 0x48
 8007672:	9b13      	ldr	r3, [sp, #76]	@ 0x4c
 8007674:	f7fa f940 	bl	80018f8 <__aeabi_dmul>
 8007678:	9a06      	ldr	r2, [sp, #24]
 800767a:	9b07      	ldr	r3, [sp, #28]
 800767c:	900a      	str	r0, [sp, #40]	@ 0x28
 800767e:	910b      	str	r1, [sp, #44]	@ 0x2c
 8007680:	0010      	movs	r0, r2
 8007682:	0019      	movs	r1, r3
 8007684:	f7fa f938 	bl	80018f8 <__aeabi_dmul>
 8007688:	0006      	movs	r6, r0
 800768a:	000f      	movs	r7, r1
 800768c:	4a9c      	ldr	r2, [pc, #624]	@ (8007900 <__ieee754_pow+0x7e0>)
 800768e:	4b9d      	ldr	r3, [pc, #628]	@ (8007904 <__ieee754_pow+0x7e4>)
 8007690:	f7fa f932 	bl	80018f8 <__aeabi_dmul>
 8007694:	4a9c      	ldr	r2, [pc, #624]	@ (8007908 <__ieee754_pow+0x7e8>)
 8007696:	4b9d      	ldr	r3, [pc, #628]	@ (800790c <__ieee754_pow+0x7ec>)
 8007698:	f7f9 f986 	bl	80009a8 <__aeabi_dadd>
 800769c:	0032      	movs	r2, r6
 800769e:	003b      	movs	r3, r7
 80076a0:	f7fa f92a 	bl	80018f8 <__aeabi_dmul>
 80076a4:	4a9a      	ldr	r2, [pc, #616]	@ (8007910 <__ieee754_pow+0x7f0>)
 80076a6:	4b9b      	ldr	r3, [pc, #620]	@ (8007914 <__ieee754_pow+0x7f4>)
 80076a8:	f7f9 f97e 	bl	80009a8 <__aeabi_dadd>
 80076ac:	0032      	movs	r2, r6
 80076ae:	003b      	movs	r3, r7
 80076b0:	f7fa f922 	bl	80018f8 <__aeabi_dmul>
 80076b4:	4a98      	ldr	r2, [pc, #608]	@ (8007918 <__ieee754_pow+0x7f8>)
 80076b6:	4b99      	ldr	r3, [pc, #612]	@ (800791c <__ieee754_pow+0x7fc>)
 80076b8:	f7f9 f976 	bl	80009a8 <__aeabi_dadd>
 80076bc:	0032      	movs	r2, r6
 80076be:	003b      	movs	r3, r7
 80076c0:	f7fa f91a 	bl	80018f8 <__aeabi_dmul>
 80076c4:	4a96      	ldr	r2, [pc, #600]	@ (8007920 <__ieee754_pow+0x800>)
 80076c6:	4b97      	ldr	r3, [pc, #604]	@ (8007924 <__ieee754_pow+0x804>)
 80076c8:	f7f9 f96e 	bl	80009a8 <__aeabi_dadd>
 80076cc:	0032      	movs	r2, r6
 80076ce:	003b      	movs	r3, r7
 80076d0:	f7fa f912 	bl	80018f8 <__aeabi_dmul>
 80076d4:	4a94      	ldr	r2, [pc, #592]	@ (8007928 <__ieee754_pow+0x808>)
 80076d6:	4b95      	ldr	r3, [pc, #596]	@ (800792c <__ieee754_pow+0x80c>)
 80076d8:	f7f9 f966 	bl	80009a8 <__aeabi_dadd>
 80076dc:	0032      	movs	r2, r6
 80076de:	0004      	movs	r4, r0
 80076e0:	000d      	movs	r5, r1
 80076e2:	003b      	movs	r3, r7
 80076e4:	0030      	movs	r0, r6
 80076e6:	0039      	movs	r1, r7
 80076e8:	f7fa f906 	bl	80018f8 <__aeabi_dmul>
 80076ec:	0002      	movs	r2, r0
 80076ee:	000b      	movs	r3, r1
 80076f0:	0020      	movs	r0, r4
 80076f2:	0029      	movs	r1, r5
 80076f4:	f7fa f900 	bl	80018f8 <__aeabi_dmul>
 80076f8:	9a00      	ldr	r2, [sp, #0]
 80076fa:	9b01      	ldr	r3, [sp, #4]
 80076fc:	0004      	movs	r4, r0
 80076fe:	000d      	movs	r5, r1
 8007700:	9806      	ldr	r0, [sp, #24]
 8007702:	9907      	ldr	r1, [sp, #28]
 8007704:	f7f9 f950 	bl	80009a8 <__aeabi_dadd>
 8007708:	9a0a      	ldr	r2, [sp, #40]	@ 0x28
 800770a:	9b0b      	ldr	r3, [sp, #44]	@ 0x2c
 800770c:	f7fa f8f4 	bl	80018f8 <__aeabi_dmul>
 8007710:	0022      	movs	r2, r4
 8007712:	002b      	movs	r3, r5
 8007714:	f7f9 f948 	bl	80009a8 <__aeabi_dadd>
 8007718:	9a00      	ldr	r2, [sp, #0]
 800771a:	9b01      	ldr	r3, [sp, #4]
 800771c:	900c      	str	r0, [sp, #48]	@ 0x30
 800771e:	910d      	str	r1, [sp, #52]	@ 0x34
 8007720:	0010      	movs	r0, r2
 8007722:	0019      	movs	r1, r3
 8007724:	f7fa f8e8 	bl	80018f8 <__aeabi_dmul>
 8007728:	2200      	movs	r2, #0
 800772a:	4b81      	ldr	r3, [pc, #516]	@ (8007930 <__ieee754_pow+0x810>)
 800772c:	0004      	movs	r4, r0
 800772e:	000d      	movs	r5, r1
 8007730:	f7f9 f93a 	bl	80009a8 <__aeabi_dadd>
 8007734:	9a0c      	ldr	r2, [sp, #48]	@ 0x30
 8007736:	9b0d      	ldr	r3, [sp, #52]	@ 0x34
 8007738:	f7f9 f936 	bl	80009a8 <__aeabi_dadd>
 800773c:	2000      	movs	r0, #0
 800773e:	000f      	movs	r7, r1
 8007740:	0006      	movs	r6, r0
 8007742:	0002      	movs	r2, r0
 8007744:	000b      	movs	r3, r1
 8007746:	9800      	ldr	r0, [sp, #0]
 8007748:	9901      	ldr	r1, [sp, #4]
 800774a:	f7fa f8d5 	bl	80018f8 <__aeabi_dmul>
 800774e:	2200      	movs	r2, #0
 8007750:	9000      	str	r0, [sp, #0]
 8007752:	9101      	str	r1, [sp, #4]
 8007754:	4b76      	ldr	r3, [pc, #472]	@ (8007930 <__ieee754_pow+0x810>)
 8007756:	0030      	movs	r0, r6
 8007758:	0039      	movs	r1, r7
 800775a:	f7fa fb95 	bl	8001e88 <__aeabi_dsub>
 800775e:	0022      	movs	r2, r4
 8007760:	002b      	movs	r3, r5
 8007762:	f7fa fb91 	bl	8001e88 <__aeabi_dsub>
 8007766:	0002      	movs	r2, r0
 8007768:	000b      	movs	r3, r1
 800776a:	980c      	ldr	r0, [sp, #48]	@ 0x30
 800776c:	990d      	ldr	r1, [sp, #52]	@ 0x34
 800776e:	f7fa fb8b 	bl	8001e88 <__aeabi_dsub>
 8007772:	9a06      	ldr	r2, [sp, #24]
 8007774:	9b07      	ldr	r3, [sp, #28]
 8007776:	f7fa f8bf 	bl	80018f8 <__aeabi_dmul>
 800777a:	0032      	movs	r2, r6
 800777c:	0004      	movs	r4, r0
 800777e:	000d      	movs	r5, r1
 8007780:	980a      	ldr	r0, [sp, #40]	@ 0x28
 8007782:	990b      	ldr	r1, [sp, #44]	@ 0x2c
 8007784:	003b      	movs	r3, r7
 8007786:	f7fa f8b7 	bl	80018f8 <__aeabi_dmul>
 800778a:	0002      	movs	r2, r0
 800778c:	000b      	movs	r3, r1
 800778e:	0020      	movs	r0, r4
 8007790:	0029      	movs	r1, r5
 8007792:	f7f9 f909 	bl	80009a8 <__aeabi_dadd>
 8007796:	0004      	movs	r4, r0
 8007798:	000d      	movs	r5, r1
 800779a:	0002      	movs	r2, r0
 800779c:	000b      	movs	r3, r1
 800779e:	9800      	ldr	r0, [sp, #0]
 80077a0:	9901      	ldr	r1, [sp, #4]
 80077a2:	f7f9 f901 	bl	80009a8 <__aeabi_dadd>
 80077a6:	22e0      	movs	r2, #224	@ 0xe0
 80077a8:	2000      	movs	r0, #0
 80077aa:	4b62      	ldr	r3, [pc, #392]	@ (8007934 <__ieee754_pow+0x814>)
 80077ac:	0612      	lsls	r2, r2, #24
 80077ae:	0006      	movs	r6, r0
 80077b0:	000f      	movs	r7, r1
 80077b2:	f7fa f8a1 	bl	80018f8 <__aeabi_dmul>
 80077b6:	9006      	str	r0, [sp, #24]
 80077b8:	9107      	str	r1, [sp, #28]
 80077ba:	9a00      	ldr	r2, [sp, #0]
 80077bc:	9b01      	ldr	r3, [sp, #4]
 80077be:	0030      	movs	r0, r6
 80077c0:	0039      	movs	r1, r7
 80077c2:	f7fa fb61 	bl	8001e88 <__aeabi_dsub>
 80077c6:	0002      	movs	r2, r0
 80077c8:	000b      	movs	r3, r1
 80077ca:	0020      	movs	r0, r4
 80077cc:	0029      	movs	r1, r5
 80077ce:	f7fa fb5b 	bl	8001e88 <__aeabi_dsub>
 80077d2:	4a59      	ldr	r2, [pc, #356]	@ (8007938 <__ieee754_pow+0x818>)
 80077d4:	4b57      	ldr	r3, [pc, #348]	@ (8007934 <__ieee754_pow+0x814>)
 80077d6:	f7fa f88f 	bl	80018f8 <__aeabi_dmul>
 80077da:	4a58      	ldr	r2, [pc, #352]	@ (800793c <__ieee754_pow+0x81c>)
 80077dc:	0004      	movs	r4, r0
 80077de:	000d      	movs	r5, r1
 80077e0:	0030      	movs	r0, r6
 80077e2:	0039      	movs	r1, r7
 80077e4:	4b56      	ldr	r3, [pc, #344]	@ (8007940 <__ieee754_pow+0x820>)
 80077e6:	f7fa f887 	bl	80018f8 <__aeabi_dmul>
 80077ea:	0002      	movs	r2, r0
 80077ec:	000b      	movs	r3, r1
 80077ee:	0020      	movs	r0, r4
 80077f0:	0029      	movs	r1, r5
 80077f2:	f7f9 f8d9 	bl	80009a8 <__aeabi_dadd>
 80077f6:	9a0f      	ldr	r2, [sp, #60]	@ 0x3c
 80077f8:	4b52      	ldr	r3, [pc, #328]	@ (8007944 <__ieee754_pow+0x824>)
 80077fa:	189b      	adds	r3, r3, r2
 80077fc:	681a      	ldr	r2, [r3, #0]
 80077fe:	685b      	ldr	r3, [r3, #4]
 8007800:	f7f9 f8d2 	bl	80009a8 <__aeabi_dadd>
 8007804:	900a      	str	r0, [sp, #40]	@ 0x28
 8007806:	910b      	str	r1, [sp, #44]	@ 0x2c
 8007808:	980e      	ldr	r0, [sp, #56]	@ 0x38
 800780a:	f7fa ff37 	bl	800267c <__aeabi_i2d>
 800780e:	0004      	movs	r4, r0
 8007810:	000d      	movs	r5, r1
 8007812:	9806      	ldr	r0, [sp, #24]
 8007814:	9907      	ldr	r1, [sp, #28]
 8007816:	9a0f      	ldr	r2, [sp, #60]	@ 0x3c
 8007818:	4b4b      	ldr	r3, [pc, #300]	@ (8007948 <__ieee754_pow+0x828>)
 800781a:	189b      	adds	r3, r3, r2
 800781c:	681e      	ldr	r6, [r3, #0]
 800781e:	685f      	ldr	r7, [r3, #4]
 8007820:	9a0a      	ldr	r2, [sp, #40]	@ 0x28
 8007822:	9b0b      	ldr	r3, [sp, #44]	@ 0x2c
 8007824:	f7f9 f8c0 	bl	80009a8 <__aeabi_dadd>
 8007828:	0032      	movs	r2, r6
 800782a:	003b      	movs	r3, r7
 800782c:	f7f9 f8bc 	bl	80009a8 <__aeabi_dadd>
 8007830:	0022      	movs	r2, r4
 8007832:	002b      	movs	r3, r5
 8007834:	f7f9 f8b8 	bl	80009a8 <__aeabi_dadd>
 8007838:	2000      	movs	r0, #0
 800783a:	0022      	movs	r2, r4
 800783c:	002b      	movs	r3, r5
 800783e:	9000      	str	r0, [sp, #0]
 8007840:	9101      	str	r1, [sp, #4]
 8007842:	f7fa fb21 	bl	8001e88 <__aeabi_dsub>
 8007846:	0032      	movs	r2, r6
 8007848:	003b      	movs	r3, r7
 800784a:	f7fa fb1d 	bl	8001e88 <__aeabi_dsub>
 800784e:	9a06      	ldr	r2, [sp, #24]
 8007850:	9b07      	ldr	r3, [sp, #28]
 8007852:	f7fa fb19 	bl	8001e88 <__aeabi_dsub>
 8007856:	0002      	movs	r2, r0
 8007858:	000b      	movs	r3, r1
 800785a:	980a      	ldr	r0, [sp, #40]	@ 0x28
 800785c:	990b      	ldr	r1, [sp, #44]	@ 0x2c
 800785e:	e61c      	b.n	800749a <__ieee754_pow+0x37a>
 8007860:	4a3a      	ldr	r2, [pc, #232]	@ (800794c <__ieee754_pow+0x82c>)
 8007862:	4b3b      	ldr	r3, [pc, #236]	@ (8007950 <__ieee754_pow+0x830>)
 8007864:	9802      	ldr	r0, [sp, #8]
 8007866:	9903      	ldr	r1, [sp, #12]
 8007868:	f7f9 f89e 	bl	80009a8 <__aeabi_dadd>
 800786c:	0032      	movs	r2, r6
 800786e:	003b      	movs	r3, r7
 8007870:	9004      	str	r0, [sp, #16]
 8007872:	9105      	str	r1, [sp, #20]
 8007874:	9800      	ldr	r0, [sp, #0]
 8007876:	9901      	ldr	r1, [sp, #4]
 8007878:	f7fa fb06 	bl	8001e88 <__aeabi_dsub>
 800787c:	0002      	movs	r2, r0
 800787e:	000b      	movs	r3, r1
 8007880:	9804      	ldr	r0, [sp, #16]
 8007882:	9905      	ldr	r1, [sp, #20]
 8007884:	f7f8 fde6 	bl	8000454 <__aeabi_dcmpgt>
 8007888:	2800      	cmp	r0, #0
 800788a:	d000      	beq.n	800788e <__ieee754_pow+0x76e>
 800788c:	e647      	b.n	800751e <__ieee754_pow+0x3fe>
 800788e:	2580      	movs	r5, #128	@ 0x80
 8007890:	4b30      	ldr	r3, [pc, #192]	@ (8007954 <__ieee754_pow+0x834>)
 8007892:	036d      	lsls	r5, r5, #13
 8007894:	1524      	asrs	r4, r4, #20
 8007896:	18e4      	adds	r4, r4, r3
 8007898:	002b      	movs	r3, r5
 800789a:	4123      	asrs	r3, r4
 800789c:	9a06      	ldr	r2, [sp, #24]
 800789e:	4912      	ldr	r1, [pc, #72]	@ (80078e8 <__ieee754_pow+0x7c8>)
 80078a0:	189b      	adds	r3, r3, r2
 80078a2:	005a      	lsls	r2, r3, #1
 80078a4:	4c14      	ldr	r4, [pc, #80]	@ (80078f8 <__ieee754_pow+0x7d8>)
 80078a6:	0d52      	lsrs	r2, r2, #21
 80078a8:	1852      	adds	r2, r2, r1
 80078aa:	4114      	asrs	r4, r2
 80078ac:	401c      	ands	r4, r3
 80078ae:	0021      	movs	r1, r4
 80078b0:	2414      	movs	r4, #20
 80078b2:	031b      	lsls	r3, r3, #12
 80078b4:	0b1b      	lsrs	r3, r3, #12
 80078b6:	432b      	orrs	r3, r5
 80078b8:	1aa2      	subs	r2, r4, r2
 80078ba:	4113      	asrs	r3, r2
 80078bc:	9300      	str	r3, [sp, #0]
 80078be:	9b06      	ldr	r3, [sp, #24]
 80078c0:	2000      	movs	r0, #0
 80078c2:	2b00      	cmp	r3, #0
 80078c4:	da02      	bge.n	80078cc <__ieee754_pow+0x7ac>
 80078c6:	9b00      	ldr	r3, [sp, #0]
 80078c8:	425b      	negs	r3, r3
 80078ca:	9300      	str	r3, [sp, #0]
 80078cc:	0002      	movs	r2, r0
 80078ce:	000b      	movs	r3, r1
 80078d0:	0030      	movs	r0, r6
 80078d2:	0039      	movs	r1, r7
 80078d4:	f7fa fad8 	bl	8001e88 <__aeabi_dsub>
 80078d8:	0006      	movs	r6, r0
 80078da:	000f      	movs	r7, r1
 80078dc:	e065      	b.n	80079aa <__ieee754_pow+0x88a>
 80078de:	46c0      	nop			@ (mov r8, r8)
 80078e0:	7ff00000 	.word	0x7ff00000
 80078e4:	43400000 	.word	0x43400000
 80078e8:	fffffc01 	.word	0xfffffc01
 80078ec:	3ff00000 	.word	0x3ff00000
 80078f0:	0003988e 	.word	0x0003988e
 80078f4:	000bb679 	.word	0x000bb679
 80078f8:	fff00000 	.word	0xfff00000
 80078fc:	08008000 	.word	0x08008000
 8007900:	4a454eef 	.word	0x4a454eef
 8007904:	3fca7e28 	.word	0x3fca7e28
 8007908:	93c9db65 	.word	0x93c9db65
 800790c:	3fcd864a 	.word	0x3fcd864a
 8007910:	a91d4101 	.word	0xa91d4101
 8007914:	3fd17460 	.word	0x3fd17460
 8007918:	518f264d 	.word	0x518f264d
 800791c:	3fd55555 	.word	0x3fd55555
 8007920:	db6fabff 	.word	0xdb6fabff
 8007924:	3fdb6db6 	.word	0x3fdb6db6
 8007928:	33333303 	.word	0x33333303
 800792c:	3fe33333 	.word	0x3fe33333
 8007930:	40080000 	.word	0x40080000
 8007934:	3feec709 	.word	0x3feec709
 8007938:	dc3a03fd 	.word	0xdc3a03fd
 800793c:	145b01f5 	.word	0x145b01f5
 8007940:	be3e2fe0 	.word	0xbe3e2fe0
 8007944:	08007fe0 	.word	0x08007fe0
 8007948:	08007ff0 	.word	0x08007ff0
 800794c:	652b82fe 	.word	0x652b82fe
 8007950:	3c971547 	.word	0x3c971547
 8007954:	fffffc02 	.word	0xfffffc02
 8007958:	9b01      	ldr	r3, [sp, #4]
 800795a:	005c      	lsls	r4, r3, #1
 800795c:	4b72      	ldr	r3, [pc, #456]	@ (8007b28 <__ieee754_pow+0xa08>)
 800795e:	0864      	lsrs	r4, r4, #1
 8007960:	429c      	cmp	r4, r3
 8007962:	d91c      	bls.n	800799e <__ieee754_pow+0x87e>
 8007964:	4a71      	ldr	r2, [pc, #452]	@ (8007b2c <__ieee754_pow+0xa0c>)
 8007966:	9b01      	ldr	r3, [sp, #4]
 8007968:	189b      	adds	r3, r3, r2
 800796a:	9a00      	ldr	r2, [sp, #0]
 800796c:	4313      	orrs	r3, r2
 800796e:	d008      	beq.n	8007982 <__ieee754_pow+0x862>
 8007970:	9808      	ldr	r0, [sp, #32]
 8007972:	9909      	ldr	r1, [sp, #36]	@ 0x24
 8007974:	2300      	movs	r3, #0
 8007976:	2200      	movs	r2, #0
 8007978:	f7f8 fd58 	bl	800042c <__aeabi_dcmplt>
 800797c:	1e43      	subs	r3, r0, #1
 800797e:	4198      	sbcs	r0, r3
 8007980:	e4fc      	b.n	800737c <__ieee754_pow+0x25c>
 8007982:	0032      	movs	r2, r6
 8007984:	9800      	ldr	r0, [sp, #0]
 8007986:	9901      	ldr	r1, [sp, #4]
 8007988:	003b      	movs	r3, r7
 800798a:	f7fa fa7d 	bl	8001e88 <__aeabi_dsub>
 800798e:	9a02      	ldr	r2, [sp, #8]
 8007990:	9b03      	ldr	r3, [sp, #12]
 8007992:	f7f8 fd69 	bl	8000468 <__aeabi_dcmpge>
 8007996:	2800      	cmp	r0, #0
 8007998:	d1ea      	bne.n	8007970 <__ieee754_pow+0x850>
 800799a:	4c65      	ldr	r4, [pc, #404]	@ (8007b30 <__ieee754_pow+0xa10>)
 800799c:	e777      	b.n	800788e <__ieee754_pow+0x76e>
 800799e:	9a04      	ldr	r2, [sp, #16]
 80079a0:	4b64      	ldr	r3, [pc, #400]	@ (8007b34 <__ieee754_pow+0xa14>)
 80079a2:	9200      	str	r2, [sp, #0]
 80079a4:	429c      	cmp	r4, r3
 80079a6:	d900      	bls.n	80079aa <__ieee754_pow+0x88a>
 80079a8:	e771      	b.n	800788e <__ieee754_pow+0x76e>
 80079aa:	9a02      	ldr	r2, [sp, #8]
 80079ac:	9b03      	ldr	r3, [sp, #12]
 80079ae:	0030      	movs	r0, r6
 80079b0:	0039      	movs	r1, r7
 80079b2:	f7f8 fff9 	bl	80009a8 <__aeabi_dadd>
 80079b6:	2000      	movs	r0, #0
 80079b8:	2200      	movs	r2, #0
 80079ba:	4b5f      	ldr	r3, [pc, #380]	@ (8007b38 <__ieee754_pow+0xa18>)
 80079bc:	9004      	str	r0, [sp, #16]
 80079be:	9105      	str	r1, [sp, #20]
 80079c0:	f7f9 ff9a 	bl	80018f8 <__aeabi_dmul>
 80079c4:	0032      	movs	r2, r6
 80079c6:	003b      	movs	r3, r7
 80079c8:	9006      	str	r0, [sp, #24]
 80079ca:	9107      	str	r1, [sp, #28]
 80079cc:	9804      	ldr	r0, [sp, #16]
 80079ce:	9905      	ldr	r1, [sp, #20]
 80079d0:	f7fa fa5a 	bl	8001e88 <__aeabi_dsub>
 80079d4:	0002      	movs	r2, r0
 80079d6:	000b      	movs	r3, r1
 80079d8:	9802      	ldr	r0, [sp, #8]
 80079da:	9903      	ldr	r1, [sp, #12]
 80079dc:	f7fa fa54 	bl	8001e88 <__aeabi_dsub>
 80079e0:	4a56      	ldr	r2, [pc, #344]	@ (8007b3c <__ieee754_pow+0xa1c>)
 80079e2:	4b57      	ldr	r3, [pc, #348]	@ (8007b40 <__ieee754_pow+0xa20>)
 80079e4:	f7f9 ff88 	bl	80018f8 <__aeabi_dmul>
 80079e8:	4a56      	ldr	r2, [pc, #344]	@ (8007b44 <__ieee754_pow+0xa24>)
 80079ea:	0004      	movs	r4, r0
 80079ec:	000d      	movs	r5, r1
 80079ee:	9804      	ldr	r0, [sp, #16]
 80079f0:	9905      	ldr	r1, [sp, #20]
 80079f2:	4b55      	ldr	r3, [pc, #340]	@ (8007b48 <__ieee754_pow+0xa28>)
 80079f4:	f7f9 ff80 	bl	80018f8 <__aeabi_dmul>
 80079f8:	0002      	movs	r2, r0
 80079fa:	000b      	movs	r3, r1
 80079fc:	0020      	movs	r0, r4
 80079fe:	0029      	movs	r1, r5
 8007a00:	f7f8 ffd2 	bl	80009a8 <__aeabi_dadd>
 8007a04:	0004      	movs	r4, r0
 8007a06:	000d      	movs	r5, r1
 8007a08:	0002      	movs	r2, r0
 8007a0a:	000b      	movs	r3, r1
 8007a0c:	9806      	ldr	r0, [sp, #24]
 8007a0e:	9907      	ldr	r1, [sp, #28]
 8007a10:	f7f8 ffca 	bl	80009a8 <__aeabi_dadd>
 8007a14:	9a06      	ldr	r2, [sp, #24]
 8007a16:	9b07      	ldr	r3, [sp, #28]
 8007a18:	0006      	movs	r6, r0
 8007a1a:	000f      	movs	r7, r1
 8007a1c:	f7fa fa34 	bl	8001e88 <__aeabi_dsub>
 8007a20:	0002      	movs	r2, r0
 8007a22:	000b      	movs	r3, r1
 8007a24:	0020      	movs	r0, r4
 8007a26:	0029      	movs	r1, r5
 8007a28:	f7fa fa2e 	bl	8001e88 <__aeabi_dsub>
 8007a2c:	0032      	movs	r2, r6
 8007a2e:	9002      	str	r0, [sp, #8]
 8007a30:	9103      	str	r1, [sp, #12]
 8007a32:	003b      	movs	r3, r7
 8007a34:	0030      	movs	r0, r6
 8007a36:	0039      	movs	r1, r7
 8007a38:	f7f9 ff5e 	bl	80018f8 <__aeabi_dmul>
 8007a3c:	0004      	movs	r4, r0
 8007a3e:	000d      	movs	r5, r1
 8007a40:	4a42      	ldr	r2, [pc, #264]	@ (8007b4c <__ieee754_pow+0xa2c>)
 8007a42:	4b43      	ldr	r3, [pc, #268]	@ (8007b50 <__ieee754_pow+0xa30>)
 8007a44:	f7f9 ff58 	bl	80018f8 <__aeabi_dmul>
 8007a48:	4a42      	ldr	r2, [pc, #264]	@ (8007b54 <__ieee754_pow+0xa34>)
 8007a4a:	4b43      	ldr	r3, [pc, #268]	@ (8007b58 <__ieee754_pow+0xa38>)
 8007a4c:	f7fa fa1c 	bl	8001e88 <__aeabi_dsub>
 8007a50:	0022      	movs	r2, r4
 8007a52:	002b      	movs	r3, r5
 8007a54:	f7f9 ff50 	bl	80018f8 <__aeabi_dmul>
 8007a58:	4a40      	ldr	r2, [pc, #256]	@ (8007b5c <__ieee754_pow+0xa3c>)
 8007a5a:	4b41      	ldr	r3, [pc, #260]	@ (8007b60 <__ieee754_pow+0xa40>)
 8007a5c:	f7f8 ffa4 	bl	80009a8 <__aeabi_dadd>
 8007a60:	0022      	movs	r2, r4
 8007a62:	002b      	movs	r3, r5
 8007a64:	f7f9 ff48 	bl	80018f8 <__aeabi_dmul>
 8007a68:	4a3e      	ldr	r2, [pc, #248]	@ (8007b64 <__ieee754_pow+0xa44>)
 8007a6a:	4b3f      	ldr	r3, [pc, #252]	@ (8007b68 <__ieee754_pow+0xa48>)
 8007a6c:	f7fa fa0c 	bl	8001e88 <__aeabi_dsub>
 8007a70:	0022      	movs	r2, r4
 8007a72:	002b      	movs	r3, r5
 8007a74:	f7f9 ff40 	bl	80018f8 <__aeabi_dmul>
 8007a78:	4a3c      	ldr	r2, [pc, #240]	@ (8007b6c <__ieee754_pow+0xa4c>)
 8007a7a:	4b3d      	ldr	r3, [pc, #244]	@ (8007b70 <__ieee754_pow+0xa50>)
 8007a7c:	f7f8 ff94 	bl	80009a8 <__aeabi_dadd>
 8007a80:	0022      	movs	r2, r4
 8007a82:	002b      	movs	r3, r5
 8007a84:	f7f9 ff38 	bl	80018f8 <__aeabi_dmul>
 8007a88:	0002      	movs	r2, r0
 8007a8a:	000b      	movs	r3, r1
 8007a8c:	0030      	movs	r0, r6
 8007a8e:	0039      	movs	r1, r7
 8007a90:	f7fa f9fa 	bl	8001e88 <__aeabi_dsub>
 8007a94:	0004      	movs	r4, r0
 8007a96:	000d      	movs	r5, r1
 8007a98:	0002      	movs	r2, r0
 8007a9a:	000b      	movs	r3, r1
 8007a9c:	0030      	movs	r0, r6
 8007a9e:	0039      	movs	r1, r7
 8007aa0:	f7f9 ff2a 	bl	80018f8 <__aeabi_dmul>
 8007aa4:	2380      	movs	r3, #128	@ 0x80
 8007aa6:	9004      	str	r0, [sp, #16]
 8007aa8:	9105      	str	r1, [sp, #20]
 8007aaa:	2200      	movs	r2, #0
 8007aac:	0020      	movs	r0, r4
 8007aae:	0029      	movs	r1, r5
 8007ab0:	05db      	lsls	r3, r3, #23
 8007ab2:	f7fa f9e9 	bl	8001e88 <__aeabi_dsub>
 8007ab6:	0002      	movs	r2, r0
 8007ab8:	000b      	movs	r3, r1
 8007aba:	9804      	ldr	r0, [sp, #16]
 8007abc:	9905      	ldr	r1, [sp, #20]
 8007abe:	f7f9 fad7 	bl	8001070 <__aeabi_ddiv>
 8007ac2:	9a02      	ldr	r2, [sp, #8]
 8007ac4:	9b03      	ldr	r3, [sp, #12]
 8007ac6:	0004      	movs	r4, r0
 8007ac8:	000d      	movs	r5, r1
 8007aca:	0030      	movs	r0, r6
 8007acc:	0039      	movs	r1, r7
 8007ace:	f7f9 ff13 	bl	80018f8 <__aeabi_dmul>
 8007ad2:	9a02      	ldr	r2, [sp, #8]
 8007ad4:	9b03      	ldr	r3, [sp, #12]
 8007ad6:	f7f8 ff67 	bl	80009a8 <__aeabi_dadd>
 8007ada:	0002      	movs	r2, r0
 8007adc:	000b      	movs	r3, r1
 8007ade:	0020      	movs	r0, r4
 8007ae0:	0029      	movs	r1, r5
 8007ae2:	f7fa f9d1 	bl	8001e88 <__aeabi_dsub>
 8007ae6:	0032      	movs	r2, r6
 8007ae8:	003b      	movs	r3, r7
 8007aea:	f7fa f9cd 	bl	8001e88 <__aeabi_dsub>
 8007aee:	0002      	movs	r2, r0
 8007af0:	000b      	movs	r3, r1
 8007af2:	2000      	movs	r0, #0
 8007af4:	491f      	ldr	r1, [pc, #124]	@ (8007b74 <__ieee754_pow+0xa54>)
 8007af6:	f7fa f9c7 	bl	8001e88 <__aeabi_dsub>
 8007afa:	9b00      	ldr	r3, [sp, #0]
 8007afc:	051b      	lsls	r3, r3, #20
 8007afe:	185b      	adds	r3, r3, r1
 8007b00:	151a      	asrs	r2, r3, #20
 8007b02:	2a00      	cmp	r2, #0
 8007b04:	dc06      	bgt.n	8007b14 <__ieee754_pow+0x9f4>
 8007b06:	9a00      	ldr	r2, [sp, #0]
 8007b08:	f000 f83a 	bl	8007b80 <scalbn>
 8007b0c:	9a08      	ldr	r2, [sp, #32]
 8007b0e:	9b09      	ldr	r3, [sp, #36]	@ 0x24
 8007b10:	f7ff fbee 	bl	80072f0 <__ieee754_pow+0x1d0>
 8007b14:	0019      	movs	r1, r3
 8007b16:	e7f9      	b.n	8007b0c <__ieee754_pow+0x9ec>
 8007b18:	2300      	movs	r3, #0
 8007b1a:	4c16      	ldr	r4, [pc, #88]	@ (8007b74 <__ieee754_pow+0xa54>)
 8007b1c:	f7ff fbcb 	bl	80072b6 <__ieee754_pow+0x196>
 8007b20:	2300      	movs	r3, #0
 8007b22:	2400      	movs	r4, #0
 8007b24:	f7ff fbc7 	bl	80072b6 <__ieee754_pow+0x196>
 8007b28:	4090cbff 	.word	0x4090cbff
 8007b2c:	3f6f3400 	.word	0x3f6f3400
 8007b30:	4090cc00 	.word	0x4090cc00
 8007b34:	3fe00000 	.word	0x3fe00000
 8007b38:	3fe62e43 	.word	0x3fe62e43
 8007b3c:	fefa39ef 	.word	0xfefa39ef
 8007b40:	3fe62e42 	.word	0x3fe62e42
 8007b44:	0ca86c39 	.word	0x0ca86c39
 8007b48:	be205c61 	.word	0xbe205c61
 8007b4c:	72bea4d0 	.word	0x72bea4d0
 8007b50:	3e663769 	.word	0x3e663769
 8007b54:	c5d26bf1 	.word	0xc5d26bf1
 8007b58:	3ebbbd41 	.word	0x3ebbbd41
 8007b5c:	af25de2c 	.word	0xaf25de2c
 8007b60:	3f11566a 	.word	0x3f11566a
 8007b64:	16bebd93 	.word	0x16bebd93
 8007b68:	3f66c16c 	.word	0x3f66c16c
 8007b6c:	5555553e 	.word	0x5555553e
 8007b70:	3fc55555 	.word	0x3fc55555
 8007b74:	3ff00000 	.word	0x3ff00000

08007b78 <fabs>:
 8007b78:	0049      	lsls	r1, r1, #1
 8007b7a:	084b      	lsrs	r3, r1, #1
 8007b7c:	0019      	movs	r1, r3
 8007b7e:	4770      	bx	lr

08007b80 <scalbn>:
 8007b80:	004b      	lsls	r3, r1, #1
 8007b82:	b570      	push	{r4, r5, r6, lr}
 8007b84:	0d5b      	lsrs	r3, r3, #21
 8007b86:	0014      	movs	r4, r2
 8007b88:	000d      	movs	r5, r1
 8007b8a:	2b00      	cmp	r3, #0
 8007b8c:	d10f      	bne.n	8007bae <scalbn+0x2e>
 8007b8e:	004b      	lsls	r3, r1, #1
 8007b90:	085b      	lsrs	r3, r3, #1
 8007b92:	4303      	orrs	r3, r0
 8007b94:	d012      	beq.n	8007bbc <scalbn+0x3c>
 8007b96:	4b23      	ldr	r3, [pc, #140]	@ (8007c24 <scalbn+0xa4>)
 8007b98:	2200      	movs	r2, #0
 8007b9a:	f7f9 fead 	bl	80018f8 <__aeabi_dmul>
 8007b9e:	4b22      	ldr	r3, [pc, #136]	@ (8007c28 <scalbn+0xa8>)
 8007ba0:	429c      	cmp	r4, r3
 8007ba2:	da0c      	bge.n	8007bbe <scalbn+0x3e>
 8007ba4:	4a21      	ldr	r2, [pc, #132]	@ (8007c2c <scalbn+0xac>)
 8007ba6:	4b22      	ldr	r3, [pc, #136]	@ (8007c30 <scalbn+0xb0>)
 8007ba8:	f7f9 fea6 	bl	80018f8 <__aeabi_dmul>
 8007bac:	e006      	b.n	8007bbc <scalbn+0x3c>
 8007bae:	4a21      	ldr	r2, [pc, #132]	@ (8007c34 <scalbn+0xb4>)
 8007bb0:	4293      	cmp	r3, r2
 8007bb2:	d108      	bne.n	8007bc6 <scalbn+0x46>
 8007bb4:	0002      	movs	r2, r0
 8007bb6:	000b      	movs	r3, r1
 8007bb8:	f7f8 fef6 	bl	80009a8 <__aeabi_dadd>
 8007bbc:	bd70      	pop	{r4, r5, r6, pc}
 8007bbe:	000d      	movs	r5, r1
 8007bc0:	004b      	lsls	r3, r1, #1
 8007bc2:	0d5b      	lsrs	r3, r3, #21
 8007bc4:	3b36      	subs	r3, #54	@ 0x36
 8007bc6:	4a1c      	ldr	r2, [pc, #112]	@ (8007c38 <scalbn+0xb8>)
 8007bc8:	4294      	cmp	r4, r2
 8007bca:	dd0a      	ble.n	8007be2 <scalbn+0x62>
 8007bcc:	4c1b      	ldr	r4, [pc, #108]	@ (8007c3c <scalbn+0xbc>)
 8007bce:	4d1c      	ldr	r5, [pc, #112]	@ (8007c40 <scalbn+0xc0>)
 8007bd0:	2900      	cmp	r1, #0
 8007bd2:	da01      	bge.n	8007bd8 <scalbn+0x58>
 8007bd4:	4c19      	ldr	r4, [pc, #100]	@ (8007c3c <scalbn+0xbc>)
 8007bd6:	4d1b      	ldr	r5, [pc, #108]	@ (8007c44 <scalbn+0xc4>)
 8007bd8:	4a18      	ldr	r2, [pc, #96]	@ (8007c3c <scalbn+0xbc>)
 8007bda:	4b19      	ldr	r3, [pc, #100]	@ (8007c40 <scalbn+0xc0>)
 8007bdc:	0020      	movs	r0, r4
 8007bde:	0029      	movs	r1, r5
 8007be0:	e7e2      	b.n	8007ba8 <scalbn+0x28>
 8007be2:	18e2      	adds	r2, r4, r3
 8007be4:	4b18      	ldr	r3, [pc, #96]	@ (8007c48 <scalbn+0xc8>)
 8007be6:	429a      	cmp	r2, r3
 8007be8:	dcf0      	bgt.n	8007bcc <scalbn+0x4c>
 8007bea:	2a00      	cmp	r2, #0
 8007bec:	dd05      	ble.n	8007bfa <scalbn+0x7a>
 8007bee:	4b17      	ldr	r3, [pc, #92]	@ (8007c4c <scalbn+0xcc>)
 8007bf0:	0512      	lsls	r2, r2, #20
 8007bf2:	402b      	ands	r3, r5
 8007bf4:	431a      	orrs	r2, r3
 8007bf6:	0011      	movs	r1, r2
 8007bf8:	e7e0      	b.n	8007bbc <scalbn+0x3c>
 8007bfa:	0013      	movs	r3, r2
 8007bfc:	3335      	adds	r3, #53	@ 0x35
 8007bfe:	da08      	bge.n	8007c12 <scalbn+0x92>
 8007c00:	4c0a      	ldr	r4, [pc, #40]	@ (8007c2c <scalbn+0xac>)
 8007c02:	4d0b      	ldr	r5, [pc, #44]	@ (8007c30 <scalbn+0xb0>)
 8007c04:	2900      	cmp	r1, #0
 8007c06:	da01      	bge.n	8007c0c <scalbn+0x8c>
 8007c08:	4c08      	ldr	r4, [pc, #32]	@ (8007c2c <scalbn+0xac>)
 8007c0a:	4d11      	ldr	r5, [pc, #68]	@ (8007c50 <scalbn+0xd0>)
 8007c0c:	4a07      	ldr	r2, [pc, #28]	@ (8007c2c <scalbn+0xac>)
 8007c0e:	4b08      	ldr	r3, [pc, #32]	@ (8007c30 <scalbn+0xb0>)
 8007c10:	e7e4      	b.n	8007bdc <scalbn+0x5c>
 8007c12:	4b0e      	ldr	r3, [pc, #56]	@ (8007c4c <scalbn+0xcc>)
 8007c14:	3236      	adds	r2, #54	@ 0x36
 8007c16:	401d      	ands	r5, r3
 8007c18:	0512      	lsls	r2, r2, #20
 8007c1a:	432a      	orrs	r2, r5
 8007c1c:	0011      	movs	r1, r2
 8007c1e:	4b0d      	ldr	r3, [pc, #52]	@ (8007c54 <scalbn+0xd4>)
 8007c20:	2200      	movs	r2, #0
 8007c22:	e7c1      	b.n	8007ba8 <scalbn+0x28>
 8007c24:	43500000 	.word	0x43500000
 8007c28:	ffff3cb0 	.word	0xffff3cb0
 8007c2c:	c2f8f359 	.word	0xc2f8f359
 8007c30:	01a56e1f 	.word	0x01a56e1f
 8007c34:	000007ff 	.word	0x000007ff
 8007c38:	0000c350 	.word	0x0000c350
 8007c3c:	8800759c 	.word	0x8800759c
 8007c40:	7e37e43c 	.word	0x7e37e43c
 8007c44:	fe37e43c 	.word	0xfe37e43c
 8007c48:	000007fe 	.word	0x000007fe
 8007c4c:	800fffff 	.word	0x800fffff
 8007c50:	81a56e1f 	.word	0x81a56e1f
 8007c54:	3c900000 	.word	0x3c900000

08007c58 <with_errno>:
 8007c58:	b570      	push	{r4, r5, r6, lr}
 8007c5a:	000d      	movs	r5, r1
 8007c5c:	0016      	movs	r6, r2
 8007c5e:	0004      	movs	r4, r0
 8007c60:	f7ff f9b4 	bl	8006fcc <__errno>
 8007c64:	0029      	movs	r1, r5
 8007c66:	6006      	str	r6, [r0, #0]
 8007c68:	0020      	movs	r0, r4
 8007c6a:	bd70      	pop	{r4, r5, r6, pc}

08007c6c <xflow>:
 8007c6c:	b537      	push	{r0, r1, r2, r4, r5, lr}
 8007c6e:	0014      	movs	r4, r2
 8007c70:	001d      	movs	r5, r3
 8007c72:	2800      	cmp	r0, #0
 8007c74:	d002      	beq.n	8007c7c <xflow+0x10>
 8007c76:	2180      	movs	r1, #128	@ 0x80
 8007c78:	0609      	lsls	r1, r1, #24
 8007c7a:	185b      	adds	r3, r3, r1
 8007c7c:	9200      	str	r2, [sp, #0]
 8007c7e:	9301      	str	r3, [sp, #4]
 8007c80:	9a00      	ldr	r2, [sp, #0]
 8007c82:	9b01      	ldr	r3, [sp, #4]
 8007c84:	0020      	movs	r0, r4
 8007c86:	0029      	movs	r1, r5
 8007c88:	f7f9 fe36 	bl	80018f8 <__aeabi_dmul>
 8007c8c:	2222      	movs	r2, #34	@ 0x22
 8007c8e:	f7ff ffe3 	bl	8007c58 <with_errno>
 8007c92:	b003      	add	sp, #12
 8007c94:	bd30      	pop	{r4, r5, pc}

08007c96 <__math_uflow>:
 8007c96:	2380      	movs	r3, #128	@ 0x80
 8007c98:	b510      	push	{r4, lr}
 8007c9a:	2200      	movs	r2, #0
 8007c9c:	055b      	lsls	r3, r3, #21
 8007c9e:	f7ff ffe5 	bl	8007c6c <xflow>
 8007ca2:	bd10      	pop	{r4, pc}

08007ca4 <__math_oflow>:
 8007ca4:	23e0      	movs	r3, #224	@ 0xe0
 8007ca6:	b510      	push	{r4, lr}
 8007ca8:	2200      	movs	r2, #0
 8007caa:	05db      	lsls	r3, r3, #23
 8007cac:	f7ff ffde 	bl	8007c6c <xflow>
 8007cb0:	bd10      	pop	{r4, pc}
	...

08007cb4 <__ieee754_sqrt>:
 8007cb4:	b5f0      	push	{r4, r5, r6, r7, lr}
 8007cb6:	000a      	movs	r2, r1
 8007cb8:	000d      	movs	r5, r1
 8007cba:	496d      	ldr	r1, [pc, #436]	@ (8007e70 <__ieee754_sqrt+0x1bc>)
 8007cbc:	0004      	movs	r4, r0
 8007cbe:	0003      	movs	r3, r0
 8007cc0:	0008      	movs	r0, r1
 8007cc2:	b087      	sub	sp, #28
 8007cc4:	4028      	ands	r0, r5
 8007cc6:	4288      	cmp	r0, r1
 8007cc8:	d111      	bne.n	8007cee <__ieee754_sqrt+0x3a>
 8007cca:	0022      	movs	r2, r4
 8007ccc:	002b      	movs	r3, r5
 8007cce:	0020      	movs	r0, r4
 8007cd0:	0029      	movs	r1, r5
 8007cd2:	f7f9 fe11 	bl	80018f8 <__aeabi_dmul>
 8007cd6:	0002      	movs	r2, r0
 8007cd8:	000b      	movs	r3, r1
 8007cda:	0020      	movs	r0, r4
 8007cdc:	0029      	movs	r1, r5
 8007cde:	f7f8 fe63 	bl	80009a8 <__aeabi_dadd>
 8007ce2:	0004      	movs	r4, r0
 8007ce4:	000d      	movs	r5, r1
 8007ce6:	0020      	movs	r0, r4
 8007ce8:	0029      	movs	r1, r5
 8007cea:	b007      	add	sp, #28
 8007cec:	bdf0      	pop	{r4, r5, r6, r7, pc}
 8007cee:	2d00      	cmp	r5, #0
 8007cf0:	dc11      	bgt.n	8007d16 <__ieee754_sqrt+0x62>
 8007cf2:	0069      	lsls	r1, r5, #1
 8007cf4:	0849      	lsrs	r1, r1, #1
 8007cf6:	4321      	orrs	r1, r4
 8007cf8:	d0f5      	beq.n	8007ce6 <__ieee754_sqrt+0x32>
 8007cfa:	2000      	movs	r0, #0
 8007cfc:	4285      	cmp	r5, r0
 8007cfe:	d010      	beq.n	8007d22 <__ieee754_sqrt+0x6e>
 8007d00:	0022      	movs	r2, r4
 8007d02:	002b      	movs	r3, r5
 8007d04:	0020      	movs	r0, r4
 8007d06:	0029      	movs	r1, r5
 8007d08:	f7fa f8be 	bl	8001e88 <__aeabi_dsub>
 8007d0c:	0002      	movs	r2, r0
 8007d0e:	000b      	movs	r3, r1
 8007d10:	f7f9 f9ae 	bl	8001070 <__aeabi_ddiv>
 8007d14:	e7e5      	b.n	8007ce2 <__ieee754_sqrt+0x2e>
 8007d16:	1528      	asrs	r0, r5, #20
 8007d18:	d115      	bne.n	8007d46 <__ieee754_sqrt+0x92>
 8007d1a:	2480      	movs	r4, #128	@ 0x80
 8007d1c:	2100      	movs	r1, #0
 8007d1e:	0364      	lsls	r4, r4, #13
 8007d20:	e007      	b.n	8007d32 <__ieee754_sqrt+0x7e>
 8007d22:	0ada      	lsrs	r2, r3, #11
 8007d24:	3815      	subs	r0, #21
 8007d26:	055b      	lsls	r3, r3, #21
 8007d28:	2a00      	cmp	r2, #0
 8007d2a:	d0fa      	beq.n	8007d22 <__ieee754_sqrt+0x6e>
 8007d2c:	e7f5      	b.n	8007d1a <__ieee754_sqrt+0x66>
 8007d2e:	0052      	lsls	r2, r2, #1
 8007d30:	3101      	adds	r1, #1
 8007d32:	4222      	tst	r2, r4
 8007d34:	d0fb      	beq.n	8007d2e <__ieee754_sqrt+0x7a>
 8007d36:	1e4c      	subs	r4, r1, #1
 8007d38:	1b00      	subs	r0, r0, r4
 8007d3a:	2420      	movs	r4, #32
 8007d3c:	001d      	movs	r5, r3
 8007d3e:	1a64      	subs	r4, r4, r1
 8007d40:	40e5      	lsrs	r5, r4
 8007d42:	408b      	lsls	r3, r1
 8007d44:	432a      	orrs	r2, r5
 8007d46:	494b      	ldr	r1, [pc, #300]	@ (8007e74 <__ieee754_sqrt+0x1c0>)
 8007d48:	0312      	lsls	r2, r2, #12
 8007d4a:	1844      	adds	r4, r0, r1
 8007d4c:	2180      	movs	r1, #128	@ 0x80
 8007d4e:	0b12      	lsrs	r2, r2, #12
 8007d50:	0349      	lsls	r1, r1, #13
 8007d52:	4311      	orrs	r1, r2
 8007d54:	07c0      	lsls	r0, r0, #31
 8007d56:	d403      	bmi.n	8007d60 <__ieee754_sqrt+0xac>
 8007d58:	0fda      	lsrs	r2, r3, #31
 8007d5a:	0049      	lsls	r1, r1, #1
 8007d5c:	1851      	adds	r1, r2, r1
 8007d5e:	005b      	lsls	r3, r3, #1
 8007d60:	2500      	movs	r5, #0
 8007d62:	1062      	asrs	r2, r4, #1
 8007d64:	0049      	lsls	r1, r1, #1
 8007d66:	2480      	movs	r4, #128	@ 0x80
 8007d68:	9205      	str	r2, [sp, #20]
 8007d6a:	0fda      	lsrs	r2, r3, #31
 8007d6c:	1852      	adds	r2, r2, r1
 8007d6e:	2016      	movs	r0, #22
 8007d70:	0029      	movs	r1, r5
 8007d72:	005b      	lsls	r3, r3, #1
 8007d74:	03a4      	lsls	r4, r4, #14
 8007d76:	190e      	adds	r6, r1, r4
 8007d78:	4296      	cmp	r6, r2
 8007d7a:	dc02      	bgt.n	8007d82 <__ieee754_sqrt+0xce>
 8007d7c:	1931      	adds	r1, r6, r4
 8007d7e:	1b92      	subs	r2, r2, r6
 8007d80:	192d      	adds	r5, r5, r4
 8007d82:	0fde      	lsrs	r6, r3, #31
 8007d84:	0052      	lsls	r2, r2, #1
 8007d86:	3801      	subs	r0, #1
 8007d88:	1992      	adds	r2, r2, r6
 8007d8a:	005b      	lsls	r3, r3, #1
 8007d8c:	0864      	lsrs	r4, r4, #1
 8007d8e:	2800      	cmp	r0, #0
 8007d90:	d1f1      	bne.n	8007d76 <__ieee754_sqrt+0xc2>
 8007d92:	2620      	movs	r6, #32
 8007d94:	2780      	movs	r7, #128	@ 0x80
 8007d96:	0004      	movs	r4, r0
 8007d98:	9604      	str	r6, [sp, #16]
 8007d9a:	063f      	lsls	r7, r7, #24
 8007d9c:	19c6      	adds	r6, r0, r7
 8007d9e:	46b4      	mov	ip, r6
 8007da0:	4291      	cmp	r1, r2
 8007da2:	db02      	blt.n	8007daa <__ieee754_sqrt+0xf6>
 8007da4:	d114      	bne.n	8007dd0 <__ieee754_sqrt+0x11c>
 8007da6:	429e      	cmp	r6, r3
 8007da8:	d812      	bhi.n	8007dd0 <__ieee754_sqrt+0x11c>
 8007daa:	4660      	mov	r0, ip
 8007dac:	4666      	mov	r6, ip
 8007dae:	19c0      	adds	r0, r0, r7
 8007db0:	9100      	str	r1, [sp, #0]
 8007db2:	2e00      	cmp	r6, #0
 8007db4:	da03      	bge.n	8007dbe <__ieee754_sqrt+0x10a>
 8007db6:	43c6      	mvns	r6, r0
 8007db8:	0ff6      	lsrs	r6, r6, #31
 8007dba:	198e      	adds	r6, r1, r6
 8007dbc:	9600      	str	r6, [sp, #0]
 8007dbe:	1a52      	subs	r2, r2, r1
 8007dc0:	4563      	cmp	r3, ip
 8007dc2:	4189      	sbcs	r1, r1
 8007dc4:	4249      	negs	r1, r1
 8007dc6:	1a52      	subs	r2, r2, r1
 8007dc8:	4661      	mov	r1, ip
 8007dca:	1a5b      	subs	r3, r3, r1
 8007dcc:	9900      	ldr	r1, [sp, #0]
 8007dce:	19e4      	adds	r4, r4, r7
 8007dd0:	0fde      	lsrs	r6, r3, #31
 8007dd2:	0052      	lsls	r2, r2, #1
 8007dd4:	1992      	adds	r2, r2, r6
 8007dd6:	9e04      	ldr	r6, [sp, #16]
 8007dd8:	005b      	lsls	r3, r3, #1
 8007dda:	3e01      	subs	r6, #1
 8007ddc:	087f      	lsrs	r7, r7, #1
 8007dde:	9604      	str	r6, [sp, #16]
 8007de0:	2e00      	cmp	r6, #0
 8007de2:	d1db      	bne.n	8007d9c <__ieee754_sqrt+0xe8>
 8007de4:	431a      	orrs	r2, r3
 8007de6:	d01f      	beq.n	8007e28 <__ieee754_sqrt+0x174>
 8007de8:	4e23      	ldr	r6, [pc, #140]	@ (8007e78 <__ieee754_sqrt+0x1c4>)
 8007dea:	4f24      	ldr	r7, [pc, #144]	@ (8007e7c <__ieee754_sqrt+0x1c8>)
 8007dec:	6830      	ldr	r0, [r6, #0]
 8007dee:	6871      	ldr	r1, [r6, #4]
 8007df0:	683a      	ldr	r2, [r7, #0]
 8007df2:	687b      	ldr	r3, [r7, #4]
 8007df4:	9200      	str	r2, [sp, #0]
 8007df6:	9301      	str	r3, [sp, #4]
 8007df8:	6832      	ldr	r2, [r6, #0]
 8007dfa:	6873      	ldr	r3, [r6, #4]
 8007dfc:	9202      	str	r2, [sp, #8]
 8007dfe:	9303      	str	r3, [sp, #12]
 8007e00:	9a00      	ldr	r2, [sp, #0]
 8007e02:	9b01      	ldr	r3, [sp, #4]
 8007e04:	f7fa f840 	bl	8001e88 <__aeabi_dsub>
 8007e08:	0002      	movs	r2, r0
 8007e0a:	000b      	movs	r3, r1
 8007e0c:	9802      	ldr	r0, [sp, #8]
 8007e0e:	9903      	ldr	r1, [sp, #12]
 8007e10:	f7f8 fb16 	bl	8000440 <__aeabi_dcmple>
 8007e14:	2800      	cmp	r0, #0
 8007e16:	d007      	beq.n	8007e28 <__ieee754_sqrt+0x174>
 8007e18:	6830      	ldr	r0, [r6, #0]
 8007e1a:	6871      	ldr	r1, [r6, #4]
 8007e1c:	683a      	ldr	r2, [r7, #0]
 8007e1e:	687b      	ldr	r3, [r7, #4]
 8007e20:	1c67      	adds	r7, r4, #1
 8007e22:	d10f      	bne.n	8007e44 <__ieee754_sqrt+0x190>
 8007e24:	9c04      	ldr	r4, [sp, #16]
 8007e26:	3501      	adds	r5, #1
 8007e28:	4b15      	ldr	r3, [pc, #84]	@ (8007e80 <__ieee754_sqrt+0x1cc>)
 8007e2a:	106a      	asrs	r2, r5, #1
 8007e2c:	18d2      	adds	r2, r2, r3
 8007e2e:	0863      	lsrs	r3, r4, #1
 8007e30:	07ed      	lsls	r5, r5, #31
 8007e32:	d502      	bpl.n	8007e3a <__ieee754_sqrt+0x186>
 8007e34:	2180      	movs	r1, #128	@ 0x80
 8007e36:	0609      	lsls	r1, r1, #24
 8007e38:	430b      	orrs	r3, r1
 8007e3a:	9905      	ldr	r1, [sp, #20]
 8007e3c:	001c      	movs	r4, r3
 8007e3e:	0509      	lsls	r1, r1, #20
 8007e40:	188d      	adds	r5, r1, r2
 8007e42:	e750      	b.n	8007ce6 <__ieee754_sqrt+0x32>
 8007e44:	f7f8 fdb0 	bl	80009a8 <__aeabi_dadd>
 8007e48:	6877      	ldr	r7, [r6, #4]
 8007e4a:	6836      	ldr	r6, [r6, #0]
 8007e4c:	0002      	movs	r2, r0
 8007e4e:	000b      	movs	r3, r1
 8007e50:	0030      	movs	r0, r6
 8007e52:	0039      	movs	r1, r7
 8007e54:	f7f8 faea 	bl	800042c <__aeabi_dcmplt>
 8007e58:	2800      	cmp	r0, #0
 8007e5a:	d004      	beq.n	8007e66 <__ieee754_sqrt+0x1b2>
 8007e5c:	3402      	adds	r4, #2
 8007e5e:	4263      	negs	r3, r4
 8007e60:	4163      	adcs	r3, r4
 8007e62:	18ed      	adds	r5, r5, r3
 8007e64:	e7e0      	b.n	8007e28 <__ieee754_sqrt+0x174>
 8007e66:	2301      	movs	r3, #1
 8007e68:	3401      	adds	r4, #1
 8007e6a:	439c      	bics	r4, r3
 8007e6c:	e7dc      	b.n	8007e28 <__ieee754_sqrt+0x174>
 8007e6e:	46c0      	nop			@ (mov r8, r8)
 8007e70:	7ff00000 	.word	0x7ff00000
 8007e74:	fffffc01 	.word	0xfffffc01
 8007e78:	20000068 	.word	0x20000068
 8007e7c:	20000060 	.word	0x20000060
 8007e80:	3fe00000 	.word	0x3fe00000

08007e84 <_init>:
 8007e84:	b5f8      	push	{r3, r4, r5, r6, r7, lr}
 8007e86:	46c0      	nop			@ (mov r8, r8)
 8007e88:	bcf8      	pop	{r3, r4, r5, r6, r7}
 8007e8a:	bc08      	pop	{r3}
 8007e8c:	469e      	mov	lr, r3
 8007e8e:	4770      	bx	lr

08007e90 <_fini>:
 8007e90:	b5f8      	push	{r3, r4, r5, r6, r7, lr}
 8007e92:	46c0      	nop			@ (mov r8, r8)
 8007e94:	bcf8      	pop	{r3, r4, r5, r6, r7}
 8007e96:	bc08      	pop	{r3}
 8007e98:	469e      	mov	lr, r3
 8007e9a:	4770      	bx	lr
