
airMouse-firmware.elf:     file format elf32-littlearm

Sections:
Idx Name          Size      VMA       LMA       File off  Algn
  0 .isr_vector   000000bc  08000000  08000000  00001000  2**0
                  CONTENTS, ALLOC, LOAD, READONLY, DATA
  1 .text         00002de0  080000bc  080000bc  000010bc  2**2
                  CONTENTS, ALLOC, LOAD, READONLY, CODE
  2 .rodata       000000e4  08002e9c  08002e9c  00003e9c  2**2
                  CONTENTS, ALLOC, LOAD, READONLY, DATA
  3 .ARM.extab    00000000  08002f80  08002f80  0000400c  2**0
                  CONTENTS
  4 .ARM          00000008  08002f80  08002f80  00003f80  2**2
                  CONTENTS, ALLOC, LOAD, READONLY, DATA
  5 .preinit_array 00000000  08002f88  08002f88  0000400c  2**0
                  CONTENTS, ALLOC, LOAD, DATA
  6 .init_array   00000004  08002f88  08002f88  00003f88  2**2
                  CONTENTS, ALLOC, LOAD, READONLY, DATA
  7 .fini_array   00000004  08002f8c  08002f8c  00003f8c  2**2
                  CONTENTS, ALLOC, LOAD, READONLY, DATA
  8 .data         0000000c  20000000  08002f90  00004000  2**2
                  CONTENTS, ALLOC, LOAD, DATA
  9 .bss          000001c4  2000000c  08002f9c  0000400c  2**2
                  ALLOC
 10 ._user_heap_stack 00000600  200001d0  08002f9c  000041d0  2**0
                  ALLOC
 11 .ARM.attributes 00000028  00000000  00000000  0000400c  2**0
                  CONTENTS, READONLY
 12 .comment      00000043  00000000  00000000  00004034  2**0
                  CONTENTS, READONLY
 13 .debug_frame  00000258  00000000  00000000  00004078  2**2
                  CONTENTS, READONLY, DEBUGGING, OCTETS

Disassembly of section .text:

080000bc <__do_global_dtors_aux>:
 80000bc:	b510      	push	{r4, lr}
 80000be:	4c06      	ldr	r4, [pc, #24]	@ (80000d8 <__do_global_dtors_aux+0x1c>)
 80000c0:	7823      	ldrb	r3, [r4, #0]
 80000c2:	2b00      	cmp	r3, #0
 80000c4:	d107      	bne.n	80000d6 <__do_global_dtors_aux+0x1a>
 80000c6:	4b05      	ldr	r3, [pc, #20]	@ (80000dc <__do_global_dtors_aux+0x20>)
 80000c8:	2b00      	cmp	r3, #0
 80000ca:	d002      	beq.n	80000d2 <__do_global_dtors_aux+0x16>
 80000cc:	4804      	ldr	r0, [pc, #16]	@ (80000e0 <__do_global_dtors_aux+0x24>)
 80000ce:	e000      	b.n	80000d2 <__do_global_dtors_aux+0x16>
 80000d0:	bf00      	nop
 80000d2:	2301      	movs	r3, #1
 80000d4:	7023      	strb	r3, [r4, #0]
 80000d6:	bd10      	pop	{r4, pc}
 80000d8:	2000000c 	.word	0x2000000c
 80000dc:	00000000 	.word	0x00000000
 80000e0:	08002e84 	.word	0x08002e84

080000e4 <frame_dummy>:
 80000e4:	4b04      	ldr	r3, [pc, #16]	@ (80000f8 <frame_dummy+0x14>)
 80000e6:	b510      	push	{r4, lr}
 80000e8:	2b00      	cmp	r3, #0
 80000ea:	d003      	beq.n	80000f4 <frame_dummy+0x10>
 80000ec:	4903      	ldr	r1, [pc, #12]	@ (80000fc <frame_dummy+0x18>)
 80000ee:	4804      	ldr	r0, [pc, #16]	@ (8000100 <frame_dummy+0x1c>)
 80000f0:	e000      	b.n	80000f4 <frame_dummy+0x10>
 80000f2:	bf00      	nop
 80000f4:	bd10      	pop	{r4, pc}
 80000f6:	46c0      	nop			@ (mov r8, r8)
 80000f8:	00000000 	.word	0x00000000
 80000fc:	20000010 	.word	0x20000010
 8000100:	08002e84 	.word	0x08002e84

08000104 <strlen>:
 8000104:	2300      	movs	r3, #0
 8000106:	5cc2      	ldrb	r2, [r0, r3]
 8000108:	3301      	adds	r3, #1
 800010a:	2a00      	cmp	r2, #0
 800010c:	d1fb      	bne.n	8000106 <strlen+0x2>
 800010e:	1e58      	subs	r0, r3, #1
 8000110:	4770      	bx	lr
	...

08000114 <__udivsi3>:
 8000114:	2200      	movs	r2, #0
 8000116:	0843      	lsrs	r3, r0, #1
 8000118:	428b      	cmp	r3, r1
 800011a:	d374      	bcc.n	8000206 <__udivsi3+0xf2>
 800011c:	0903      	lsrs	r3, r0, #4
 800011e:	428b      	cmp	r3, r1
 8000120:	d35f      	bcc.n	80001e2 <__udivsi3+0xce>
 8000122:	0a03      	lsrs	r3, r0, #8
 8000124:	428b      	cmp	r3, r1
 8000126:	d344      	bcc.n	80001b2 <__udivsi3+0x9e>
 8000128:	0b03      	lsrs	r3, r0, #12
 800012a:	428b      	cmp	r3, r1
 800012c:	d328      	bcc.n	8000180 <__udivsi3+0x6c>
 800012e:	0c03      	lsrs	r3, r0, #16
 8000130:	428b      	cmp	r3, r1
 8000132:	d30d      	bcc.n	8000150 <__udivsi3+0x3c>
 8000134:	22ff      	movs	r2, #255	@ 0xff
 8000136:	0209      	lsls	r1, r1, #8
 8000138:	ba12      	rev	r2, r2
 800013a:	0c03      	lsrs	r3, r0, #16
 800013c:	428b      	cmp	r3, r1
 800013e:	d302      	bcc.n	8000146 <__udivsi3+0x32>
 8000140:	1212      	asrs	r2, r2, #8
 8000142:	0209      	lsls	r1, r1, #8
 8000144:	d065      	beq.n	8000212 <__udivsi3+0xfe>
 8000146:	0b03      	lsrs	r3, r0, #12
 8000148:	428b      	cmp	r3, r1
 800014a:	d319      	bcc.n	8000180 <__udivsi3+0x6c>
 800014c:	e000      	b.n	8000150 <__udivsi3+0x3c>
 800014e:	0a09      	lsrs	r1, r1, #8
 8000150:	0bc3      	lsrs	r3, r0, #15
 8000152:	428b      	cmp	r3, r1
 8000154:	d301      	bcc.n	800015a <__udivsi3+0x46>
 8000156:	03cb      	lsls	r3, r1, #15
 8000158:	1ac0      	subs	r0, r0, r3
 800015a:	4152      	adcs	r2, r2
 800015c:	0b83      	lsrs	r3, r0, #14
 800015e:	428b      	cmp	r3, r1
 8000160:	d301      	bcc.n	8000166 <__udivsi3+0x52>
 8000162:	038b      	lsls	r3, r1, #14
 8000164:	1ac0      	subs	r0, r0, r3
 8000166:	4152      	adcs	r2, r2
 8000168:	0b43      	lsrs	r3, r0, #13
 800016a:	428b      	cmp	r3, r1
 800016c:	d301      	bcc.n	8000172 <__udivsi3+0x5e>
 800016e:	034b      	lsls	r3, r1, #13
 8000170:	1ac0      	subs	r0, r0, r3
 8000172:	4152      	adcs	r2, r2
 8000174:	0b03      	lsrs	r3, r0, #12
 8000176:	428b      	cmp	r3, r1
 8000178:	d301      	bcc.n	800017e <__udivsi3+0x6a>
 800017a:	030b      	lsls	r3, r1, #12
 800017c:	1ac0      	subs	r0, r0, r3
 800017e:	4152      	adcs	r2, r2
 8000180:	0ac3      	lsrs	r3, r0, #11
 8000182:	428b      	cmp	r3, r1
 8000184:	d301      	bcc.n	800018a <__udivsi3+0x76>
 8000186:	02cb      	lsls	r3, r1, #11
 8000188:	1ac0      	subs	r0, r0, r3
 800018a:	4152      	adcs	r2, r2
 800018c:	0a83      	lsrs	r3, r0, #10
 800018e:	428b      	cmp	r3, r1
 8000190:	d301      	bcc.n	8000196 <__udivsi3+0x82>
 8000192:	028b      	lsls	r3, r1, #10
 8000194:	1ac0      	subs	r0, r0, r3
 8000196:	4152      	adcs	r2, r2
 8000198:	0a43      	lsrs	r3, r0, #9
 800019a:	428b      	cmp	r3, r1
 800019c:	d301      	bcc.n	80001a2 <__udivsi3+0x8e>
 800019e:	024b      	lsls	r3, r1, #9
 80001a0:	1ac0      	subs	r0, r0, r3
 80001a2:	4152      	adcs	r2, r2
 80001a4:	0a03      	lsrs	r3, r0, #8
 80001a6:	428b      	cmp	r3, r1
 80001a8:	d301      	bcc.n	80001ae <__udivsi3+0x9a>
 80001aa:	020b      	lsls	r3, r1, #8
 80001ac:	1ac0      	subs	r0, r0, r3
 80001ae:	4152      	adcs	r2, r2
 80001b0:	d2cd      	bcs.n	800014e <__udivsi3+0x3a>
 80001b2:	09c3      	lsrs	r3, r0, #7
 80001b4:	428b      	cmp	r3, r1
 80001b6:	d301      	bcc.n	80001bc <__udivsi3+0xa8>
 80001b8:	01cb      	lsls	r3, r1, #7
 80001ba:	1ac0      	subs	r0, r0, r3
 80001bc:	4152      	adcs	r2, r2
 80001be:	0983      	lsrs	r3, r0, #6
 80001c0:	428b      	cmp	r3, r1
 80001c2:	d301      	bcc.n	80001c8 <__udivsi3+0xb4>
 80001c4:	018b      	lsls	r3, r1, #6
 80001c6:	1ac0      	subs	r0, r0, r3
 80001c8:	4152      	adcs	r2, r2
 80001ca:	0943      	lsrs	r3, r0, #5
 80001cc:	428b      	cmp	r3, r1
 80001ce:	d301      	bcc.n	80001d4 <__udivsi3+0xc0>
 80001d0:	014b      	lsls	r3, r1, #5
 80001d2:	1ac0      	subs	r0, r0, r3
 80001d4:	4152      	adcs	r2, r2
 80001d6:	0903      	lsrs	r3, r0, #4
 80001d8:	428b      	cmp	r3, r1
 80001da:	d301      	bcc.n	80001e0 <__udivsi3+0xcc>
 80001dc:	010b      	lsls	r3, r1, #4
 80001de:	1ac0      	subs	r0, r0, r3
 80001e0:	4152      	adcs	r2, r2
 80001e2:	08c3      	lsrs	r3, r0, #3
 80001e4:	428b      	cmp	r3, r1
 80001e6:	d301      	bcc.n	80001ec <__udivsi3+0xd8>
 80001e8:	00cb      	lsls	r3, r1, #3
 80001ea:	1ac0      	subs	r0, r0, r3
 80001ec:	4152      	adcs	r2, r2
 80001ee:	0883      	lsrs	r3, r0, #2
 80001f0:	428b      	cmp	r3, r1
 80001f2:	d301      	bcc.n	80001f8 <__udivsi3+0xe4>
 80001f4:	008b      	lsls	r3, r1, #2
 80001f6:	1ac0      	subs	r0, r0, r3
 80001f8:	4152      	adcs	r2, r2
 80001fa:	0843      	lsrs	r3, r0, #1
 80001fc:	428b      	cmp	r3, r1
 80001fe:	d301      	bcc.n	8000204 <__udivsi3+0xf0>
 8000200:	004b      	lsls	r3, r1, #1
 8000202:	1ac0      	subs	r0, r0, r3
 8000204:	4152      	adcs	r2, r2
 8000206:	1a41      	subs	r1, r0, r1
 8000208:	d200      	bcs.n	800020c <__udivsi3+0xf8>
 800020a:	4601      	mov	r1, r0
 800020c:	4152      	adcs	r2, r2
 800020e:	4610      	mov	r0, r2
 8000210:	4770      	bx	lr
 8000212:	e7ff      	b.n	8000214 <__udivsi3+0x100>
 8000214:	b501      	push	{r0, lr}
 8000216:	2000      	movs	r0, #0
 8000218:	f000 f8f0 	bl	80003fc <__aeabi_idiv0>
 800021c:	bd02      	pop	{r1, pc}
 800021e:	46c0      	nop			@ (mov r8, r8)

08000220 <__aeabi_uidivmod>:
 8000220:	2900      	cmp	r1, #0
 8000222:	d0f7      	beq.n	8000214 <__udivsi3+0x100>
 8000224:	e776      	b.n	8000114 <__udivsi3>
 8000226:	4770      	bx	lr

08000228 <__divsi3>:
 8000228:	4603      	mov	r3, r0
 800022a:	430b      	orrs	r3, r1
 800022c:	d47f      	bmi.n	800032e <__divsi3+0x106>
 800022e:	2200      	movs	r2, #0
 8000230:	0843      	lsrs	r3, r0, #1
 8000232:	428b      	cmp	r3, r1
 8000234:	d374      	bcc.n	8000320 <__divsi3+0xf8>
 8000236:	0903      	lsrs	r3, r0, #4
 8000238:	428b      	cmp	r3, r1
 800023a:	d35f      	bcc.n	80002fc <__divsi3+0xd4>
 800023c:	0a03      	lsrs	r3, r0, #8
 800023e:	428b      	cmp	r3, r1
 8000240:	d344      	bcc.n	80002cc <__divsi3+0xa4>
 8000242:	0b03      	lsrs	r3, r0, #12
 8000244:	428b      	cmp	r3, r1
 8000246:	d328      	bcc.n	800029a <__divsi3+0x72>
 8000248:	0c03      	lsrs	r3, r0, #16
 800024a:	428b      	cmp	r3, r1
 800024c:	d30d      	bcc.n	800026a <__divsi3+0x42>
 800024e:	22ff      	movs	r2, #255	@ 0xff
 8000250:	0209      	lsls	r1, r1, #8
 8000252:	ba12      	rev	r2, r2
 8000254:	0c03      	lsrs	r3, r0, #16
 8000256:	428b      	cmp	r3, r1
 8000258:	d302      	bcc.n	8000260 <__divsi3+0x38>
 800025a:	1212      	asrs	r2, r2, #8
 800025c:	0209      	lsls	r1, r1, #8
 800025e:	d065      	beq.n	800032c <__divsi3+0x104>
 8000260:	0b03      	lsrs	r3, r0, #12
 8000262:	428b      	cmp	r3, r1
 8000264:	d319      	bcc.n	800029a <__divsi3+0x72>
 8000266:	e000      	b.n	800026a <__divsi3+0x42>
 8000268:	0a09      	lsrs	r1, r1, #8
 800026a:	0bc3      	lsrs	r3, r0, #15
 800026c:	428b      	cmp	r3, r1
 800026e:	d301      	bcc.n	8000274 <__divsi3+0x4c>
 8000270:	03cb      	lsls	r3, r1, #15
 8000272:	1ac0      	subs	r0, r0, r3
 8000274:	4152      	adcs	r2, r2
 8000276:	0b83      	lsrs	r3, r0, #14
 8000278:	428b      	cmp	r3, r1
 800027a:	d301      	bcc.n	8000280 <__divsi3+0x58>
 800027c:	038b      	lsls	r3, r1, #14
 800027e:	1ac0      	subs	r0, r0, r3
 8000280:	4152      	adcs	r2, r2
 8000282:	0b43      	lsrs	r3, r0, #13
 8000284:	428b      	cmp	r3, r1
 8000286:	d301      	bcc.n	800028c <__divsi3+0x64>
 8000288:	034b      	lsls	r3, r1, #13
 800028a:	1ac0      	subs	r0, r0, r3
 800028c:	4152      	adcs	r2, r2
 800028e:	0b03      	lsrs	r3, r0, #12
 8000290:	428b      	cmp	r3, r1
 8000292:	d301      	bcc.n	8000298 <__divsi3+0x70>
 8000294:	030b      	lsls	r3, r1, #12
 8000296:	1ac0      	subs	r0, r0, r3
 8000298:	4152      	adcs	r2, r2
 800029a:	0ac3      	lsrs	r3, r0, #11
 800029c:	428b      	cmp	r3, r1
 800029e:	d301      	bcc.n	80002a4 <__divsi3+0x7c>
 80002a0:	02cb      	lsls	r3, r1, #11
 80002a2:	1ac0      	subs	r0, r0, r3
 80002a4:	4152      	adcs	r2, r2
 80002a6:	0a83      	lsrs	r3, r0, #10
 80002a8:	428b      	cmp	r3, r1
 80002aa:	d301      	bcc.n	80002b0 <__divsi3+0x88>
 80002ac:	028b      	lsls	r3, r1, #10
 80002ae:	1ac0      	subs	r0, r0, r3
 80002b0:	4152      	adcs	r2, r2
 80002b2:	0a43      	lsrs	r3, r0, #9
 80002b4:	428b      	cmp	r3, r1
 80002b6:	d301      	bcc.n	80002bc <__divsi3+0x94>
 80002b8:	024b      	lsls	r3, r1, #9
 80002ba:	1ac0      	subs	r0, r0, r3
 80002bc:	4152      	adcs	r2, r2
 80002be:	0a03      	lsrs	r3, r0, #8
 80002c0:	428b      	cmp	r3, r1
 80002c2:	d301      	bcc.n	80002c8 <__divsi3+0xa0>
 80002c4:	020b      	lsls	r3, r1, #8
 80002c6:	1ac0      	subs	r0, r0, r3
 80002c8:	4152      	adcs	r2, r2
 80002ca:	d2cd      	bcs.n	8000268 <__divsi3+0x40>
 80002cc:	09c3      	lsrs	r3, r0, #7
 80002ce:	428b      	cmp	r3, r1
 80002d0:	d301      	bcc.n	80002d6 <__divsi3+0xae>
 80002d2:	01cb      	lsls	r3, r1, #7
 80002d4:	1ac0      	subs	r0, r0, r3
 80002d6:	4152      	adcs	r2, r2
 80002d8:	0983      	lsrs	r3, r0, #6
 80002da:	428b      	cmp	r3, r1
 80002dc:	d301      	bcc.n	80002e2 <__divsi3+0xba>
 80002de:	018b      	lsls	r3, r1, #6
 80002e0:	1ac0      	subs	r0, r0, r3
 80002e2:	4152      	adcs	r2, r2
 80002e4:	0943      	lsrs	r3, r0, #5
 80002e6:	428b      	cmp	r3, r1
 80002e8:	d301      	bcc.n	80002ee <__divsi3+0xc6>
 80002ea:	014b      	lsls	r3, r1, #5
 80002ec:	1ac0      	subs	r0, r0, r3
 80002ee:	4152      	adcs	r2, r2
 80002f0:	0903      	lsrs	r3, r0, #4
 80002f2:	428b      	cmp	r3, r1
 80002f4:	d301      	bcc.n	80002fa <__divsi3+0xd2>
 80002f6:	010b      	lsls	r3, r1, #4
 80002f8:	1ac0      	subs	r0, r0, r3
 80002fa:	4152      	adcs	r2, r2
 80002fc:	08c3      	lsrs	r3, r0, #3
 80002fe:	428b      	cmp	r3, r1
 8000300:	d301      	bcc.n	8000306 <__divsi3+0xde>
 8000302:	00cb      	lsls	r3, r1, #3
 8000304:	1ac0      	subs	r0, r0, r3
 8000306:	4152      	adcs	r2, r2
 8000308:	0883      	lsrs	r3, r0, #2
 800030a:	428b      	cmp	r3, r1
 800030c:	d301      	bcc.n	8000312 <__divsi3+0xea>
 800030e:	008b      	lsls	r3, r1, #2
 8000310:	1ac0      	subs	r0, r0, r3
 8000312:	4152      	adcs	r2, r2
 8000314:	0843      	lsrs	r3, r0, #1
 8000316:	428b      	cmp	r3, r1
 8000318:	d301      	bcc.n	800031e <__divsi3+0xf6>
 800031a:	004b      	lsls	r3, r1, #1
 800031c:	1ac0      	subs	r0, r0, r3
 800031e:	4152      	adcs	r2, r2
 8000320:	1a41      	subs	r1, r0, r1
 8000322:	d200      	bcs.n	8000326 <__divsi3+0xfe>
 8000324:	4601      	mov	r1, r0
 8000326:	4152      	adcs	r2, r2
 8000328:	4610      	mov	r0, r2
 800032a:	4770      	bx	lr
 800032c:	e05d      	b.n	80003ea <__divsi3+0x1c2>
 800032e:	0fca      	lsrs	r2, r1, #31
 8000330:	d000      	beq.n	8000334 <__divsi3+0x10c>
 8000332:	4249      	negs	r1, r1
 8000334:	1003      	asrs	r3, r0, #32
 8000336:	d300      	bcc.n	800033a <__divsi3+0x112>
 8000338:	4240      	negs	r0, r0
 800033a:	4053      	eors	r3, r2
 800033c:	2200      	movs	r2, #0
 800033e:	469c      	mov	ip, r3
 8000340:	0903      	lsrs	r3, r0, #4
 8000342:	428b      	cmp	r3, r1
 8000344:	d32d      	bcc.n	80003a2 <__divsi3+0x17a>
 8000346:	0a03      	lsrs	r3, r0, #8
 8000348:	428b      	cmp	r3, r1
 800034a:	d312      	bcc.n	8000372 <__divsi3+0x14a>
 800034c:	22fc      	movs	r2, #252	@ 0xfc
 800034e:	0189      	lsls	r1, r1, #6
 8000350:	ba12      	rev	r2, r2
 8000352:	0a03      	lsrs	r3, r0, #8
 8000354:	428b      	cmp	r3, r1
 8000356:	d30c      	bcc.n	8000372 <__divsi3+0x14a>
 8000358:	0189      	lsls	r1, r1, #6
 800035a:	1192      	asrs	r2, r2, #6
 800035c:	428b      	cmp	r3, r1
 800035e:	d308      	bcc.n	8000372 <__divsi3+0x14a>
 8000360:	0189      	lsls	r1, r1, #6
 8000362:	1192      	asrs	r2, r2, #6
 8000364:	428b      	cmp	r3, r1
 8000366:	d304      	bcc.n	8000372 <__divsi3+0x14a>
 8000368:	0189      	lsls	r1, r1, #6
 800036a:	d03a      	beq.n	80003e2 <__divsi3+0x1ba>
 800036c:	1192      	asrs	r2, r2, #6
 800036e:	e000      	b.n	8000372 <__divsi3+0x14a>
 8000370:	0989      	lsrs	r1, r1, #6
 8000372:	09c3      	lsrs	r3, r0, #7
 8000374:	428b      	cmp	r3, r1
 8000376:	d301      	bcc.n	800037c <__divsi3+0x154>
 8000378:	01cb      	lsls	r3, r1, #7
 800037a:	1ac0      	subs	r0, r0, r3
 800037c:	4152      	adcs	r2, r2
 800037e:	0983      	lsrs	r3, r0, #6
 8000380:	428b      	cmp	r3, r1
 8000382:	d301      	bcc.n	8000388 <__divsi3+0x160>
 8000384:	018b      	lsls	r3, r1, #6
 8000386:	1ac0      	subs	r0, r0, r3
 8000388:	4152      	adcs	r2, r2
 800038a:	0943      	lsrs	r3, r0, #5
 800038c:	428b      	cmp	r3, r1
 800038e:	d301      	bcc.n	8000394 <__divsi3+0x16c>
 8000390:	014b      	lsls	r3, r1, #5
 8000392:	1ac0      	subs	r0, r0, r3
 8000394:	4152      	adcs	r2, r2
 8000396:	0903      	lsrs	r3, r0, #4
 8000398:	428b      	cmp	r3, r1
 800039a:	d301      	bcc.n	80003a0 <__divsi3+0x178>
 800039c:	010b      	lsls	r3, r1, #4
 800039e:	1ac0      	subs	r0, r0, r3
 80003a0:	4152      	adcs	r2, r2
 80003a2:	08c3      	lsrs	r3, r0, #3
 80003a4:	428b      	cmp	r3, r1
 80003a6:	d301      	bcc.n	80003ac <__divsi3+0x184>
 80003a8:	00cb      	lsls	r3, r1, #3
 80003aa:	1ac0      	subs	r0, r0, r3
 80003ac:	4152      	adcs	r2, r2
 80003ae:	0883      	lsrs	r3, r0, #2
 80003b0:	428b      	cmp	r3, r1
 80003b2:	d301      	bcc.n	80003b8 <__divsi3+0x190>
 80003b4:	008b      	lsls	r3, r1, #2
 80003b6:	1ac0      	subs	r0, r0, r3
 80003b8:	4152      	adcs	r2, r2
 80003ba:	d2d9      	bcs.n	8000370 <__divsi3+0x148>
 80003bc:	0843      	lsrs	r3, r0, #1
 80003be:	428b      	cmp	r3, r1
 80003c0:	d301      	bcc.n	80003c6 <__divsi3+0x19e>
 80003c2:	004b      	lsls	r3, r1, #1
 80003c4:	1ac0      	subs	r0, r0, r3
 80003c6:	4152      	adcs	r2, r2
 80003c8:	1a41      	subs	r1, r0, r1
 80003ca:	d200      	bcs.n	80003ce <__divsi3+0x1a6>
 80003cc:	4601      	mov	r1, r0
 80003ce:	4663      	mov	r3, ip
 80003d0:	4152      	adcs	r2, r2
 80003d2:	105b      	asrs	r3, r3, #1
 80003d4:	4610      	mov	r0, r2
 80003d6:	d301      	bcc.n	80003dc <__divsi3+0x1b4>
 80003d8:	4240      	negs	r0, r0
 80003da:	2b00      	cmp	r3, #0
 80003dc:	d500      	bpl.n	80003e0 <__divsi3+0x1b8>
 80003de:	4249      	negs	r1, r1
 80003e0:	4770      	bx	lr
 80003e2:	4663      	mov	r3, ip
 80003e4:	105b      	asrs	r3, r3, #1
 80003e6:	d300      	bcc.n	80003ea <__divsi3+0x1c2>
 80003e8:	4240      	negs	r0, r0
 80003ea:	b501      	push	{r0, lr}
 80003ec:	2000      	movs	r0, #0
 80003ee:	f000 f805 	bl	80003fc <__aeabi_idiv0>
 80003f2:	bd02      	pop	{r1, pc}

080003f4 <__aeabi_idivmod>:
 80003f4:	2900      	cmp	r1, #0
 80003f6:	d0f8      	beq.n	80003ea <__divsi3+0x1c2>
 80003f8:	e716      	b.n	8000228 <__divsi3>
 80003fa:	4770      	bx	lr

080003fc <__aeabi_idiv0>:
 80003fc:	4770      	bx	lr
 80003fe:	46c0      	nop			@ (mov r8, r8)

08000400 <__aeabi_uldivmod>:
 8000400:	2b00      	cmp	r3, #0
 8000402:	d111      	bne.n	8000428 <__aeabi_uldivmod+0x28>
 8000404:	2a00      	cmp	r2, #0
 8000406:	d10f      	bne.n	8000428 <__aeabi_uldivmod+0x28>
 8000408:	2900      	cmp	r1, #0
 800040a:	d100      	bne.n	800040e <__aeabi_uldivmod+0xe>
 800040c:	2800      	cmp	r0, #0
 800040e:	d002      	beq.n	8000416 <__aeabi_uldivmod+0x16>
 8000410:	2100      	movs	r1, #0
 8000412:	43c9      	mvns	r1, r1
 8000414:	0008      	movs	r0, r1
 8000416:	b407      	push	{r0, r1, r2}
 8000418:	4802      	ldr	r0, [pc, #8]	@ (8000424 <__aeabi_uldivmod+0x24>)
 800041a:	a102      	add	r1, pc, #8	@ (adr r1, 8000424 <__aeabi_uldivmod+0x24>)
 800041c:	1840      	adds	r0, r0, r1
 800041e:	9002      	str	r0, [sp, #8]
 8000420:	bd03      	pop	{r0, r1, pc}
 8000422:	46c0      	nop			@ (mov r8, r8)
 8000424:	ffffffd9 	.word	0xffffffd9
 8000428:	b403      	push	{r0, r1}
 800042a:	4668      	mov	r0, sp
 800042c:	b501      	push	{r0, lr}
 800042e:	9802      	ldr	r0, [sp, #8]
 8000430:	f000 f806 	bl	8000440 <__udivmoddi4>
 8000434:	9b01      	ldr	r3, [sp, #4]
 8000436:	469e      	mov	lr, r3
 8000438:	b002      	add	sp, #8
 800043a:	bc0c      	pop	{r2, r3}
 800043c:	4770      	bx	lr
 800043e:	46c0      	nop			@ (mov r8, r8)

08000440 <__udivmoddi4>:
 8000440:	b5f0      	push	{r4, r5, r6, r7, lr}
 8000442:	4657      	mov	r7, sl
 8000444:	464e      	mov	r6, r9
 8000446:	4645      	mov	r5, r8
 8000448:	46de      	mov	lr, fp
 800044a:	b5e0      	push	{r5, r6, r7, lr}
 800044c:	0004      	movs	r4, r0
 800044e:	000d      	movs	r5, r1
 8000450:	4692      	mov	sl, r2
 8000452:	4699      	mov	r9, r3
 8000454:	b083      	sub	sp, #12
 8000456:	428b      	cmp	r3, r1
 8000458:	d830      	bhi.n	80004bc <__udivmoddi4+0x7c>
 800045a:	d02d      	beq.n	80004b8 <__udivmoddi4+0x78>
 800045c:	4649      	mov	r1, r9
 800045e:	4650      	mov	r0, sl
 8000460:	f000 faec 	bl	8000a3c <__clzdi2>
 8000464:	0029      	movs	r1, r5
 8000466:	0006      	movs	r6, r0
 8000468:	0020      	movs	r0, r4
 800046a:	f000 fae7 	bl	8000a3c <__clzdi2>
 800046e:	1a33      	subs	r3, r6, r0
 8000470:	4698      	mov	r8, r3
 8000472:	3b20      	subs	r3, #32
 8000474:	d434      	bmi.n	80004e0 <__udivmoddi4+0xa0>
 8000476:	469b      	mov	fp, r3
 8000478:	4653      	mov	r3, sl
 800047a:	465a      	mov	r2, fp
 800047c:	4093      	lsls	r3, r2
 800047e:	4642      	mov	r2, r8
 8000480:	001f      	movs	r7, r3
 8000482:	4653      	mov	r3, sl
 8000484:	4093      	lsls	r3, r2
 8000486:	001e      	movs	r6, r3
 8000488:	42af      	cmp	r7, r5
 800048a:	d83b      	bhi.n	8000504 <__udivmoddi4+0xc4>
 800048c:	42af      	cmp	r7, r5
 800048e:	d100      	bne.n	8000492 <__udivmoddi4+0x52>
 8000490:	e079      	b.n	8000586 <__udivmoddi4+0x146>
 8000492:	465b      	mov	r3, fp
 8000494:	1ba4      	subs	r4, r4, r6
 8000496:	41bd      	sbcs	r5, r7
 8000498:	2b00      	cmp	r3, #0
 800049a:	da00      	bge.n	800049e <__udivmoddi4+0x5e>
 800049c:	e076      	b.n	800058c <__udivmoddi4+0x14c>
 800049e:	2200      	movs	r2, #0
 80004a0:	2300      	movs	r3, #0
 80004a2:	9200      	str	r2, [sp, #0]
 80004a4:	9301      	str	r3, [sp, #4]
 80004a6:	2301      	movs	r3, #1
 80004a8:	465a      	mov	r2, fp
 80004aa:	4093      	lsls	r3, r2
 80004ac:	9301      	str	r3, [sp, #4]
 80004ae:	2301      	movs	r3, #1
 80004b0:	4642      	mov	r2, r8
 80004b2:	4093      	lsls	r3, r2
 80004b4:	9300      	str	r3, [sp, #0]
 80004b6:	e029      	b.n	800050c <__udivmoddi4+0xcc>
 80004b8:	4282      	cmp	r2, r0
 80004ba:	d9cf      	bls.n	800045c <__udivmoddi4+0x1c>
 80004bc:	2200      	movs	r2, #0
 80004be:	2300      	movs	r3, #0
 80004c0:	9200      	str	r2, [sp, #0]
 80004c2:	9301      	str	r3, [sp, #4]
 80004c4:	9b0c      	ldr	r3, [sp, #48]	@ 0x30
 80004c6:	2b00      	cmp	r3, #0
 80004c8:	d001      	beq.n	80004ce <__udivmoddi4+0x8e>
 80004ca:	601c      	str	r4, [r3, #0]
 80004cc:	605d      	str	r5, [r3, #4]
 80004ce:	9800      	ldr	r0, [sp, #0]
 80004d0:	9901      	ldr	r1, [sp, #4]
 80004d2:	b003      	add	sp, #12
 80004d4:	bcf0      	pop	{r4, r5, r6, r7}
 80004d6:	46bb      	mov	fp, r7
 80004d8:	46b2      	mov	sl, r6
 80004da:	46a9      	mov	r9, r5
 80004dc:	46a0      	mov	r8, r4
 80004de:	bdf0      	pop	{r4, r5, r6, r7, pc}
 80004e0:	4642      	mov	r2, r8
 80004e2:	469b      	mov	fp, r3
 80004e4:	2320      	movs	r3, #32
 80004e6:	1a9b      	subs	r3, r3, r2
 80004e8:	4652      	mov	r2, sl
 80004ea:	40da      	lsrs	r2, r3
 80004ec:	4641      	mov	r1, r8
 80004ee:	0013      	movs	r3, r2
 80004f0:	464a      	mov	r2, r9
 80004f2:	408a      	lsls	r2, r1
 80004f4:	0017      	movs	r7, r2
 80004f6:	4642      	mov	r2, r8
 80004f8:	431f      	orrs	r7, r3
 80004fa:	4653      	mov	r3, sl
 80004fc:	4093      	lsls	r3, r2
 80004fe:	001e      	movs	r6, r3
 8000500:	42af      	cmp	r7, r5
 8000502:	d9c3      	bls.n	800048c <__udivmoddi4+0x4c>
 8000504:	2200      	movs	r2, #0
 8000506:	2300      	movs	r3, #0
 8000508:	9200      	str	r2, [sp, #0]
 800050a:	9301      	str	r3, [sp, #4]
 800050c:	4643      	mov	r3, r8
 800050e:	2b00      	cmp	r3, #0
 8000510:	d0d8      	beq.n	80004c4 <__udivmoddi4+0x84>
 8000512:	07fb      	lsls	r3, r7, #31
 8000514:	0872      	lsrs	r2, r6, #1
 8000516:	431a      	orrs	r2, r3
 8000518:	4646      	mov	r6, r8
 800051a:	087b      	lsrs	r3, r7, #1
 800051c:	e00e      	b.n	800053c <__udivmoddi4+0xfc>
 800051e:	42ab      	cmp	r3, r5
 8000520:	d101      	bne.n	8000526 <__udivmoddi4+0xe6>
 8000522:	42a2      	cmp	r2, r4
 8000524:	d80c      	bhi.n	8000540 <__udivmoddi4+0x100>
 8000526:	1aa4      	subs	r4, r4, r2
 8000528:	419d      	sbcs	r5, r3
 800052a:	2001      	movs	r0, #1
 800052c:	1924      	adds	r4, r4, r4
 800052e:	416d      	adcs	r5, r5
 8000530:	2100      	movs	r1, #0
 8000532:	3e01      	subs	r6, #1
 8000534:	1824      	adds	r4, r4, r0
 8000536:	414d      	adcs	r5, r1
 8000538:	2e00      	cmp	r6, #0
 800053a:	d006      	beq.n	800054a <__udivmoddi4+0x10a>
 800053c:	42ab      	cmp	r3, r5
 800053e:	d9ee      	bls.n	800051e <__udivmoddi4+0xde>
 8000540:	3e01      	subs	r6, #1
 8000542:	1924      	adds	r4, r4, r4
 8000544:	416d      	adcs	r5, r5
 8000546:	2e00      	cmp	r6, #0
 8000548:	d1f8      	bne.n	800053c <__udivmoddi4+0xfc>
 800054a:	9800      	ldr	r0, [sp, #0]
 800054c:	9901      	ldr	r1, [sp, #4]
 800054e:	465b      	mov	r3, fp
 8000550:	1900      	adds	r0, r0, r4
 8000552:	4169      	adcs	r1, r5
 8000554:	2b00      	cmp	r3, #0
 8000556:	db24      	blt.n	80005a2 <__udivmoddi4+0x162>
 8000558:	002b      	movs	r3, r5
 800055a:	465a      	mov	r2, fp
 800055c:	4644      	mov	r4, r8
 800055e:	40d3      	lsrs	r3, r2
 8000560:	002a      	movs	r2, r5
 8000562:	40e2      	lsrs	r2, r4
 8000564:	001c      	movs	r4, r3
 8000566:	465b      	mov	r3, fp
 8000568:	0015      	movs	r5, r2
 800056a:	2b00      	cmp	r3, #0
 800056c:	db2a      	blt.n	80005c4 <__udivmoddi4+0x184>
 800056e:	0026      	movs	r6, r4
 8000570:	409e      	lsls	r6, r3
 8000572:	0033      	movs	r3, r6
 8000574:	0026      	movs	r6, r4
 8000576:	4647      	mov	r7, r8
 8000578:	40be      	lsls	r6, r7
 800057a:	0032      	movs	r2, r6
 800057c:	1a80      	subs	r0, r0, r2
 800057e:	4199      	sbcs	r1, r3
 8000580:	9000      	str	r0, [sp, #0]
 8000582:	9101      	str	r1, [sp, #4]
 8000584:	e79e      	b.n	80004c4 <__udivmoddi4+0x84>
 8000586:	42a3      	cmp	r3, r4
 8000588:	d8bc      	bhi.n	8000504 <__udivmoddi4+0xc4>
 800058a:	e782      	b.n	8000492 <__udivmoddi4+0x52>
 800058c:	4642      	mov	r2, r8
 800058e:	2320      	movs	r3, #32
 8000590:	2100      	movs	r1, #0
 8000592:	1a9b      	subs	r3, r3, r2
 8000594:	2200      	movs	r2, #0
 8000596:	9100      	str	r1, [sp, #0]
 8000598:	9201      	str	r2, [sp, #4]
 800059a:	2201      	movs	r2, #1
 800059c:	40da      	lsrs	r2, r3
 800059e:	9201      	str	r2, [sp, #4]
 80005a0:	e785      	b.n	80004ae <__udivmoddi4+0x6e>
 80005a2:	4642      	mov	r2, r8
 80005a4:	2320      	movs	r3, #32
 80005a6:	1a9b      	subs	r3, r3, r2
 80005a8:	002a      	movs	r2, r5
 80005aa:	4646      	mov	r6, r8
 80005ac:	409a      	lsls	r2, r3
 80005ae:	0023      	movs	r3, r4
 80005b0:	40f3      	lsrs	r3, r6
 80005b2:	4644      	mov	r4, r8
 80005b4:	4313      	orrs	r3, r2
 80005b6:	002a      	movs	r2, r5
 80005b8:	40e2      	lsrs	r2, r4
 80005ba:	001c      	movs	r4, r3
 80005bc:	465b      	mov	r3, fp
 80005be:	0015      	movs	r5, r2
 80005c0:	2b00      	cmp	r3, #0
 80005c2:	dad4      	bge.n	800056e <__udivmoddi4+0x12e>
 80005c4:	4642      	mov	r2, r8
 80005c6:	002f      	movs	r7, r5
 80005c8:	2320      	movs	r3, #32
 80005ca:	0026      	movs	r6, r4
 80005cc:	4097      	lsls	r7, r2
 80005ce:	1a9b      	subs	r3, r3, r2
 80005d0:	40de      	lsrs	r6, r3
 80005d2:	003b      	movs	r3, r7
 80005d4:	4333      	orrs	r3, r6
 80005d6:	e7cd      	b.n	8000574 <__udivmoddi4+0x134>

080005d8 <__aeabi_fmul>:
 80005d8:	b5f0      	push	{r4, r5, r6, r7, lr}
 80005da:	464f      	mov	r7, r9
 80005dc:	4646      	mov	r6, r8
 80005de:	46d6      	mov	lr, sl
 80005e0:	0243      	lsls	r3, r0, #9
 80005e2:	0a5b      	lsrs	r3, r3, #9
 80005e4:	0045      	lsls	r5, r0, #1
 80005e6:	b5c0      	push	{r6, r7, lr}
 80005e8:	4699      	mov	r9, r3
 80005ea:	1c0f      	adds	r7, r1, #0
 80005ec:	0e2d      	lsrs	r5, r5, #24
 80005ee:	0fc6      	lsrs	r6, r0, #31
 80005f0:	2d00      	cmp	r5, #0
 80005f2:	d100      	bne.n	80005f6 <__aeabi_fmul+0x1e>
 80005f4:	e088      	b.n	8000708 <__aeabi_fmul+0x130>
 80005f6:	2dff      	cmp	r5, #255	@ 0xff
 80005f8:	d100      	bne.n	80005fc <__aeabi_fmul+0x24>
 80005fa:	e08d      	b.n	8000718 <__aeabi_fmul+0x140>
 80005fc:	2280      	movs	r2, #128	@ 0x80
 80005fe:	00db      	lsls	r3, r3, #3
 8000600:	04d2      	lsls	r2, r2, #19
 8000602:	431a      	orrs	r2, r3
 8000604:	2300      	movs	r3, #0
 8000606:	4691      	mov	r9, r2
 8000608:	4698      	mov	r8, r3
 800060a:	469a      	mov	sl, r3
 800060c:	3d7f      	subs	r5, #127	@ 0x7f
 800060e:	027c      	lsls	r4, r7, #9
 8000610:	007b      	lsls	r3, r7, #1
 8000612:	0a64      	lsrs	r4, r4, #9
 8000614:	0e1b      	lsrs	r3, r3, #24
 8000616:	0fff      	lsrs	r7, r7, #31
 8000618:	2b00      	cmp	r3, #0
 800061a:	d068      	beq.n	80006ee <__aeabi_fmul+0x116>
 800061c:	2bff      	cmp	r3, #255	@ 0xff
 800061e:	d021      	beq.n	8000664 <__aeabi_fmul+0x8c>
 8000620:	2280      	movs	r2, #128	@ 0x80
 8000622:	00e4      	lsls	r4, r4, #3
 8000624:	04d2      	lsls	r2, r2, #19
 8000626:	4314      	orrs	r4, r2
 8000628:	4642      	mov	r2, r8
 800062a:	3b7f      	subs	r3, #127	@ 0x7f
 800062c:	195b      	adds	r3, r3, r5
 800062e:	2100      	movs	r1, #0
 8000630:	1c5d      	adds	r5, r3, #1
 8000632:	2a0a      	cmp	r2, #10
 8000634:	dc2e      	bgt.n	8000694 <__aeabi_fmul+0xbc>
 8000636:	407e      	eors	r6, r7
 8000638:	4642      	mov	r2, r8
 800063a:	2a02      	cmp	r2, #2
 800063c:	dc23      	bgt.n	8000686 <__aeabi_fmul+0xae>
 800063e:	3a01      	subs	r2, #1
 8000640:	2a01      	cmp	r2, #1
 8000642:	d900      	bls.n	8000646 <__aeabi_fmul+0x6e>
 8000644:	e0bd      	b.n	80007c2 <__aeabi_fmul+0x1ea>
 8000646:	2902      	cmp	r1, #2
 8000648:	d06e      	beq.n	8000728 <__aeabi_fmul+0x150>
 800064a:	2901      	cmp	r1, #1
 800064c:	d12c      	bne.n	80006a8 <__aeabi_fmul+0xd0>
 800064e:	2000      	movs	r0, #0
 8000650:	2200      	movs	r2, #0
 8000652:	05c0      	lsls	r0, r0, #23
 8000654:	07f6      	lsls	r6, r6, #31
 8000656:	4310      	orrs	r0, r2
 8000658:	4330      	orrs	r0, r6
 800065a:	bce0      	pop	{r5, r6, r7}
 800065c:	46ba      	mov	sl, r7
 800065e:	46b1      	mov	r9, r6
 8000660:	46a8      	mov	r8, r5
 8000662:	bdf0      	pop	{r4, r5, r6, r7, pc}
 8000664:	002b      	movs	r3, r5
 8000666:	33ff      	adds	r3, #255	@ 0xff
 8000668:	2c00      	cmp	r4, #0
 800066a:	d065      	beq.n	8000738 <__aeabi_fmul+0x160>
 800066c:	2203      	movs	r2, #3
 800066e:	4641      	mov	r1, r8
 8000670:	4311      	orrs	r1, r2
 8000672:	0032      	movs	r2, r6
 8000674:	3501      	adds	r5, #1
 8000676:	4688      	mov	r8, r1
 8000678:	407a      	eors	r2, r7
 800067a:	35ff      	adds	r5, #255	@ 0xff
 800067c:	290a      	cmp	r1, #10
 800067e:	dd00      	ble.n	8000682 <__aeabi_fmul+0xaa>
 8000680:	e0d8      	b.n	8000834 <__aeabi_fmul+0x25c>
 8000682:	0016      	movs	r6, r2
 8000684:	2103      	movs	r1, #3
 8000686:	4640      	mov	r0, r8
 8000688:	2201      	movs	r2, #1
 800068a:	4082      	lsls	r2, r0
 800068c:	20a6      	movs	r0, #166	@ 0xa6
 800068e:	00c0      	lsls	r0, r0, #3
 8000690:	4202      	tst	r2, r0
 8000692:	d020      	beq.n	80006d6 <__aeabi_fmul+0xfe>
 8000694:	4653      	mov	r3, sl
 8000696:	2b02      	cmp	r3, #2
 8000698:	d046      	beq.n	8000728 <__aeabi_fmul+0x150>
 800069a:	2b03      	cmp	r3, #3
 800069c:	d100      	bne.n	80006a0 <__aeabi_fmul+0xc8>
 800069e:	e0bb      	b.n	8000818 <__aeabi_fmul+0x240>
 80006a0:	4651      	mov	r1, sl
 80006a2:	464c      	mov	r4, r9
 80006a4:	2901      	cmp	r1, #1
 80006a6:	d0d2      	beq.n	800064e <__aeabi_fmul+0x76>
 80006a8:	002b      	movs	r3, r5
 80006aa:	337f      	adds	r3, #127	@ 0x7f
 80006ac:	2b00      	cmp	r3, #0
 80006ae:	dd70      	ble.n	8000792 <__aeabi_fmul+0x1ba>
 80006b0:	0762      	lsls	r2, r4, #29
 80006b2:	d004      	beq.n	80006be <__aeabi_fmul+0xe6>
 80006b4:	220f      	movs	r2, #15
 80006b6:	4022      	ands	r2, r4
 80006b8:	2a04      	cmp	r2, #4
 80006ba:	d000      	beq.n	80006be <__aeabi_fmul+0xe6>
 80006bc:	3404      	adds	r4, #4
 80006be:	0122      	lsls	r2, r4, #4
 80006c0:	d503      	bpl.n	80006ca <__aeabi_fmul+0xf2>
 80006c2:	4b63      	ldr	r3, [pc, #396]	@ (8000850 <__aeabi_fmul+0x278>)
 80006c4:	401c      	ands	r4, r3
 80006c6:	002b      	movs	r3, r5
 80006c8:	3380      	adds	r3, #128	@ 0x80
 80006ca:	2bfe      	cmp	r3, #254	@ 0xfe
 80006cc:	dc2c      	bgt.n	8000728 <__aeabi_fmul+0x150>
 80006ce:	01a2      	lsls	r2, r4, #6
 80006d0:	0a52      	lsrs	r2, r2, #9
 80006d2:	b2d8      	uxtb	r0, r3
 80006d4:	e7bd      	b.n	8000652 <__aeabi_fmul+0x7a>
 80006d6:	2090      	movs	r0, #144	@ 0x90
 80006d8:	0080      	lsls	r0, r0, #2
 80006da:	4202      	tst	r2, r0
 80006dc:	d127      	bne.n	800072e <__aeabi_fmul+0x156>
 80006de:	38b9      	subs	r0, #185	@ 0xb9
 80006e0:	38ff      	subs	r0, #255	@ 0xff
 80006e2:	4210      	tst	r0, r2
 80006e4:	d06d      	beq.n	80007c2 <__aeabi_fmul+0x1ea>
 80006e6:	003e      	movs	r6, r7
 80006e8:	46a1      	mov	r9, r4
 80006ea:	468a      	mov	sl, r1
 80006ec:	e7d2      	b.n	8000694 <__aeabi_fmul+0xbc>
 80006ee:	2c00      	cmp	r4, #0
 80006f0:	d141      	bne.n	8000776 <__aeabi_fmul+0x19e>
 80006f2:	2301      	movs	r3, #1
 80006f4:	4642      	mov	r2, r8
 80006f6:	431a      	orrs	r2, r3
 80006f8:	4690      	mov	r8, r2
 80006fa:	002b      	movs	r3, r5
 80006fc:	4642      	mov	r2, r8
 80006fe:	2101      	movs	r1, #1
 8000700:	1c5d      	adds	r5, r3, #1
 8000702:	2a0a      	cmp	r2, #10
 8000704:	dd97      	ble.n	8000636 <__aeabi_fmul+0x5e>
 8000706:	e7c5      	b.n	8000694 <__aeabi_fmul+0xbc>
 8000708:	2b00      	cmp	r3, #0
 800070a:	d126      	bne.n	800075a <__aeabi_fmul+0x182>
 800070c:	2304      	movs	r3, #4
 800070e:	4698      	mov	r8, r3
 8000710:	3b03      	subs	r3, #3
 8000712:	2500      	movs	r5, #0
 8000714:	469a      	mov	sl, r3
 8000716:	e77a      	b.n	800060e <__aeabi_fmul+0x36>
 8000718:	2b00      	cmp	r3, #0
 800071a:	d118      	bne.n	800074e <__aeabi_fmul+0x176>
 800071c:	2308      	movs	r3, #8
 800071e:	4698      	mov	r8, r3
 8000720:	3b06      	subs	r3, #6
 8000722:	25ff      	movs	r5, #255	@ 0xff
 8000724:	469a      	mov	sl, r3
 8000726:	e772      	b.n	800060e <__aeabi_fmul+0x36>
 8000728:	20ff      	movs	r0, #255	@ 0xff
 800072a:	2200      	movs	r2, #0
 800072c:	e791      	b.n	8000652 <__aeabi_fmul+0x7a>
 800072e:	2280      	movs	r2, #128	@ 0x80
 8000730:	2600      	movs	r6, #0
 8000732:	20ff      	movs	r0, #255	@ 0xff
 8000734:	03d2      	lsls	r2, r2, #15
 8000736:	e78c      	b.n	8000652 <__aeabi_fmul+0x7a>
 8000738:	4641      	mov	r1, r8
 800073a:	2202      	movs	r2, #2
 800073c:	3501      	adds	r5, #1
 800073e:	4311      	orrs	r1, r2
 8000740:	4688      	mov	r8, r1
 8000742:	35ff      	adds	r5, #255	@ 0xff
 8000744:	290a      	cmp	r1, #10
 8000746:	dca5      	bgt.n	8000694 <__aeabi_fmul+0xbc>
 8000748:	2102      	movs	r1, #2
 800074a:	407e      	eors	r6, r7
 800074c:	e774      	b.n	8000638 <__aeabi_fmul+0x60>
 800074e:	230c      	movs	r3, #12
 8000750:	4698      	mov	r8, r3
 8000752:	3b09      	subs	r3, #9
 8000754:	25ff      	movs	r5, #255	@ 0xff
 8000756:	469a      	mov	sl, r3
 8000758:	e759      	b.n	800060e <__aeabi_fmul+0x36>
 800075a:	0018      	movs	r0, r3
 800075c:	f000 f950 	bl	8000a00 <__clzsi2>
 8000760:	464a      	mov	r2, r9
 8000762:	1f43      	subs	r3, r0, #5
 8000764:	2576      	movs	r5, #118	@ 0x76
 8000766:	409a      	lsls	r2, r3
 8000768:	2300      	movs	r3, #0
 800076a:	426d      	negs	r5, r5
 800076c:	4691      	mov	r9, r2
 800076e:	4698      	mov	r8, r3
 8000770:	469a      	mov	sl, r3
 8000772:	1a2d      	subs	r5, r5, r0
 8000774:	e74b      	b.n	800060e <__aeabi_fmul+0x36>
 8000776:	0020      	movs	r0, r4
 8000778:	f000 f942 	bl	8000a00 <__clzsi2>
 800077c:	4642      	mov	r2, r8
 800077e:	1f43      	subs	r3, r0, #5
 8000780:	409c      	lsls	r4, r3
 8000782:	1a2b      	subs	r3, r5, r0
 8000784:	3b76      	subs	r3, #118	@ 0x76
 8000786:	2100      	movs	r1, #0
 8000788:	1c5d      	adds	r5, r3, #1
 800078a:	2a0a      	cmp	r2, #10
 800078c:	dc00      	bgt.n	8000790 <__aeabi_fmul+0x1b8>
 800078e:	e752      	b.n	8000636 <__aeabi_fmul+0x5e>
 8000790:	e780      	b.n	8000694 <__aeabi_fmul+0xbc>
 8000792:	2201      	movs	r2, #1
 8000794:	1ad3      	subs	r3, r2, r3
 8000796:	2b1b      	cmp	r3, #27
 8000798:	dd00      	ble.n	800079c <__aeabi_fmul+0x1c4>
 800079a:	e758      	b.n	800064e <__aeabi_fmul+0x76>
 800079c:	359e      	adds	r5, #158	@ 0x9e
 800079e:	0022      	movs	r2, r4
 80007a0:	40ac      	lsls	r4, r5
 80007a2:	40da      	lsrs	r2, r3
 80007a4:	1e63      	subs	r3, r4, #1
 80007a6:	419c      	sbcs	r4, r3
 80007a8:	4322      	orrs	r2, r4
 80007aa:	0753      	lsls	r3, r2, #29
 80007ac:	d004      	beq.n	80007b8 <__aeabi_fmul+0x1e0>
 80007ae:	230f      	movs	r3, #15
 80007b0:	4013      	ands	r3, r2
 80007b2:	2b04      	cmp	r3, #4
 80007b4:	d000      	beq.n	80007b8 <__aeabi_fmul+0x1e0>
 80007b6:	3204      	adds	r2, #4
 80007b8:	0153      	lsls	r3, r2, #5
 80007ba:	d537      	bpl.n	800082c <__aeabi_fmul+0x254>
 80007bc:	2001      	movs	r0, #1
 80007be:	2200      	movs	r2, #0
 80007c0:	e747      	b.n	8000652 <__aeabi_fmul+0x7a>
 80007c2:	0c21      	lsrs	r1, r4, #16
 80007c4:	464a      	mov	r2, r9
 80007c6:	0424      	lsls	r4, r4, #16
 80007c8:	0c24      	lsrs	r4, r4, #16
 80007ca:	0027      	movs	r7, r4
 80007cc:	0c10      	lsrs	r0, r2, #16
 80007ce:	0412      	lsls	r2, r2, #16
 80007d0:	0c12      	lsrs	r2, r2, #16
 80007d2:	4344      	muls	r4, r0
 80007d4:	4357      	muls	r7, r2
 80007d6:	4348      	muls	r0, r1
 80007d8:	4351      	muls	r1, r2
 80007da:	0c3a      	lsrs	r2, r7, #16
 80007dc:	1909      	adds	r1, r1, r4
 80007de:	1852      	adds	r2, r2, r1
 80007e0:	4294      	cmp	r4, r2
 80007e2:	d903      	bls.n	80007ec <__aeabi_fmul+0x214>
 80007e4:	2180      	movs	r1, #128	@ 0x80
 80007e6:	0249      	lsls	r1, r1, #9
 80007e8:	468c      	mov	ip, r1
 80007ea:	4460      	add	r0, ip
 80007ec:	043f      	lsls	r7, r7, #16
 80007ee:	0411      	lsls	r1, r2, #16
 80007f0:	0c3f      	lsrs	r7, r7, #16
 80007f2:	19c9      	adds	r1, r1, r7
 80007f4:	018c      	lsls	r4, r1, #6
 80007f6:	1e67      	subs	r7, r4, #1
 80007f8:	41bc      	sbcs	r4, r7
 80007fa:	0c12      	lsrs	r2, r2, #16
 80007fc:	0e89      	lsrs	r1, r1, #26
 80007fe:	1812      	adds	r2, r2, r0
 8000800:	430c      	orrs	r4, r1
 8000802:	0192      	lsls	r2, r2, #6
 8000804:	4314      	orrs	r4, r2
 8000806:	0112      	lsls	r2, r2, #4
 8000808:	d50e      	bpl.n	8000828 <__aeabi_fmul+0x250>
 800080a:	2301      	movs	r3, #1
 800080c:	0862      	lsrs	r2, r4, #1
 800080e:	401c      	ands	r4, r3
 8000810:	4314      	orrs	r4, r2
 8000812:	e749      	b.n	80006a8 <__aeabi_fmul+0xd0>
 8000814:	003e      	movs	r6, r7
 8000816:	46a1      	mov	r9, r4
 8000818:	2280      	movs	r2, #128	@ 0x80
 800081a:	464b      	mov	r3, r9
 800081c:	03d2      	lsls	r2, r2, #15
 800081e:	431a      	orrs	r2, r3
 8000820:	0252      	lsls	r2, r2, #9
 8000822:	20ff      	movs	r0, #255	@ 0xff
 8000824:	0a52      	lsrs	r2, r2, #9
 8000826:	e714      	b.n	8000652 <__aeabi_fmul+0x7a>
 8000828:	001d      	movs	r5, r3
 800082a:	e73d      	b.n	80006a8 <__aeabi_fmul+0xd0>
 800082c:	0192      	lsls	r2, r2, #6
 800082e:	2000      	movs	r0, #0
 8000830:	0a52      	lsrs	r2, r2, #9
 8000832:	e70e      	b.n	8000652 <__aeabi_fmul+0x7a>
 8000834:	290f      	cmp	r1, #15
 8000836:	d1ed      	bne.n	8000814 <__aeabi_fmul+0x23c>
 8000838:	2280      	movs	r2, #128	@ 0x80
 800083a:	464b      	mov	r3, r9
 800083c:	03d2      	lsls	r2, r2, #15
 800083e:	4213      	tst	r3, r2
 8000840:	d0ea      	beq.n	8000818 <__aeabi_fmul+0x240>
 8000842:	4214      	tst	r4, r2
 8000844:	d1e8      	bne.n	8000818 <__aeabi_fmul+0x240>
 8000846:	003e      	movs	r6, r7
 8000848:	20ff      	movs	r0, #255	@ 0xff
 800084a:	4322      	orrs	r2, r4
 800084c:	e701      	b.n	8000652 <__aeabi_fmul+0x7a>
 800084e:	46c0      	nop			@ (mov r8, r8)
 8000850:	f7ffffff 	.word	0xf7ffffff

08000854 <__aeabi_f2iz>:
 8000854:	0241      	lsls	r1, r0, #9
 8000856:	0042      	lsls	r2, r0, #1
 8000858:	0fc3      	lsrs	r3, r0, #31
 800085a:	0a49      	lsrs	r1, r1, #9
 800085c:	2000      	movs	r0, #0
 800085e:	0e12      	lsrs	r2, r2, #24
 8000860:	2a7e      	cmp	r2, #126	@ 0x7e
 8000862:	dd03      	ble.n	800086c <__aeabi_f2iz+0x18>
 8000864:	2a9d      	cmp	r2, #157	@ 0x9d
 8000866:	dd02      	ble.n	800086e <__aeabi_f2iz+0x1a>
 8000868:	4a09      	ldr	r2, [pc, #36]	@ (8000890 <__aeabi_f2iz+0x3c>)
 800086a:	1898      	adds	r0, r3, r2
 800086c:	4770      	bx	lr
 800086e:	2080      	movs	r0, #128	@ 0x80
 8000870:	0400      	lsls	r0, r0, #16
 8000872:	4301      	orrs	r1, r0
 8000874:	2a95      	cmp	r2, #149	@ 0x95
 8000876:	dc07      	bgt.n	8000888 <__aeabi_f2iz+0x34>
 8000878:	2096      	movs	r0, #150	@ 0x96
 800087a:	1a82      	subs	r2, r0, r2
 800087c:	40d1      	lsrs	r1, r2
 800087e:	4248      	negs	r0, r1
 8000880:	2b00      	cmp	r3, #0
 8000882:	d1f3      	bne.n	800086c <__aeabi_f2iz+0x18>
 8000884:	0008      	movs	r0, r1
 8000886:	e7f1      	b.n	800086c <__aeabi_f2iz+0x18>
 8000888:	3a96      	subs	r2, #150	@ 0x96
 800088a:	4091      	lsls	r1, r2
 800088c:	e7f7      	b.n	800087e <__aeabi_f2iz+0x2a>
 800088e:	46c0      	nop			@ (mov r8, r8)
 8000890:	7fffffff 	.word	0x7fffffff

08000894 <__aeabi_i2f>:
 8000894:	b570      	push	{r4, r5, r6, lr}
 8000896:	2800      	cmp	r0, #0
 8000898:	d013      	beq.n	80008c2 <__aeabi_i2f+0x2e>
 800089a:	17c3      	asrs	r3, r0, #31
 800089c:	18c5      	adds	r5, r0, r3
 800089e:	405d      	eors	r5, r3
 80008a0:	0fc4      	lsrs	r4, r0, #31
 80008a2:	0028      	movs	r0, r5
 80008a4:	f000 f8ac 	bl	8000a00 <__clzsi2>
 80008a8:	239e      	movs	r3, #158	@ 0x9e
 80008aa:	0001      	movs	r1, r0
 80008ac:	1a1b      	subs	r3, r3, r0
 80008ae:	2b96      	cmp	r3, #150	@ 0x96
 80008b0:	dc0f      	bgt.n	80008d2 <__aeabi_i2f+0x3e>
 80008b2:	2808      	cmp	r0, #8
 80008b4:	d034      	beq.n	8000920 <__aeabi_i2f+0x8c>
 80008b6:	3908      	subs	r1, #8
 80008b8:	408d      	lsls	r5, r1
 80008ba:	026d      	lsls	r5, r5, #9
 80008bc:	0a6d      	lsrs	r5, r5, #9
 80008be:	b2d8      	uxtb	r0, r3
 80008c0:	e002      	b.n	80008c8 <__aeabi_i2f+0x34>
 80008c2:	2400      	movs	r4, #0
 80008c4:	2000      	movs	r0, #0
 80008c6:	2500      	movs	r5, #0
 80008c8:	05c0      	lsls	r0, r0, #23
 80008ca:	4328      	orrs	r0, r5
 80008cc:	07e4      	lsls	r4, r4, #31
 80008ce:	4320      	orrs	r0, r4
 80008d0:	bd70      	pop	{r4, r5, r6, pc}
 80008d2:	2b99      	cmp	r3, #153	@ 0x99
 80008d4:	dc16      	bgt.n	8000904 <__aeabi_i2f+0x70>
 80008d6:	1f42      	subs	r2, r0, #5
 80008d8:	2805      	cmp	r0, #5
 80008da:	d000      	beq.n	80008de <__aeabi_i2f+0x4a>
 80008dc:	4095      	lsls	r5, r2
 80008de:	002a      	movs	r2, r5
 80008e0:	4811      	ldr	r0, [pc, #68]	@ (8000928 <__aeabi_i2f+0x94>)
 80008e2:	4002      	ands	r2, r0
 80008e4:	076e      	lsls	r6, r5, #29
 80008e6:	d009      	beq.n	80008fc <__aeabi_i2f+0x68>
 80008e8:	260f      	movs	r6, #15
 80008ea:	4035      	ands	r5, r6
 80008ec:	2d04      	cmp	r5, #4
 80008ee:	d005      	beq.n	80008fc <__aeabi_i2f+0x68>
 80008f0:	3204      	adds	r2, #4
 80008f2:	0155      	lsls	r5, r2, #5
 80008f4:	d502      	bpl.n	80008fc <__aeabi_i2f+0x68>
 80008f6:	239f      	movs	r3, #159	@ 0x9f
 80008f8:	4002      	ands	r2, r0
 80008fa:	1a5b      	subs	r3, r3, r1
 80008fc:	0192      	lsls	r2, r2, #6
 80008fe:	0a55      	lsrs	r5, r2, #9
 8000900:	b2d8      	uxtb	r0, r3
 8000902:	e7e1      	b.n	80008c8 <__aeabi_i2f+0x34>
 8000904:	2205      	movs	r2, #5
 8000906:	1a12      	subs	r2, r2, r0
 8000908:	0028      	movs	r0, r5
 800090a:	40d0      	lsrs	r0, r2
 800090c:	0002      	movs	r2, r0
 800090e:	0008      	movs	r0, r1
 8000910:	301b      	adds	r0, #27
 8000912:	4085      	lsls	r5, r0
 8000914:	0028      	movs	r0, r5
 8000916:	1e45      	subs	r5, r0, #1
 8000918:	41a8      	sbcs	r0, r5
 800091a:	4302      	orrs	r2, r0
 800091c:	0015      	movs	r5, r2
 800091e:	e7de      	b.n	80008de <__aeabi_i2f+0x4a>
 8000920:	026d      	lsls	r5, r5, #9
 8000922:	2096      	movs	r0, #150	@ 0x96
 8000924:	0a6d      	lsrs	r5, r5, #9
 8000926:	e7cf      	b.n	80008c8 <__aeabi_i2f+0x34>
 8000928:	fbffffff 	.word	0xfbffffff

0800092c <__aeabi_d2iz>:
 800092c:	000b      	movs	r3, r1
 800092e:	0002      	movs	r2, r0
 8000930:	b570      	push	{r4, r5, r6, lr}
 8000932:	4d16      	ldr	r5, [pc, #88]	@ (800098c <__aeabi_d2iz+0x60>)
 8000934:	030c      	lsls	r4, r1, #12
 8000936:	b082      	sub	sp, #8
 8000938:	0049      	lsls	r1, r1, #1
 800093a:	2000      	movs	r0, #0
 800093c:	9200      	str	r2, [sp, #0]
 800093e:	9301      	str	r3, [sp, #4]
 8000940:	0b24      	lsrs	r4, r4, #12
 8000942:	0d49      	lsrs	r1, r1, #21
 8000944:	0fde      	lsrs	r6, r3, #31
 8000946:	42a9      	cmp	r1, r5
 8000948:	dd04      	ble.n	8000954 <__aeabi_d2iz+0x28>
 800094a:	4811      	ldr	r0, [pc, #68]	@ (8000990 <__aeabi_d2iz+0x64>)
 800094c:	4281      	cmp	r1, r0
 800094e:	dd03      	ble.n	8000958 <__aeabi_d2iz+0x2c>
 8000950:	4b10      	ldr	r3, [pc, #64]	@ (8000994 <__aeabi_d2iz+0x68>)
 8000952:	18f0      	adds	r0, r6, r3
 8000954:	b002      	add	sp, #8
 8000956:	bd70      	pop	{r4, r5, r6, pc}
 8000958:	2080      	movs	r0, #128	@ 0x80
 800095a:	0340      	lsls	r0, r0, #13
 800095c:	4320      	orrs	r0, r4
 800095e:	4c0e      	ldr	r4, [pc, #56]	@ (8000998 <__aeabi_d2iz+0x6c>)
 8000960:	1a64      	subs	r4, r4, r1
 8000962:	2c1f      	cmp	r4, #31
 8000964:	dd08      	ble.n	8000978 <__aeabi_d2iz+0x4c>
 8000966:	4b0d      	ldr	r3, [pc, #52]	@ (800099c <__aeabi_d2iz+0x70>)
 8000968:	1a5b      	subs	r3, r3, r1
 800096a:	40d8      	lsrs	r0, r3
 800096c:	0003      	movs	r3, r0
 800096e:	4258      	negs	r0, r3
 8000970:	2e00      	cmp	r6, #0
 8000972:	d1ef      	bne.n	8000954 <__aeabi_d2iz+0x28>
 8000974:	0018      	movs	r0, r3
 8000976:	e7ed      	b.n	8000954 <__aeabi_d2iz+0x28>
 8000978:	4b09      	ldr	r3, [pc, #36]	@ (80009a0 <__aeabi_d2iz+0x74>)
 800097a:	9a00      	ldr	r2, [sp, #0]
 800097c:	469c      	mov	ip, r3
 800097e:	0003      	movs	r3, r0
 8000980:	4461      	add	r1, ip
 8000982:	408b      	lsls	r3, r1
 8000984:	40e2      	lsrs	r2, r4
 8000986:	4313      	orrs	r3, r2
 8000988:	e7f1      	b.n	800096e <__aeabi_d2iz+0x42>
 800098a:	46c0      	nop			@ (mov r8, r8)
 800098c:	000003fe 	.word	0x000003fe
 8000990:	0000041d 	.word	0x0000041d
 8000994:	7fffffff 	.word	0x7fffffff
 8000998:	00000433 	.word	0x00000433
 800099c:	00000413 	.word	0x00000413
 80009a0:	fffffbed 	.word	0xfffffbed

080009a4 <__aeabi_i2d>:
 80009a4:	b570      	push	{r4, r5, r6, lr}
 80009a6:	2800      	cmp	r0, #0
 80009a8:	d016      	beq.n	80009d8 <__aeabi_i2d+0x34>
 80009aa:	17c3      	asrs	r3, r0, #31
 80009ac:	18c5      	adds	r5, r0, r3
 80009ae:	405d      	eors	r5, r3
 80009b0:	0fc4      	lsrs	r4, r0, #31
 80009b2:	0028      	movs	r0, r5
 80009b4:	f000 f824 	bl	8000a00 <__clzsi2>
 80009b8:	4b10      	ldr	r3, [pc, #64]	@ (80009fc <__aeabi_i2d+0x58>)
 80009ba:	1a1b      	subs	r3, r3, r0
 80009bc:	055b      	lsls	r3, r3, #21
 80009be:	0d5b      	lsrs	r3, r3, #21
 80009c0:	280a      	cmp	r0, #10
 80009c2:	dc14      	bgt.n	80009ee <__aeabi_i2d+0x4a>
 80009c4:	0002      	movs	r2, r0
 80009c6:	002e      	movs	r6, r5
 80009c8:	3215      	adds	r2, #21
 80009ca:	4096      	lsls	r6, r2
 80009cc:	220b      	movs	r2, #11
 80009ce:	1a12      	subs	r2, r2, r0
 80009d0:	40d5      	lsrs	r5, r2
 80009d2:	032d      	lsls	r5, r5, #12
 80009d4:	0b2d      	lsrs	r5, r5, #12
 80009d6:	e003      	b.n	80009e0 <__aeabi_i2d+0x3c>
 80009d8:	2400      	movs	r4, #0
 80009da:	2300      	movs	r3, #0
 80009dc:	2500      	movs	r5, #0
 80009de:	2600      	movs	r6, #0
 80009e0:	051b      	lsls	r3, r3, #20
 80009e2:	432b      	orrs	r3, r5
 80009e4:	07e4      	lsls	r4, r4, #31
 80009e6:	4323      	orrs	r3, r4
 80009e8:	0030      	movs	r0, r6
 80009ea:	0019      	movs	r1, r3
 80009ec:	bd70      	pop	{r4, r5, r6, pc}
 80009ee:	380b      	subs	r0, #11
 80009f0:	4085      	lsls	r5, r0
 80009f2:	032d      	lsls	r5, r5, #12
 80009f4:	2600      	movs	r6, #0
 80009f6:	0b2d      	lsrs	r5, r5, #12
 80009f8:	e7f2      	b.n	80009e0 <__aeabi_i2d+0x3c>
 80009fa:	46c0      	nop			@ (mov r8, r8)
 80009fc:	0000041e 	.word	0x0000041e

08000a00 <__clzsi2>:
 8000a00:	211c      	movs	r1, #28
 8000a02:	2301      	movs	r3, #1
 8000a04:	041b      	lsls	r3, r3, #16
 8000a06:	4298      	cmp	r0, r3
 8000a08:	d301      	bcc.n	8000a0e <__clzsi2+0xe>
 8000a0a:	0c00      	lsrs	r0, r0, #16
 8000a0c:	3910      	subs	r1, #16
 8000a0e:	0a1b      	lsrs	r3, r3, #8
 8000a10:	4298      	cmp	r0, r3
 8000a12:	d301      	bcc.n	8000a18 <__clzsi2+0x18>
 8000a14:	0a00      	lsrs	r0, r0, #8
 8000a16:	3908      	subs	r1, #8
 8000a18:	091b      	lsrs	r3, r3, #4
 8000a1a:	4298      	cmp	r0, r3
 8000a1c:	d301      	bcc.n	8000a22 <__clzsi2+0x22>
 8000a1e:	0900      	lsrs	r0, r0, #4
 8000a20:	3904      	subs	r1, #4
 8000a22:	a202      	add	r2, pc, #8	@ (adr r2, 8000a2c <__clzsi2+0x2c>)
 8000a24:	5c10      	ldrb	r0, [r2, r0]
 8000a26:	1840      	adds	r0, r0, r1
 8000a28:	4770      	bx	lr
 8000a2a:	46c0      	nop			@ (mov r8, r8)
 8000a2c:	02020304 	.word	0x02020304
 8000a30:	01010101 	.word	0x01010101
	...

08000a3c <__clzdi2>:
 8000a3c:	b510      	push	{r4, lr}
 8000a3e:	2900      	cmp	r1, #0
 8000a40:	d103      	bne.n	8000a4a <__clzdi2+0xe>
 8000a42:	f7ff ffdd 	bl	8000a00 <__clzsi2>
 8000a46:	3020      	adds	r0, #32
 8000a48:	e002      	b.n	8000a50 <__clzdi2+0x14>
 8000a4a:	0008      	movs	r0, r1
 8000a4c:	f7ff ffd8 	bl	8000a00 <__clzsi2>
 8000a50:	bd10      	pop	{r4, pc}
 8000a52:	46c0      	nop			@ (mov r8, r8)

08000a54 <HAL_InitTick>:
 8000a54:	b570      	push	{r4, r5, r6, lr}
 8000a56:	4b10      	ldr	r3, [pc, #64]	@ (8000a98 <HAL_InitTick+0x44>)
 8000a58:	0005      	movs	r5, r0
 8000a5a:	7819      	ldrb	r1, [r3, #0]
 8000a5c:	2900      	cmp	r1, #0
 8000a5e:	d101      	bne.n	8000a64 <HAL_InitTick+0x10>
 8000a60:	2001      	movs	r0, #1
 8000a62:	bd70      	pop	{r4, r5, r6, pc}
 8000a64:	20fa      	movs	r0, #250	@ 0xfa
 8000a66:	0080      	lsls	r0, r0, #2
 8000a68:	f7ff fb54 	bl	8000114 <__udivsi3>
 8000a6c:	4c0b      	ldr	r4, [pc, #44]	@ (8000a9c <HAL_InitTick+0x48>)
 8000a6e:	0001      	movs	r1, r0
 8000a70:	6820      	ldr	r0, [r4, #0]
 8000a72:	f7ff fb4f 	bl	8000114 <__udivsi3>
 8000a76:	f000 f877 	bl	8000b68 <HAL_SYSTICK_Config>
 8000a7a:	1e04      	subs	r4, r0, #0
 8000a7c:	d1f0      	bne.n	8000a60 <HAL_InitTick+0xc>
 8000a7e:	2d03      	cmp	r5, #3
 8000a80:	d8ee      	bhi.n	8000a60 <HAL_InitTick+0xc>
 8000a82:	0002      	movs	r2, r0
 8000a84:	2001      	movs	r0, #1
 8000a86:	0029      	movs	r1, r5
 8000a88:	4240      	negs	r0, r0
 8000a8a:	f000 f843 	bl	8000b14 <HAL_NVIC_SetPriority>
 8000a8e:	4b04      	ldr	r3, [pc, #16]	@ (8000aa0 <HAL_InitTick+0x4c>)
 8000a90:	0020      	movs	r0, r4
 8000a92:	601d      	str	r5, [r3, #0]
 8000a94:	e7e5      	b.n	8000a62 <HAL_InitTick+0xe>
 8000a96:	46c0      	nop			@ (mov r8, r8)
 8000a98:	20000000 	.word	0x20000000
 8000a9c:	20000008 	.word	0x20000008
 8000aa0:	20000004 	.word	0x20000004

08000aa4 <HAL_Init>:
 8000aa4:	2380      	movs	r3, #128	@ 0x80
 8000aa6:	4a08      	ldr	r2, [pc, #32]	@ (8000ac8 <HAL_Init+0x24>)
 8000aa8:	005b      	lsls	r3, r3, #1
 8000aaa:	6811      	ldr	r1, [r2, #0]
 8000aac:	b510      	push	{r4, lr}
 8000aae:	430b      	orrs	r3, r1
 8000ab0:	2003      	movs	r0, #3
 8000ab2:	6013      	str	r3, [r2, #0]
 8000ab4:	f7ff ffce 	bl	8000a54 <HAL_InitTick>
 8000ab8:	1e04      	subs	r4, r0, #0
 8000aba:	d103      	bne.n	8000ac4 <HAL_Init+0x20>
 8000abc:	f002 f836 	bl	8002b2c <HAL_MspInit>
 8000ac0:	0020      	movs	r0, r4
 8000ac2:	bd10      	pop	{r4, pc}
 8000ac4:	2401      	movs	r4, #1
 8000ac6:	e7fb      	b.n	8000ac0 <HAL_Init+0x1c>
 8000ac8:	40022000 	.word	0x40022000

08000acc <HAL_IncTick>:
 8000acc:	4a03      	ldr	r2, [pc, #12]	@ (8000adc <HAL_IncTick+0x10>)
 8000ace:	4b04      	ldr	r3, [pc, #16]	@ (8000ae0 <HAL_IncTick+0x14>)
 8000ad0:	6811      	ldr	r1, [r2, #0]
 8000ad2:	781b      	ldrb	r3, [r3, #0]
 8000ad4:	185b      	adds	r3, r3, r1
 8000ad6:	6013      	str	r3, [r2, #0]
 8000ad8:	4770      	bx	lr
 8000ada:	46c0      	nop			@ (mov r8, r8)
 8000adc:	20000028 	.word	0x20000028
 8000ae0:	20000000 	.word	0x20000000

08000ae4 <HAL_GetTick>:
 8000ae4:	4b01      	ldr	r3, [pc, #4]	@ (8000aec <HAL_GetTick+0x8>)
 8000ae6:	6818      	ldr	r0, [r3, #0]
 8000ae8:	4770      	bx	lr
 8000aea:	46c0      	nop			@ (mov r8, r8)
 8000aec:	20000028 	.word	0x20000028

08000af0 <HAL_Delay>:
 8000af0:	b570      	push	{r4, r5, r6, lr}
 8000af2:	0004      	movs	r4, r0
 8000af4:	f7ff fff6 	bl	8000ae4 <HAL_GetTick>
 8000af8:	0005      	movs	r5, r0
 8000afa:	1c63      	adds	r3, r4, #1
 8000afc:	d002      	beq.n	8000b04 <HAL_Delay+0x14>
 8000afe:	4b04      	ldr	r3, [pc, #16]	@ (8000b10 <HAL_Delay+0x20>)
 8000b00:	781b      	ldrb	r3, [r3, #0]
 8000b02:	18e4      	adds	r4, r4, r3
 8000b04:	f7ff ffee 	bl	8000ae4 <HAL_GetTick>
 8000b08:	1b40      	subs	r0, r0, r5
 8000b0a:	42a0      	cmp	r0, r4
 8000b0c:	d3fa      	bcc.n	8000b04 <HAL_Delay+0x14>
 8000b0e:	bd70      	pop	{r4, r5, r6, pc}
 8000b10:	20000000 	.word	0x20000000

08000b14 <HAL_NVIC_SetPriority>:
 8000b14:	b510      	push	{r4, lr}
 8000b16:	24ff      	movs	r4, #255	@ 0xff
 8000b18:	2203      	movs	r2, #3
 8000b1a:	000b      	movs	r3, r1
 8000b1c:	0021      	movs	r1, r4
 8000b1e:	4002      	ands	r2, r0
 8000b20:	00d2      	lsls	r2, r2, #3
 8000b22:	4091      	lsls	r1, r2
 8000b24:	019b      	lsls	r3, r3, #6
 8000b26:	4023      	ands	r3, r4
 8000b28:	43c9      	mvns	r1, r1
 8000b2a:	4093      	lsls	r3, r2
 8000b2c:	2800      	cmp	r0, #0
 8000b2e:	db0a      	blt.n	8000b46 <HAL_NVIC_SetPriority+0x32>
 8000b30:	24c0      	movs	r4, #192	@ 0xc0
 8000b32:	4a0b      	ldr	r2, [pc, #44]	@ (8000b60 <HAL_NVIC_SetPriority+0x4c>)
 8000b34:	0880      	lsrs	r0, r0, #2
 8000b36:	0080      	lsls	r0, r0, #2
 8000b38:	1880      	adds	r0, r0, r2
 8000b3a:	00a4      	lsls	r4, r4, #2
 8000b3c:	5902      	ldr	r2, [r0, r4]
 8000b3e:	400a      	ands	r2, r1
 8000b40:	4313      	orrs	r3, r2
 8000b42:	5103      	str	r3, [r0, r4]
 8000b44:	bd10      	pop	{r4, pc}
 8000b46:	220f      	movs	r2, #15
 8000b48:	4010      	ands	r0, r2
 8000b4a:	3808      	subs	r0, #8
 8000b4c:	4a05      	ldr	r2, [pc, #20]	@ (8000b64 <HAL_NVIC_SetPriority+0x50>)
 8000b4e:	0880      	lsrs	r0, r0, #2
 8000b50:	0080      	lsls	r0, r0, #2
 8000b52:	1880      	adds	r0, r0, r2
 8000b54:	69c2      	ldr	r2, [r0, #28]
 8000b56:	4011      	ands	r1, r2
 8000b58:	4319      	orrs	r1, r3
 8000b5a:	61c1      	str	r1, [r0, #28]
 8000b5c:	e7f2      	b.n	8000b44 <HAL_NVIC_SetPriority+0x30>
 8000b5e:	46c0      	nop			@ (mov r8, r8)
 8000b60:	e000e100 	.word	0xe000e100
 8000b64:	e000ed00 	.word	0xe000ed00

08000b68 <HAL_SYSTICK_Config>:
 8000b68:	2280      	movs	r2, #128	@ 0x80
 8000b6a:	1e43      	subs	r3, r0, #1
 8000b6c:	0452      	lsls	r2, r2, #17
 8000b6e:	2001      	movs	r0, #1
 8000b70:	4293      	cmp	r3, r2
 8000b72:	d20d      	bcs.n	8000b90 <HAL_SYSTICK_Config+0x28>
 8000b74:	21c0      	movs	r1, #192	@ 0xc0
 8000b76:	4a07      	ldr	r2, [pc, #28]	@ (8000b94 <HAL_SYSTICK_Config+0x2c>)
 8000b78:	4807      	ldr	r0, [pc, #28]	@ (8000b98 <HAL_SYSTICK_Config+0x30>)
 8000b7a:	6053      	str	r3, [r2, #4]
 8000b7c:	6a03      	ldr	r3, [r0, #32]
 8000b7e:	0609      	lsls	r1, r1, #24
 8000b80:	021b      	lsls	r3, r3, #8
 8000b82:	0a1b      	lsrs	r3, r3, #8
 8000b84:	430b      	orrs	r3, r1
 8000b86:	6203      	str	r3, [r0, #32]
 8000b88:	2000      	movs	r0, #0
 8000b8a:	2307      	movs	r3, #7
 8000b8c:	6090      	str	r0, [r2, #8]
 8000b8e:	6013      	str	r3, [r2, #0]
 8000b90:	4770      	bx	lr
 8000b92:	46c0      	nop			@ (mov r8, r8)
 8000b94:	e000e010 	.word	0xe000e010
 8000b98:	e000ed00 	.word	0xe000ed00

08000b9c <HAL_GPIO_Init>:
 8000b9c:	2300      	movs	r3, #0
 8000b9e:	b5f0      	push	{r4, r5, r6, r7, lr}
 8000ba0:	b085      	sub	sp, #20
 8000ba2:	680a      	ldr	r2, [r1, #0]
 8000ba4:	0014      	movs	r4, r2
 8000ba6:	40dc      	lsrs	r4, r3
 8000ba8:	d101      	bne.n	8000bae <HAL_GPIO_Init+0x12>
 8000baa:	b005      	add	sp, #20
 8000bac:	bdf0      	pop	{r4, r5, r6, r7, pc}
 8000bae:	2501      	movs	r5, #1
 8000bb0:	0014      	movs	r4, r2
 8000bb2:	409d      	lsls	r5, r3
 8000bb4:	402c      	ands	r4, r5
 8000bb6:	9400      	str	r4, [sp, #0]
 8000bb8:	422a      	tst	r2, r5
 8000bba:	d100      	bne.n	8000bbe <HAL_GPIO_Init+0x22>
 8000bbc:	e091      	b.n	8000ce2 <HAL_GPIO_Init+0x146>
 8000bbe:	684a      	ldr	r2, [r1, #4]
 8000bc0:	005f      	lsls	r7, r3, #1
 8000bc2:	4694      	mov	ip, r2
 8000bc4:	2203      	movs	r2, #3
 8000bc6:	4664      	mov	r4, ip
 8000bc8:	4022      	ands	r2, r4
 8000bca:	2403      	movs	r4, #3
 8000bcc:	40bc      	lsls	r4, r7
 8000bce:	43e4      	mvns	r4, r4
 8000bd0:	9401      	str	r4, [sp, #4]
 8000bd2:	1e54      	subs	r4, r2, #1
 8000bd4:	2c01      	cmp	r4, #1
 8000bd6:	d82e      	bhi.n	8000c36 <HAL_GPIO_Init+0x9a>
 8000bd8:	6886      	ldr	r6, [r0, #8]
 8000bda:	9c01      	ldr	r4, [sp, #4]
 8000bdc:	4026      	ands	r6, r4
 8000bde:	68cc      	ldr	r4, [r1, #12]
 8000be0:	40bc      	lsls	r4, r7
 8000be2:	4334      	orrs	r4, r6
 8000be4:	6084      	str	r4, [r0, #8]
 8000be6:	6844      	ldr	r4, [r0, #4]
 8000be8:	2601      	movs	r6, #1
 8000bea:	43ac      	bics	r4, r5
 8000bec:	0025      	movs	r5, r4
 8000bee:	4664      	mov	r4, ip
 8000bf0:	0924      	lsrs	r4, r4, #4
 8000bf2:	4034      	ands	r4, r6
 8000bf4:	409c      	lsls	r4, r3
 8000bf6:	432c      	orrs	r4, r5
 8000bf8:	6044      	str	r4, [r0, #4]
 8000bfa:	68c5      	ldr	r5, [r0, #12]
 8000bfc:	9c01      	ldr	r4, [sp, #4]
 8000bfe:	4025      	ands	r5, r4
 8000c00:	688c      	ldr	r4, [r1, #8]
 8000c02:	40bc      	lsls	r4, r7
 8000c04:	432c      	orrs	r4, r5
 8000c06:	60c4      	str	r4, [r0, #12]
 8000c08:	2a02      	cmp	r2, #2
 8000c0a:	d116      	bne.n	8000c3a <HAL_GPIO_Init+0x9e>
 8000c0c:	2507      	movs	r5, #7
 8000c0e:	260f      	movs	r6, #15
 8000c10:	401d      	ands	r5, r3
 8000c12:	00ad      	lsls	r5, r5, #2
 8000c14:	40ae      	lsls	r6, r5
 8000c16:	08dc      	lsrs	r4, r3, #3
 8000c18:	00a4      	lsls	r4, r4, #2
 8000c1a:	1904      	adds	r4, r0, r4
 8000c1c:	9402      	str	r4, [sp, #8]
 8000c1e:	6a24      	ldr	r4, [r4, #32]
 8000c20:	9603      	str	r6, [sp, #12]
 8000c22:	0026      	movs	r6, r4
 8000c24:	9c03      	ldr	r4, [sp, #12]
 8000c26:	43a6      	bics	r6, r4
 8000c28:	0034      	movs	r4, r6
 8000c2a:	690e      	ldr	r6, [r1, #16]
 8000c2c:	40ae      	lsls	r6, r5
 8000c2e:	4326      	orrs	r6, r4
 8000c30:	9c02      	ldr	r4, [sp, #8]
 8000c32:	6226      	str	r6, [r4, #32]
 8000c34:	e001      	b.n	8000c3a <HAL_GPIO_Init+0x9e>
 8000c36:	2a03      	cmp	r2, #3
 8000c38:	d1df      	bne.n	8000bfa <HAL_GPIO_Init+0x5e>
 8000c3a:	40ba      	lsls	r2, r7
 8000c3c:	6804      	ldr	r4, [r0, #0]
 8000c3e:	9d01      	ldr	r5, [sp, #4]
 8000c40:	4025      	ands	r5, r4
 8000c42:	432a      	orrs	r2, r5
 8000c44:	24c0      	movs	r4, #192	@ 0xc0
 8000c46:	6002      	str	r2, [r0, #0]
 8000c48:	4662      	mov	r2, ip
 8000c4a:	02a4      	lsls	r4, r4, #10
 8000c4c:	4222      	tst	r2, r4
 8000c4e:	d048      	beq.n	8000ce2 <HAL_GPIO_Init+0x146>
 8000c50:	4a25      	ldr	r2, [pc, #148]	@ (8000ce8 <HAL_GPIO_Init+0x14c>)
 8000c52:	2503      	movs	r5, #3
 8000c54:	089c      	lsrs	r4, r3, #2
 8000c56:	00a4      	lsls	r4, r4, #2
 8000c58:	18a4      	adds	r4, r4, r2
 8000c5a:	220f      	movs	r2, #15
 8000c5c:	401d      	ands	r5, r3
 8000c5e:	00ed      	lsls	r5, r5, #3
 8000c60:	40aa      	lsls	r2, r5
 8000c62:	27a0      	movs	r7, #160	@ 0xa0
 8000c64:	6e26      	ldr	r6, [r4, #96]	@ 0x60
 8000c66:	05ff      	lsls	r7, r7, #23
 8000c68:	4396      	bics	r6, r2
 8000c6a:	2200      	movs	r2, #0
 8000c6c:	42b8      	cmp	r0, r7
 8000c6e:	d00c      	beq.n	8000c8a <HAL_GPIO_Init+0xee>
 8000c70:	4f1e      	ldr	r7, [pc, #120]	@ (8000cec <HAL_GPIO_Init+0x150>)
 8000c72:	3201      	adds	r2, #1
 8000c74:	42b8      	cmp	r0, r7
 8000c76:	d008      	beq.n	8000c8a <HAL_GPIO_Init+0xee>
 8000c78:	4f1d      	ldr	r7, [pc, #116]	@ (8000cf0 <HAL_GPIO_Init+0x154>)
 8000c7a:	3201      	adds	r2, #1
 8000c7c:	42b8      	cmp	r0, r7
 8000c7e:	d004      	beq.n	8000c8a <HAL_GPIO_Init+0xee>
 8000c80:	4f1c      	ldr	r7, [pc, #112]	@ (8000cf4 <HAL_GPIO_Init+0x158>)
 8000c82:	3203      	adds	r2, #3
 8000c84:	42b8      	cmp	r0, r7
 8000c86:	d100      	bne.n	8000c8a <HAL_GPIO_Init+0xee>
 8000c88:	3a02      	subs	r2, #2
 8000c8a:	40aa      	lsls	r2, r5
 8000c8c:	4667      	mov	r7, ip
 8000c8e:	4332      	orrs	r2, r6
 8000c90:	6622      	str	r2, [r4, #96]	@ 0x60
 8000c92:	4c15      	ldr	r4, [pc, #84]	@ (8000ce8 <HAL_GPIO_Init+0x14c>)
 8000c94:	9a00      	ldr	r2, [sp, #0]
 8000c96:	6826      	ldr	r6, [r4, #0]
 8000c98:	9d00      	ldr	r5, [sp, #0]
 8000c9a:	43d2      	mvns	r2, r2
 8000c9c:	4335      	orrs	r5, r6
 8000c9e:	02ff      	lsls	r7, r7, #11
 8000ca0:	d401      	bmi.n	8000ca6 <HAL_GPIO_Init+0x10a>
 8000ca2:	0035      	movs	r5, r6
 8000ca4:	4015      	ands	r5, r2
 8000ca6:	4667      	mov	r7, ip
 8000ca8:	6025      	str	r5, [r4, #0]
 8000caa:	6866      	ldr	r6, [r4, #4]
 8000cac:	9d00      	ldr	r5, [sp, #0]
 8000cae:	4335      	orrs	r5, r6
 8000cb0:	02bf      	lsls	r7, r7, #10
 8000cb2:	d401      	bmi.n	8000cb8 <HAL_GPIO_Init+0x11c>
 8000cb4:	0035      	movs	r5, r6
 8000cb6:	4015      	ands	r5, r2
 8000cb8:	4667      	mov	r7, ip
 8000cba:	6065      	str	r5, [r4, #4]
 8000cbc:	4c0e      	ldr	r4, [pc, #56]	@ (8000cf8 <HAL_GPIO_Init+0x15c>)
 8000cbe:	9d00      	ldr	r5, [sp, #0]
 8000cc0:	6fe6      	ldr	r6, [r4, #124]	@ 0x7c
 8000cc2:	4335      	orrs	r5, r6
 8000cc4:	03bf      	lsls	r7, r7, #14
 8000cc6:	d401      	bmi.n	8000ccc <HAL_GPIO_Init+0x130>
 8000cc8:	0035      	movs	r5, r6
 8000cca:	4015      	ands	r5, r2
 8000ccc:	4667      	mov	r7, ip
 8000cce:	67e5      	str	r5, [r4, #124]	@ 0x7c
 8000cd0:	4c0a      	ldr	r4, [pc, #40]	@ (8000cfc <HAL_GPIO_Init+0x160>)
 8000cd2:	9e00      	ldr	r6, [sp, #0]
 8000cd4:	6fe5      	ldr	r5, [r4, #124]	@ 0x7c
 8000cd6:	432e      	orrs	r6, r5
 8000cd8:	03ff      	lsls	r7, r7, #15
 8000cda:	d401      	bmi.n	8000ce0 <HAL_GPIO_Init+0x144>
 8000cdc:	4015      	ands	r5, r2
 8000cde:	002e      	movs	r6, r5
 8000ce0:	67e6      	str	r6, [r4, #124]	@ 0x7c
 8000ce2:	3301      	adds	r3, #1
 8000ce4:	e75d      	b.n	8000ba2 <HAL_GPIO_Init+0x6>
 8000ce6:	46c0      	nop			@ (mov r8, r8)
 8000ce8:	40021800 	.word	0x40021800
 8000cec:	50000400 	.word	0x50000400
 8000cf0:	50000800 	.word	0x50000800
 8000cf4:	50000c00 	.word	0x50000c00
 8000cf8:	40021808 	.word	0x40021808
 8000cfc:	40021804 	.word	0x40021804

08000d00 <HAL_GPIO_ReadPin>:
 8000d00:	6900      	ldr	r0, [r0, #16]
 8000d02:	4008      	ands	r0, r1
 8000d04:	1e43      	subs	r3, r0, #1
 8000d06:	4198      	sbcs	r0, r3
 8000d08:	b2c0      	uxtb	r0, r0
 8000d0a:	4770      	bx	lr

08000d0c <HAL_GPIO_WritePin>:
 8000d0c:	2a00      	cmp	r2, #0
 8000d0e:	d001      	beq.n	8000d14 <HAL_GPIO_WritePin+0x8>
 8000d10:	6181      	str	r1, [r0, #24]
 8000d12:	4770      	bx	lr
 8000d14:	6281      	str	r1, [r0, #40]	@ 0x28
 8000d16:	e7fc      	b.n	8000d12 <HAL_GPIO_WritePin+0x6>

08000d18 <I2C_Flush_TXDR>:
 8000d18:	6803      	ldr	r3, [r0, #0]
 8000d1a:	699a      	ldr	r2, [r3, #24]
 8000d1c:	0792      	lsls	r2, r2, #30
 8000d1e:	d501      	bpl.n	8000d24 <I2C_Flush_TXDR+0xc>
 8000d20:	2200      	movs	r2, #0
 8000d22:	629a      	str	r2, [r3, #40]	@ 0x28
 8000d24:	2201      	movs	r2, #1
 8000d26:	6999      	ldr	r1, [r3, #24]
 8000d28:	4211      	tst	r1, r2
 8000d2a:	d102      	bne.n	8000d32 <I2C_Flush_TXDR+0x1a>
 8000d2c:	6999      	ldr	r1, [r3, #24]
 8000d2e:	430a      	orrs	r2, r1
 8000d30:	619a      	str	r2, [r3, #24]
 8000d32:	4770      	bx	lr

08000d34 <I2C_TransferConfig>:
 8000d34:	b530      	push	{r4, r5, lr}
 8000d36:	9c03      	ldr	r4, [sp, #12]
 8000d38:	6800      	ldr	r0, [r0, #0]
 8000d3a:	4323      	orrs	r3, r4
 8000d3c:	0412      	lsls	r2, r2, #16
 8000d3e:	0589      	lsls	r1, r1, #22
 8000d40:	431a      	orrs	r2, r3
 8000d42:	0d89      	lsrs	r1, r1, #22
 8000d44:	4b05      	ldr	r3, [pc, #20]	@ (8000d5c <I2C_TransferConfig+0x28>)
 8000d46:	6845      	ldr	r5, [r0, #4]
 8000d48:	430a      	orrs	r2, r1
 8000d4a:	0d64      	lsrs	r4, r4, #21
 8000d4c:	4323      	orrs	r3, r4
 8000d4e:	0052      	lsls	r2, r2, #1
 8000d50:	439d      	bics	r5, r3
 8000d52:	0852      	lsrs	r2, r2, #1
 8000d54:	432a      	orrs	r2, r5
 8000d56:	6042      	str	r2, [r0, #4]
 8000d58:	bd30      	pop	{r4, r5, pc}
 8000d5a:	46c0      	nop			@ (mov r8, r8)
 8000d5c:	03ff63ff 	.word	0x03ff63ff

08000d60 <I2C_IsErrorOccurred>:
 8000d60:	b5f7      	push	{r0, r1, r2, r4, r5, r6, r7, lr}
 8000d62:	0015      	movs	r5, r2
 8000d64:	6802      	ldr	r2, [r0, #0]
 8000d66:	000e      	movs	r6, r1
 8000d68:	6991      	ldr	r1, [r2, #24]
 8000d6a:	2310      	movs	r3, #16
 8000d6c:	000f      	movs	r7, r1
 8000d6e:	0004      	movs	r4, r0
 8000d70:	401f      	ands	r7, r3
 8000d72:	2000      	movs	r0, #0
 8000d74:	4219      	tst	r1, r3
 8000d76:	d00d      	beq.n	8000d94 <I2C_IsErrorOccurred+0x34>
 8000d78:	0007      	movs	r7, r0
 8000d7a:	61d3      	str	r3, [r2, #28]
 8000d7c:	9001      	str	r0, [sp, #4]
 8000d7e:	6823      	ldr	r3, [r4, #0]
 8000d80:	2120      	movs	r1, #32
 8000d82:	699a      	ldr	r2, [r3, #24]
 8000d84:	420a      	tst	r2, r1
 8000d86:	d15f      	bne.n	8000e48 <I2C_IsErrorOccurred+0xe8>
 8000d88:	2f00      	cmp	r7, #0
 8000d8a:	d031      	beq.n	8000df0 <I2C_IsErrorOccurred+0x90>
 8000d8c:	2704      	movs	r7, #4
 8000d8e:	2001      	movs	r0, #1
 8000d90:	9b01      	ldr	r3, [sp, #4]
 8000d92:	431f      	orrs	r7, r3
 8000d94:	2280      	movs	r2, #128	@ 0x80
 8000d96:	6825      	ldr	r5, [r4, #0]
 8000d98:	0052      	lsls	r2, r2, #1
 8000d9a:	69ab      	ldr	r3, [r5, #24]
 8000d9c:	4213      	tst	r3, r2
 8000d9e:	d002      	beq.n	8000da6 <I2C_IsErrorOccurred+0x46>
 8000da0:	2001      	movs	r0, #1
 8000da2:	61ea      	str	r2, [r5, #28]
 8000da4:	4307      	orrs	r7, r0
 8000da6:	2280      	movs	r2, #128	@ 0x80
 8000da8:	00d2      	lsls	r2, r2, #3
 8000daa:	4213      	tst	r3, r2
 8000dac:	d003      	beq.n	8000db6 <I2C_IsErrorOccurred+0x56>
 8000dae:	2108      	movs	r1, #8
 8000db0:	2001      	movs	r0, #1
 8000db2:	430f      	orrs	r7, r1
 8000db4:	61ea      	str	r2, [r5, #28]
 8000db6:	2280      	movs	r2, #128	@ 0x80
 8000db8:	0092      	lsls	r2, r2, #2
 8000dba:	4213      	tst	r3, r2
 8000dbc:	d049      	beq.n	8000e52 <I2C_IsErrorOccurred+0xf2>
 8000dbe:	2302      	movs	r3, #2
 8000dc0:	61ea      	str	r2, [r5, #28]
 8000dc2:	431f      	orrs	r7, r3
 8000dc4:	0020      	movs	r0, r4
 8000dc6:	f7ff ffa7 	bl	8000d18 <I2C_Flush_TXDR>
 8000dca:	686b      	ldr	r3, [r5, #4]
 8000dcc:	4a22      	ldr	r2, [pc, #136]	@ (8000e58 <I2C_IsErrorOccurred+0xf8>)
 8000dce:	2001      	movs	r0, #1
 8000dd0:	4013      	ands	r3, r2
 8000dd2:	606b      	str	r3, [r5, #4]
 8000dd4:	6c63      	ldr	r3, [r4, #68]	@ 0x44
 8000dd6:	2220      	movs	r2, #32
 8000dd8:	433b      	orrs	r3, r7
 8000dda:	6463      	str	r3, [r4, #68]	@ 0x44
 8000ddc:	0023      	movs	r3, r4
 8000dde:	3341      	adds	r3, #65	@ 0x41
 8000de0:	701a      	strb	r2, [r3, #0]
 8000de2:	0022      	movs	r2, r4
 8000de4:	2300      	movs	r3, #0
 8000de6:	3242      	adds	r2, #66	@ 0x42
 8000de8:	3440      	adds	r4, #64	@ 0x40
 8000dea:	7013      	strb	r3, [r2, #0]
 8000dec:	7023      	strb	r3, [r4, #0]
 8000dee:	e032      	b.n	8000e56 <I2C_IsErrorOccurred+0xf6>
 8000df0:	1c72      	adds	r2, r6, #1
 8000df2:	d0c5      	beq.n	8000d80 <I2C_IsErrorOccurred+0x20>
 8000df4:	f7ff fe76 	bl	8000ae4 <HAL_GetTick>
 8000df8:	1b40      	subs	r0, r0, r5
 8000dfa:	42b0      	cmp	r0, r6
 8000dfc:	d801      	bhi.n	8000e02 <I2C_IsErrorOccurred+0xa2>
 8000dfe:	2e00      	cmp	r6, #0
 8000e00:	d1bd      	bne.n	8000d7e <I2C_IsErrorOccurred+0x1e>
 8000e02:	0022      	movs	r2, r4
 8000e04:	6823      	ldr	r3, [r4, #0]
 8000e06:	3242      	adds	r2, #66	@ 0x42
 8000e08:	6858      	ldr	r0, [r3, #4]
 8000e0a:	7811      	ldrb	r1, [r2, #0]
 8000e0c:	699a      	ldr	r2, [r3, #24]
 8000e0e:	b2c9      	uxtb	r1, r1
 8000e10:	0412      	lsls	r2, r2, #16
 8000e12:	d50b      	bpl.n	8000e2c <I2C_IsErrorOccurred+0xcc>
 8000e14:	2280      	movs	r2, #128	@ 0x80
 8000e16:	01d2      	lsls	r2, r2, #7
 8000e18:	4210      	tst	r0, r2
 8000e1a:	d107      	bne.n	8000e2c <I2C_IsErrorOccurred+0xcc>
 8000e1c:	2920      	cmp	r1, #32
 8000e1e:	d005      	beq.n	8000e2c <I2C_IsErrorOccurred+0xcc>
 8000e20:	6859      	ldr	r1, [r3, #4]
 8000e22:	430a      	orrs	r2, r1
 8000e24:	605a      	str	r2, [r3, #4]
 8000e26:	f7ff fe5d 	bl	8000ae4 <HAL_GetTick>
 8000e2a:	0005      	movs	r5, r0
 8000e2c:	2220      	movs	r2, #32
 8000e2e:	6823      	ldr	r3, [r4, #0]
 8000e30:	699b      	ldr	r3, [r3, #24]
 8000e32:	4213      	tst	r3, r2
 8000e34:	d1a3      	bne.n	8000d7e <I2C_IsErrorOccurred+0x1e>
 8000e36:	f7ff fe55 	bl	8000ae4 <HAL_GetTick>
 8000e3a:	1b40      	subs	r0, r0, r5
 8000e3c:	2819      	cmp	r0, #25
 8000e3e:	d9f5      	bls.n	8000e2c <I2C_IsErrorOccurred+0xcc>
 8000e40:	2320      	movs	r3, #32
 8000e42:	2701      	movs	r7, #1
 8000e44:	9301      	str	r3, [sp, #4]
 8000e46:	e79a      	b.n	8000d7e <I2C_IsErrorOccurred+0x1e>
 8000e48:	2f00      	cmp	r7, #0
 8000e4a:	d19f      	bne.n	8000d8c <I2C_IsErrorOccurred+0x2c>
 8000e4c:	2220      	movs	r2, #32
 8000e4e:	61da      	str	r2, [r3, #28]
 8000e50:	e79c      	b.n	8000d8c <I2C_IsErrorOccurred+0x2c>
 8000e52:	2800      	cmp	r0, #0
 8000e54:	d1b6      	bne.n	8000dc4 <I2C_IsErrorOccurred+0x64>
 8000e56:	bdfe      	pop	{r1, r2, r3, r4, r5, r6, r7, pc}
 8000e58:	fe00e800 	.word	0xfe00e800

08000e5c <I2C_WaitOnTXISFlagUntilTimeout>:
 8000e5c:	b5f8      	push	{r3, r4, r5, r6, r7, lr}
 8000e5e:	0004      	movs	r4, r0
 8000e60:	000d      	movs	r5, r1
 8000e62:	0016      	movs	r6, r2
 8000e64:	2702      	movs	r7, #2
 8000e66:	6823      	ldr	r3, [r4, #0]
 8000e68:	699b      	ldr	r3, [r3, #24]
 8000e6a:	423b      	tst	r3, r7
 8000e6c:	d001      	beq.n	8000e72 <I2C_WaitOnTXISFlagUntilTimeout+0x16>
 8000e6e:	2000      	movs	r0, #0
 8000e70:	e021      	b.n	8000eb6 <I2C_WaitOnTXISFlagUntilTimeout+0x5a>
 8000e72:	0032      	movs	r2, r6
 8000e74:	0029      	movs	r1, r5
 8000e76:	0020      	movs	r0, r4
 8000e78:	f7ff ff72 	bl	8000d60 <I2C_IsErrorOccurred>
 8000e7c:	2800      	cmp	r0, #0
 8000e7e:	d119      	bne.n	8000eb4 <I2C_WaitOnTXISFlagUntilTimeout+0x58>
 8000e80:	1c6b      	adds	r3, r5, #1
 8000e82:	d0f0      	beq.n	8000e66 <I2C_WaitOnTXISFlagUntilTimeout+0xa>
 8000e84:	f7ff fe2e 	bl	8000ae4 <HAL_GetTick>
 8000e88:	1b80      	subs	r0, r0, r6
 8000e8a:	42a8      	cmp	r0, r5
 8000e8c:	d801      	bhi.n	8000e92 <I2C_WaitOnTXISFlagUntilTimeout+0x36>
 8000e8e:	2d00      	cmp	r5, #0
 8000e90:	d1e9      	bne.n	8000e66 <I2C_WaitOnTXISFlagUntilTimeout+0xa>
 8000e92:	6823      	ldr	r3, [r4, #0]
 8000e94:	6999      	ldr	r1, [r3, #24]
 8000e96:	2302      	movs	r3, #2
 8000e98:	000a      	movs	r2, r1
 8000e9a:	401a      	ands	r2, r3
 8000e9c:	4219      	tst	r1, r3
 8000e9e:	d1e2      	bne.n	8000e66 <I2C_WaitOnTXISFlagUntilTimeout+0xa>
 8000ea0:	2120      	movs	r1, #32
 8000ea2:	6c63      	ldr	r3, [r4, #68]	@ 0x44
 8000ea4:	430b      	orrs	r3, r1
 8000ea6:	6463      	str	r3, [r4, #68]	@ 0x44
 8000ea8:	0023      	movs	r3, r4
 8000eaa:	3440      	adds	r4, #64	@ 0x40
 8000eac:	3341      	adds	r3, #65	@ 0x41
 8000eae:	7019      	strb	r1, [r3, #0]
 8000eb0:	705a      	strb	r2, [r3, #1]
 8000eb2:	7022      	strb	r2, [r4, #0]
 8000eb4:	2001      	movs	r0, #1
 8000eb6:	bdf8      	pop	{r3, r4, r5, r6, r7, pc}

08000eb8 <I2C_WaitOnFlagUntilTimeout>:
 8000eb8:	b5f8      	push	{r3, r4, r5, r6, r7, lr}
 8000eba:	0004      	movs	r4, r0
 8000ebc:	000d      	movs	r5, r1
 8000ebe:	0017      	movs	r7, r2
 8000ec0:	001e      	movs	r6, r3
 8000ec2:	6823      	ldr	r3, [r4, #0]
 8000ec4:	699b      	ldr	r3, [r3, #24]
 8000ec6:	402b      	ands	r3, r5
 8000ec8:	1b5b      	subs	r3, r3, r5
 8000eca:	425a      	negs	r2, r3
 8000ecc:	4153      	adcs	r3, r2
 8000ece:	42bb      	cmp	r3, r7
 8000ed0:	d001      	beq.n	8000ed6 <I2C_WaitOnFlagUntilTimeout+0x1e>
 8000ed2:	2000      	movs	r0, #0
 8000ed4:	e026      	b.n	8000f24 <I2C_WaitOnFlagUntilTimeout+0x6c>
 8000ed6:	0031      	movs	r1, r6
 8000ed8:	0020      	movs	r0, r4
 8000eda:	9a06      	ldr	r2, [sp, #24]
 8000edc:	f7ff ff40 	bl	8000d60 <I2C_IsErrorOccurred>
 8000ee0:	2800      	cmp	r0, #0
 8000ee2:	d11e      	bne.n	8000f22 <I2C_WaitOnFlagUntilTimeout+0x6a>
 8000ee4:	1c73      	adds	r3, r6, #1
 8000ee6:	d0ec      	beq.n	8000ec2 <I2C_WaitOnFlagUntilTimeout+0xa>
 8000ee8:	f7ff fdfc 	bl	8000ae4 <HAL_GetTick>
 8000eec:	9b06      	ldr	r3, [sp, #24]
 8000eee:	1ac0      	subs	r0, r0, r3
 8000ef0:	42b0      	cmp	r0, r6
 8000ef2:	d801      	bhi.n	8000ef8 <I2C_WaitOnFlagUntilTimeout+0x40>
 8000ef4:	2e00      	cmp	r6, #0
 8000ef6:	d1e4      	bne.n	8000ec2 <I2C_WaitOnFlagUntilTimeout+0xa>
 8000ef8:	6823      	ldr	r3, [r4, #0]
 8000efa:	699b      	ldr	r3, [r3, #24]
 8000efc:	402b      	ands	r3, r5
 8000efe:	1b5b      	subs	r3, r3, r5
 8000f00:	425a      	negs	r2, r3
 8000f02:	4153      	adcs	r3, r2
 8000f04:	42bb      	cmp	r3, r7
 8000f06:	d1dc      	bne.n	8000ec2 <I2C_WaitOnFlagUntilTimeout+0xa>
 8000f08:	2220      	movs	r2, #32
 8000f0a:	6c63      	ldr	r3, [r4, #68]	@ 0x44
 8000f0c:	4313      	orrs	r3, r2
 8000f0e:	6463      	str	r3, [r4, #68]	@ 0x44
 8000f10:	0023      	movs	r3, r4
 8000f12:	3341      	adds	r3, #65	@ 0x41
 8000f14:	701a      	strb	r2, [r3, #0]
 8000f16:	0022      	movs	r2, r4
 8000f18:	2300      	movs	r3, #0
 8000f1a:	3242      	adds	r2, #66	@ 0x42
 8000f1c:	3440      	adds	r4, #64	@ 0x40
 8000f1e:	7013      	strb	r3, [r2, #0]
 8000f20:	7023      	strb	r3, [r4, #0]
 8000f22:	2001      	movs	r0, #1
 8000f24:	bdf8      	pop	{r3, r4, r5, r6, r7, pc}

08000f26 <I2C_WaitOnSTOPFlagUntilTimeout>:
 8000f26:	b5f8      	push	{r3, r4, r5, r6, r7, lr}
 8000f28:	0004      	movs	r4, r0
 8000f2a:	000e      	movs	r6, r1
 8000f2c:	0017      	movs	r7, r2
 8000f2e:	2520      	movs	r5, #32
 8000f30:	6823      	ldr	r3, [r4, #0]
 8000f32:	699b      	ldr	r3, [r3, #24]
 8000f34:	422b      	tst	r3, r5
 8000f36:	d001      	beq.n	8000f3c <I2C_WaitOnSTOPFlagUntilTimeout+0x16>
 8000f38:	2000      	movs	r0, #0
 8000f3a:	e01d      	b.n	8000f78 <I2C_WaitOnSTOPFlagUntilTimeout+0x52>
 8000f3c:	003a      	movs	r2, r7
 8000f3e:	0031      	movs	r1, r6
 8000f40:	0020      	movs	r0, r4
 8000f42:	f7ff ff0d 	bl	8000d60 <I2C_IsErrorOccurred>
 8000f46:	2800      	cmp	r0, #0
 8000f48:	d115      	bne.n	8000f76 <I2C_WaitOnSTOPFlagUntilTimeout+0x50>
 8000f4a:	f7ff fdcb 	bl	8000ae4 <HAL_GetTick>
 8000f4e:	1bc0      	subs	r0, r0, r7
 8000f50:	42b0      	cmp	r0, r6
 8000f52:	d801      	bhi.n	8000f58 <I2C_WaitOnSTOPFlagUntilTimeout+0x32>
 8000f54:	2e00      	cmp	r6, #0
 8000f56:	d1eb      	bne.n	8000f30 <I2C_WaitOnSTOPFlagUntilTimeout+0xa>
 8000f58:	6823      	ldr	r3, [r4, #0]
 8000f5a:	699b      	ldr	r3, [r3, #24]
 8000f5c:	001a      	movs	r2, r3
 8000f5e:	402a      	ands	r2, r5
 8000f60:	422b      	tst	r3, r5
 8000f62:	d1e5      	bne.n	8000f30 <I2C_WaitOnSTOPFlagUntilTimeout+0xa>
 8000f64:	6c63      	ldr	r3, [r4, #68]	@ 0x44
 8000f66:	432b      	orrs	r3, r5
 8000f68:	6463      	str	r3, [r4, #68]	@ 0x44
 8000f6a:	0023      	movs	r3, r4
 8000f6c:	3440      	adds	r4, #64	@ 0x40
 8000f6e:	3341      	adds	r3, #65	@ 0x41
 8000f70:	701d      	strb	r5, [r3, #0]
 8000f72:	705a      	strb	r2, [r3, #1]
 8000f74:	7022      	strb	r2, [r4, #0]
 8000f76:	2001      	movs	r0, #1
 8000f78:	bdf8      	pop	{r3, r4, r5, r6, r7, pc}
	...

08000f7c <HAL_I2C_Init>:
 8000f7c:	b570      	push	{r4, r5, r6, lr}
 8000f7e:	0004      	movs	r4, r0
 8000f80:	2001      	movs	r0, #1
 8000f82:	2c00      	cmp	r4, #0
 8000f84:	d04e      	beq.n	8001024 <HAL_I2C_Init+0xa8>
 8000f86:	0025      	movs	r5, r4
 8000f88:	3541      	adds	r5, #65	@ 0x41
 8000f8a:	782b      	ldrb	r3, [r5, #0]
 8000f8c:	b2da      	uxtb	r2, r3
 8000f8e:	2b00      	cmp	r3, #0
 8000f90:	d105      	bne.n	8000f9e <HAL_I2C_Init+0x22>
 8000f92:	0023      	movs	r3, r4
 8000f94:	3340      	adds	r3, #64	@ 0x40
 8000f96:	0020      	movs	r0, r4
 8000f98:	701a      	strb	r2, [r3, #0]
 8000f9a:	f001 fbad 	bl	80026f8 <HAL_I2C_MspInit>
 8000f9e:	2324      	movs	r3, #36	@ 0x24
 8000fa0:	2101      	movs	r1, #1
 8000fa2:	702b      	strb	r3, [r5, #0]
 8000fa4:	6823      	ldr	r3, [r4, #0]
 8000fa6:	68e0      	ldr	r0, [r4, #12]
 8000fa8:	681a      	ldr	r2, [r3, #0]
 8000faa:	68a6      	ldr	r6, [r4, #8]
 8000fac:	438a      	bics	r2, r1
 8000fae:	601a      	str	r2, [r3, #0]
 8000fb0:	491d      	ldr	r1, [pc, #116]	@ (8001028 <HAL_I2C_Init+0xac>)
 8000fb2:	6862      	ldr	r2, [r4, #4]
 8000fb4:	400a      	ands	r2, r1
 8000fb6:	611a      	str	r2, [r3, #16]
 8000fb8:	689a      	ldr	r2, [r3, #8]
 8000fba:	491c      	ldr	r1, [pc, #112]	@ (800102c <HAL_I2C_Init+0xb0>)
 8000fbc:	400a      	ands	r2, r1
 8000fbe:	609a      	str	r2, [r3, #8]
 8000fc0:	2801      	cmp	r0, #1
 8000fc2:	d107      	bne.n	8000fd4 <HAL_I2C_Init+0x58>
 8000fc4:	2280      	movs	r2, #128	@ 0x80
 8000fc6:	0212      	lsls	r2, r2, #8
 8000fc8:	4332      	orrs	r2, r6
 8000fca:	609a      	str	r2, [r3, #8]
 8000fcc:	685a      	ldr	r2, [r3, #4]
 8000fce:	4818      	ldr	r0, [pc, #96]	@ (8001030 <HAL_I2C_Init+0xb4>)
 8000fd0:	4002      	ands	r2, r0
 8000fd2:	e009      	b.n	8000fe8 <HAL_I2C_Init+0x6c>
 8000fd4:	2284      	movs	r2, #132	@ 0x84
 8000fd6:	0212      	lsls	r2, r2, #8
 8000fd8:	4332      	orrs	r2, r6
 8000fda:	609a      	str	r2, [r3, #8]
 8000fdc:	2802      	cmp	r0, #2
 8000fde:	d1f5      	bne.n	8000fcc <HAL_I2C_Init+0x50>
 8000fe0:	2280      	movs	r2, #128	@ 0x80
 8000fe2:	6858      	ldr	r0, [r3, #4]
 8000fe4:	0112      	lsls	r2, r2, #4
 8000fe6:	4302      	orrs	r2, r0
 8000fe8:	605a      	str	r2, [r3, #4]
 8000fea:	6858      	ldr	r0, [r3, #4]
 8000fec:	4a11      	ldr	r2, [pc, #68]	@ (8001034 <HAL_I2C_Init+0xb8>)
 8000fee:	4302      	orrs	r2, r0
 8000ff0:	605a      	str	r2, [r3, #4]
 8000ff2:	68da      	ldr	r2, [r3, #12]
 8000ff4:	2000      	movs	r0, #0
 8000ff6:	400a      	ands	r2, r1
 8000ff8:	60da      	str	r2, [r3, #12]
 8000ffa:	6961      	ldr	r1, [r4, #20]
 8000ffc:	6922      	ldr	r2, [r4, #16]
 8000ffe:	430a      	orrs	r2, r1
 8001000:	69a1      	ldr	r1, [r4, #24]
 8001002:	0209      	lsls	r1, r1, #8
 8001004:	430a      	orrs	r2, r1
 8001006:	60da      	str	r2, [r3, #12]
 8001008:	6a21      	ldr	r1, [r4, #32]
 800100a:	69e2      	ldr	r2, [r4, #28]
 800100c:	430a      	orrs	r2, r1
 800100e:	601a      	str	r2, [r3, #0]
 8001010:	2201      	movs	r2, #1
 8001012:	6819      	ldr	r1, [r3, #0]
 8001014:	430a      	orrs	r2, r1
 8001016:	601a      	str	r2, [r3, #0]
 8001018:	2320      	movs	r3, #32
 800101a:	6460      	str	r0, [r4, #68]	@ 0x44
 800101c:	702b      	strb	r3, [r5, #0]
 800101e:	6320      	str	r0, [r4, #48]	@ 0x30
 8001020:	3442      	adds	r4, #66	@ 0x42
 8001022:	7020      	strb	r0, [r4, #0]
 8001024:	bd70      	pop	{r4, r5, r6, pc}
 8001026:	46c0      	nop			@ (mov r8, r8)
 8001028:	f0ffffff 	.word	0xf0ffffff
 800102c:	ffff7fff 	.word	0xffff7fff
 8001030:	fffff7ff 	.word	0xfffff7ff
 8001034:	02008000 	.word	0x02008000

08001038 <HAL_I2C_Mem_Write>:
 8001038:	b5f0      	push	{r4, r5, r6, r7, lr}
 800103a:	0007      	movs	r7, r0
 800103c:	b087      	sub	sp, #28
 800103e:	9303      	str	r3, [sp, #12]
 8001040:	ab0c      	add	r3, sp, #48	@ 0x30
 8001042:	9202      	str	r2, [sp, #8]
 8001044:	cb04      	ldmia	r3!, {r2}
 8001046:	3741      	adds	r7, #65	@ 0x41
 8001048:	881b      	ldrh	r3, [r3, #0]
 800104a:	9204      	str	r2, [sp, #16]
 800104c:	9305      	str	r3, [sp, #20]
 800104e:	783b      	ldrb	r3, [r7, #0]
 8001050:	0004      	movs	r4, r0
 8001052:	000e      	movs	r6, r1
 8001054:	2002      	movs	r0, #2
 8001056:	2b20      	cmp	r3, #32
 8001058:	d108      	bne.n	800106c <HAL_I2C_Mem_Write+0x34>
 800105a:	2a00      	cmp	r2, #0
 800105c:	d002      	beq.n	8001064 <HAL_I2C_Mem_Write+0x2c>
 800105e:	9b05      	ldr	r3, [sp, #20]
 8001060:	2b00      	cmp	r3, #0
 8001062:	d105      	bne.n	8001070 <HAL_I2C_Mem_Write+0x38>
 8001064:	2380      	movs	r3, #128	@ 0x80
 8001066:	009b      	lsls	r3, r3, #2
 8001068:	6463      	str	r3, [r4, #68]	@ 0x44
 800106a:	2001      	movs	r0, #1
 800106c:	b007      	add	sp, #28
 800106e:	bdf0      	pop	{r4, r5, r6, r7, pc}
 8001070:	0023      	movs	r3, r4
 8001072:	3340      	adds	r3, #64	@ 0x40
 8001074:	781a      	ldrb	r2, [r3, #0]
 8001076:	2002      	movs	r0, #2
 8001078:	2a01      	cmp	r2, #1
 800107a:	d0f7      	beq.n	800106c <HAL_I2C_Mem_Write+0x34>
 800107c:	2201      	movs	r2, #1
 800107e:	701a      	strb	r2, [r3, #0]
 8001080:	f7ff fd30 	bl	8000ae4 <HAL_GetTick>
 8001084:	2180      	movs	r1, #128	@ 0x80
 8001086:	0005      	movs	r5, r0
 8001088:	9000      	str	r0, [sp, #0]
 800108a:	2319      	movs	r3, #25
 800108c:	2201      	movs	r2, #1
 800108e:	0020      	movs	r0, r4
 8001090:	0209      	lsls	r1, r1, #8
 8001092:	f7ff ff11 	bl	8000eb8 <I2C_WaitOnFlagUntilTimeout>
 8001096:	2800      	cmp	r0, #0
 8001098:	d1e7      	bne.n	800106a <HAL_I2C_Mem_Write+0x32>
 800109a:	2321      	movs	r3, #33	@ 0x21
 800109c:	703b      	strb	r3, [r7, #0]
 800109e:	0027      	movs	r7, r4
 80010a0:	331f      	adds	r3, #31
 80010a2:	3742      	adds	r7, #66	@ 0x42
 80010a4:	703b      	strb	r3, [r7, #0]
 80010a6:	9b04      	ldr	r3, [sp, #16]
 80010a8:	6460      	str	r0, [r4, #68]	@ 0x44
 80010aa:	6263      	str	r3, [r4, #36]	@ 0x24
 80010ac:	9b05      	ldr	r3, [sp, #20]
 80010ae:	6360      	str	r0, [r4, #52]	@ 0x34
 80010b0:	8563      	strh	r3, [r4, #42]	@ 0x2a
 80010b2:	466b      	mov	r3, sp
 80010b4:	7b1a      	ldrb	r2, [r3, #12]
 80010b6:	4b4b      	ldr	r3, [pc, #300]	@ (80011e4 <HAL_I2C_Mem_Write+0x1ac>)
 80010b8:	0031      	movs	r1, r6
 80010ba:	9300      	str	r3, [sp, #0]
 80010bc:	2380      	movs	r3, #128	@ 0x80
 80010be:	0020      	movs	r0, r4
 80010c0:	045b      	lsls	r3, r3, #17
 80010c2:	f7ff fe37 	bl	8000d34 <I2C_TransferConfig>
 80010c6:	002a      	movs	r2, r5
 80010c8:	0020      	movs	r0, r4
 80010ca:	990e      	ldr	r1, [sp, #56]	@ 0x38
 80010cc:	f7ff fec6 	bl	8000e5c <I2C_WaitOnTXISFlagUntilTimeout>
 80010d0:	2800      	cmp	r0, #0
 80010d2:	d129      	bne.n	8001128 <HAL_I2C_Mem_Write+0xf0>
 80010d4:	9a03      	ldr	r2, [sp, #12]
 80010d6:	6823      	ldr	r3, [r4, #0]
 80010d8:	2a01      	cmp	r2, #1
 80010da:	d116      	bne.n	800110a <HAL_I2C_Mem_Write+0xd2>
 80010dc:	466a      	mov	r2, sp
 80010de:	7a12      	ldrb	r2, [r2, #8]
 80010e0:	629a      	str	r2, [r3, #40]	@ 0x28
 80010e2:	2200      	movs	r2, #0
 80010e4:	2180      	movs	r1, #128	@ 0x80
 80010e6:	0020      	movs	r0, r4
 80010e8:	9b0e      	ldr	r3, [sp, #56]	@ 0x38
 80010ea:	9500      	str	r5, [sp, #0]
 80010ec:	f7ff fee4 	bl	8000eb8 <I2C_WaitOnFlagUntilTimeout>
 80010f0:	2800      	cmp	r0, #0
 80010f2:	d119      	bne.n	8001128 <HAL_I2C_Mem_Write+0xf0>
 80010f4:	8d63      	ldrh	r3, [r4, #42]	@ 0x2a
 80010f6:	2bff      	cmp	r3, #255	@ 0xff
 80010f8:	d81a      	bhi.n	8001130 <HAL_I2C_Mem_Write+0xf8>
 80010fa:	2380      	movs	r3, #128	@ 0x80
 80010fc:	8d62      	ldrh	r2, [r4, #42]	@ 0x2a
 80010fe:	049b      	lsls	r3, r3, #18
 8001100:	b292      	uxth	r2, r2
 8001102:	8522      	strh	r2, [r4, #40]	@ 0x28
 8001104:	b2d2      	uxtb	r2, r2
 8001106:	9000      	str	r0, [sp, #0]
 8001108:	e017      	b.n	800113a <HAL_I2C_Mem_Write+0x102>
 800110a:	9a02      	ldr	r2, [sp, #8]
 800110c:	0020      	movs	r0, r4
 800110e:	0a12      	lsrs	r2, r2, #8
 8001110:	629a      	str	r2, [r3, #40]	@ 0x28
 8001112:	990e      	ldr	r1, [sp, #56]	@ 0x38
 8001114:	002a      	movs	r2, r5
 8001116:	f7ff fea1 	bl	8000e5c <I2C_WaitOnTXISFlagUntilTimeout>
 800111a:	2800      	cmp	r0, #0
 800111c:	d104      	bne.n	8001128 <HAL_I2C_Mem_Write+0xf0>
 800111e:	466b      	mov	r3, sp
 8001120:	6822      	ldr	r2, [r4, #0]
 8001122:	7a1b      	ldrb	r3, [r3, #8]
 8001124:	6293      	str	r3, [r2, #40]	@ 0x28
 8001126:	e7dc      	b.n	80010e2 <HAL_I2C_Mem_Write+0xaa>
 8001128:	2300      	movs	r3, #0
 800112a:	3440      	adds	r4, #64	@ 0x40
 800112c:	7023      	strb	r3, [r4, #0]
 800112e:	e79c      	b.n	800106a <HAL_I2C_Mem_Write+0x32>
 8001130:	22ff      	movs	r2, #255	@ 0xff
 8001132:	2380      	movs	r3, #128	@ 0x80
 8001134:	8522      	strh	r2, [r4, #40]	@ 0x28
 8001136:	045b      	lsls	r3, r3, #17
 8001138:	9000      	str	r0, [sp, #0]
 800113a:	0031      	movs	r1, r6
 800113c:	0020      	movs	r0, r4
 800113e:	f7ff fdf9 	bl	8000d34 <I2C_TransferConfig>
 8001142:	002a      	movs	r2, r5
 8001144:	0020      	movs	r0, r4
 8001146:	990e      	ldr	r1, [sp, #56]	@ 0x38
 8001148:	f7ff fe88 	bl	8000e5c <I2C_WaitOnTXISFlagUntilTimeout>
 800114c:	2800      	cmp	r0, #0
 800114e:	d000      	beq.n	8001152 <HAL_I2C_Mem_Write+0x11a>
 8001150:	e78b      	b.n	800106a <HAL_I2C_Mem_Write+0x32>
 8001152:	6a63      	ldr	r3, [r4, #36]	@ 0x24
 8001154:	6822      	ldr	r2, [r4, #0]
 8001156:	7819      	ldrb	r1, [r3, #0]
 8001158:	3301      	adds	r3, #1
 800115a:	6291      	str	r1, [r2, #40]	@ 0x28
 800115c:	6263      	str	r3, [r4, #36]	@ 0x24
 800115e:	8d63      	ldrh	r3, [r4, #42]	@ 0x2a
 8001160:	8d22      	ldrh	r2, [r4, #40]	@ 0x28
 8001162:	3b01      	subs	r3, #1
 8001164:	b29b      	uxth	r3, r3
 8001166:	8563      	strh	r3, [r4, #42]	@ 0x2a
 8001168:	3a01      	subs	r2, #1
 800116a:	8d63      	ldrh	r3, [r4, #42]	@ 0x2a
 800116c:	b292      	uxth	r2, r2
 800116e:	8522      	strh	r2, [r4, #40]	@ 0x28
 8001170:	2b00      	cmp	r3, #0
 8001172:	d016      	beq.n	80011a2 <HAL_I2C_Mem_Write+0x16a>
 8001174:	2a00      	cmp	r2, #0
 8001176:	d114      	bne.n	80011a2 <HAL_I2C_Mem_Write+0x16a>
 8001178:	2180      	movs	r1, #128	@ 0x80
 800117a:	0020      	movs	r0, r4
 800117c:	9b0e      	ldr	r3, [sp, #56]	@ 0x38
 800117e:	9500      	str	r5, [sp, #0]
 8001180:	f7ff fe9a 	bl	8000eb8 <I2C_WaitOnFlagUntilTimeout>
 8001184:	2800      	cmp	r0, #0
 8001186:	d000      	beq.n	800118a <HAL_I2C_Mem_Write+0x152>
 8001188:	e76f      	b.n	800106a <HAL_I2C_Mem_Write+0x32>
 800118a:	8d63      	ldrh	r3, [r4, #42]	@ 0x2a
 800118c:	2bff      	cmp	r3, #255	@ 0xff
 800118e:	d921      	bls.n	80011d4 <HAL_I2C_Mem_Write+0x19c>
 8001190:	22ff      	movs	r2, #255	@ 0xff
 8001192:	2380      	movs	r3, #128	@ 0x80
 8001194:	8522      	strh	r2, [r4, #40]	@ 0x28
 8001196:	045b      	lsls	r3, r3, #17
 8001198:	9000      	str	r0, [sp, #0]
 800119a:	0031      	movs	r1, r6
 800119c:	0020      	movs	r0, r4
 800119e:	f7ff fdc9 	bl	8000d34 <I2C_TransferConfig>
 80011a2:	8d63      	ldrh	r3, [r4, #42]	@ 0x2a
 80011a4:	2b00      	cmp	r3, #0
 80011a6:	d1cc      	bne.n	8001142 <HAL_I2C_Mem_Write+0x10a>
 80011a8:	002a      	movs	r2, r5
 80011aa:	0020      	movs	r0, r4
 80011ac:	990e      	ldr	r1, [sp, #56]	@ 0x38
 80011ae:	f7ff feba 	bl	8000f26 <I2C_WaitOnSTOPFlagUntilTimeout>
 80011b2:	2800      	cmp	r0, #0
 80011b4:	d000      	beq.n	80011b8 <HAL_I2C_Mem_Write+0x180>
 80011b6:	e758      	b.n	800106a <HAL_I2C_Mem_Write+0x32>
 80011b8:	2120      	movs	r1, #32
 80011ba:	6823      	ldr	r3, [r4, #0]
 80011bc:	4d0a      	ldr	r5, [pc, #40]	@ (80011e8 <HAL_I2C_Mem_Write+0x1b0>)
 80011be:	61d9      	str	r1, [r3, #28]
 80011c0:	685a      	ldr	r2, [r3, #4]
 80011c2:	402a      	ands	r2, r5
 80011c4:	605a      	str	r2, [r3, #4]
 80011c6:	0023      	movs	r3, r4
 80011c8:	3440      	adds	r4, #64	@ 0x40
 80011ca:	3341      	adds	r3, #65	@ 0x41
 80011cc:	7019      	strb	r1, [r3, #0]
 80011ce:	7038      	strb	r0, [r7, #0]
 80011d0:	7020      	strb	r0, [r4, #0]
 80011d2:	e74b      	b.n	800106c <HAL_I2C_Mem_Write+0x34>
 80011d4:	2380      	movs	r3, #128	@ 0x80
 80011d6:	8d62      	ldrh	r2, [r4, #42]	@ 0x2a
 80011d8:	049b      	lsls	r3, r3, #18
 80011da:	b292      	uxth	r2, r2
 80011dc:	8522      	strh	r2, [r4, #40]	@ 0x28
 80011de:	b2d2      	uxtb	r2, r2
 80011e0:	9000      	str	r0, [sp, #0]
 80011e2:	e7da      	b.n	800119a <HAL_I2C_Mem_Write+0x162>
 80011e4:	80002000 	.word	0x80002000
 80011e8:	fe00e800 	.word	0xfe00e800

080011ec <HAL_I2C_Mem_Read>:
 80011ec:	b5f0      	push	{r4, r5, r6, r7, lr}
 80011ee:	0006      	movs	r6, r0
 80011f0:	b087      	sub	sp, #28
 80011f2:	9303      	str	r3, [sp, #12]
 80011f4:	ab0c      	add	r3, sp, #48	@ 0x30
 80011f6:	9202      	str	r2, [sp, #8]
 80011f8:	cb04      	ldmia	r3!, {r2}
 80011fa:	3641      	adds	r6, #65	@ 0x41
 80011fc:	881b      	ldrh	r3, [r3, #0]
 80011fe:	9204      	str	r2, [sp, #16]
 8001200:	9305      	str	r3, [sp, #20]
 8001202:	7833      	ldrb	r3, [r6, #0]
 8001204:	0004      	movs	r4, r0
 8001206:	000f      	movs	r7, r1
 8001208:	2002      	movs	r0, #2
 800120a:	2b20      	cmp	r3, #32
 800120c:	d108      	bne.n	8001220 <HAL_I2C_Mem_Read+0x34>
 800120e:	2a00      	cmp	r2, #0
 8001210:	d002      	beq.n	8001218 <HAL_I2C_Mem_Read+0x2c>
 8001212:	9b05      	ldr	r3, [sp, #20]
 8001214:	2b00      	cmp	r3, #0
 8001216:	d105      	bne.n	8001224 <HAL_I2C_Mem_Read+0x38>
 8001218:	2380      	movs	r3, #128	@ 0x80
 800121a:	009b      	lsls	r3, r3, #2
 800121c:	6463      	str	r3, [r4, #68]	@ 0x44
 800121e:	2001      	movs	r0, #1
 8001220:	b007      	add	sp, #28
 8001222:	bdf0      	pop	{r4, r5, r6, r7, pc}
 8001224:	0023      	movs	r3, r4
 8001226:	3340      	adds	r3, #64	@ 0x40
 8001228:	781a      	ldrb	r2, [r3, #0]
 800122a:	2002      	movs	r0, #2
 800122c:	2a01      	cmp	r2, #1
 800122e:	d0f7      	beq.n	8001220 <HAL_I2C_Mem_Read+0x34>
 8001230:	2201      	movs	r2, #1
 8001232:	701a      	strb	r2, [r3, #0]
 8001234:	f7ff fc56 	bl	8000ae4 <HAL_GetTick>
 8001238:	2180      	movs	r1, #128	@ 0x80
 800123a:	2319      	movs	r3, #25
 800123c:	9000      	str	r0, [sp, #0]
 800123e:	0005      	movs	r5, r0
 8001240:	2201      	movs	r2, #1
 8001242:	0020      	movs	r0, r4
 8001244:	0209      	lsls	r1, r1, #8
 8001246:	f7ff fe37 	bl	8000eb8 <I2C_WaitOnFlagUntilTimeout>
 800124a:	1e03      	subs	r3, r0, #0
 800124c:	d1e7      	bne.n	800121e <HAL_I2C_Mem_Read+0x32>
 800124e:	2222      	movs	r2, #34	@ 0x22
 8001250:	7032      	strb	r2, [r6, #0]
 8001252:	0026      	movs	r6, r4
 8001254:	321e      	adds	r2, #30
 8001256:	3642      	adds	r6, #66	@ 0x42
 8001258:	7032      	strb	r2, [r6, #0]
 800125a:	9a04      	ldr	r2, [sp, #16]
 800125c:	6460      	str	r0, [r4, #68]	@ 0x44
 800125e:	6262      	str	r2, [r4, #36]	@ 0x24
 8001260:	9a05      	ldr	r2, [sp, #20]
 8001262:	494e      	ldr	r1, [pc, #312]	@ (800139c <HAL_I2C_Mem_Read+0x1b0>)
 8001264:	8562      	strh	r2, [r4, #42]	@ 0x2a
 8001266:	466a      	mov	r2, sp
 8001268:	6360      	str	r0, [r4, #52]	@ 0x34
 800126a:	7b12      	ldrb	r2, [r2, #12]
 800126c:	0020      	movs	r0, r4
 800126e:	9100      	str	r1, [sp, #0]
 8001270:	0039      	movs	r1, r7
 8001272:	f7ff fd5f 	bl	8000d34 <I2C_TransferConfig>
 8001276:	002a      	movs	r2, r5
 8001278:	0020      	movs	r0, r4
 800127a:	990e      	ldr	r1, [sp, #56]	@ 0x38
 800127c:	f7ff fdee 	bl	8000e5c <I2C_WaitOnTXISFlagUntilTimeout>
 8001280:	2800      	cmp	r0, #0
 8001282:	d12a      	bne.n	80012da <HAL_I2C_Mem_Read+0xee>
 8001284:	9a03      	ldr	r2, [sp, #12]
 8001286:	6823      	ldr	r3, [r4, #0]
 8001288:	2a01      	cmp	r2, #1
 800128a:	d117      	bne.n	80012bc <HAL_I2C_Mem_Read+0xd0>
 800128c:	466a      	mov	r2, sp
 800128e:	7a12      	ldrb	r2, [r2, #8]
 8001290:	629a      	str	r2, [r3, #40]	@ 0x28
 8001292:	2200      	movs	r2, #0
 8001294:	2140      	movs	r1, #64	@ 0x40
 8001296:	0020      	movs	r0, r4
 8001298:	9b0e      	ldr	r3, [sp, #56]	@ 0x38
 800129a:	9500      	str	r5, [sp, #0]
 800129c:	f7ff fe0c 	bl	8000eb8 <I2C_WaitOnFlagUntilTimeout>
 80012a0:	2800      	cmp	r0, #0
 80012a2:	d11a      	bne.n	80012da <HAL_I2C_Mem_Read+0xee>
 80012a4:	8d62      	ldrh	r2, [r4, #42]	@ 0x2a
 80012a6:	4b3e      	ldr	r3, [pc, #248]	@ (80013a0 <HAL_I2C_Mem_Read+0x1b4>)
 80012a8:	2aff      	cmp	r2, #255	@ 0xff
 80012aa:	d81a      	bhi.n	80012e2 <HAL_I2C_Mem_Read+0xf6>
 80012ac:	8d62      	ldrh	r2, [r4, #42]	@ 0x2a
 80012ae:	b292      	uxth	r2, r2
 80012b0:	8522      	strh	r2, [r4, #40]	@ 0x28
 80012b2:	9300      	str	r3, [sp, #0]
 80012b4:	2380      	movs	r3, #128	@ 0x80
 80012b6:	b2d2      	uxtb	r2, r2
 80012b8:	049b      	lsls	r3, r3, #18
 80012ba:	e017      	b.n	80012ec <HAL_I2C_Mem_Read+0x100>
 80012bc:	9a02      	ldr	r2, [sp, #8]
 80012be:	0020      	movs	r0, r4
 80012c0:	0a12      	lsrs	r2, r2, #8
 80012c2:	629a      	str	r2, [r3, #40]	@ 0x28
 80012c4:	990e      	ldr	r1, [sp, #56]	@ 0x38
 80012c6:	002a      	movs	r2, r5
 80012c8:	f7ff fdc8 	bl	8000e5c <I2C_WaitOnTXISFlagUntilTimeout>
 80012cc:	2800      	cmp	r0, #0
 80012ce:	d104      	bne.n	80012da <HAL_I2C_Mem_Read+0xee>
 80012d0:	466b      	mov	r3, sp
 80012d2:	6822      	ldr	r2, [r4, #0]
 80012d4:	7a1b      	ldrb	r3, [r3, #8]
 80012d6:	6293      	str	r3, [r2, #40]	@ 0x28
 80012d8:	e7db      	b.n	8001292 <HAL_I2C_Mem_Read+0xa6>
 80012da:	2300      	movs	r3, #0
 80012dc:	3440      	adds	r4, #64	@ 0x40
 80012de:	7023      	strb	r3, [r4, #0]
 80012e0:	e79d      	b.n	800121e <HAL_I2C_Mem_Read+0x32>
 80012e2:	22ff      	movs	r2, #255	@ 0xff
 80012e4:	8522      	strh	r2, [r4, #40]	@ 0x28
 80012e6:	9300      	str	r3, [sp, #0]
 80012e8:	2380      	movs	r3, #128	@ 0x80
 80012ea:	045b      	lsls	r3, r3, #17
 80012ec:	0039      	movs	r1, r7
 80012ee:	0020      	movs	r0, r4
 80012f0:	f7ff fd20 	bl	8000d34 <I2C_TransferConfig>
 80012f4:	2200      	movs	r2, #0
 80012f6:	2104      	movs	r1, #4
 80012f8:	0020      	movs	r0, r4
 80012fa:	9b0e      	ldr	r3, [sp, #56]	@ 0x38
 80012fc:	9500      	str	r5, [sp, #0]
 80012fe:	f7ff fddb 	bl	8000eb8 <I2C_WaitOnFlagUntilTimeout>
 8001302:	2800      	cmp	r0, #0
 8001304:	d000      	beq.n	8001308 <HAL_I2C_Mem_Read+0x11c>
 8001306:	e78a      	b.n	800121e <HAL_I2C_Mem_Read+0x32>
 8001308:	6823      	ldr	r3, [r4, #0]
 800130a:	6a5a      	ldr	r2, [r3, #36]	@ 0x24
 800130c:	6a63      	ldr	r3, [r4, #36]	@ 0x24
 800130e:	701a      	strb	r2, [r3, #0]
 8001310:	6a63      	ldr	r3, [r4, #36]	@ 0x24
 8001312:	8d22      	ldrh	r2, [r4, #40]	@ 0x28
 8001314:	3301      	adds	r3, #1
 8001316:	6263      	str	r3, [r4, #36]	@ 0x24
 8001318:	8d63      	ldrh	r3, [r4, #42]	@ 0x2a
 800131a:	3a01      	subs	r2, #1
 800131c:	3b01      	subs	r3, #1
 800131e:	b29b      	uxth	r3, r3
 8001320:	8563      	strh	r3, [r4, #42]	@ 0x2a
 8001322:	8d63      	ldrh	r3, [r4, #42]	@ 0x2a
 8001324:	b292      	uxth	r2, r2
 8001326:	8522      	strh	r2, [r4, #40]	@ 0x28
 8001328:	2b00      	cmp	r3, #0
 800132a:	d016      	beq.n	800135a <HAL_I2C_Mem_Read+0x16e>
 800132c:	2a00      	cmp	r2, #0
 800132e:	d114      	bne.n	800135a <HAL_I2C_Mem_Read+0x16e>
 8001330:	2180      	movs	r1, #128	@ 0x80
 8001332:	0020      	movs	r0, r4
 8001334:	9b0e      	ldr	r3, [sp, #56]	@ 0x38
 8001336:	9500      	str	r5, [sp, #0]
 8001338:	f7ff fdbe 	bl	8000eb8 <I2C_WaitOnFlagUntilTimeout>
 800133c:	2800      	cmp	r0, #0
 800133e:	d000      	beq.n	8001342 <HAL_I2C_Mem_Read+0x156>
 8001340:	e76d      	b.n	800121e <HAL_I2C_Mem_Read+0x32>
 8001342:	8d63      	ldrh	r3, [r4, #42]	@ 0x2a
 8001344:	2bff      	cmp	r3, #255	@ 0xff
 8001346:	d921      	bls.n	800138c <HAL_I2C_Mem_Read+0x1a0>
 8001348:	22ff      	movs	r2, #255	@ 0xff
 800134a:	2380      	movs	r3, #128	@ 0x80
 800134c:	8522      	strh	r2, [r4, #40]	@ 0x28
 800134e:	045b      	lsls	r3, r3, #17
 8001350:	9000      	str	r0, [sp, #0]
 8001352:	0039      	movs	r1, r7
 8001354:	0020      	movs	r0, r4
 8001356:	f7ff fced 	bl	8000d34 <I2C_TransferConfig>
 800135a:	8d63      	ldrh	r3, [r4, #42]	@ 0x2a
 800135c:	2b00      	cmp	r3, #0
 800135e:	d1c9      	bne.n	80012f4 <HAL_I2C_Mem_Read+0x108>
 8001360:	002a      	movs	r2, r5
 8001362:	0020      	movs	r0, r4
 8001364:	990e      	ldr	r1, [sp, #56]	@ 0x38
 8001366:	f7ff fdde 	bl	8000f26 <I2C_WaitOnSTOPFlagUntilTimeout>
 800136a:	2800      	cmp	r0, #0
 800136c:	d000      	beq.n	8001370 <HAL_I2C_Mem_Read+0x184>
 800136e:	e756      	b.n	800121e <HAL_I2C_Mem_Read+0x32>
 8001370:	2120      	movs	r1, #32
 8001372:	6823      	ldr	r3, [r4, #0]
 8001374:	4d0b      	ldr	r5, [pc, #44]	@ (80013a4 <HAL_I2C_Mem_Read+0x1b8>)
 8001376:	61d9      	str	r1, [r3, #28]
 8001378:	685a      	ldr	r2, [r3, #4]
 800137a:	402a      	ands	r2, r5
 800137c:	605a      	str	r2, [r3, #4]
 800137e:	0023      	movs	r3, r4
 8001380:	3440      	adds	r4, #64	@ 0x40
 8001382:	3341      	adds	r3, #65	@ 0x41
 8001384:	7019      	strb	r1, [r3, #0]
 8001386:	7030      	strb	r0, [r6, #0]
 8001388:	7020      	strb	r0, [r4, #0]
 800138a:	e749      	b.n	8001220 <HAL_I2C_Mem_Read+0x34>
 800138c:	2380      	movs	r3, #128	@ 0x80
 800138e:	8d62      	ldrh	r2, [r4, #42]	@ 0x2a
 8001390:	049b      	lsls	r3, r3, #18
 8001392:	b292      	uxth	r2, r2
 8001394:	8522      	strh	r2, [r4, #40]	@ 0x28
 8001396:	b2d2      	uxtb	r2, r2
 8001398:	9000      	str	r0, [sp, #0]
 800139a:	e7da      	b.n	8001352 <HAL_I2C_Mem_Read+0x166>
 800139c:	80002000 	.word	0x80002000
 80013a0:	80002400 	.word	0x80002400
 80013a4:	fe00e800 	.word	0xfe00e800

080013a8 <HAL_I2CEx_ConfigAnalogFilter>:
 80013a8:	b5f0      	push	{r4, r5, r6, r7, lr}
 80013aa:	0004      	movs	r4, r0
 80013ac:	3441      	adds	r4, #65	@ 0x41
 80013ae:	7822      	ldrb	r2, [r4, #0]
 80013b0:	0003      	movs	r3, r0
 80013b2:	000f      	movs	r7, r1
 80013b4:	2002      	movs	r0, #2
 80013b6:	b2d6      	uxtb	r6, r2
 80013b8:	2a20      	cmp	r2, #32
 80013ba:	d118      	bne.n	80013ee <HAL_I2CEx_ConfigAnalogFilter+0x46>
 80013bc:	001d      	movs	r5, r3
 80013be:	3540      	adds	r5, #64	@ 0x40
 80013c0:	782a      	ldrb	r2, [r5, #0]
 80013c2:	2a01      	cmp	r2, #1
 80013c4:	d013      	beq.n	80013ee <HAL_I2CEx_ConfigAnalogFilter+0x46>
 80013c6:	2224      	movs	r2, #36	@ 0x24
 80013c8:	7022      	strb	r2, [r4, #0]
 80013ca:	681b      	ldr	r3, [r3, #0]
 80013cc:	3a23      	subs	r2, #35	@ 0x23
 80013ce:	6819      	ldr	r1, [r3, #0]
 80013d0:	4807      	ldr	r0, [pc, #28]	@ (80013f0 <HAL_I2CEx_ConfigAnalogFilter+0x48>)
 80013d2:	4391      	bics	r1, r2
 80013d4:	6019      	str	r1, [r3, #0]
 80013d6:	6819      	ldr	r1, [r3, #0]
 80013d8:	4001      	ands	r1, r0
 80013da:	2000      	movs	r0, #0
 80013dc:	6019      	str	r1, [r3, #0]
 80013de:	6819      	ldr	r1, [r3, #0]
 80013e0:	4339      	orrs	r1, r7
 80013e2:	6019      	str	r1, [r3, #0]
 80013e4:	6819      	ldr	r1, [r3, #0]
 80013e6:	430a      	orrs	r2, r1
 80013e8:	601a      	str	r2, [r3, #0]
 80013ea:	7026      	strb	r6, [r4, #0]
 80013ec:	7028      	strb	r0, [r5, #0]
 80013ee:	bdf0      	pop	{r4, r5, r6, r7, pc}
 80013f0:	ffffefff 	.word	0xffffefff

080013f4 <HAL_I2CEx_ConfigDigitalFilter>:
 80013f4:	0002      	movs	r2, r0
 80013f6:	b5f0      	push	{r4, r5, r6, r7, lr}
 80013f8:	3241      	adds	r2, #65	@ 0x41
 80013fa:	7814      	ldrb	r4, [r2, #0]
 80013fc:	0003      	movs	r3, r0
 80013fe:	b2e5      	uxtb	r5, r4
 8001400:	2002      	movs	r0, #2
 8001402:	2c20      	cmp	r4, #32
 8001404:	d117      	bne.n	8001436 <HAL_I2CEx_ConfigDigitalFilter+0x42>
 8001406:	001c      	movs	r4, r3
 8001408:	3440      	adds	r4, #64	@ 0x40
 800140a:	7826      	ldrb	r6, [r4, #0]
 800140c:	2e01      	cmp	r6, #1
 800140e:	d012      	beq.n	8001436 <HAL_I2CEx_ConfigDigitalFilter+0x42>
 8001410:	3022      	adds	r0, #34	@ 0x22
 8001412:	7010      	strb	r0, [r2, #0]
 8001414:	681b      	ldr	r3, [r3, #0]
 8001416:	3823      	subs	r0, #35	@ 0x23
 8001418:	681e      	ldr	r6, [r3, #0]
 800141a:	4f07      	ldr	r7, [pc, #28]	@ (8001438 <HAL_I2CEx_ConfigDigitalFilter+0x44>)
 800141c:	4386      	bics	r6, r0
 800141e:	601e      	str	r6, [r3, #0]
 8001420:	681e      	ldr	r6, [r3, #0]
 8001422:	0209      	lsls	r1, r1, #8
 8001424:	403e      	ands	r6, r7
 8001426:	4331      	orrs	r1, r6
 8001428:	6019      	str	r1, [r3, #0]
 800142a:	6819      	ldr	r1, [r3, #0]
 800142c:	4308      	orrs	r0, r1
 800142e:	6018      	str	r0, [r3, #0]
 8001430:	2000      	movs	r0, #0
 8001432:	7015      	strb	r5, [r2, #0]
 8001434:	7020      	strb	r0, [r4, #0]
 8001436:	bdf0      	pop	{r4, r5, r6, r7, pc}
 8001438:	fffff0ff 	.word	0xfffff0ff

0800143c <HAL_PWREx_ControlVoltageScaling>:
 800143c:	b510      	push	{r4, lr}
 800143e:	4c11      	ldr	r4, [pc, #68]	@ (8001484 <HAL_PWREx_ControlVoltageScaling+0x48>)
 8001440:	4911      	ldr	r1, [pc, #68]	@ (8001488 <HAL_PWREx_ControlVoltageScaling+0x4c>)
 8001442:	6823      	ldr	r3, [r4, #0]
 8001444:	0002      	movs	r2, r0
 8001446:	400b      	ands	r3, r1
 8001448:	4303      	orrs	r3, r0
 800144a:	6023      	str	r3, [r4, #0]
 800144c:	2380      	movs	r3, #128	@ 0x80
 800144e:	2000      	movs	r0, #0
 8001450:	009b      	lsls	r3, r3, #2
 8001452:	429a      	cmp	r2, r3
 8001454:	d10e      	bne.n	8001474 <HAL_PWREx_ControlVoltageScaling+0x38>
 8001456:	4b0d      	ldr	r3, [pc, #52]	@ (800148c <HAL_PWREx_ControlVoltageScaling+0x50>)
 8001458:	490d      	ldr	r1, [pc, #52]	@ (8001490 <HAL_PWREx_ControlVoltageScaling+0x54>)
 800145a:	6818      	ldr	r0, [r3, #0]
 800145c:	2306      	movs	r3, #6
 800145e:	4358      	muls	r0, r3
 8001460:	f7fe fe58 	bl	8000114 <__udivsi3>
 8001464:	2280      	movs	r2, #128	@ 0x80
 8001466:	1c43      	adds	r3, r0, #1
 8001468:	00d2      	lsls	r2, r2, #3
 800146a:	6961      	ldr	r1, [r4, #20]
 800146c:	0008      	movs	r0, r1
 800146e:	4010      	ands	r0, r2
 8001470:	4211      	tst	r1, r2
 8001472:	d100      	bne.n	8001476 <HAL_PWREx_ControlVoltageScaling+0x3a>
 8001474:	bd10      	pop	{r4, pc}
 8001476:	2b00      	cmp	r3, #0
 8001478:	d001      	beq.n	800147e <HAL_PWREx_ControlVoltageScaling+0x42>
 800147a:	3b01      	subs	r3, #1
 800147c:	e7f5      	b.n	800146a <HAL_PWREx_ControlVoltageScaling+0x2e>
 800147e:	2003      	movs	r0, #3
 8001480:	e7f8      	b.n	8001474 <HAL_PWREx_ControlVoltageScaling+0x38>
 8001482:	46c0      	nop			@ (mov r8, r8)
 8001484:	40007000 	.word	0x40007000
 8001488:	fffff9ff 	.word	0xfffff9ff
 800148c:	20000008 	.word	0x20000008
 8001490:	000f4240 	.word	0x000f4240

08001494 <HAL_RCC_OscConfig>:
 8001494:	b5f0      	push	{r4, r5, r6, r7, lr}
 8001496:	0004      	movs	r4, r0
 8001498:	b085      	sub	sp, #20
 800149a:	2800      	cmp	r0, #0
 800149c:	d102      	bne.n	80014a4 <HAL_RCC_OscConfig+0x10>
 800149e:	2001      	movs	r0, #1
 80014a0:	b005      	add	sp, #20
 80014a2:	bdf0      	pop	{r4, r5, r6, r7, pc}
 80014a4:	6803      	ldr	r3, [r0, #0]
 80014a6:	07db      	lsls	r3, r3, #31
 80014a8:	d410      	bmi.n	80014cc <HAL_RCC_OscConfig+0x38>
 80014aa:	6823      	ldr	r3, [r4, #0]
 80014ac:	079b      	lsls	r3, r3, #30
 80014ae:	d45c      	bmi.n	800156a <HAL_RCC_OscConfig+0xd6>
 80014b0:	6823      	ldr	r3, [r4, #0]
 80014b2:	071b      	lsls	r3, r3, #28
 80014b4:	d500      	bpl.n	80014b8 <HAL_RCC_OscConfig+0x24>
 80014b6:	e0c1      	b.n	800163c <HAL_RCC_OscConfig+0x1a8>
 80014b8:	6823      	ldr	r3, [r4, #0]
 80014ba:	075b      	lsls	r3, r3, #29
 80014bc:	d500      	bpl.n	80014c0 <HAL_RCC_OscConfig+0x2c>
 80014be:	e0f2      	b.n	80016a6 <HAL_RCC_OscConfig+0x212>
 80014c0:	69e3      	ldr	r3, [r4, #28]
 80014c2:	2b00      	cmp	r3, #0
 80014c4:	d000      	beq.n	80014c8 <HAL_RCC_OscConfig+0x34>
 80014c6:	e179      	b.n	80017bc <HAL_RCC_OscConfig+0x328>
 80014c8:	2000      	movs	r0, #0
 80014ca:	e7e9      	b.n	80014a0 <HAL_RCC_OscConfig+0xc>
 80014cc:	2238      	movs	r2, #56	@ 0x38
 80014ce:	4daf      	ldr	r5, [pc, #700]	@ (800178c <HAL_RCC_OscConfig+0x2f8>)
 80014d0:	68ab      	ldr	r3, [r5, #8]
 80014d2:	4013      	ands	r3, r2
 80014d4:	68ea      	ldr	r2, [r5, #12]
 80014d6:	2b10      	cmp	r3, #16
 80014d8:	d109      	bne.n	80014ee <HAL_RCC_OscConfig+0x5a>
 80014da:	43d3      	mvns	r3, r2
 80014dc:	079b      	lsls	r3, r3, #30
 80014de:	d108      	bne.n	80014f2 <HAL_RCC_OscConfig+0x5e>
 80014e0:	682b      	ldr	r3, [r5, #0]
 80014e2:	039b      	lsls	r3, r3, #14
 80014e4:	d5e1      	bpl.n	80014aa <HAL_RCC_OscConfig+0x16>
 80014e6:	6863      	ldr	r3, [r4, #4]
 80014e8:	2b00      	cmp	r3, #0
 80014ea:	d1de      	bne.n	80014aa <HAL_RCC_OscConfig+0x16>
 80014ec:	e7d7      	b.n	800149e <HAL_RCC_OscConfig+0xa>
 80014ee:	2b08      	cmp	r3, #8
 80014f0:	d0f6      	beq.n	80014e0 <HAL_RCC_OscConfig+0x4c>
 80014f2:	2280      	movs	r2, #128	@ 0x80
 80014f4:	6863      	ldr	r3, [r4, #4]
 80014f6:	0252      	lsls	r2, r2, #9
 80014f8:	4293      	cmp	r3, r2
 80014fa:	d111      	bne.n	8001520 <HAL_RCC_OscConfig+0x8c>
 80014fc:	682a      	ldr	r2, [r5, #0]
 80014fe:	4313      	orrs	r3, r2
 8001500:	602b      	str	r3, [r5, #0]
 8001502:	f7ff faef 	bl	8000ae4 <HAL_GetTick>
 8001506:	2780      	movs	r7, #128	@ 0x80
 8001508:	0006      	movs	r6, r0
 800150a:	02bf      	lsls	r7, r7, #10
 800150c:	682b      	ldr	r3, [r5, #0]
 800150e:	423b      	tst	r3, r7
 8001510:	d1cb      	bne.n	80014aa <HAL_RCC_OscConfig+0x16>
 8001512:	f7ff fae7 	bl	8000ae4 <HAL_GetTick>
 8001516:	1b80      	subs	r0, r0, r6
 8001518:	2864      	cmp	r0, #100	@ 0x64
 800151a:	d9f7      	bls.n	800150c <HAL_RCC_OscConfig+0x78>
 800151c:	2003      	movs	r0, #3
 800151e:	e7bf      	b.n	80014a0 <HAL_RCC_OscConfig+0xc>
 8001520:	21a0      	movs	r1, #160	@ 0xa0
 8001522:	02c9      	lsls	r1, r1, #11
 8001524:	428b      	cmp	r3, r1
 8001526:	d108      	bne.n	800153a <HAL_RCC_OscConfig+0xa6>
 8001528:	2380      	movs	r3, #128	@ 0x80
 800152a:	6829      	ldr	r1, [r5, #0]
 800152c:	02db      	lsls	r3, r3, #11
 800152e:	430b      	orrs	r3, r1
 8001530:	602b      	str	r3, [r5, #0]
 8001532:	682b      	ldr	r3, [r5, #0]
 8001534:	431a      	orrs	r2, r3
 8001536:	602a      	str	r2, [r5, #0]
 8001538:	e7e3      	b.n	8001502 <HAL_RCC_OscConfig+0x6e>
 800153a:	682a      	ldr	r2, [r5, #0]
 800153c:	4994      	ldr	r1, [pc, #592]	@ (8001790 <HAL_RCC_OscConfig+0x2fc>)
 800153e:	400a      	ands	r2, r1
 8001540:	602a      	str	r2, [r5, #0]
 8001542:	682a      	ldr	r2, [r5, #0]
 8001544:	4993      	ldr	r1, [pc, #588]	@ (8001794 <HAL_RCC_OscConfig+0x300>)
 8001546:	400a      	ands	r2, r1
 8001548:	602a      	str	r2, [r5, #0]
 800154a:	2b00      	cmp	r3, #0
 800154c:	d1d9      	bne.n	8001502 <HAL_RCC_OscConfig+0x6e>
 800154e:	f7ff fac9 	bl	8000ae4 <HAL_GetTick>
 8001552:	2780      	movs	r7, #128	@ 0x80
 8001554:	0006      	movs	r6, r0
 8001556:	02bf      	lsls	r7, r7, #10
 8001558:	682b      	ldr	r3, [r5, #0]
 800155a:	423b      	tst	r3, r7
 800155c:	d0a5      	beq.n	80014aa <HAL_RCC_OscConfig+0x16>
 800155e:	f7ff fac1 	bl	8000ae4 <HAL_GetTick>
 8001562:	1b80      	subs	r0, r0, r6
 8001564:	2864      	cmp	r0, #100	@ 0x64
 8001566:	d9f7      	bls.n	8001558 <HAL_RCC_OscConfig+0xc4>
 8001568:	e7d8      	b.n	800151c <HAL_RCC_OscConfig+0x88>
 800156a:	2238      	movs	r2, #56	@ 0x38
 800156c:	4d87      	ldr	r5, [pc, #540]	@ (800178c <HAL_RCC_OscConfig+0x2f8>)
 800156e:	68ab      	ldr	r3, [r5, #8]
 8001570:	4013      	ands	r3, r2
 8001572:	68ea      	ldr	r2, [r5, #12]
 8001574:	2b10      	cmp	r3, #16
 8001576:	d128      	bne.n	80015ca <HAL_RCC_OscConfig+0x136>
 8001578:	2103      	movs	r1, #3
 800157a:	400a      	ands	r2, r1
 800157c:	2a02      	cmp	r2, #2
 800157e:	d126      	bne.n	80015ce <HAL_RCC_OscConfig+0x13a>
 8001580:	682a      	ldr	r2, [r5, #0]
 8001582:	0552      	lsls	r2, r2, #21
 8001584:	d503      	bpl.n	800158e <HAL_RCC_OscConfig+0xfa>
 8001586:	68e2      	ldr	r2, [r4, #12]
 8001588:	2a00      	cmp	r2, #0
 800158a:	d100      	bne.n	800158e <HAL_RCC_OscConfig+0xfa>
 800158c:	e787      	b.n	800149e <HAL_RCC_OscConfig+0xa>
 800158e:	6869      	ldr	r1, [r5, #4]
 8001590:	6962      	ldr	r2, [r4, #20]
 8001592:	4881      	ldr	r0, [pc, #516]	@ (8001798 <HAL_RCC_OscConfig+0x304>)
 8001594:	0212      	lsls	r2, r2, #8
 8001596:	4001      	ands	r1, r0
 8001598:	430a      	orrs	r2, r1
 800159a:	606a      	str	r2, [r5, #4]
 800159c:	2b00      	cmp	r3, #0
 800159e:	d10c      	bne.n	80015ba <HAL_RCC_OscConfig+0x126>
 80015a0:	682b      	ldr	r3, [r5, #0]
 80015a2:	4a7e      	ldr	r2, [pc, #504]	@ (800179c <HAL_RCC_OscConfig+0x308>)
 80015a4:	497e      	ldr	r1, [pc, #504]	@ (80017a0 <HAL_RCC_OscConfig+0x30c>)
 80015a6:	4013      	ands	r3, r2
 80015a8:	6922      	ldr	r2, [r4, #16]
 80015aa:	4313      	orrs	r3, r2
 80015ac:	602b      	str	r3, [r5, #0]
 80015ae:	682b      	ldr	r3, [r5, #0]
 80015b0:	4a7c      	ldr	r2, [pc, #496]	@ (80017a4 <HAL_RCC_OscConfig+0x310>)
 80015b2:	049b      	lsls	r3, r3, #18
 80015b4:	0f5b      	lsrs	r3, r3, #29
 80015b6:	40da      	lsrs	r2, r3
 80015b8:	600a      	str	r2, [r1, #0]
 80015ba:	4b7b      	ldr	r3, [pc, #492]	@ (80017a8 <HAL_RCC_OscConfig+0x314>)
 80015bc:	6818      	ldr	r0, [r3, #0]
 80015be:	f7ff fa49 	bl	8000a54 <HAL_InitTick>
 80015c2:	2800      	cmp	r0, #0
 80015c4:	d100      	bne.n	80015c8 <HAL_RCC_OscConfig+0x134>
 80015c6:	e773      	b.n	80014b0 <HAL_RCC_OscConfig+0x1c>
 80015c8:	e769      	b.n	800149e <HAL_RCC_OscConfig+0xa>
 80015ca:	2b00      	cmp	r3, #0
 80015cc:	d0d8      	beq.n	8001580 <HAL_RCC_OscConfig+0xec>
 80015ce:	68e3      	ldr	r3, [r4, #12]
 80015d0:	2b00      	cmp	r3, #0
 80015d2:	d020      	beq.n	8001616 <HAL_RCC_OscConfig+0x182>
 80015d4:	682b      	ldr	r3, [r5, #0]
 80015d6:	4a71      	ldr	r2, [pc, #452]	@ (800179c <HAL_RCC_OscConfig+0x308>)
 80015d8:	2780      	movs	r7, #128	@ 0x80
 80015da:	4013      	ands	r3, r2
 80015dc:	6922      	ldr	r2, [r4, #16]
 80015de:	00ff      	lsls	r7, r7, #3
 80015e0:	4313      	orrs	r3, r2
 80015e2:	602b      	str	r3, [r5, #0]
 80015e4:	2380      	movs	r3, #128	@ 0x80
 80015e6:	682a      	ldr	r2, [r5, #0]
 80015e8:	005b      	lsls	r3, r3, #1
 80015ea:	4313      	orrs	r3, r2
 80015ec:	602b      	str	r3, [r5, #0]
 80015ee:	f7ff fa79 	bl	8000ae4 <HAL_GetTick>
 80015f2:	0006      	movs	r6, r0
 80015f4:	682b      	ldr	r3, [r5, #0]
 80015f6:	423b      	tst	r3, r7
 80015f8:	d007      	beq.n	800160a <HAL_RCC_OscConfig+0x176>
 80015fa:	686a      	ldr	r2, [r5, #4]
 80015fc:	6963      	ldr	r3, [r4, #20]
 80015fe:	4966      	ldr	r1, [pc, #408]	@ (8001798 <HAL_RCC_OscConfig+0x304>)
 8001600:	021b      	lsls	r3, r3, #8
 8001602:	400a      	ands	r2, r1
 8001604:	4313      	orrs	r3, r2
 8001606:	606b      	str	r3, [r5, #4]
 8001608:	e752      	b.n	80014b0 <HAL_RCC_OscConfig+0x1c>
 800160a:	f7ff fa6b 	bl	8000ae4 <HAL_GetTick>
 800160e:	1b80      	subs	r0, r0, r6
 8001610:	2802      	cmp	r0, #2
 8001612:	d9ef      	bls.n	80015f4 <HAL_RCC_OscConfig+0x160>
 8001614:	e782      	b.n	800151c <HAL_RCC_OscConfig+0x88>
 8001616:	682b      	ldr	r3, [r5, #0]
 8001618:	4a64      	ldr	r2, [pc, #400]	@ (80017ac <HAL_RCC_OscConfig+0x318>)
 800161a:	2780      	movs	r7, #128	@ 0x80
 800161c:	4013      	ands	r3, r2
 800161e:	602b      	str	r3, [r5, #0]
 8001620:	f7ff fa60 	bl	8000ae4 <HAL_GetTick>
 8001624:	0006      	movs	r6, r0
 8001626:	00ff      	lsls	r7, r7, #3
 8001628:	682b      	ldr	r3, [r5, #0]
 800162a:	423b      	tst	r3, r7
 800162c:	d100      	bne.n	8001630 <HAL_RCC_OscConfig+0x19c>
 800162e:	e73f      	b.n	80014b0 <HAL_RCC_OscConfig+0x1c>
 8001630:	f7ff fa58 	bl	8000ae4 <HAL_GetTick>
 8001634:	1b80      	subs	r0, r0, r6
 8001636:	2802      	cmp	r0, #2
 8001638:	d9f6      	bls.n	8001628 <HAL_RCC_OscConfig+0x194>
 800163a:	e76f      	b.n	800151c <HAL_RCC_OscConfig+0x88>
 800163c:	2238      	movs	r2, #56	@ 0x38
 800163e:	4d53      	ldr	r5, [pc, #332]	@ (800178c <HAL_RCC_OscConfig+0x2f8>)
 8001640:	68ab      	ldr	r3, [r5, #8]
 8001642:	4013      	ands	r3, r2
 8001644:	2b18      	cmp	r3, #24
 8001646:	d108      	bne.n	800165a <HAL_RCC_OscConfig+0x1c6>
 8001648:	6e2b      	ldr	r3, [r5, #96]	@ 0x60
 800164a:	079b      	lsls	r3, r3, #30
 800164c:	d400      	bmi.n	8001650 <HAL_RCC_OscConfig+0x1bc>
 800164e:	e733      	b.n	80014b8 <HAL_RCC_OscConfig+0x24>
 8001650:	69a3      	ldr	r3, [r4, #24]
 8001652:	2b00      	cmp	r3, #0
 8001654:	d000      	beq.n	8001658 <HAL_RCC_OscConfig+0x1c4>
 8001656:	e72f      	b.n	80014b8 <HAL_RCC_OscConfig+0x24>
 8001658:	e721      	b.n	800149e <HAL_RCC_OscConfig+0xa>
 800165a:	69a2      	ldr	r2, [r4, #24]
 800165c:	2301      	movs	r3, #1
 800165e:	2a00      	cmp	r2, #0
 8001660:	d010      	beq.n	8001684 <HAL_RCC_OscConfig+0x1f0>
 8001662:	6e2a      	ldr	r2, [r5, #96]	@ 0x60
 8001664:	2702      	movs	r7, #2
 8001666:	4313      	orrs	r3, r2
 8001668:	662b      	str	r3, [r5, #96]	@ 0x60
 800166a:	f7ff fa3b 	bl	8000ae4 <HAL_GetTick>
 800166e:	0006      	movs	r6, r0
 8001670:	6e2b      	ldr	r3, [r5, #96]	@ 0x60
 8001672:	423b      	tst	r3, r7
 8001674:	d000      	beq.n	8001678 <HAL_RCC_OscConfig+0x1e4>
 8001676:	e71f      	b.n	80014b8 <HAL_RCC_OscConfig+0x24>
 8001678:	f7ff fa34 	bl	8000ae4 <HAL_GetTick>
 800167c:	1b80      	subs	r0, r0, r6
 800167e:	2802      	cmp	r0, #2
 8001680:	d9f6      	bls.n	8001670 <HAL_RCC_OscConfig+0x1dc>
 8001682:	e74b      	b.n	800151c <HAL_RCC_OscConfig+0x88>
 8001684:	6e2a      	ldr	r2, [r5, #96]	@ 0x60
 8001686:	2702      	movs	r7, #2
 8001688:	439a      	bics	r2, r3
 800168a:	662a      	str	r2, [r5, #96]	@ 0x60
 800168c:	f7ff fa2a 	bl	8000ae4 <HAL_GetTick>
 8001690:	0006      	movs	r6, r0
 8001692:	6e2b      	ldr	r3, [r5, #96]	@ 0x60
 8001694:	423b      	tst	r3, r7
 8001696:	d100      	bne.n	800169a <HAL_RCC_OscConfig+0x206>
 8001698:	e70e      	b.n	80014b8 <HAL_RCC_OscConfig+0x24>
 800169a:	f7ff fa23 	bl	8000ae4 <HAL_GetTick>
 800169e:	1b80      	subs	r0, r0, r6
 80016a0:	2802      	cmp	r0, #2
 80016a2:	d9f6      	bls.n	8001692 <HAL_RCC_OscConfig+0x1fe>
 80016a4:	e73a      	b.n	800151c <HAL_RCC_OscConfig+0x88>
 80016a6:	2238      	movs	r2, #56	@ 0x38
 80016a8:	4d38      	ldr	r5, [pc, #224]	@ (800178c <HAL_RCC_OscConfig+0x2f8>)
 80016aa:	68ab      	ldr	r3, [r5, #8]
 80016ac:	4013      	ands	r3, r2
 80016ae:	2b20      	cmp	r3, #32
 80016b0:	d108      	bne.n	80016c4 <HAL_RCC_OscConfig+0x230>
 80016b2:	6deb      	ldr	r3, [r5, #92]	@ 0x5c
 80016b4:	079b      	lsls	r3, r3, #30
 80016b6:	d400      	bmi.n	80016ba <HAL_RCC_OscConfig+0x226>
 80016b8:	e702      	b.n	80014c0 <HAL_RCC_OscConfig+0x2c>
 80016ba:	68a3      	ldr	r3, [r4, #8]
 80016bc:	2b00      	cmp	r3, #0
 80016be:	d000      	beq.n	80016c2 <HAL_RCC_OscConfig+0x22e>
 80016c0:	e6fe      	b.n	80014c0 <HAL_RCC_OscConfig+0x2c>
 80016c2:	e6ec      	b.n	800149e <HAL_RCC_OscConfig+0xa>
 80016c4:	2280      	movs	r2, #128	@ 0x80
 80016c6:	2100      	movs	r1, #0
 80016c8:	6beb      	ldr	r3, [r5, #60]	@ 0x3c
 80016ca:	0552      	lsls	r2, r2, #21
 80016cc:	9100      	str	r1, [sp, #0]
 80016ce:	4213      	tst	r3, r2
 80016d0:	d108      	bne.n	80016e4 <HAL_RCC_OscConfig+0x250>
 80016d2:	6beb      	ldr	r3, [r5, #60]	@ 0x3c
 80016d4:	4313      	orrs	r3, r2
 80016d6:	63eb      	str	r3, [r5, #60]	@ 0x3c
 80016d8:	6beb      	ldr	r3, [r5, #60]	@ 0x3c
 80016da:	4013      	ands	r3, r2
 80016dc:	9303      	str	r3, [sp, #12]
 80016de:	9b03      	ldr	r3, [sp, #12]
 80016e0:	2301      	movs	r3, #1
 80016e2:	9300      	str	r3, [sp, #0]
 80016e4:	2780      	movs	r7, #128	@ 0x80
 80016e6:	4e32      	ldr	r6, [pc, #200]	@ (80017b0 <HAL_RCC_OscConfig+0x31c>)
 80016e8:	007f      	lsls	r7, r7, #1
 80016ea:	6833      	ldr	r3, [r6, #0]
 80016ec:	423b      	tst	r3, r7
 80016ee:	d015      	beq.n	800171c <HAL_RCC_OscConfig+0x288>
 80016f0:	68a3      	ldr	r3, [r4, #8]
 80016f2:	2b01      	cmp	r3, #1
 80016f4:	d122      	bne.n	800173c <HAL_RCC_OscConfig+0x2a8>
 80016f6:	6dea      	ldr	r2, [r5, #92]	@ 0x5c
 80016f8:	4313      	orrs	r3, r2
 80016fa:	65eb      	str	r3, [r5, #92]	@ 0x5c
 80016fc:	f7ff f9f2 	bl	8000ae4 <HAL_GetTick>
 8001700:	2702      	movs	r7, #2
 8001702:	0006      	movs	r6, r0
 8001704:	6deb      	ldr	r3, [r5, #92]	@ 0x5c
 8001706:	423b      	tst	r3, r7
 8001708:	d038      	beq.n	800177c <HAL_RCC_OscConfig+0x2e8>
 800170a:	9b00      	ldr	r3, [sp, #0]
 800170c:	2b01      	cmp	r3, #1
 800170e:	d000      	beq.n	8001712 <HAL_RCC_OscConfig+0x27e>
 8001710:	e6d6      	b.n	80014c0 <HAL_RCC_OscConfig+0x2c>
 8001712:	6beb      	ldr	r3, [r5, #60]	@ 0x3c
 8001714:	4a27      	ldr	r2, [pc, #156]	@ (80017b4 <HAL_RCC_OscConfig+0x320>)
 8001716:	4013      	ands	r3, r2
 8001718:	63eb      	str	r3, [r5, #60]	@ 0x3c
 800171a:	e6d1      	b.n	80014c0 <HAL_RCC_OscConfig+0x2c>
 800171c:	6833      	ldr	r3, [r6, #0]
 800171e:	433b      	orrs	r3, r7
 8001720:	6033      	str	r3, [r6, #0]
 8001722:	f7ff f9df 	bl	8000ae4 <HAL_GetTick>
 8001726:	9001      	str	r0, [sp, #4]
 8001728:	6833      	ldr	r3, [r6, #0]
 800172a:	423b      	tst	r3, r7
 800172c:	d1e0      	bne.n	80016f0 <HAL_RCC_OscConfig+0x25c>
 800172e:	f7ff f9d9 	bl	8000ae4 <HAL_GetTick>
 8001732:	9b01      	ldr	r3, [sp, #4]
 8001734:	1ac0      	subs	r0, r0, r3
 8001736:	2802      	cmp	r0, #2
 8001738:	d9f6      	bls.n	8001728 <HAL_RCC_OscConfig+0x294>
 800173a:	e6ef      	b.n	800151c <HAL_RCC_OscConfig+0x88>
 800173c:	6dea      	ldr	r2, [r5, #92]	@ 0x5c
 800173e:	2b05      	cmp	r3, #5
 8001740:	d105      	bne.n	800174e <HAL_RCC_OscConfig+0x2ba>
 8001742:	3b01      	subs	r3, #1
 8001744:	4313      	orrs	r3, r2
 8001746:	65eb      	str	r3, [r5, #92]	@ 0x5c
 8001748:	6dea      	ldr	r2, [r5, #92]	@ 0x5c
 800174a:	2301      	movs	r3, #1
 800174c:	e7d4      	b.n	80016f8 <HAL_RCC_OscConfig+0x264>
 800174e:	2101      	movs	r1, #1
 8001750:	438a      	bics	r2, r1
 8001752:	65ea      	str	r2, [r5, #92]	@ 0x5c
 8001754:	6dea      	ldr	r2, [r5, #92]	@ 0x5c
 8001756:	3103      	adds	r1, #3
 8001758:	438a      	bics	r2, r1
 800175a:	65ea      	str	r2, [r5, #92]	@ 0x5c
 800175c:	2b00      	cmp	r3, #0
 800175e:	d1cd      	bne.n	80016fc <HAL_RCC_OscConfig+0x268>
 8001760:	f7ff f9c0 	bl	8000ae4 <HAL_GetTick>
 8001764:	2702      	movs	r7, #2
 8001766:	0006      	movs	r6, r0
 8001768:	6deb      	ldr	r3, [r5, #92]	@ 0x5c
 800176a:	423b      	tst	r3, r7
 800176c:	d0cd      	beq.n	800170a <HAL_RCC_OscConfig+0x276>
 800176e:	f7ff f9b9 	bl	8000ae4 <HAL_GetTick>
 8001772:	4b11      	ldr	r3, [pc, #68]	@ (80017b8 <HAL_RCC_OscConfig+0x324>)
 8001774:	1b80      	subs	r0, r0, r6
 8001776:	4298      	cmp	r0, r3
 8001778:	d9f6      	bls.n	8001768 <HAL_RCC_OscConfig+0x2d4>
 800177a:	e6cf      	b.n	800151c <HAL_RCC_OscConfig+0x88>
 800177c:	f7ff f9b2 	bl	8000ae4 <HAL_GetTick>
 8001780:	4b0d      	ldr	r3, [pc, #52]	@ (80017b8 <HAL_RCC_OscConfig+0x324>)
 8001782:	1b80      	subs	r0, r0, r6
 8001784:	4298      	cmp	r0, r3
 8001786:	d9bd      	bls.n	8001704 <HAL_RCC_OscConfig+0x270>
 8001788:	e6c8      	b.n	800151c <HAL_RCC_OscConfig+0x88>
 800178a:	46c0      	nop			@ (mov r8, r8)
 800178c:	40021000 	.word	0x40021000
 8001790:	fffeffff 	.word	0xfffeffff
 8001794:	fffbffff 	.word	0xfffbffff
 8001798:	ffff80ff 	.word	0xffff80ff
 800179c:	ffffc7ff 	.word	0xffffc7ff
 80017a0:	20000008 	.word	0x20000008
 80017a4:	00f42400 	.word	0x00f42400
 80017a8:	20000004 	.word	0x20000004
 80017ac:	fffffeff 	.word	0xfffffeff
 80017b0:	40007000 	.word	0x40007000
 80017b4:	efffffff 	.word	0xefffffff
 80017b8:	00001388 	.word	0x00001388
 80017bc:	2138      	movs	r1, #56	@ 0x38
 80017be:	4d43      	ldr	r5, [pc, #268]	@ (80018cc <HAL_RCC_OscConfig+0x438>)
 80017c0:	68aa      	ldr	r2, [r5, #8]
 80017c2:	400a      	ands	r2, r1
 80017c4:	2a10      	cmp	r2, #16
 80017c6:	d053      	beq.n	8001870 <HAL_RCC_OscConfig+0x3dc>
 80017c8:	4a41      	ldr	r2, [pc, #260]	@ (80018d0 <HAL_RCC_OscConfig+0x43c>)
 80017ca:	2b02      	cmp	r3, #2
 80017cc:	d13a      	bne.n	8001844 <HAL_RCC_OscConfig+0x3b0>
 80017ce:	682b      	ldr	r3, [r5, #0]
 80017d0:	2780      	movs	r7, #128	@ 0x80
 80017d2:	4013      	ands	r3, r2
 80017d4:	602b      	str	r3, [r5, #0]
 80017d6:	f7ff f985 	bl	8000ae4 <HAL_GetTick>
 80017da:	0006      	movs	r6, r0
 80017dc:	04bf      	lsls	r7, r7, #18
 80017de:	682b      	ldr	r3, [r5, #0]
 80017e0:	423b      	tst	r3, r7
 80017e2:	d129      	bne.n	8001838 <HAL_RCC_OscConfig+0x3a4>
 80017e4:	6a61      	ldr	r1, [r4, #36]	@ 0x24
 80017e6:	6a23      	ldr	r3, [r4, #32]
 80017e8:	68ea      	ldr	r2, [r5, #12]
 80017ea:	430b      	orrs	r3, r1
 80017ec:	4939      	ldr	r1, [pc, #228]	@ (80018d4 <HAL_RCC_OscConfig+0x440>)
 80017ee:	2680      	movs	r6, #128	@ 0x80
 80017f0:	400a      	ands	r2, r1
 80017f2:	4313      	orrs	r3, r2
 80017f4:	6ae2      	ldr	r2, [r4, #44]	@ 0x2c
 80017f6:	04b6      	lsls	r6, r6, #18
 80017f8:	4313      	orrs	r3, r2
 80017fa:	6b22      	ldr	r2, [r4, #48]	@ 0x30
 80017fc:	4313      	orrs	r3, r2
 80017fe:	6b62      	ldr	r2, [r4, #52]	@ 0x34
 8001800:	4313      	orrs	r3, r2
 8001802:	6aa2      	ldr	r2, [r4, #40]	@ 0x28
 8001804:	0212      	lsls	r2, r2, #8
 8001806:	4313      	orrs	r3, r2
 8001808:	60eb      	str	r3, [r5, #12]
 800180a:	2380      	movs	r3, #128	@ 0x80
 800180c:	682a      	ldr	r2, [r5, #0]
 800180e:	045b      	lsls	r3, r3, #17
 8001810:	4313      	orrs	r3, r2
 8001812:	602b      	str	r3, [r5, #0]
 8001814:	2380      	movs	r3, #128	@ 0x80
 8001816:	68ea      	ldr	r2, [r5, #12]
 8001818:	055b      	lsls	r3, r3, #21
 800181a:	4313      	orrs	r3, r2
 800181c:	60eb      	str	r3, [r5, #12]
 800181e:	f7ff f961 	bl	8000ae4 <HAL_GetTick>
 8001822:	0004      	movs	r4, r0
 8001824:	682b      	ldr	r3, [r5, #0]
 8001826:	4233      	tst	r3, r6
 8001828:	d000      	beq.n	800182c <HAL_RCC_OscConfig+0x398>
 800182a:	e64d      	b.n	80014c8 <HAL_RCC_OscConfig+0x34>
 800182c:	f7ff f95a 	bl	8000ae4 <HAL_GetTick>
 8001830:	1b00      	subs	r0, r0, r4
 8001832:	2802      	cmp	r0, #2
 8001834:	d9f6      	bls.n	8001824 <HAL_RCC_OscConfig+0x390>
 8001836:	e671      	b.n	800151c <HAL_RCC_OscConfig+0x88>
 8001838:	f7ff f954 	bl	8000ae4 <HAL_GetTick>
 800183c:	1b80      	subs	r0, r0, r6
 800183e:	2802      	cmp	r0, #2
 8001840:	d9cd      	bls.n	80017de <HAL_RCC_OscConfig+0x34a>
 8001842:	e66b      	b.n	800151c <HAL_RCC_OscConfig+0x88>
 8001844:	682b      	ldr	r3, [r5, #0]
 8001846:	2680      	movs	r6, #128	@ 0x80
 8001848:	4013      	ands	r3, r2
 800184a:	602b      	str	r3, [r5, #0]
 800184c:	f7ff f94a 	bl	8000ae4 <HAL_GetTick>
 8001850:	0004      	movs	r4, r0
 8001852:	04b6      	lsls	r6, r6, #18
 8001854:	682b      	ldr	r3, [r5, #0]
 8001856:	4233      	tst	r3, r6
 8001858:	d104      	bne.n	8001864 <HAL_RCC_OscConfig+0x3d0>
 800185a:	68eb      	ldr	r3, [r5, #12]
 800185c:	4a1e      	ldr	r2, [pc, #120]	@ (80018d8 <HAL_RCC_OscConfig+0x444>)
 800185e:	4013      	ands	r3, r2
 8001860:	60eb      	str	r3, [r5, #12]
 8001862:	e631      	b.n	80014c8 <HAL_RCC_OscConfig+0x34>
 8001864:	f7ff f93e 	bl	8000ae4 <HAL_GetTick>
 8001868:	1b00      	subs	r0, r0, r4
 800186a:	2802      	cmp	r0, #2
 800186c:	d9f2      	bls.n	8001854 <HAL_RCC_OscConfig+0x3c0>
 800186e:	e655      	b.n	800151c <HAL_RCC_OscConfig+0x88>
 8001870:	2b01      	cmp	r3, #1
 8001872:	d100      	bne.n	8001876 <HAL_RCC_OscConfig+0x3e2>
 8001874:	e613      	b.n	800149e <HAL_RCC_OscConfig+0xa>
 8001876:	2203      	movs	r2, #3
 8001878:	68e8      	ldr	r0, [r5, #12]
 800187a:	6a21      	ldr	r1, [r4, #32]
 800187c:	4002      	ands	r2, r0
 800187e:	428a      	cmp	r2, r1
 8001880:	d000      	beq.n	8001884 <HAL_RCC_OscConfig+0x3f0>
 8001882:	e60c      	b.n	800149e <HAL_RCC_OscConfig+0xa>
 8001884:	2270      	movs	r2, #112	@ 0x70
 8001886:	6a61      	ldr	r1, [r4, #36]	@ 0x24
 8001888:	4002      	ands	r2, r0
 800188a:	428a      	cmp	r2, r1
 800188c:	d000      	beq.n	8001890 <HAL_RCC_OscConfig+0x3fc>
 800188e:	e606      	b.n	800149e <HAL_RCC_OscConfig+0xa>
 8001890:	21fe      	movs	r1, #254	@ 0xfe
 8001892:	6aa2      	ldr	r2, [r4, #40]	@ 0x28
 8001894:	01c9      	lsls	r1, r1, #7
 8001896:	4001      	ands	r1, r0
 8001898:	0212      	lsls	r2, r2, #8
 800189a:	4291      	cmp	r1, r2
 800189c:	d000      	beq.n	80018a0 <HAL_RCC_OscConfig+0x40c>
 800189e:	e5fe      	b.n	800149e <HAL_RCC_OscConfig+0xa>
 80018a0:	22f8      	movs	r2, #248	@ 0xf8
 80018a2:	6ae1      	ldr	r1, [r4, #44]	@ 0x2c
 80018a4:	0392      	lsls	r2, r2, #14
 80018a6:	4002      	ands	r2, r0
 80018a8:	428a      	cmp	r2, r1
 80018aa:	d000      	beq.n	80018ae <HAL_RCC_OscConfig+0x41a>
 80018ac:	e5f7      	b.n	800149e <HAL_RCC_OscConfig+0xa>
 80018ae:	22e0      	movs	r2, #224	@ 0xe0
 80018b0:	6b21      	ldr	r1, [r4, #48]	@ 0x30
 80018b2:	0512      	lsls	r2, r2, #20
 80018b4:	4002      	ands	r2, r0
 80018b6:	428a      	cmp	r2, r1
 80018b8:	d000      	beq.n	80018bc <HAL_RCC_OscConfig+0x428>
 80018ba:	e5f0      	b.n	800149e <HAL_RCC_OscConfig+0xa>
 80018bc:	6b63      	ldr	r3, [r4, #52]	@ 0x34
 80018be:	0f40      	lsrs	r0, r0, #29
 80018c0:	0740      	lsls	r0, r0, #29
 80018c2:	1ac0      	subs	r0, r0, r3
 80018c4:	1e43      	subs	r3, r0, #1
 80018c6:	4198      	sbcs	r0, r3
 80018c8:	b2c0      	uxtb	r0, r0
 80018ca:	e5e9      	b.n	80014a0 <HAL_RCC_OscConfig+0xc>
 80018cc:	40021000 	.word	0x40021000
 80018d0:	feffffff 	.word	0xfeffffff
 80018d4:	11c1808c 	.word	0x11c1808c
 80018d8:	eefefffc 	.word	0xeefefffc

080018dc <HAL_RCC_GetSysClockFreq>:
 80018dc:	2338      	movs	r3, #56	@ 0x38
 80018de:	b570      	push	{r4, r5, r6, lr}
 80018e0:	4c1d      	ldr	r4, [pc, #116]	@ (8001958 <HAL_RCC_GetSysClockFreq+0x7c>)
 80018e2:	68a2      	ldr	r2, [r4, #8]
 80018e4:	421a      	tst	r2, r3
 80018e6:	d105      	bne.n	80018f4 <HAL_RCC_GetSysClockFreq+0x18>
 80018e8:	6823      	ldr	r3, [r4, #0]
 80018ea:	481c      	ldr	r0, [pc, #112]	@ (800195c <HAL_RCC_GetSysClockFreq+0x80>)
 80018ec:	049b      	lsls	r3, r3, #18
 80018ee:	0f5b      	lsrs	r3, r3, #29
 80018f0:	40d8      	lsrs	r0, r3
 80018f2:	bd70      	pop	{r4, r5, r6, pc}
 80018f4:	68a2      	ldr	r2, [r4, #8]
 80018f6:	401a      	ands	r2, r3
 80018f8:	2a08      	cmp	r2, #8
 80018fa:	d027      	beq.n	800194c <HAL_RCC_GetSysClockFreq+0x70>
 80018fc:	68a2      	ldr	r2, [r4, #8]
 80018fe:	401a      	ands	r2, r3
 8001900:	2a10      	cmp	r2, #16
 8001902:	d117      	bne.n	8001934 <HAL_RCC_GetSysClockFreq+0x58>
 8001904:	68e3      	ldr	r3, [r4, #12]
 8001906:	68e1      	ldr	r1, [r4, #12]
 8001908:	43db      	mvns	r3, r3
 800190a:	68e5      	ldr	r5, [r4, #12]
 800190c:	0649      	lsls	r1, r1, #25
 800190e:	0f49      	lsrs	r1, r1, #29
 8001910:	326f      	adds	r2, #111	@ 0x6f
 8001912:	0a2d      	lsrs	r5, r5, #8
 8001914:	3101      	adds	r1, #1
 8001916:	4015      	ands	r5, r2
 8001918:	079b      	lsls	r3, r3, #30
 800191a:	d109      	bne.n	8001930 <HAL_RCC_GetSysClockFreq+0x54>
 800191c:	4810      	ldr	r0, [pc, #64]	@ (8001960 <HAL_RCC_GetSysClockFreq+0x84>)
 800191e:	f7fe fbf9 	bl	8000114 <__udivsi3>
 8001922:	68e1      	ldr	r1, [r4, #12]
 8001924:	4368      	muls	r0, r5
 8001926:	0f49      	lsrs	r1, r1, #29
 8001928:	3101      	adds	r1, #1
 800192a:	f7fe fbf3 	bl	8000114 <__udivsi3>
 800192e:	e7e0      	b.n	80018f2 <HAL_RCC_GetSysClockFreq+0x16>
 8001930:	480a      	ldr	r0, [pc, #40]	@ (800195c <HAL_RCC_GetSysClockFreq+0x80>)
 8001932:	e7f4      	b.n	800191e <HAL_RCC_GetSysClockFreq+0x42>
 8001934:	68a2      	ldr	r2, [r4, #8]
 8001936:	401a      	ands	r2, r3
 8001938:	2a20      	cmp	r2, #32
 800193a:	d009      	beq.n	8001950 <HAL_RCC_GetSysClockFreq+0x74>
 800193c:	68a2      	ldr	r2, [r4, #8]
 800193e:	2000      	movs	r0, #0
 8001940:	4013      	ands	r3, r2
 8001942:	2b18      	cmp	r3, #24
 8001944:	d1d5      	bne.n	80018f2 <HAL_RCC_GetSysClockFreq+0x16>
 8001946:	20fa      	movs	r0, #250	@ 0xfa
 8001948:	01c0      	lsls	r0, r0, #7
 800194a:	e7d2      	b.n	80018f2 <HAL_RCC_GetSysClockFreq+0x16>
 800194c:	4804      	ldr	r0, [pc, #16]	@ (8001960 <HAL_RCC_GetSysClockFreq+0x84>)
 800194e:	e7d0      	b.n	80018f2 <HAL_RCC_GetSysClockFreq+0x16>
 8001950:	2080      	movs	r0, #128	@ 0x80
 8001952:	0200      	lsls	r0, r0, #8
 8001954:	e7cd      	b.n	80018f2 <HAL_RCC_GetSysClockFreq+0x16>
 8001956:	46c0      	nop			@ (mov r8, r8)
 8001958:	40021000 	.word	0x40021000
 800195c:	00f42400 	.word	0x00f42400
 8001960:	007a1200 	.word	0x007a1200

08001964 <HAL_RCC_ClockConfig>:
 8001964:	b5f7      	push	{r0, r1, r2, r4, r5, r6, r7, lr}
 8001966:	0004      	movs	r4, r0
 8001968:	000d      	movs	r5, r1
 800196a:	2800      	cmp	r0, #0
 800196c:	d101      	bne.n	8001972 <HAL_RCC_ClockConfig+0xe>
 800196e:	2001      	movs	r0, #1
 8001970:	bdfe      	pop	{r1, r2, r3, r4, r5, r6, r7, pc}
 8001972:	2707      	movs	r7, #7
 8001974:	4e4a      	ldr	r6, [pc, #296]	@ (8001aa0 <HAL_RCC_ClockConfig+0x13c>)
 8001976:	6833      	ldr	r3, [r6, #0]
 8001978:	403b      	ands	r3, r7
 800197a:	428b      	cmp	r3, r1
 800197c:	d32a      	bcc.n	80019d4 <HAL_RCC_ClockConfig+0x70>
 800197e:	6822      	ldr	r2, [r4, #0]
 8001980:	0793      	lsls	r3, r2, #30
 8001982:	d43b      	bmi.n	80019fc <HAL_RCC_ClockConfig+0x98>
 8001984:	07d2      	lsls	r2, r2, #31
 8001986:	d448      	bmi.n	8001a1a <HAL_RCC_ClockConfig+0xb6>
 8001988:	2707      	movs	r7, #7
 800198a:	6833      	ldr	r3, [r6, #0]
 800198c:	403b      	ands	r3, r7
 800198e:	42ab      	cmp	r3, r5
 8001990:	d90a      	bls.n	80019a8 <HAL_RCC_ClockConfig+0x44>
 8001992:	6833      	ldr	r3, [r6, #0]
 8001994:	43bb      	bics	r3, r7
 8001996:	432b      	orrs	r3, r5
 8001998:	6033      	str	r3, [r6, #0]
 800199a:	f7ff f8a3 	bl	8000ae4 <HAL_GetTick>
 800199e:	9001      	str	r0, [sp, #4]
 80019a0:	6833      	ldr	r3, [r6, #0]
 80019a2:	403b      	ands	r3, r7
 80019a4:	42ab      	cmp	r3, r5
 80019a6:	d16b      	bne.n	8001a80 <HAL_RCC_ClockConfig+0x11c>
 80019a8:	6823      	ldr	r3, [r4, #0]
 80019aa:	4d3e      	ldr	r5, [pc, #248]	@ (8001aa4 <HAL_RCC_ClockConfig+0x140>)
 80019ac:	075b      	lsls	r3, r3, #29
 80019ae:	d46f      	bmi.n	8001a90 <HAL_RCC_ClockConfig+0x12c>
 80019b0:	f7ff ff94 	bl	80018dc <HAL_RCC_GetSysClockFreq>
 80019b4:	68ab      	ldr	r3, [r5, #8]
 80019b6:	493c      	ldr	r1, [pc, #240]	@ (8001aa8 <HAL_RCC_ClockConfig+0x144>)
 80019b8:	051b      	lsls	r3, r3, #20
 80019ba:	0f1b      	lsrs	r3, r3, #28
 80019bc:	009b      	lsls	r3, r3, #2
 80019be:	585b      	ldr	r3, [r3, r1]
 80019c0:	211f      	movs	r1, #31
 80019c2:	400b      	ands	r3, r1
 80019c4:	40d8      	lsrs	r0, r3
 80019c6:	4a39      	ldr	r2, [pc, #228]	@ (8001aac <HAL_RCC_ClockConfig+0x148>)
 80019c8:	4b39      	ldr	r3, [pc, #228]	@ (8001ab0 <HAL_RCC_ClockConfig+0x14c>)
 80019ca:	6010      	str	r0, [r2, #0]
 80019cc:	6818      	ldr	r0, [r3, #0]
 80019ce:	f7ff f841 	bl	8000a54 <HAL_InitTick>
 80019d2:	e7cd      	b.n	8001970 <HAL_RCC_ClockConfig+0xc>
 80019d4:	6833      	ldr	r3, [r6, #0]
 80019d6:	43bb      	bics	r3, r7
 80019d8:	430b      	orrs	r3, r1
 80019da:	6033      	str	r3, [r6, #0]
 80019dc:	f7ff f882 	bl	8000ae4 <HAL_GetTick>
 80019e0:	9001      	str	r0, [sp, #4]
 80019e2:	6833      	ldr	r3, [r6, #0]
 80019e4:	403b      	ands	r3, r7
 80019e6:	42ab      	cmp	r3, r5
 80019e8:	d0c9      	beq.n	800197e <HAL_RCC_ClockConfig+0x1a>
 80019ea:	f7ff f87b 	bl	8000ae4 <HAL_GetTick>
 80019ee:	9b01      	ldr	r3, [sp, #4]
 80019f0:	1ac0      	subs	r0, r0, r3
 80019f2:	4b30      	ldr	r3, [pc, #192]	@ (8001ab4 <HAL_RCC_ClockConfig+0x150>)
 80019f4:	4298      	cmp	r0, r3
 80019f6:	d9f4      	bls.n	80019e2 <HAL_RCC_ClockConfig+0x7e>
 80019f8:	2003      	movs	r0, #3
 80019fa:	e7b9      	b.n	8001970 <HAL_RCC_ClockConfig+0xc>
 80019fc:	4929      	ldr	r1, [pc, #164]	@ (8001aa4 <HAL_RCC_ClockConfig+0x140>)
 80019fe:	0753      	lsls	r3, r2, #29
 8001a00:	d504      	bpl.n	8001a0c <HAL_RCC_ClockConfig+0xa8>
 8001a02:	23e0      	movs	r3, #224	@ 0xe0
 8001a04:	6888      	ldr	r0, [r1, #8]
 8001a06:	01db      	lsls	r3, r3, #7
 8001a08:	4303      	orrs	r3, r0
 8001a0a:	608b      	str	r3, [r1, #8]
 8001a0c:	688b      	ldr	r3, [r1, #8]
 8001a0e:	482a      	ldr	r0, [pc, #168]	@ (8001ab8 <HAL_RCC_ClockConfig+0x154>)
 8001a10:	4003      	ands	r3, r0
 8001a12:	68a0      	ldr	r0, [r4, #8]
 8001a14:	4303      	orrs	r3, r0
 8001a16:	608b      	str	r3, [r1, #8]
 8001a18:	e7b4      	b.n	8001984 <HAL_RCC_ClockConfig+0x20>
 8001a1a:	6862      	ldr	r2, [r4, #4]
 8001a1c:	4f21      	ldr	r7, [pc, #132]	@ (8001aa4 <HAL_RCC_ClockConfig+0x140>)
 8001a1e:	2a01      	cmp	r2, #1
 8001a20:	d119      	bne.n	8001a56 <HAL_RCC_ClockConfig+0xf2>
 8001a22:	683b      	ldr	r3, [r7, #0]
 8001a24:	039b      	lsls	r3, r3, #14
 8001a26:	d5a2      	bpl.n	800196e <HAL_RCC_ClockConfig+0xa>
 8001a28:	2107      	movs	r1, #7
 8001a2a:	68bb      	ldr	r3, [r7, #8]
 8001a2c:	438b      	bics	r3, r1
 8001a2e:	4313      	orrs	r3, r2
 8001a30:	60bb      	str	r3, [r7, #8]
 8001a32:	f7ff f857 	bl	8000ae4 <HAL_GetTick>
 8001a36:	9001      	str	r0, [sp, #4]
 8001a38:	2338      	movs	r3, #56	@ 0x38
 8001a3a:	68ba      	ldr	r2, [r7, #8]
 8001a3c:	401a      	ands	r2, r3
 8001a3e:	6863      	ldr	r3, [r4, #4]
 8001a40:	00db      	lsls	r3, r3, #3
 8001a42:	429a      	cmp	r2, r3
 8001a44:	d0a0      	beq.n	8001988 <HAL_RCC_ClockConfig+0x24>
 8001a46:	f7ff f84d 	bl	8000ae4 <HAL_GetTick>
 8001a4a:	9b01      	ldr	r3, [sp, #4]
 8001a4c:	1ac0      	subs	r0, r0, r3
 8001a4e:	4b19      	ldr	r3, [pc, #100]	@ (8001ab4 <HAL_RCC_ClockConfig+0x150>)
 8001a50:	4298      	cmp	r0, r3
 8001a52:	d9f1      	bls.n	8001a38 <HAL_RCC_ClockConfig+0xd4>
 8001a54:	e7d0      	b.n	80019f8 <HAL_RCC_ClockConfig+0x94>
 8001a56:	2a02      	cmp	r2, #2
 8001a58:	d103      	bne.n	8001a62 <HAL_RCC_ClockConfig+0xfe>
 8001a5a:	683b      	ldr	r3, [r7, #0]
 8001a5c:	019b      	lsls	r3, r3, #6
 8001a5e:	d4e3      	bmi.n	8001a28 <HAL_RCC_ClockConfig+0xc4>
 8001a60:	e785      	b.n	800196e <HAL_RCC_ClockConfig+0xa>
 8001a62:	2a00      	cmp	r2, #0
 8001a64:	d103      	bne.n	8001a6e <HAL_RCC_ClockConfig+0x10a>
 8001a66:	683b      	ldr	r3, [r7, #0]
 8001a68:	055b      	lsls	r3, r3, #21
 8001a6a:	d4dd      	bmi.n	8001a28 <HAL_RCC_ClockConfig+0xc4>
 8001a6c:	e77f      	b.n	800196e <HAL_RCC_ClockConfig+0xa>
 8001a6e:	2302      	movs	r3, #2
 8001a70:	2a03      	cmp	r2, #3
 8001a72:	d103      	bne.n	8001a7c <HAL_RCC_ClockConfig+0x118>
 8001a74:	6e39      	ldr	r1, [r7, #96]	@ 0x60
 8001a76:	4219      	tst	r1, r3
 8001a78:	d1d6      	bne.n	8001a28 <HAL_RCC_ClockConfig+0xc4>
 8001a7a:	e778      	b.n	800196e <HAL_RCC_ClockConfig+0xa>
 8001a7c:	6df9      	ldr	r1, [r7, #92]	@ 0x5c
 8001a7e:	e7fa      	b.n	8001a76 <HAL_RCC_ClockConfig+0x112>
 8001a80:	f7ff f830 	bl	8000ae4 <HAL_GetTick>
 8001a84:	9b01      	ldr	r3, [sp, #4]
 8001a86:	1ac0      	subs	r0, r0, r3
 8001a88:	4b0a      	ldr	r3, [pc, #40]	@ (8001ab4 <HAL_RCC_ClockConfig+0x150>)
 8001a8a:	4298      	cmp	r0, r3
 8001a8c:	d988      	bls.n	80019a0 <HAL_RCC_ClockConfig+0x3c>
 8001a8e:	e7b3      	b.n	80019f8 <HAL_RCC_ClockConfig+0x94>
 8001a90:	68ab      	ldr	r3, [r5, #8]
 8001a92:	4a0a      	ldr	r2, [pc, #40]	@ (8001abc <HAL_RCC_ClockConfig+0x158>)
 8001a94:	4013      	ands	r3, r2
 8001a96:	68e2      	ldr	r2, [r4, #12]
 8001a98:	4313      	orrs	r3, r2
 8001a9a:	60ab      	str	r3, [r5, #8]
 8001a9c:	e788      	b.n	80019b0 <HAL_RCC_ClockConfig+0x4c>
 8001a9e:	46c0      	nop			@ (mov r8, r8)
 8001aa0:	40022000 	.word	0x40022000
 8001aa4:	40021000 	.word	0x40021000
 8001aa8:	08002f18 	.word	0x08002f18
 8001aac:	20000008 	.word	0x20000008
 8001ab0:	20000004 	.word	0x20000004
 8001ab4:	00001388 	.word	0x00001388
 8001ab8:	fffff0ff 	.word	0xfffff0ff
 8001abc:	ffff8fff 	.word	0xffff8fff

08001ac0 <HAL_RCC_GetPCLK1Freq>:
 8001ac0:	4b06      	ldr	r3, [pc, #24]	@ (8001adc <HAL_RCC_GetPCLK1Freq+0x1c>)
 8001ac2:	4907      	ldr	r1, [pc, #28]	@ (8001ae0 <HAL_RCC_GetPCLK1Freq+0x20>)
 8001ac4:	689b      	ldr	r3, [r3, #8]
 8001ac6:	4a07      	ldr	r2, [pc, #28]	@ (8001ae4 <HAL_RCC_GetPCLK1Freq+0x24>)
 8001ac8:	045b      	lsls	r3, r3, #17
 8001aca:	0f5b      	lsrs	r3, r3, #29
 8001acc:	009b      	lsls	r3, r3, #2
 8001ace:	585b      	ldr	r3, [r3, r1]
 8001ad0:	211f      	movs	r1, #31
 8001ad2:	6810      	ldr	r0, [r2, #0]
 8001ad4:	400b      	ands	r3, r1
 8001ad6:	40d8      	lsrs	r0, r3
 8001ad8:	4770      	bx	lr
 8001ada:	46c0      	nop			@ (mov r8, r8)
 8001adc:	40021000 	.word	0x40021000
 8001ae0:	08002ef8 	.word	0x08002ef8
 8001ae4:	20000008 	.word	0x20000008

08001ae8 <HAL_RCCEx_PeriphCLKConfig>:
 8001ae8:	b5f0      	push	{r4, r5, r6, r7, lr}
 8001aea:	6803      	ldr	r3, [r0, #0]
 8001aec:	0004      	movs	r4, r0
 8001aee:	b085      	sub	sp, #20
 8001af0:	2000      	movs	r0, #0
 8001af2:	039b      	lsls	r3, r3, #14
 8001af4:	d552      	bpl.n	8001b9c <HAL_RCCEx_PeriphCLKConfig+0xb4>
 8001af6:	2280      	movs	r2, #128	@ 0x80
 8001af8:	4d70      	ldr	r5, [pc, #448]	@ (8001cbc <HAL_RCCEx_PeriphCLKConfig+0x1d4>)
 8001afa:	0552      	lsls	r2, r2, #21
 8001afc:	6beb      	ldr	r3, [r5, #60]	@ 0x3c
 8001afe:	9000      	str	r0, [sp, #0]
 8001b00:	4213      	tst	r3, r2
 8001b02:	d108      	bne.n	8001b16 <HAL_RCCEx_PeriphCLKConfig+0x2e>
 8001b04:	6beb      	ldr	r3, [r5, #60]	@ 0x3c
 8001b06:	4313      	orrs	r3, r2
 8001b08:	63eb      	str	r3, [r5, #60]	@ 0x3c
 8001b0a:	6beb      	ldr	r3, [r5, #60]	@ 0x3c
 8001b0c:	4013      	ands	r3, r2
 8001b0e:	9303      	str	r3, [sp, #12]
 8001b10:	9b03      	ldr	r3, [sp, #12]
 8001b12:	2301      	movs	r3, #1
 8001b14:	9300      	str	r3, [sp, #0]
 8001b16:	2780      	movs	r7, #128	@ 0x80
 8001b18:	4e69      	ldr	r6, [pc, #420]	@ (8001cc0 <HAL_RCCEx_PeriphCLKConfig+0x1d8>)
 8001b1a:	007f      	lsls	r7, r7, #1
 8001b1c:	6833      	ldr	r3, [r6, #0]
 8001b1e:	433b      	orrs	r3, r7
 8001b20:	6033      	str	r3, [r6, #0]
 8001b22:	f7fe ffdf 	bl	8000ae4 <HAL_GetTick>
 8001b26:	9001      	str	r0, [sp, #4]
 8001b28:	6833      	ldr	r3, [r6, #0]
 8001b2a:	423b      	tst	r3, r7
 8001b2c:	d028      	beq.n	8001b80 <HAL_RCCEx_PeriphCLKConfig+0x98>
 8001b2e:	6de9      	ldr	r1, [r5, #92]	@ 0x5c
 8001b30:	22c0      	movs	r2, #192	@ 0xc0
 8001b32:	0008      	movs	r0, r1
 8001b34:	0092      	lsls	r2, r2, #2
 8001b36:	6b23      	ldr	r3, [r4, #48]	@ 0x30
 8001b38:	4010      	ands	r0, r2
 8001b3a:	4211      	tst	r1, r2
 8001b3c:	d018      	beq.n	8001b70 <HAL_RCCEx_PeriphCLKConfig+0x88>
 8001b3e:	4298      	cmp	r0, r3
 8001b40:	d00c      	beq.n	8001b5c <HAL_RCCEx_PeriphCLKConfig+0x74>
 8001b42:	6deb      	ldr	r3, [r5, #92]	@ 0x5c
 8001b44:	4a5f      	ldr	r2, [pc, #380]	@ (8001cc4 <HAL_RCCEx_PeriphCLKConfig+0x1dc>)
 8001b46:	6de9      	ldr	r1, [r5, #92]	@ 0x5c
 8001b48:	4013      	ands	r3, r2
 8001b4a:	2280      	movs	r2, #128	@ 0x80
 8001b4c:	0252      	lsls	r2, r2, #9
 8001b4e:	430a      	orrs	r2, r1
 8001b50:	65ea      	str	r2, [r5, #92]	@ 0x5c
 8001b52:	6dea      	ldr	r2, [r5, #92]	@ 0x5c
 8001b54:	495c      	ldr	r1, [pc, #368]	@ (8001cc8 <HAL_RCCEx_PeriphCLKConfig+0x1e0>)
 8001b56:	400a      	ands	r2, r1
 8001b58:	65ea      	str	r2, [r5, #92]	@ 0x5c
 8001b5a:	65eb      	str	r3, [r5, #92]	@ 0x5c
 8001b5c:	07db      	lsls	r3, r3, #31
 8001b5e:	d507      	bpl.n	8001b70 <HAL_RCCEx_PeriphCLKConfig+0x88>
 8001b60:	f7fe ffc0 	bl	8000ae4 <HAL_GetTick>
 8001b64:	2702      	movs	r7, #2
 8001b66:	0006      	movs	r6, r0
 8001b68:	6deb      	ldr	r3, [r5, #92]	@ 0x5c
 8001b6a:	423b      	tst	r3, r7
 8001b6c:	d100      	bne.n	8001b70 <HAL_RCCEx_PeriphCLKConfig+0x88>
 8001b6e:	e09d      	b.n	8001cac <HAL_RCCEx_PeriphCLKConfig+0x1c4>
 8001b70:	6deb      	ldr	r3, [r5, #92]	@ 0x5c
 8001b72:	4a54      	ldr	r2, [pc, #336]	@ (8001cc4 <HAL_RCCEx_PeriphCLKConfig+0x1dc>)
 8001b74:	2000      	movs	r0, #0
 8001b76:	4013      	ands	r3, r2
 8001b78:	6b22      	ldr	r2, [r4, #48]	@ 0x30
 8001b7a:	4313      	orrs	r3, r2
 8001b7c:	65eb      	str	r3, [r5, #92]	@ 0x5c
 8001b7e:	e006      	b.n	8001b8e <HAL_RCCEx_PeriphCLKConfig+0xa6>
 8001b80:	f7fe ffb0 	bl	8000ae4 <HAL_GetTick>
 8001b84:	9b01      	ldr	r3, [sp, #4]
 8001b86:	1ac0      	subs	r0, r0, r3
 8001b88:	2802      	cmp	r0, #2
 8001b8a:	d9cd      	bls.n	8001b28 <HAL_RCCEx_PeriphCLKConfig+0x40>
 8001b8c:	2003      	movs	r0, #3
 8001b8e:	9b00      	ldr	r3, [sp, #0]
 8001b90:	2b01      	cmp	r3, #1
 8001b92:	d103      	bne.n	8001b9c <HAL_RCCEx_PeriphCLKConfig+0xb4>
 8001b94:	6beb      	ldr	r3, [r5, #60]	@ 0x3c
 8001b96:	4a4d      	ldr	r2, [pc, #308]	@ (8001ccc <HAL_RCCEx_PeriphCLKConfig+0x1e4>)
 8001b98:	4013      	ands	r3, r2
 8001b9a:	63eb      	str	r3, [r5, #60]	@ 0x3c
 8001b9c:	6823      	ldr	r3, [r4, #0]
 8001b9e:	07da      	lsls	r2, r3, #31
 8001ba0:	d506      	bpl.n	8001bb0 <HAL_RCCEx_PeriphCLKConfig+0xc8>
 8001ba2:	2503      	movs	r5, #3
 8001ba4:	4945      	ldr	r1, [pc, #276]	@ (8001cbc <HAL_RCCEx_PeriphCLKConfig+0x1d4>)
 8001ba6:	6d4a      	ldr	r2, [r1, #84]	@ 0x54
 8001ba8:	43aa      	bics	r2, r5
 8001baa:	6865      	ldr	r5, [r4, #4]
 8001bac:	432a      	orrs	r2, r5
 8001bae:	654a      	str	r2, [r1, #84]	@ 0x54
 8001bb0:	079a      	lsls	r2, r3, #30
 8001bb2:	d506      	bpl.n	8001bc2 <HAL_RCCEx_PeriphCLKConfig+0xda>
 8001bb4:	250c      	movs	r5, #12
 8001bb6:	4941      	ldr	r1, [pc, #260]	@ (8001cbc <HAL_RCCEx_PeriphCLKConfig+0x1d4>)
 8001bb8:	6d4a      	ldr	r2, [r1, #84]	@ 0x54
 8001bba:	43aa      	bics	r2, r5
 8001bbc:	68a5      	ldr	r5, [r4, #8]
 8001bbe:	432a      	orrs	r2, r5
 8001bc0:	654a      	str	r2, [r1, #84]	@ 0x54
 8001bc2:	06da      	lsls	r2, r3, #27
 8001bc4:	d506      	bpl.n	8001bd4 <HAL_RCCEx_PeriphCLKConfig+0xec>
 8001bc6:	493d      	ldr	r1, [pc, #244]	@ (8001cbc <HAL_RCCEx_PeriphCLKConfig+0x1d4>)
 8001bc8:	4d41      	ldr	r5, [pc, #260]	@ (8001cd0 <HAL_RCCEx_PeriphCLKConfig+0x1e8>)
 8001bca:	6d4a      	ldr	r2, [r1, #84]	@ 0x54
 8001bcc:	402a      	ands	r2, r5
 8001bce:	68e5      	ldr	r5, [r4, #12]
 8001bd0:	432a      	orrs	r2, r5
 8001bd2:	654a      	str	r2, [r1, #84]	@ 0x54
 8001bd4:	059a      	lsls	r2, r3, #22
 8001bd6:	d506      	bpl.n	8001be6 <HAL_RCCEx_PeriphCLKConfig+0xfe>
 8001bd8:	4938      	ldr	r1, [pc, #224]	@ (8001cbc <HAL_RCCEx_PeriphCLKConfig+0x1d4>)
 8001bda:	4d3e      	ldr	r5, [pc, #248]	@ (8001cd4 <HAL_RCCEx_PeriphCLKConfig+0x1ec>)
 8001bdc:	6d4a      	ldr	r2, [r1, #84]	@ 0x54
 8001bde:	402a      	ands	r2, r5
 8001be0:	69a5      	ldr	r5, [r4, #24]
 8001be2:	432a      	orrs	r2, r5
 8001be4:	654a      	str	r2, [r1, #84]	@ 0x54
 8001be6:	055a      	lsls	r2, r3, #21
 8001be8:	d506      	bpl.n	8001bf8 <HAL_RCCEx_PeriphCLKConfig+0x110>
 8001bea:	4934      	ldr	r1, [pc, #208]	@ (8001cbc <HAL_RCCEx_PeriphCLKConfig+0x1d4>)
 8001bec:	4d3a      	ldr	r5, [pc, #232]	@ (8001cd8 <HAL_RCCEx_PeriphCLKConfig+0x1f0>)
 8001bee:	6d4a      	ldr	r2, [r1, #84]	@ 0x54
 8001bf0:	402a      	ands	r2, r5
 8001bf2:	69e5      	ldr	r5, [r4, #28]
 8001bf4:	432a      	orrs	r2, r5
 8001bf6:	654a      	str	r2, [r1, #84]	@ 0x54
 8001bf8:	069a      	lsls	r2, r3, #26
 8001bfa:	d506      	bpl.n	8001c0a <HAL_RCCEx_PeriphCLKConfig+0x122>
 8001bfc:	492f      	ldr	r1, [pc, #188]	@ (8001cbc <HAL_RCCEx_PeriphCLKConfig+0x1d4>)
 8001bfe:	4d37      	ldr	r5, [pc, #220]	@ (8001cdc <HAL_RCCEx_PeriphCLKConfig+0x1f4>)
 8001c00:	6d4a      	ldr	r2, [r1, #84]	@ 0x54
 8001c02:	402a      	ands	r2, r5
 8001c04:	6925      	ldr	r5, [r4, #16]
 8001c06:	432a      	orrs	r2, r5
 8001c08:	654a      	str	r2, [r1, #84]	@ 0x54
 8001c0a:	045a      	lsls	r2, r3, #17
 8001c0c:	d50f      	bpl.n	8001c2e <HAL_RCCEx_PeriphCLKConfig+0x146>
 8001c0e:	492b      	ldr	r1, [pc, #172]	@ (8001cbc <HAL_RCCEx_PeriphCLKConfig+0x1d4>)
 8001c10:	6a25      	ldr	r5, [r4, #32]
 8001c12:	6d4a      	ldr	r2, [r1, #84]	@ 0x54
 8001c14:	0092      	lsls	r2, r2, #2
 8001c16:	0892      	lsrs	r2, r2, #2
 8001c18:	432a      	orrs	r2, r5
 8001c1a:	654a      	str	r2, [r1, #84]	@ 0x54
 8001c1c:	2280      	movs	r2, #128	@ 0x80
 8001c1e:	05d2      	lsls	r2, r2, #23
 8001c20:	4295      	cmp	r5, r2
 8001c22:	d104      	bne.n	8001c2e <HAL_RCCEx_PeriphCLKConfig+0x146>
 8001c24:	2280      	movs	r2, #128	@ 0x80
 8001c26:	68cd      	ldr	r5, [r1, #12]
 8001c28:	0252      	lsls	r2, r2, #9
 8001c2a:	432a      	orrs	r2, r5
 8001c2c:	60ca      	str	r2, [r1, #12]
 8001c2e:	031a      	lsls	r2, r3, #12
 8001c30:	d506      	bpl.n	8001c40 <HAL_RCCEx_PeriphCLKConfig+0x158>
 8001c32:	2540      	movs	r5, #64	@ 0x40
 8001c34:	4921      	ldr	r1, [pc, #132]	@ (8001cbc <HAL_RCCEx_PeriphCLKConfig+0x1d4>)
 8001c36:	6d4a      	ldr	r2, [r1, #84]	@ 0x54
 8001c38:	43aa      	bics	r2, r5
 8001c3a:	6a65      	ldr	r5, [r4, #36]	@ 0x24
 8001c3c:	432a      	orrs	r2, r5
 8001c3e:	654a      	str	r2, [r1, #84]	@ 0x54
 8001c40:	029a      	lsls	r2, r3, #10
 8001c42:	d50f      	bpl.n	8001c64 <HAL_RCCEx_PeriphCLKConfig+0x17c>
 8001c44:	491d      	ldr	r1, [pc, #116]	@ (8001cbc <HAL_RCCEx_PeriphCLKConfig+0x1d4>)
 8001c46:	4e26      	ldr	r6, [pc, #152]	@ (8001ce0 <HAL_RCCEx_PeriphCLKConfig+0x1f8>)
 8001c48:	6d4a      	ldr	r2, [r1, #84]	@ 0x54
 8001c4a:	6aa5      	ldr	r5, [r4, #40]	@ 0x28
 8001c4c:	4032      	ands	r2, r6
 8001c4e:	432a      	orrs	r2, r5
 8001c50:	654a      	str	r2, [r1, #84]	@ 0x54
 8001c52:	2280      	movs	r2, #128	@ 0x80
 8001c54:	03d2      	lsls	r2, r2, #15
 8001c56:	4295      	cmp	r5, r2
 8001c58:	d104      	bne.n	8001c64 <HAL_RCCEx_PeriphCLKConfig+0x17c>
 8001c5a:	2280      	movs	r2, #128	@ 0x80
 8001c5c:	68cd      	ldr	r5, [r1, #12]
 8001c5e:	0452      	lsls	r2, r2, #17
 8001c60:	432a      	orrs	r2, r5
 8001c62:	60ca      	str	r2, [r1, #12]
 8001c64:	025a      	lsls	r2, r3, #9
 8001c66:	d50d      	bpl.n	8001c84 <HAL_RCCEx_PeriphCLKConfig+0x19c>
 8001c68:	4d14      	ldr	r5, [pc, #80]	@ (8001cbc <HAL_RCCEx_PeriphCLKConfig+0x1d4>)
 8001c6a:	4e1e      	ldr	r6, [pc, #120]	@ (8001ce4 <HAL_RCCEx_PeriphCLKConfig+0x1fc>)
 8001c6c:	6d69      	ldr	r1, [r5, #84]	@ 0x54
 8001c6e:	6ae2      	ldr	r2, [r4, #44]	@ 0x2c
 8001c70:	4031      	ands	r1, r6
 8001c72:	4311      	orrs	r1, r2
 8001c74:	6569      	str	r1, [r5, #84]	@ 0x54
 8001c76:	2180      	movs	r1, #128	@ 0x80
 8001c78:	0449      	lsls	r1, r1, #17
 8001c7a:	428a      	cmp	r2, r1
 8001c7c:	d102      	bne.n	8001c84 <HAL_RCCEx_PeriphCLKConfig+0x19c>
 8001c7e:	68e9      	ldr	r1, [r5, #12]
 8001c80:	430a      	orrs	r2, r1
 8001c82:	60ea      	str	r2, [r5, #12]
 8001c84:	051b      	lsls	r3, r3, #20
 8001c86:	d50f      	bpl.n	8001ca8 <HAL_RCCEx_PeriphCLKConfig+0x1c0>
 8001c88:	4a0c      	ldr	r2, [pc, #48]	@ (8001cbc <HAL_RCCEx_PeriphCLKConfig+0x1d4>)
 8001c8a:	6961      	ldr	r1, [r4, #20]
 8001c8c:	6d53      	ldr	r3, [r2, #84]	@ 0x54
 8001c8e:	4c16      	ldr	r4, [pc, #88]	@ (8001ce8 <HAL_RCCEx_PeriphCLKConfig+0x200>)
 8001c90:	4023      	ands	r3, r4
 8001c92:	430b      	orrs	r3, r1
 8001c94:	6553      	str	r3, [r2, #84]	@ 0x54
 8001c96:	2380      	movs	r3, #128	@ 0x80
 8001c98:	01db      	lsls	r3, r3, #7
 8001c9a:	4299      	cmp	r1, r3
 8001c9c:	d104      	bne.n	8001ca8 <HAL_RCCEx_PeriphCLKConfig+0x1c0>
 8001c9e:	2380      	movs	r3, #128	@ 0x80
 8001ca0:	68d1      	ldr	r1, [r2, #12]
 8001ca2:	025b      	lsls	r3, r3, #9
 8001ca4:	430b      	orrs	r3, r1
 8001ca6:	60d3      	str	r3, [r2, #12]
 8001ca8:	b005      	add	sp, #20
 8001caa:	bdf0      	pop	{r4, r5, r6, r7, pc}
 8001cac:	f7fe ff1a 	bl	8000ae4 <HAL_GetTick>
 8001cb0:	4b0e      	ldr	r3, [pc, #56]	@ (8001cec <HAL_RCCEx_PeriphCLKConfig+0x204>)
 8001cb2:	1b80      	subs	r0, r0, r6
 8001cb4:	4298      	cmp	r0, r3
 8001cb6:	d800      	bhi.n	8001cba <HAL_RCCEx_PeriphCLKConfig+0x1d2>
 8001cb8:	e756      	b.n	8001b68 <HAL_RCCEx_PeriphCLKConfig+0x80>
 8001cba:	e767      	b.n	8001b8c <HAL_RCCEx_PeriphCLKConfig+0xa4>
 8001cbc:	40021000 	.word	0x40021000
 8001cc0:	40007000 	.word	0x40007000
 8001cc4:	fffffcff 	.word	0xfffffcff
 8001cc8:	fffeffff 	.word	0xfffeffff
 8001ccc:	efffffff 	.word	0xefffffff
 8001cd0:	fffff3ff 	.word	0xfffff3ff
 8001cd4:	fff3ffff 	.word	0xfff3ffff
 8001cd8:	ffcfffff 	.word	0xffcfffff
 8001cdc:	ffffcfff 	.word	0xffffcfff
 8001ce0:	ffbfffff 	.word	0xffbfffff
 8001ce4:	feffffff 	.word	0xfeffffff
 8001ce8:	ffff3fff 	.word	0xffff3fff
 8001cec:	00001388 	.word	0x00001388

08001cf0 <UART_EndRxTransfer>:
 8001cf0:	b530      	push	{r4, r5, lr}
 8001cf2:	f3ef 8410 	mrs	r4, PRIMASK
 8001cf6:	2201      	movs	r2, #1
 8001cf8:	f382 8810 	msr	PRIMASK, r2
 8001cfc:	6801      	ldr	r1, [r0, #0]
 8001cfe:	4d13      	ldr	r5, [pc, #76]	@ (8001d4c <UART_EndRxTransfer+0x5c>)
 8001d00:	680b      	ldr	r3, [r1, #0]
 8001d02:	402b      	ands	r3, r5
 8001d04:	600b      	str	r3, [r1, #0]
 8001d06:	f384 8810 	msr	PRIMASK, r4
 8001d0a:	f3ef 8110 	mrs	r1, PRIMASK
 8001d0e:	f382 8810 	msr	PRIMASK, r2
 8001d12:	6802      	ldr	r2, [r0, #0]
 8001d14:	4c0e      	ldr	r4, [pc, #56]	@ (8001d50 <UART_EndRxTransfer+0x60>)
 8001d16:	6893      	ldr	r3, [r2, #8]
 8001d18:	4023      	ands	r3, r4
 8001d1a:	6093      	str	r3, [r2, #8]
 8001d1c:	f381 8810 	msr	PRIMASK, r1
 8001d20:	6ec3      	ldr	r3, [r0, #108]	@ 0x6c
 8001d22:	2b01      	cmp	r3, #1
 8001d24:	d10a      	bne.n	8001d3c <UART_EndRxTransfer+0x4c>
 8001d26:	f3ef 8110 	mrs	r1, PRIMASK
 8001d2a:	f383 8810 	msr	PRIMASK, r3
 8001d2e:	2410      	movs	r4, #16
 8001d30:	6802      	ldr	r2, [r0, #0]
 8001d32:	6813      	ldr	r3, [r2, #0]
 8001d34:	43a3      	bics	r3, r4
 8001d36:	6013      	str	r3, [r2, #0]
 8001d38:	f381 8810 	msr	PRIMASK, r1
 8001d3c:	0003      	movs	r3, r0
 8001d3e:	2220      	movs	r2, #32
 8001d40:	338c      	adds	r3, #140	@ 0x8c
 8001d42:	601a      	str	r2, [r3, #0]
 8001d44:	2300      	movs	r3, #0
 8001d46:	66c3      	str	r3, [r0, #108]	@ 0x6c
 8001d48:	6743      	str	r3, [r0, #116]	@ 0x74
 8001d4a:	bd30      	pop	{r4, r5, pc}
 8001d4c:	fffffedf 	.word	0xfffffedf
 8001d50:	effffffe 	.word	0xeffffffe

08001d54 <UART_SetConfig>:
 8001d54:	b5f8      	push	{r3, r4, r5, r6, r7, lr}
 8001d56:	0004      	movs	r4, r0
 8001d58:	6925      	ldr	r5, [r4, #16]
 8001d5a:	68a2      	ldr	r2, [r4, #8]
 8001d5c:	6803      	ldr	r3, [r0, #0]
 8001d5e:	432a      	orrs	r2, r5
 8001d60:	6965      	ldr	r5, [r4, #20]
 8001d62:	6819      	ldr	r1, [r3, #0]
 8001d64:	69c0      	ldr	r0, [r0, #28]
 8001d66:	432a      	orrs	r2, r5
 8001d68:	4d77      	ldr	r5, [pc, #476]	@ (8001f48 <UART_SetConfig+0x1f4>)
 8001d6a:	4302      	orrs	r2, r0
 8001d6c:	4029      	ands	r1, r5
 8001d6e:	430a      	orrs	r2, r1
 8001d70:	601a      	str	r2, [r3, #0]
 8001d72:	685a      	ldr	r2, [r3, #4]
 8001d74:	4975      	ldr	r1, [pc, #468]	@ (8001f4c <UART_SetConfig+0x1f8>)
 8001d76:	69a5      	ldr	r5, [r4, #24]
 8001d78:	400a      	ands	r2, r1
 8001d7a:	68e1      	ldr	r1, [r4, #12]
 8001d7c:	430a      	orrs	r2, r1
 8001d7e:	4974      	ldr	r1, [pc, #464]	@ (8001f50 <UART_SetConfig+0x1fc>)
 8001d80:	605a      	str	r2, [r3, #4]
 8001d82:	428b      	cmp	r3, r1
 8001d84:	d001      	beq.n	8001d8a <UART_SetConfig+0x36>
 8001d86:	6a22      	ldr	r2, [r4, #32]
 8001d88:	4315      	orrs	r5, r2
 8001d8a:	689a      	ldr	r2, [r3, #8]
 8001d8c:	4e71      	ldr	r6, [pc, #452]	@ (8001f54 <UART_SetConfig+0x200>)
 8001d8e:	4032      	ands	r2, r6
 8001d90:	432a      	orrs	r2, r5
 8001d92:	250f      	movs	r5, #15
 8001d94:	609a      	str	r2, [r3, #8]
 8001d96:	6ada      	ldr	r2, [r3, #44]	@ 0x2c
 8001d98:	43aa      	bics	r2, r5
 8001d9a:	6a65      	ldr	r5, [r4, #36]	@ 0x24
 8001d9c:	432a      	orrs	r2, r5
 8001d9e:	62da      	str	r2, [r3, #44]	@ 0x2c
 8001da0:	4a6d      	ldr	r2, [pc, #436]	@ (8001f58 <UART_SetConfig+0x204>)
 8001da2:	4293      	cmp	r3, r2
 8001da4:	d113      	bne.n	8001dce <UART_SetConfig+0x7a>
 8001da6:	4b6d      	ldr	r3, [pc, #436]	@ (8001f5c <UART_SetConfig+0x208>)
 8001da8:	6d5a      	ldr	r2, [r3, #84]	@ 0x54
 8001daa:	2303      	movs	r3, #3
 8001dac:	401a      	ands	r2, r3
 8001dae:	2380      	movs	r3, #128	@ 0x80
 8001db0:	021b      	lsls	r3, r3, #8
 8001db2:	2a02      	cmp	r2, #2
 8001db4:	d100      	bne.n	8001db8 <UART_SetConfig+0x64>
 8001db6:	e0c3      	b.n	8001f40 <UART_SetConfig+0x1ec>
 8001db8:	2a03      	cmp	r2, #3
 8001dba:	d01f      	beq.n	8001dfc <UART_SetConfig+0xa8>
 8001dbc:	2a01      	cmp	r2, #1
 8001dbe:	d000      	beq.n	8001dc2 <UART_SetConfig+0x6e>
 8001dc0:	e0a2      	b.n	8001f08 <UART_SetConfig+0x1b4>
 8001dc2:	4298      	cmp	r0, r3
 8001dc4:	d000      	beq.n	8001dc8 <UART_SetConfig+0x74>
 8001dc6:	e09a      	b.n	8001efe <UART_SetConfig+0x1aa>
 8001dc8:	f7ff fd88 	bl	80018dc <HAL_RCC_GetSysClockFreq>
 8001dcc:	e076      	b.n	8001ebc <UART_SetConfig+0x168>
 8001dce:	4a64      	ldr	r2, [pc, #400]	@ (8001f60 <UART_SetConfig+0x20c>)
 8001dd0:	4293      	cmp	r3, r2
 8001dd2:	d117      	bne.n	8001e04 <UART_SetConfig+0xb0>
 8001dd4:	220c      	movs	r2, #12
 8001dd6:	4b61      	ldr	r3, [pc, #388]	@ (8001f5c <UART_SetConfig+0x208>)
 8001dd8:	6d5b      	ldr	r3, [r3, #84]	@ 0x54
 8001dda:	4013      	ands	r3, r2
 8001ddc:	2b08      	cmp	r3, #8
 8001dde:	d100      	bne.n	8001de2 <UART_SetConfig+0x8e>
 8001de0:	e0ac      	b.n	8001f3c <UART_SetConfig+0x1e8>
 8001de2:	d807      	bhi.n	8001df4 <UART_SetConfig+0xa0>
 8001de4:	2b00      	cmp	r3, #0
 8001de6:	d100      	bne.n	8001dea <UART_SetConfig+0x96>
 8001de8:	e08c      	b.n	8001f04 <UART_SetConfig+0x1b0>
 8001dea:	2b04      	cmp	r3, #4
 8001dec:	d100      	bne.n	8001df0 <UART_SetConfig+0x9c>
 8001dee:	e0a2      	b.n	8001f36 <UART_SetConfig+0x1e2>
 8001df0:	2001      	movs	r0, #1
 8001df2:	e026      	b.n	8001e42 <UART_SetConfig+0xee>
 8001df4:	2b0c      	cmp	r3, #12
 8001df6:	d1fb      	bne.n	8001df0 <UART_SetConfig+0x9c>
 8001df8:	2380      	movs	r3, #128	@ 0x80
 8001dfa:	021b      	lsls	r3, r3, #8
 8001dfc:	4298      	cmp	r0, r3
 8001dfe:	d05f      	beq.n	8001ec0 <UART_SetConfig+0x16c>
 8001e00:	0018      	movs	r0, r3
 8001e02:	e088      	b.n	8001f16 <UART_SetConfig+0x1c2>
 8001e04:	4a57      	ldr	r2, [pc, #348]	@ (8001f64 <UART_SetConfig+0x210>)
 8001e06:	4293      	cmp	r3, r2
 8001e08:	d100      	bne.n	8001e0c <UART_SetConfig+0xb8>
 8001e0a:	e07b      	b.n	8001f04 <UART_SetConfig+0x1b0>
 8001e0c:	4a56      	ldr	r2, [pc, #344]	@ (8001f68 <UART_SetConfig+0x214>)
 8001e0e:	4293      	cmp	r3, r2
 8001e10:	d100      	bne.n	8001e14 <UART_SetConfig+0xc0>
 8001e12:	e077      	b.n	8001f04 <UART_SetConfig+0x1b0>
 8001e14:	428b      	cmp	r3, r1
 8001e16:	d1eb      	bne.n	8001df0 <UART_SetConfig+0x9c>
 8001e18:	22c0      	movs	r2, #192	@ 0xc0
 8001e1a:	2180      	movs	r1, #128	@ 0x80
 8001e1c:	4b4f      	ldr	r3, [pc, #316]	@ (8001f5c <UART_SetConfig+0x208>)
 8001e1e:	0112      	lsls	r2, r2, #4
 8001e20:	6d5b      	ldr	r3, [r3, #84]	@ 0x54
 8001e22:	0109      	lsls	r1, r1, #4
 8001e24:	4013      	ands	r3, r2
 8001e26:	428b      	cmp	r3, r1
 8001e28:	d019      	beq.n	8001e5e <UART_SetConfig+0x10a>
 8001e2a:	d810      	bhi.n	8001e4e <UART_SetConfig+0xfa>
 8001e2c:	2b00      	cmp	r3, #0
 8001e2e:	d013      	beq.n	8001e58 <UART_SetConfig+0x104>
 8001e30:	2280      	movs	r2, #128	@ 0x80
 8001e32:	00d2      	lsls	r2, r2, #3
 8001e34:	4293      	cmp	r3, r2
 8001e36:	d1db      	bne.n	8001df0 <UART_SetConfig+0x9c>
 8001e38:	f7ff fd50 	bl	80018dc <HAL_RCC_GetSysClockFreq>
 8001e3c:	1e06      	subs	r6, r0, #0
 8001e3e:	d10f      	bne.n	8001e60 <UART_SetConfig+0x10c>
 8001e40:	2000      	movs	r0, #0
 8001e42:	4b4a      	ldr	r3, [pc, #296]	@ (8001f6c <UART_SetConfig+0x218>)
 8001e44:	66a3      	str	r3, [r4, #104]	@ 0x68
 8001e46:	2300      	movs	r3, #0
 8001e48:	6763      	str	r3, [r4, #116]	@ 0x74
 8001e4a:	67a3      	str	r3, [r4, #120]	@ 0x78
 8001e4c:	bdf8      	pop	{r3, r4, r5, r6, r7, pc}
 8001e4e:	4293      	cmp	r3, r2
 8001e50:	d1ce      	bne.n	8001df0 <UART_SetConfig+0x9c>
 8001e52:	2680      	movs	r6, #128	@ 0x80
 8001e54:	0236      	lsls	r6, r6, #8
 8001e56:	e003      	b.n	8001e60 <UART_SetConfig+0x10c>
 8001e58:	f7ff fe32 	bl	8001ac0 <HAL_RCC_GetPCLK1Freq>
 8001e5c:	e7ee      	b.n	8001e3c <UART_SetConfig+0xe8>
 8001e5e:	4e44      	ldr	r6, [pc, #272]	@ (8001f70 <UART_SetConfig+0x21c>)
 8001e60:	6a62      	ldr	r2, [r4, #36]	@ 0x24
 8001e62:	4b44      	ldr	r3, [pc, #272]	@ (8001f74 <UART_SetConfig+0x220>)
 8001e64:	0052      	lsls	r2, r2, #1
 8001e66:	5ad7      	ldrh	r7, [r2, r3]
 8001e68:	0030      	movs	r0, r6
 8001e6a:	0039      	movs	r1, r7
 8001e6c:	f7fe f952 	bl	8000114 <__udivsi3>
 8001e70:	2303      	movs	r3, #3
 8001e72:	6865      	ldr	r5, [r4, #4]
 8001e74:	436b      	muls	r3, r5
 8001e76:	4283      	cmp	r3, r0
 8001e78:	d8ba      	bhi.n	8001df0 <UART_SetConfig+0x9c>
 8001e7a:	032b      	lsls	r3, r5, #12
 8001e7c:	4283      	cmp	r3, r0
 8001e7e:	d3b7      	bcc.n	8001df0 <UART_SetConfig+0x9c>
 8001e80:	2300      	movs	r3, #0
 8001e82:	003a      	movs	r2, r7
 8001e84:	0030      	movs	r0, r6
 8001e86:	0019      	movs	r1, r3
 8001e88:	f7fe faba 	bl	8000400 <__aeabi_uldivmod>
 8001e8c:	2700      	movs	r7, #0
 8001e8e:	0e06      	lsrs	r6, r0, #24
 8001e90:	020b      	lsls	r3, r1, #8
 8001e92:	4333      	orrs	r3, r6
 8001e94:	0202      	lsls	r2, r0, #8
 8001e96:	086e      	lsrs	r6, r5, #1
 8001e98:	1992      	adds	r2, r2, r6
 8001e9a:	417b      	adcs	r3, r7
 8001e9c:	0010      	movs	r0, r2
 8001e9e:	0019      	movs	r1, r3
 8001ea0:	002a      	movs	r2, r5
 8001ea2:	003b      	movs	r3, r7
 8001ea4:	f7fe faac 	bl	8000400 <__aeabi_uldivmod>
 8001ea8:	4b33      	ldr	r3, [pc, #204]	@ (8001f78 <UART_SetConfig+0x224>)
 8001eaa:	18c2      	adds	r2, r0, r3
 8001eac:	4b33      	ldr	r3, [pc, #204]	@ (8001f7c <UART_SetConfig+0x228>)
 8001eae:	429a      	cmp	r2, r3
 8001eb0:	d89e      	bhi.n	8001df0 <UART_SetConfig+0x9c>
 8001eb2:	6823      	ldr	r3, [r4, #0]
 8001eb4:	60d8      	str	r0, [r3, #12]
 8001eb6:	e7c3      	b.n	8001e40 <UART_SetConfig+0xec>
 8001eb8:	f7ff fe02 	bl	8001ac0 <HAL_RCC_GetPCLK1Freq>
 8001ebc:	2800      	cmp	r0, #0
 8001ebe:	d0bf      	beq.n	8001e40 <UART_SetConfig+0xec>
 8001ec0:	6a62      	ldr	r2, [r4, #36]	@ 0x24
 8001ec2:	4b2c      	ldr	r3, [pc, #176]	@ (8001f74 <UART_SetConfig+0x220>)
 8001ec4:	0052      	lsls	r2, r2, #1
 8001ec6:	5ad1      	ldrh	r1, [r2, r3]
 8001ec8:	f7fe f924 	bl	8000114 <__udivsi3>
 8001ecc:	6865      	ldr	r5, [r4, #4]
 8001ece:	0040      	lsls	r0, r0, #1
 8001ed0:	086b      	lsrs	r3, r5, #1
 8001ed2:	18c0      	adds	r0, r0, r3
 8001ed4:	0029      	movs	r1, r5
 8001ed6:	f7fe f91d 	bl	8000114 <__udivsi3>
 8001eda:	0002      	movs	r2, r0
 8001edc:	4b28      	ldr	r3, [pc, #160]	@ (8001f80 <UART_SetConfig+0x22c>)
 8001ede:	3a10      	subs	r2, #16
 8001ee0:	429a      	cmp	r2, r3
 8001ee2:	d900      	bls.n	8001ee6 <UART_SetConfig+0x192>
 8001ee4:	e784      	b.n	8001df0 <UART_SetConfig+0x9c>
 8001ee6:	230f      	movs	r3, #15
 8001ee8:	0002      	movs	r2, r0
 8001eea:	0700      	lsls	r0, r0, #28
 8001eec:	439a      	bics	r2, r3
 8001eee:	b293      	uxth	r3, r2
 8001ef0:	0f40      	lsrs	r0, r0, #29
 8001ef2:	6822      	ldr	r2, [r4, #0]
 8001ef4:	4303      	orrs	r3, r0
 8001ef6:	60d3      	str	r3, [r2, #12]
 8001ef8:	e7a2      	b.n	8001e40 <UART_SetConfig+0xec>
 8001efa:	481d      	ldr	r0, [pc, #116]	@ (8001f70 <UART_SetConfig+0x21c>)
 8001efc:	e7e0      	b.n	8001ec0 <UART_SetConfig+0x16c>
 8001efe:	f7ff fced 	bl	80018dc <HAL_RCC_GetSysClockFreq>
 8001f02:	e005      	b.n	8001f10 <UART_SetConfig+0x1bc>
 8001f04:	2380      	movs	r3, #128	@ 0x80
 8001f06:	021b      	lsls	r3, r3, #8
 8001f08:	4298      	cmp	r0, r3
 8001f0a:	d0d5      	beq.n	8001eb8 <UART_SetConfig+0x164>
 8001f0c:	f7ff fdd8 	bl	8001ac0 <HAL_RCC_GetPCLK1Freq>
 8001f10:	2800      	cmp	r0, #0
 8001f12:	d100      	bne.n	8001f16 <UART_SetConfig+0x1c2>
 8001f14:	e794      	b.n	8001e40 <UART_SetConfig+0xec>
 8001f16:	6a62      	ldr	r2, [r4, #36]	@ 0x24
 8001f18:	4b16      	ldr	r3, [pc, #88]	@ (8001f74 <UART_SetConfig+0x220>)
 8001f1a:	0052      	lsls	r2, r2, #1
 8001f1c:	5ad1      	ldrh	r1, [r2, r3]
 8001f1e:	f7fe f8f9 	bl	8000114 <__udivsi3>
 8001f22:	6865      	ldr	r5, [r4, #4]
 8001f24:	086b      	lsrs	r3, r5, #1
 8001f26:	18c0      	adds	r0, r0, r3
 8001f28:	0029      	movs	r1, r5
 8001f2a:	f7fe f8f3 	bl	8000114 <__udivsi3>
 8001f2e:	0002      	movs	r2, r0
 8001f30:	4b13      	ldr	r3, [pc, #76]	@ (8001f80 <UART_SetConfig+0x22c>)
 8001f32:	3a10      	subs	r2, #16
 8001f34:	e7bb      	b.n	8001eae <UART_SetConfig+0x15a>
 8001f36:	2380      	movs	r3, #128	@ 0x80
 8001f38:	021b      	lsls	r3, r3, #8
 8001f3a:	e742      	b.n	8001dc2 <UART_SetConfig+0x6e>
 8001f3c:	2380      	movs	r3, #128	@ 0x80
 8001f3e:	021b      	lsls	r3, r3, #8
 8001f40:	4298      	cmp	r0, r3
 8001f42:	d0da      	beq.n	8001efa <UART_SetConfig+0x1a6>
 8001f44:	480a      	ldr	r0, [pc, #40]	@ (8001f70 <UART_SetConfig+0x21c>)
 8001f46:	e7e6      	b.n	8001f16 <UART_SetConfig+0x1c2>
 8001f48:	cfff69f3 	.word	0xcfff69f3
 8001f4c:	ffffcfff 	.word	0xffffcfff
 8001f50:	40008000 	.word	0x40008000
 8001f54:	11fff4ff 	.word	0x11fff4ff
 8001f58:	40013800 	.word	0x40013800
 8001f5c:	40021000 	.word	0x40021000
 8001f60:	40004400 	.word	0x40004400
 8001f64:	40004800 	.word	0x40004800
 8001f68:	40004c00 	.word	0x40004c00
 8001f6c:	00010001 	.word	0x00010001
 8001f70:	00f42400 	.word	0x00f42400
 8001f74:	08002e9c 	.word	0x08002e9c
 8001f78:	fffffd00 	.word	0xfffffd00
 8001f7c:	000ffcff 	.word	0x000ffcff
 8001f80:	0000ffef 	.word	0x0000ffef

08001f84 <UART_AdvFeatureConfig>:
 8001f84:	6a83      	ldr	r3, [r0, #40]	@ 0x28
 8001f86:	b530      	push	{r4, r5, lr}
 8001f88:	071a      	lsls	r2, r3, #28
 8001f8a:	d506      	bpl.n	8001f9a <UART_AdvFeatureConfig+0x16>
 8001f8c:	6801      	ldr	r1, [r0, #0]
 8001f8e:	4c28      	ldr	r4, [pc, #160]	@ (8002030 <UART_AdvFeatureConfig+0xac>)
 8001f90:	684a      	ldr	r2, [r1, #4]
 8001f92:	4022      	ands	r2, r4
 8001f94:	6b84      	ldr	r4, [r0, #56]	@ 0x38
 8001f96:	4322      	orrs	r2, r4
 8001f98:	604a      	str	r2, [r1, #4]
 8001f9a:	07da      	lsls	r2, r3, #31
 8001f9c:	d506      	bpl.n	8001fac <UART_AdvFeatureConfig+0x28>
 8001f9e:	6801      	ldr	r1, [r0, #0]
 8001fa0:	4c24      	ldr	r4, [pc, #144]	@ (8002034 <UART_AdvFeatureConfig+0xb0>)
 8001fa2:	684a      	ldr	r2, [r1, #4]
 8001fa4:	4022      	ands	r2, r4
 8001fa6:	6ac4      	ldr	r4, [r0, #44]	@ 0x2c
 8001fa8:	4322      	orrs	r2, r4
 8001faa:	604a      	str	r2, [r1, #4]
 8001fac:	079a      	lsls	r2, r3, #30
 8001fae:	d506      	bpl.n	8001fbe <UART_AdvFeatureConfig+0x3a>
 8001fb0:	6801      	ldr	r1, [r0, #0]
 8001fb2:	4c21      	ldr	r4, [pc, #132]	@ (8002038 <UART_AdvFeatureConfig+0xb4>)
 8001fb4:	684a      	ldr	r2, [r1, #4]
 8001fb6:	4022      	ands	r2, r4
 8001fb8:	6b04      	ldr	r4, [r0, #48]	@ 0x30
 8001fba:	4322      	orrs	r2, r4
 8001fbc:	604a      	str	r2, [r1, #4]
 8001fbe:	075a      	lsls	r2, r3, #29
 8001fc0:	d506      	bpl.n	8001fd0 <UART_AdvFeatureConfig+0x4c>
 8001fc2:	6801      	ldr	r1, [r0, #0]
 8001fc4:	4c1d      	ldr	r4, [pc, #116]	@ (800203c <UART_AdvFeatureConfig+0xb8>)
 8001fc6:	684a      	ldr	r2, [r1, #4]
 8001fc8:	4022      	ands	r2, r4
 8001fca:	6b44      	ldr	r4, [r0, #52]	@ 0x34
 8001fcc:	4322      	orrs	r2, r4
 8001fce:	604a      	str	r2, [r1, #4]
 8001fd0:	06da      	lsls	r2, r3, #27
 8001fd2:	d506      	bpl.n	8001fe2 <UART_AdvFeatureConfig+0x5e>
 8001fd4:	6801      	ldr	r1, [r0, #0]
 8001fd6:	4c1a      	ldr	r4, [pc, #104]	@ (8002040 <UART_AdvFeatureConfig+0xbc>)
 8001fd8:	688a      	ldr	r2, [r1, #8]
 8001fda:	4022      	ands	r2, r4
 8001fdc:	6bc4      	ldr	r4, [r0, #60]	@ 0x3c
 8001fde:	4322      	orrs	r2, r4
 8001fe0:	608a      	str	r2, [r1, #8]
 8001fe2:	069a      	lsls	r2, r3, #26
 8001fe4:	d506      	bpl.n	8001ff4 <UART_AdvFeatureConfig+0x70>
 8001fe6:	6801      	ldr	r1, [r0, #0]
 8001fe8:	4c16      	ldr	r4, [pc, #88]	@ (8002044 <UART_AdvFeatureConfig+0xc0>)
 8001fea:	688a      	ldr	r2, [r1, #8]
 8001fec:	4022      	ands	r2, r4
 8001fee:	6c04      	ldr	r4, [r0, #64]	@ 0x40
 8001ff0:	4322      	orrs	r2, r4
 8001ff2:	608a      	str	r2, [r1, #8]
 8001ff4:	065a      	lsls	r2, r3, #25
 8001ff6:	d510      	bpl.n	800201a <UART_AdvFeatureConfig+0x96>
 8001ff8:	6801      	ldr	r1, [r0, #0]
 8001ffa:	4d13      	ldr	r5, [pc, #76]	@ (8002048 <UART_AdvFeatureConfig+0xc4>)
 8001ffc:	684a      	ldr	r2, [r1, #4]
 8001ffe:	6c44      	ldr	r4, [r0, #68]	@ 0x44
 8002000:	402a      	ands	r2, r5
 8002002:	4322      	orrs	r2, r4
 8002004:	604a      	str	r2, [r1, #4]
 8002006:	2280      	movs	r2, #128	@ 0x80
 8002008:	0352      	lsls	r2, r2, #13
 800200a:	4294      	cmp	r4, r2
 800200c:	d105      	bne.n	800201a <UART_AdvFeatureConfig+0x96>
 800200e:	684a      	ldr	r2, [r1, #4]
 8002010:	4c0e      	ldr	r4, [pc, #56]	@ (800204c <UART_AdvFeatureConfig+0xc8>)
 8002012:	4022      	ands	r2, r4
 8002014:	6c84      	ldr	r4, [r0, #72]	@ 0x48
 8002016:	4322      	orrs	r2, r4
 8002018:	604a      	str	r2, [r1, #4]
 800201a:	061b      	lsls	r3, r3, #24
 800201c:	d506      	bpl.n	800202c <UART_AdvFeatureConfig+0xa8>
 800201e:	6802      	ldr	r2, [r0, #0]
 8002020:	490b      	ldr	r1, [pc, #44]	@ (8002050 <UART_AdvFeatureConfig+0xcc>)
 8002022:	6853      	ldr	r3, [r2, #4]
 8002024:	400b      	ands	r3, r1
 8002026:	6cc1      	ldr	r1, [r0, #76]	@ 0x4c
 8002028:	430b      	orrs	r3, r1
 800202a:	6053      	str	r3, [r2, #4]
 800202c:	bd30      	pop	{r4, r5, pc}
 800202e:	46c0      	nop			@ (mov r8, r8)
 8002030:	ffff7fff 	.word	0xffff7fff
 8002034:	fffdffff 	.word	0xfffdffff
 8002038:	fffeffff 	.word	0xfffeffff
 800203c:	fffbffff 	.word	0xfffbffff
 8002040:	ffffefff 	.word	0xffffefff
 8002044:	ffffdfff 	.word	0xffffdfff
 8002048:	ffefffff 	.word	0xffefffff
 800204c:	ff9fffff 	.word	0xff9fffff
 8002050:	fff7ffff 	.word	0xfff7ffff

08002054 <UART_WaitOnFlagUntilTimeout>:
 8002054:	b5f7      	push	{r0, r1, r2, r4, r5, r6, r7, lr}
 8002056:	0004      	movs	r4, r0
 8002058:	000d      	movs	r5, r1
 800205a:	0017      	movs	r7, r2
 800205c:	9300      	str	r3, [sp, #0]
 800205e:	6822      	ldr	r2, [r4, #0]
 8002060:	69d3      	ldr	r3, [r2, #28]
 8002062:	402b      	ands	r3, r5
 8002064:	1b5b      	subs	r3, r3, r5
 8002066:	4259      	negs	r1, r3
 8002068:	414b      	adcs	r3, r1
 800206a:	42bb      	cmp	r3, r7
 800206c:	d001      	beq.n	8002072 <UART_WaitOnFlagUntilTimeout+0x1e>
 800206e:	2000      	movs	r0, #0
 8002070:	e026      	b.n	80020c0 <UART_WaitOnFlagUntilTimeout+0x6c>
 8002072:	9b08      	ldr	r3, [sp, #32]
 8002074:	3301      	adds	r3, #1
 8002076:	d0f3      	beq.n	8002060 <UART_WaitOnFlagUntilTimeout+0xc>
 8002078:	f7fe fd34 	bl	8000ae4 <HAL_GetTick>
 800207c:	9b00      	ldr	r3, [sp, #0]
 800207e:	1ac0      	subs	r0, r0, r3
 8002080:	9b08      	ldr	r3, [sp, #32]
 8002082:	4298      	cmp	r0, r3
 8002084:	d82d      	bhi.n	80020e2 <UART_WaitOnFlagUntilTimeout+0x8e>
 8002086:	2b00      	cmp	r3, #0
 8002088:	d02b      	beq.n	80020e2 <UART_WaitOnFlagUntilTimeout+0x8e>
 800208a:	6823      	ldr	r3, [r4, #0]
 800208c:	681a      	ldr	r2, [r3, #0]
 800208e:	0752      	lsls	r2, r2, #29
 8002090:	d5e5      	bpl.n	800205e <UART_WaitOnFlagUntilTimeout+0xa>
 8002092:	002a      	movs	r2, r5
 8002094:	2140      	movs	r1, #64	@ 0x40
 8002096:	3a40      	subs	r2, #64	@ 0x40
 8002098:	438a      	bics	r2, r1
 800209a:	d0e0      	beq.n	800205e <UART_WaitOnFlagUntilTimeout+0xa>
 800209c:	69da      	ldr	r2, [r3, #28]
 800209e:	2608      	movs	r6, #8
 80020a0:	0011      	movs	r1, r2
 80020a2:	4031      	ands	r1, r6
 80020a4:	9101      	str	r1, [sp, #4]
 80020a6:	4232      	tst	r2, r6
 80020a8:	d00b      	beq.n	80020c2 <UART_WaitOnFlagUntilTimeout+0x6e>
 80020aa:	0020      	movs	r0, r4
 80020ac:	621e      	str	r6, [r3, #32]
 80020ae:	f7ff fe1f 	bl	8001cf0 <UART_EndRxTransfer>
 80020b2:	0023      	movs	r3, r4
 80020b4:	3390      	adds	r3, #144	@ 0x90
 80020b6:	601e      	str	r6, [r3, #0]
 80020b8:	2300      	movs	r3, #0
 80020ba:	2001      	movs	r0, #1
 80020bc:	3484      	adds	r4, #132	@ 0x84
 80020be:	7023      	strb	r3, [r4, #0]
 80020c0:	bdfe      	pop	{r1, r2, r3, r4, r5, r6, r7, pc}
 80020c2:	2280      	movs	r2, #128	@ 0x80
 80020c4:	69d9      	ldr	r1, [r3, #28]
 80020c6:	0112      	lsls	r2, r2, #4
 80020c8:	4211      	tst	r1, r2
 80020ca:	d0c8      	beq.n	800205e <UART_WaitOnFlagUntilTimeout+0xa>
 80020cc:	621a      	str	r2, [r3, #32]
 80020ce:	0020      	movs	r0, r4
 80020d0:	f7ff fe0e 	bl	8001cf0 <UART_EndRxTransfer>
 80020d4:	0023      	movs	r3, r4
 80020d6:	2220      	movs	r2, #32
 80020d8:	3390      	adds	r3, #144	@ 0x90
 80020da:	601a      	str	r2, [r3, #0]
 80020dc:	9b01      	ldr	r3, [sp, #4]
 80020de:	3484      	adds	r4, #132	@ 0x84
 80020e0:	7023      	strb	r3, [r4, #0]
 80020e2:	2003      	movs	r0, #3
 80020e4:	e7ec      	b.n	80020c0 <UART_WaitOnFlagUntilTimeout+0x6c>

080020e6 <HAL_UART_Transmit>:
 80020e6:	b5f0      	push	{r4, r5, r6, r7, lr}
 80020e8:	0017      	movs	r7, r2
 80020ea:	0002      	movs	r2, r0
 80020ec:	b087      	sub	sp, #28
 80020ee:	3288      	adds	r2, #136	@ 0x88
 80020f0:	9305      	str	r3, [sp, #20]
 80020f2:	6813      	ldr	r3, [r2, #0]
 80020f4:	0004      	movs	r4, r0
 80020f6:	000d      	movs	r5, r1
 80020f8:	2002      	movs	r0, #2
 80020fa:	2b20      	cmp	r3, #32
 80020fc:	d139      	bne.n	8002172 <HAL_UART_Transmit+0x8c>
 80020fe:	3801      	subs	r0, #1
 8002100:	2900      	cmp	r1, #0
 8002102:	d036      	beq.n	8002172 <HAL_UART_Transmit+0x8c>
 8002104:	2f00      	cmp	r7, #0
 8002106:	d034      	beq.n	8002172 <HAL_UART_Transmit+0x8c>
 8002108:	2380      	movs	r3, #128	@ 0x80
 800210a:	68a1      	ldr	r1, [r4, #8]
 800210c:	015b      	lsls	r3, r3, #5
 800210e:	4299      	cmp	r1, r3
 8002110:	d104      	bne.n	800211c <HAL_UART_Transmit+0x36>
 8002112:	6923      	ldr	r3, [r4, #16]
 8002114:	2b00      	cmp	r3, #0
 8002116:	d101      	bne.n	800211c <HAL_UART_Transmit+0x36>
 8002118:	4205      	tst	r5, r0
 800211a:	d12a      	bne.n	8002172 <HAL_UART_Transmit+0x8c>
 800211c:	0023      	movs	r3, r4
 800211e:	2600      	movs	r6, #0
 8002120:	3390      	adds	r3, #144	@ 0x90
 8002122:	601e      	str	r6, [r3, #0]
 8002124:	2321      	movs	r3, #33	@ 0x21
 8002126:	6013      	str	r3, [r2, #0]
 8002128:	f7fe fcdc 	bl	8000ae4 <HAL_GetTick>
 800212c:	0023      	movs	r3, r4
 800212e:	3354      	adds	r3, #84	@ 0x54
 8002130:	801f      	strh	r7, [r3, #0]
 8002132:	3302      	adds	r3, #2
 8002134:	9303      	str	r3, [sp, #12]
 8002136:	801f      	strh	r7, [r3, #0]
 8002138:	2380      	movs	r3, #128	@ 0x80
 800213a:	68a2      	ldr	r2, [r4, #8]
 800213c:	9004      	str	r0, [sp, #16]
 800213e:	015b      	lsls	r3, r3, #5
 8002140:	429a      	cmp	r2, r3
 8002142:	d104      	bne.n	800214e <HAL_UART_Transmit+0x68>
 8002144:	6923      	ldr	r3, [r4, #16]
 8002146:	42b3      	cmp	r3, r6
 8002148:	d101      	bne.n	800214e <HAL_UART_Transmit+0x68>
 800214a:	002e      	movs	r6, r5
 800214c:	001d      	movs	r5, r3
 800214e:	0023      	movs	r3, r4
 8002150:	3356      	adds	r3, #86	@ 0x56
 8002152:	881b      	ldrh	r3, [r3, #0]
 8002154:	b29a      	uxth	r2, r3
 8002156:	2b00      	cmp	r3, #0
 8002158:	d10d      	bne.n	8002176 <HAL_UART_Transmit+0x90>
 800215a:	9b05      	ldr	r3, [sp, #20]
 800215c:	0020      	movs	r0, r4
 800215e:	9300      	str	r3, [sp, #0]
 8002160:	2140      	movs	r1, #64	@ 0x40
 8002162:	9b04      	ldr	r3, [sp, #16]
 8002164:	f7ff ff76 	bl	8002054 <UART_WaitOnFlagUntilTimeout>
 8002168:	2320      	movs	r3, #32
 800216a:	3488      	adds	r4, #136	@ 0x88
 800216c:	6023      	str	r3, [r4, #0]
 800216e:	2800      	cmp	r0, #0
 8002170:	d10e      	bne.n	8002190 <HAL_UART_Transmit+0xaa>
 8002172:	b007      	add	sp, #28
 8002174:	bdf0      	pop	{r4, r5, r6, r7, pc}
 8002176:	9b05      	ldr	r3, [sp, #20]
 8002178:	2200      	movs	r2, #0
 800217a:	9300      	str	r3, [sp, #0]
 800217c:	2180      	movs	r1, #128	@ 0x80
 800217e:	0020      	movs	r0, r4
 8002180:	9b04      	ldr	r3, [sp, #16]
 8002182:	f7ff ff67 	bl	8002054 <UART_WaitOnFlagUntilTimeout>
 8002186:	2800      	cmp	r0, #0
 8002188:	d004      	beq.n	8002194 <HAL_UART_Transmit+0xae>
 800218a:	2320      	movs	r3, #32
 800218c:	3488      	adds	r4, #136	@ 0x88
 800218e:	6023      	str	r3, [r4, #0]
 8002190:	2003      	movs	r0, #3
 8002192:	e7ee      	b.n	8002172 <HAL_UART_Transmit+0x8c>
 8002194:	6822      	ldr	r2, [r4, #0]
 8002196:	2d00      	cmp	r5, #0
 8002198:	d10b      	bne.n	80021b2 <HAL_UART_Transmit+0xcc>
 800219a:	8833      	ldrh	r3, [r6, #0]
 800219c:	3602      	adds	r6, #2
 800219e:	05db      	lsls	r3, r3, #23
 80021a0:	0ddb      	lsrs	r3, r3, #23
 80021a2:	6293      	str	r3, [r2, #40]	@ 0x28
 80021a4:	9b03      	ldr	r3, [sp, #12]
 80021a6:	9a03      	ldr	r2, [sp, #12]
 80021a8:	881b      	ldrh	r3, [r3, #0]
 80021aa:	3b01      	subs	r3, #1
 80021ac:	b29b      	uxth	r3, r3
 80021ae:	8013      	strh	r3, [r2, #0]
 80021b0:	e7cd      	b.n	800214e <HAL_UART_Transmit+0x68>
 80021b2:	782b      	ldrb	r3, [r5, #0]
 80021b4:	3501      	adds	r5, #1
 80021b6:	6293      	str	r3, [r2, #40]	@ 0x28
 80021b8:	e7f4      	b.n	80021a4 <HAL_UART_Transmit+0xbe>
	...

080021bc <UART_CheckIdleState>:
 80021bc:	0003      	movs	r3, r0
 80021be:	b573      	push	{r0, r1, r4, r5, r6, lr}
 80021c0:	2600      	movs	r6, #0
 80021c2:	0004      	movs	r4, r0
 80021c4:	3390      	adds	r3, #144	@ 0x90
 80021c6:	601e      	str	r6, [r3, #0]
 80021c8:	f7fe fc8c 	bl	8000ae4 <HAL_GetTick>
 80021cc:	6823      	ldr	r3, [r4, #0]
 80021ce:	0005      	movs	r5, r0
 80021d0:	681b      	ldr	r3, [r3, #0]
 80021d2:	071b      	lsls	r3, r3, #28
 80021d4:	d51f      	bpl.n	8002216 <UART_CheckIdleState+0x5a>
 80021d6:	2180      	movs	r1, #128	@ 0x80
 80021d8:	4b28      	ldr	r3, [pc, #160]	@ (800227c <UART_CheckIdleState+0xc0>)
 80021da:	0032      	movs	r2, r6
 80021dc:	9300      	str	r3, [sp, #0]
 80021de:	0389      	lsls	r1, r1, #14
 80021e0:	0003      	movs	r3, r0
 80021e2:	0020      	movs	r0, r4
 80021e4:	f7ff ff36 	bl	8002054 <UART_WaitOnFlagUntilTimeout>
 80021e8:	42b0      	cmp	r0, r6
 80021ea:	d014      	beq.n	8002216 <UART_CheckIdleState+0x5a>
 80021ec:	f3ef 8110 	mrs	r1, PRIMASK
 80021f0:	2301      	movs	r3, #1
 80021f2:	f383 8810 	msr	PRIMASK, r3
 80021f6:	2080      	movs	r0, #128	@ 0x80
 80021f8:	6822      	ldr	r2, [r4, #0]
 80021fa:	6813      	ldr	r3, [r2, #0]
 80021fc:	4383      	bics	r3, r0
 80021fe:	6013      	str	r3, [r2, #0]
 8002200:	f381 8810 	msr	PRIMASK, r1
 8002204:	0023      	movs	r3, r4
 8002206:	2220      	movs	r2, #32
 8002208:	3388      	adds	r3, #136	@ 0x88
 800220a:	601a      	str	r2, [r3, #0]
 800220c:	2003      	movs	r0, #3
 800220e:	2300      	movs	r3, #0
 8002210:	3484      	adds	r4, #132	@ 0x84
 8002212:	7023      	strb	r3, [r4, #0]
 8002214:	bd76      	pop	{r1, r2, r4, r5, r6, pc}
 8002216:	0026      	movs	r6, r4
 8002218:	6823      	ldr	r3, [r4, #0]
 800221a:	368c      	adds	r6, #140	@ 0x8c
 800221c:	681b      	ldr	r3, [r3, #0]
 800221e:	075b      	lsls	r3, r3, #29
 8002220:	d523      	bpl.n	800226a <UART_CheckIdleState+0xae>
 8002222:	2180      	movs	r1, #128	@ 0x80
 8002224:	4b15      	ldr	r3, [pc, #84]	@ (800227c <UART_CheckIdleState+0xc0>)
 8002226:	2200      	movs	r2, #0
 8002228:	9300      	str	r3, [sp, #0]
 800222a:	0020      	movs	r0, r4
 800222c:	002b      	movs	r3, r5
 800222e:	03c9      	lsls	r1, r1, #15
 8002230:	f7ff ff10 	bl	8002054 <UART_WaitOnFlagUntilTimeout>
 8002234:	2800      	cmp	r0, #0
 8002236:	d018      	beq.n	800226a <UART_CheckIdleState+0xae>
 8002238:	f3ef 8010 	mrs	r0, PRIMASK
 800223c:	2201      	movs	r2, #1
 800223e:	f382 8810 	msr	PRIMASK, r2
 8002242:	6821      	ldr	r1, [r4, #0]
 8002244:	4d0e      	ldr	r5, [pc, #56]	@ (8002280 <UART_CheckIdleState+0xc4>)
 8002246:	680b      	ldr	r3, [r1, #0]
 8002248:	402b      	ands	r3, r5
 800224a:	600b      	str	r3, [r1, #0]
 800224c:	f380 8810 	msr	PRIMASK, r0
 8002250:	f3ef 8010 	mrs	r0, PRIMASK
 8002254:	f382 8810 	msr	PRIMASK, r2
 8002258:	6821      	ldr	r1, [r4, #0]
 800225a:	688b      	ldr	r3, [r1, #8]
 800225c:	4393      	bics	r3, r2
 800225e:	608b      	str	r3, [r1, #8]
 8002260:	f380 8810 	msr	PRIMASK, r0
 8002264:	2320      	movs	r3, #32
 8002266:	6033      	str	r3, [r6, #0]
 8002268:	e7d0      	b.n	800220c <UART_CheckIdleState+0x50>
 800226a:	0023      	movs	r3, r4
 800226c:	2220      	movs	r2, #32
 800226e:	2000      	movs	r0, #0
 8002270:	3388      	adds	r3, #136	@ 0x88
 8002272:	601a      	str	r2, [r3, #0]
 8002274:	6032      	str	r2, [r6, #0]
 8002276:	66e0      	str	r0, [r4, #108]	@ 0x6c
 8002278:	6720      	str	r0, [r4, #112]	@ 0x70
 800227a:	e7c8      	b.n	800220e <UART_CheckIdleState+0x52>
 800227c:	01ffffff 	.word	0x01ffffff
 8002280:	fffffedf 	.word	0xfffffedf

08002284 <HAL_UART_Init>:
 8002284:	b570      	push	{r4, r5, r6, lr}
 8002286:	1e04      	subs	r4, r0, #0
 8002288:	d101      	bne.n	800228e <HAL_UART_Init+0xa>
 800228a:	2001      	movs	r0, #1
 800228c:	bd70      	pop	{r4, r5, r6, pc}
 800228e:	0005      	movs	r5, r0
 8002290:	3588      	adds	r5, #136	@ 0x88
 8002292:	682b      	ldr	r3, [r5, #0]
 8002294:	2b00      	cmp	r3, #0
 8002296:	d104      	bne.n	80022a2 <HAL_UART_Init+0x1e>
 8002298:	0002      	movs	r2, r0
 800229a:	3284      	adds	r2, #132	@ 0x84
 800229c:	7013      	strb	r3, [r2, #0]
 800229e:	f000 fcd3 	bl	8002c48 <HAL_UART_MspInit>
 80022a2:	2324      	movs	r3, #36	@ 0x24
 80022a4:	2101      	movs	r1, #1
 80022a6:	6822      	ldr	r2, [r4, #0]
 80022a8:	602b      	str	r3, [r5, #0]
 80022aa:	6813      	ldr	r3, [r2, #0]
 80022ac:	438b      	bics	r3, r1
 80022ae:	6013      	str	r3, [r2, #0]
 80022b0:	6aa3      	ldr	r3, [r4, #40]	@ 0x28
 80022b2:	2b00      	cmp	r3, #0
 80022b4:	d002      	beq.n	80022bc <HAL_UART_Init+0x38>
 80022b6:	0020      	movs	r0, r4
 80022b8:	f7ff fe64 	bl	8001f84 <UART_AdvFeatureConfig>
 80022bc:	0020      	movs	r0, r4
 80022be:	f7ff fd49 	bl	8001d54 <UART_SetConfig>
 80022c2:	2801      	cmp	r0, #1
 80022c4:	d0e1      	beq.n	800228a <HAL_UART_Init+0x6>
 80022c6:	6823      	ldr	r3, [r4, #0]
 80022c8:	4907      	ldr	r1, [pc, #28]	@ (80022e8 <HAL_UART_Init+0x64>)
 80022ca:	685a      	ldr	r2, [r3, #4]
 80022cc:	0020      	movs	r0, r4
 80022ce:	400a      	ands	r2, r1
 80022d0:	212a      	movs	r1, #42	@ 0x2a
 80022d2:	605a      	str	r2, [r3, #4]
 80022d4:	689a      	ldr	r2, [r3, #8]
 80022d6:	438a      	bics	r2, r1
 80022d8:	609a      	str	r2, [r3, #8]
 80022da:	2201      	movs	r2, #1
 80022dc:	6819      	ldr	r1, [r3, #0]
 80022de:	430a      	orrs	r2, r1
 80022e0:	601a      	str	r2, [r3, #0]
 80022e2:	f7ff ff6b 	bl	80021bc <UART_CheckIdleState>
 80022e6:	e7d1      	b.n	800228c <HAL_UART_Init+0x8>
 80022e8:	ffffb7ff 	.word	0xffffb7ff

080022ec <UARTEx_SetNbDataToProcess>:
 80022ec:	b5f7      	push	{r0, r1, r2, r4, r5, r6, r7, lr}
 80022ee:	0007      	movs	r7, r0
 80022f0:	6e43      	ldr	r3, [r0, #100]	@ 0x64
 80022f2:	0004      	movs	r4, r0
 80022f4:	376a      	adds	r7, #106	@ 0x6a
 80022f6:	2b00      	cmp	r3, #0
 80022f8:	d104      	bne.n	8002304 <UARTEx_SetNbDataToProcess+0x18>
 80022fa:	2001      	movs	r0, #1
 80022fc:	8038      	strh	r0, [r7, #0]
 80022fe:	3468      	adds	r4, #104	@ 0x68
 8002300:	8020      	strh	r0, [r4, #0]
 8002302:	bdf7      	pop	{r0, r1, r2, r4, r5, r6, r7, pc}
 8002304:	6803      	ldr	r3, [r0, #0]
 8002306:	4e0b      	ldr	r6, [pc, #44]	@ (8002334 <UARTEx_SetNbDataToProcess+0x48>)
 8002308:	689a      	ldr	r2, [r3, #8]
 800230a:	689b      	ldr	r3, [r3, #8]
 800230c:	4d0a      	ldr	r5, [pc, #40]	@ (8002338 <UARTEx_SetNbDataToProcess+0x4c>)
 800230e:	0f5b      	lsrs	r3, r3, #29
 8002310:	5cf0      	ldrb	r0, [r6, r3]
 8002312:	5ce9      	ldrb	r1, [r5, r3]
 8002314:	00c0      	lsls	r0, r0, #3
 8002316:	9201      	str	r2, [sp, #4]
 8002318:	f7fd ff86 	bl	8000228 <__divsi3>
 800231c:	9b01      	ldr	r3, [sp, #4]
 800231e:	8038      	strh	r0, [r7, #0]
 8002320:	011b      	lsls	r3, r3, #4
 8002322:	0f5b      	lsrs	r3, r3, #29
 8002324:	5cf0      	ldrb	r0, [r6, r3]
 8002326:	5ce9      	ldrb	r1, [r5, r3]
 8002328:	00c0      	lsls	r0, r0, #3
 800232a:	f7fd ff7d 	bl	8000228 <__divsi3>
 800232e:	b280      	uxth	r0, r0
 8002330:	e7e5      	b.n	80022fe <UARTEx_SetNbDataToProcess+0x12>
 8002332:	46c0      	nop			@ (mov r8, r8)
 8002334:	08002ebc 	.word	0x08002ebc
 8002338:	08002eb4 	.word	0x08002eb4

0800233c <HAL_UARTEx_DisableFifoMode>:
 800233c:	b570      	push	{r4, r5, r6, lr}
 800233e:	0004      	movs	r4, r0
 8002340:	3484      	adds	r4, #132	@ 0x84
 8002342:	7822      	ldrb	r2, [r4, #0]
 8002344:	0003      	movs	r3, r0
 8002346:	2002      	movs	r0, #2
 8002348:	2a01      	cmp	r2, #1
 800234a:	d011      	beq.n	8002370 <HAL_UARTEx_DisableFifoMode+0x34>
 800234c:	001d      	movs	r5, r3
 800234e:	2224      	movs	r2, #36	@ 0x24
 8002350:	2601      	movs	r6, #1
 8002352:	3588      	adds	r5, #136	@ 0x88
 8002354:	602a      	str	r2, [r5, #0]
 8002356:	681a      	ldr	r2, [r3, #0]
 8002358:	6811      	ldr	r1, [r2, #0]
 800235a:	6810      	ldr	r0, [r2, #0]
 800235c:	43b0      	bics	r0, r6
 800235e:	6010      	str	r0, [r2, #0]
 8002360:	4804      	ldr	r0, [pc, #16]	@ (8002374 <HAL_UARTEx_DisableFifoMode+0x38>)
 8002362:	4001      	ands	r1, r0
 8002364:	2000      	movs	r0, #0
 8002366:	6658      	str	r0, [r3, #100]	@ 0x64
 8002368:	2320      	movs	r3, #32
 800236a:	6011      	str	r1, [r2, #0]
 800236c:	602b      	str	r3, [r5, #0]
 800236e:	7020      	strb	r0, [r4, #0]
 8002370:	bd70      	pop	{r4, r5, r6, pc}
 8002372:	46c0      	nop			@ (mov r8, r8)
 8002374:	dfffffff 	.word	0xdfffffff

08002378 <HAL_UARTEx_SetTxFifoThreshold>:
 8002378:	b5f8      	push	{r3, r4, r5, r6, r7, lr}
 800237a:	0005      	movs	r5, r0
 800237c:	3584      	adds	r5, #132	@ 0x84
 800237e:	000b      	movs	r3, r1
 8002380:	7829      	ldrb	r1, [r5, #0]
 8002382:	2202      	movs	r2, #2
 8002384:	2901      	cmp	r1, #1
 8002386:	d015      	beq.n	80023b4 <HAL_UARTEx_SetTxFifoThreshold+0x3c>
 8002388:	0006      	movs	r6, r0
 800238a:	2101      	movs	r1, #1
 800238c:	6804      	ldr	r4, [r0, #0]
 800238e:	3688      	adds	r6, #136	@ 0x88
 8002390:	3222      	adds	r2, #34	@ 0x22
 8002392:	6032      	str	r2, [r6, #0]
 8002394:	6827      	ldr	r7, [r4, #0]
 8002396:	6822      	ldr	r2, [r4, #0]
 8002398:	438a      	bics	r2, r1
 800239a:	6022      	str	r2, [r4, #0]
 800239c:	68a1      	ldr	r1, [r4, #8]
 800239e:	00c9      	lsls	r1, r1, #3
 80023a0:	08c9      	lsrs	r1, r1, #3
 80023a2:	4319      	orrs	r1, r3
 80023a4:	60a1      	str	r1, [r4, #8]
 80023a6:	f7ff ffa1 	bl	80022ec <UARTEx_SetNbDataToProcess>
 80023aa:	2320      	movs	r3, #32
 80023ac:	2200      	movs	r2, #0
 80023ae:	6027      	str	r7, [r4, #0]
 80023b0:	6033      	str	r3, [r6, #0]
 80023b2:	702a      	strb	r2, [r5, #0]
 80023b4:	0010      	movs	r0, r2
 80023b6:	bdf8      	pop	{r3, r4, r5, r6, r7, pc}

080023b8 <HAL_UARTEx_SetRxFifoThreshold>:
 80023b8:	b5f8      	push	{r3, r4, r5, r6, r7, lr}
 80023ba:	0005      	movs	r5, r0
 80023bc:	3584      	adds	r5, #132	@ 0x84
 80023be:	000a      	movs	r2, r1
 80023c0:	7829      	ldrb	r1, [r5, #0]
 80023c2:	2302      	movs	r3, #2
 80023c4:	2901      	cmp	r1, #1
 80023c6:	d015      	beq.n	80023f4 <HAL_UARTEx_SetRxFifoThreshold+0x3c>
 80023c8:	0006      	movs	r6, r0
 80023ca:	2101      	movs	r1, #1
 80023cc:	6804      	ldr	r4, [r0, #0]
 80023ce:	3688      	adds	r6, #136	@ 0x88
 80023d0:	3322      	adds	r3, #34	@ 0x22
 80023d2:	6033      	str	r3, [r6, #0]
 80023d4:	6827      	ldr	r7, [r4, #0]
 80023d6:	6823      	ldr	r3, [r4, #0]
 80023d8:	438b      	bics	r3, r1
 80023da:	6023      	str	r3, [r4, #0]
 80023dc:	68a1      	ldr	r1, [r4, #8]
 80023de:	4b06      	ldr	r3, [pc, #24]	@ (80023f8 <HAL_UARTEx_SetRxFifoThreshold+0x40>)
 80023e0:	4019      	ands	r1, r3
 80023e2:	4311      	orrs	r1, r2
 80023e4:	60a1      	str	r1, [r4, #8]
 80023e6:	f7ff ff81 	bl	80022ec <UARTEx_SetNbDataToProcess>
 80023ea:	2320      	movs	r3, #32
 80023ec:	6027      	str	r7, [r4, #0]
 80023ee:	6033      	str	r3, [r6, #0]
 80023f0:	2300      	movs	r3, #0
 80023f2:	702b      	strb	r3, [r5, #0]
 80023f4:	0018      	movs	r0, r3
 80023f6:	bdf8      	pop	{r3, r4, r5, r6, r7, pc}
 80023f8:	f1ffffff 	.word	0xf1ffffff

080023fc <uartSend>:
 80023fc:	b510      	push	{r4, lr}
 80023fe:	c809      	ldmia	r0, {r0, r3}
 8002400:	b292      	uxth	r2, r2
 8002402:	f7ff fe70 	bl	80020e6 <HAL_UART_Transmit>
 8002406:	2800      	cmp	r0, #0
 8002408:	d003      	beq.n	8002412 <uartSend+0x16>
 800240a:	3803      	subs	r0, #3
 800240c:	4243      	negs	r3, r0
 800240e:	4158      	adcs	r0, r3
 8002410:	3001      	adds	r0, #1
 8002412:	bd10      	pop	{r4, pc}

08002414 <espAt_init>:
 8002414:	c00e      	stmia	r0!, {r1, r2, r3}
 8002416:	2000      	movs	r0, #0
 8002418:	4770      	bx	lr
	...

0800241c <espAt_sendParams>:
 800241c:	b40c      	push	{r2, r3}
 800241e:	2340      	movs	r3, #64	@ 0x40
 8002420:	2218      	movs	r2, #24
 8002422:	b5f0      	push	{r4, r5, r6, r7, lr}
 8002424:	b091      	sub	sp, #68	@ 0x44
 8002426:	af00      	add	r7, sp, #0
 8002428:	189b      	adds	r3, r3, r2
 800242a:	19db      	adds	r3, r3, r7
 800242c:	6078      	str	r0, [r7, #4]
 800242e:	881e      	ldrh	r6, [r3, #0]
 8002430:	2001      	movs	r0, #1
 8002432:	6179      	str	r1, [r7, #20]
 8002434:	2900      	cmp	r1, #0
 8002436:	d05d      	beq.n	80024f4 <espAt_sendParams+0xd8>
 8002438:	2344      	movs	r3, #68	@ 0x44
 800243a:	4668      	mov	r0, sp
 800243c:	189b      	adds	r3, r3, r2
 800243e:	00b1      	lsls	r1, r6, #2
 8002440:	1e72      	subs	r2, r6, #1
 8002442:	60ba      	str	r2, [r7, #8]
 8002444:	1dca      	adds	r2, r1, #7
 8002446:	08d2      	lsrs	r2, r2, #3
 8002448:	00d2      	lsls	r2, r2, #3
 800244a:	1a82      	subs	r2, r0, r2
 800244c:	4695      	mov	sp, r2
 800244e:	2401      	movs	r4, #1
 8002450:	60fa      	str	r2, [r7, #12]
 8002452:	2200      	movs	r2, #0
 8002454:	46a4      	mov	ip, r4
 8002456:	0010      	movs	r0, r2
 8002458:	19db      	adds	r3, r3, r7
 800245a:	61fb      	str	r3, [r7, #28]
 800245c:	b295      	uxth	r5, r2
 800245e:	42ae      	cmp	r6, r5
 8002460:	d84e      	bhi.n	8002500 <espAt_sendParams+0xe4>
 8002462:	2800      	cmp	r0, #0
 8002464:	d001      	beq.n	800246a <espAt_sendParams+0x4e>
 8002466:	185b      	adds	r3, r3, r1
 8002468:	61fb      	str	r3, [r7, #28]
 800246a:	2018      	movs	r0, #24
 800246c:	2308      	movs	r3, #8
 800246e:	2500      	movs	r5, #0
 8002470:	181b      	adds	r3, r3, r0
 8002472:	221e      	movs	r2, #30
 8002474:	2100      	movs	r1, #0
 8002476:	19d8      	adds	r0, r3, r7
 8002478:	f000 fcce 	bl	8002e18 <memset>
 800247c:	002c      	movs	r4, r5
 800247e:	42ae      	cmp	r6, r5
 8002480:	d145      	bne.n	800250e <espAt_sendParams+0xf2>
 8002482:	6978      	ldr	r0, [r7, #20]
 8002484:	f7fd fe3e 	bl	8000104 <strlen>
 8002488:	466a      	mov	r2, sp
 800248a:	1e66      	subs	r6, r4, #1
 800248c:	3405      	adds	r4, #5
 800248e:	1824      	adds	r4, r4, r0
 8002490:	b2a4      	uxth	r4, r4
 8002492:	1de3      	adds	r3, r4, #7
 8002494:	08db      	lsrs	r3, r3, #3
 8002496:	00db      	lsls	r3, r3, #3
 8002498:	1ad3      	subs	r3, r2, r3
 800249a:	469d      	mov	sp, r3
 800249c:	0005      	movs	r5, r0
 800249e:	0022      	movs	r2, r4
 80024a0:	2120      	movs	r1, #32
 80024a2:	4668      	mov	r0, sp
 80024a4:	f000 fcb8 	bl	8002e18 <memset>
 80024a8:	2203      	movs	r2, #3
 80024aa:	4929      	ldr	r1, [pc, #164]	@ (8002550 <espAt_sendParams+0x134>)
 80024ac:	4668      	mov	r0, sp
 80024ae:	f000 fcdf 	bl	8002e70 <memcpy>
 80024b2:	466b      	mov	r3, sp
 80024b4:	b2ad      	uxth	r5, r5
 80024b6:	002a      	movs	r2, r5
 80024b8:	6979      	ldr	r1, [r7, #20]
 80024ba:	1cd8      	adds	r0, r3, #3
 80024bc:	f000 fcd8 	bl	8002e70 <memcpy>
 80024c0:	002b      	movs	r3, r5
 80024c2:	223d      	movs	r2, #61	@ 0x3d
 80024c4:	446b      	add	r3, sp
 80024c6:	70da      	strb	r2, [r3, #3]
 80024c8:	2118      	movs	r1, #24
 80024ca:	3504      	adds	r5, #4
 80024cc:	2308      	movs	r3, #8
 80024ce:	0028      	movs	r0, r5
 80024d0:	185b      	adds	r3, r3, r1
 80024d2:	b2b6      	uxth	r6, r6
 80024d4:	19d9      	adds	r1, r3, r7
 80024d6:	0032      	movs	r2, r6
 80024d8:	4468      	add	r0, sp
 80024da:	f000 fcc9 	bl	8002e70 <memcpy>
 80024de:	1970      	adds	r0, r6, r5
 80024e0:	2202      	movs	r2, #2
 80024e2:	491c      	ldr	r1, [pc, #112]	@ (8002554 <espAt_sendParams+0x138>)
 80024e4:	4468      	add	r0, sp
 80024e6:	f000 fcc3 	bl	8002e70 <memcpy>
 80024ea:	0022      	movs	r2, r4
 80024ec:	4669      	mov	r1, sp
 80024ee:	6878      	ldr	r0, [r7, #4]
 80024f0:	f7ff ff84 	bl	80023fc <uartSend>
 80024f4:	46bd      	mov	sp, r7
 80024f6:	b011      	add	sp, #68	@ 0x44
 80024f8:	bcf0      	pop	{r4, r5, r6, r7}
 80024fa:	bc08      	pop	{r3}
 80024fc:	b002      	add	sp, #8
 80024fe:	4718      	bx	r3
 8002500:	0090      	lsls	r0, r2, #2
 8002502:	581d      	ldr	r5, [r3, r0]
 8002504:	68fc      	ldr	r4, [r7, #12]
 8002506:	3201      	adds	r2, #1
 8002508:	5025      	str	r5, [r4, r0]
 800250a:	4660      	mov	r0, ip
 800250c:	e7a6      	b.n	800245c <espAt_sendParams+0x40>
 800250e:	2218      	movs	r2, #24
 8002510:	2308      	movs	r3, #8
 8002512:	189b      	adds	r3, r3, r2
 8002514:	19da      	adds	r2, r3, r7
 8002516:	1912      	adds	r2, r2, r4
 8002518:	68f8      	ldr	r0, [r7, #12]
 800251a:	613a      	str	r2, [r7, #16]
 800251c:	00ab      	lsls	r3, r5, #2
 800251e:	220a      	movs	r2, #10
 8002520:	6939      	ldr	r1, [r7, #16]
 8002522:	58c0      	ldr	r0, [r0, r3]
 8002524:	f000 fc3f 	bl	8002da6 <itoa>
 8002528:	6938      	ldr	r0, [r7, #16]
 800252a:	f7fd fdeb 	bl	8000104 <strlen>
 800252e:	3401      	adds	r4, #1
 8002530:	68ba      	ldr	r2, [r7, #8]
 8002532:	1824      	adds	r4, r4, r0
 8002534:	b2a4      	uxth	r4, r4
 8002536:	42aa      	cmp	r2, r5
 8002538:	dd07      	ble.n	800254a <espAt_sendParams+0x12e>
 800253a:	2218      	movs	r2, #24
 800253c:	2308      	movs	r3, #8
 800253e:	189b      	adds	r3, r3, r2
 8002540:	19db      	adds	r3, r3, r7
 8002542:	191b      	adds	r3, r3, r4
 8002544:	3b01      	subs	r3, #1
 8002546:	3214      	adds	r2, #20
 8002548:	701a      	strb	r2, [r3, #0]
 800254a:	3501      	adds	r5, #1
 800254c:	e797      	b.n	800247e <espAt_sendParams+0x62>
 800254e:	46c0      	nop			@ (mov r8, r8)
 8002550:	08002ec4 	.word	0x08002ec4
 8002554:	08002ec8 	.word	0x08002ec8

08002558 <espAt_sendString>:
 8002558:	b5f0      	push	{r4, r5, r6, r7, lr}
 800255a:	b085      	sub	sp, #20
 800255c:	af00      	add	r7, sp, #0
 800255e:	6078      	str	r0, [r7, #4]
 8002560:	000d      	movs	r5, r1
 8002562:	2001      	movs	r0, #1
 8002564:	60fa      	str	r2, [r7, #12]
 8002566:	2900      	cmp	r1, #0
 8002568:	d045      	beq.n	80025f6 <espAt_sendString+0x9e>
 800256a:	2a00      	cmp	r2, #0
 800256c:	d043      	beq.n	80025f6 <espAt_sendString+0x9e>
 800256e:	0008      	movs	r0, r1
 8002570:	f7fd fdc8 	bl	8000104 <strlen>
 8002574:	0004      	movs	r4, r0
 8002576:	68f8      	ldr	r0, [r7, #12]
 8002578:	f7fd fdc4 	bl	8000104 <strlen>
 800257c:	466a      	mov	r2, sp
 800257e:	1823      	adds	r3, r4, r0
 8002580:	3308      	adds	r3, #8
 8002582:	b29e      	uxth	r6, r3
 8002584:	1df3      	adds	r3, r6, #7
 8002586:	08db      	lsrs	r3, r3, #3
 8002588:	00db      	lsls	r3, r3, #3
 800258a:	1ad3      	subs	r3, r2, r3
 800258c:	469d      	mov	sp, r3
 800258e:	0032      	movs	r2, r6
 8002590:	2120      	movs	r1, #32
 8002592:	60b8      	str	r0, [r7, #8]
 8002594:	4668      	mov	r0, sp
 8002596:	f000 fc3f 	bl	8002e18 <memset>
 800259a:	2203      	movs	r2, #3
 800259c:	4917      	ldr	r1, [pc, #92]	@ (80025fc <espAt_sendString+0xa4>)
 800259e:	4668      	mov	r0, sp
 80025a0:	f000 fc66 	bl	8002e70 <memcpy>
 80025a4:	466b      	mov	r3, sp
 80025a6:	b2a4      	uxth	r4, r4
 80025a8:	0022      	movs	r2, r4
 80025aa:	0029      	movs	r1, r5
 80025ac:	1cd8      	adds	r0, r3, #3
 80025ae:	f000 fc5f 	bl	8002e70 <memcpy>
 80025b2:	0023      	movs	r3, r4
 80025b4:	223d      	movs	r2, #61	@ 0x3d
 80025b6:	446b      	add	r3, sp
 80025b8:	70da      	strb	r2, [r3, #3]
 80025ba:	0023      	movs	r3, r4
 80025bc:	893d      	ldrh	r5, [r7, #8]
 80025be:	446b      	add	r3, sp
 80025c0:	3a1b      	subs	r2, #27
 80025c2:	1d60      	adds	r0, r4, #5
 80025c4:	711a      	strb	r2, [r3, #4]
 80025c6:	68f9      	ldr	r1, [r7, #12]
 80025c8:	002a      	movs	r2, r5
 80025ca:	4468      	add	r0, sp
 80025cc:	f000 fc50 	bl	8002e70 <memcpy>
 80025d0:	1d63      	adds	r3, r4, #5
 80025d2:	1958      	adds	r0, r3, r5
 80025d4:	002a      	movs	r2, r5
 80025d6:	490a      	ldr	r1, [pc, #40]	@ (8002600 <espAt_sendString+0xa8>)
 80025d8:	4468      	add	r0, sp
 80025da:	3406      	adds	r4, #6
 80025dc:	f000 fc48 	bl	8002e70 <memcpy>
 80025e0:	1960      	adds	r0, r4, r5
 80025e2:	2202      	movs	r2, #2
 80025e4:	4907      	ldr	r1, [pc, #28]	@ (8002604 <espAt_sendString+0xac>)
 80025e6:	4468      	add	r0, sp
 80025e8:	f000 fc42 	bl	8002e70 <memcpy>
 80025ec:	0032      	movs	r2, r6
 80025ee:	4669      	mov	r1, sp
 80025f0:	6878      	ldr	r0, [r7, #4]
 80025f2:	f7ff ff03 	bl	80023fc <uartSend>
 80025f6:	46bd      	mov	sp, r7
 80025f8:	b005      	add	sp, #20
 80025fa:	bdf0      	pop	{r4, r5, r6, r7, pc}
 80025fc:	08002ec4 	.word	0x08002ec4
 8002600:	08002ecb 	.word	0x08002ecb
 8002604:	08002ec8 	.word	0x08002ec8

08002608 <MX_GPIO_Init>:
 8002608:	b570      	push	{r4, r5, r6, lr}
 800260a:	b088      	sub	sp, #32
 800260c:	2214      	movs	r2, #20
 800260e:	2100      	movs	r1, #0
 8002610:	a803      	add	r0, sp, #12
 8002612:	f000 fc01 	bl	8002e18 <memset>
 8002616:	2104      	movs	r1, #4
 8002618:	2501      	movs	r5, #1
 800261a:	26a0      	movs	r6, #160	@ 0xa0
 800261c:	4b1d      	ldr	r3, [pc, #116]	@ (8002694 <MX_GPIO_Init+0x8c>)
 800261e:	05f6      	lsls	r6, r6, #23
 8002620:	6b5a      	ldr	r2, [r3, #52]	@ 0x34
 8002622:	0030      	movs	r0, r6
 8002624:	430a      	orrs	r2, r1
 8002626:	635a      	str	r2, [r3, #52]	@ 0x34
 8002628:	6b5a      	ldr	r2, [r3, #52]	@ 0x34
 800262a:	2400      	movs	r4, #0
 800262c:	400a      	ands	r2, r1
 800262e:	9200      	str	r2, [sp, #0]
 8002630:	9a00      	ldr	r2, [sp, #0]
 8002632:	6b5a      	ldr	r2, [r3, #52]	@ 0x34
 8002634:	3902      	subs	r1, #2
 8002636:	432a      	orrs	r2, r5
 8002638:	635a      	str	r2, [r3, #52]	@ 0x34
 800263a:	6b5a      	ldr	r2, [r3, #52]	@ 0x34
 800263c:	402a      	ands	r2, r5
 800263e:	9201      	str	r2, [sp, #4]
 8002640:	9a01      	ldr	r2, [sp, #4]
 8002642:	6b5a      	ldr	r2, [r3, #52]	@ 0x34
 8002644:	430a      	orrs	r2, r1
 8002646:	635a      	str	r2, [r3, #52]	@ 0x34
 8002648:	6b5b      	ldr	r3, [r3, #52]	@ 0x34
 800264a:	2200      	movs	r2, #0
 800264c:	400b      	ands	r3, r1
 800264e:	9302      	str	r3, [sp, #8]
 8002650:	311e      	adds	r1, #30
 8002652:	9b02      	ldr	r3, [sp, #8]
 8002654:	f7fe fb5a 	bl	8000d0c <HAL_GPIO_WritePin>
 8002658:	2380      	movs	r3, #128	@ 0x80
 800265a:	a903      	add	r1, sp, #12
 800265c:	019b      	lsls	r3, r3, #6
 800265e:	480e      	ldr	r0, [pc, #56]	@ (8002698 <MX_GPIO_Init+0x90>)
 8002660:	9303      	str	r3, [sp, #12]
 8002662:	9404      	str	r4, [sp, #16]
 8002664:	9405      	str	r4, [sp, #20]
 8002666:	f7fe fa99 	bl	8000b9c <HAL_GPIO_Init>
 800266a:	2388      	movs	r3, #136	@ 0x88
 800266c:	0030      	movs	r0, r6
 800266e:	035b      	lsls	r3, r3, #13
 8002670:	a903      	add	r1, sp, #12
 8002672:	9304      	str	r3, [sp, #16]
 8002674:	9503      	str	r5, [sp, #12]
 8002676:	9405      	str	r4, [sp, #20]
 8002678:	f7fe fa90 	bl	8000b9c <HAL_GPIO_Init>
 800267c:	2320      	movs	r3, #32
 800267e:	0030      	movs	r0, r6
 8002680:	a903      	add	r1, sp, #12
 8002682:	9303      	str	r3, [sp, #12]
 8002684:	9504      	str	r5, [sp, #16]
 8002686:	9405      	str	r4, [sp, #20]
 8002688:	9406      	str	r4, [sp, #24]
 800268a:	f7fe fa87 	bl	8000b9c <HAL_GPIO_Init>
 800268e:	b008      	add	sp, #32
 8002690:	bd70      	pop	{r4, r5, r6, pc}
 8002692:	46c0      	nop			@ (mov r8, r8)
 8002694:	40021000 	.word	0x40021000
 8002698:	50000800 	.word	0x50000800

0800269c <MX_I2C1_Init>:
 800269c:	b510      	push	{r4, lr}
 800269e:	4b13      	ldr	r3, [pc, #76]	@ (80026ec <MX_I2C1_Init+0x50>)
 80026a0:	4c13      	ldr	r4, [pc, #76]	@ (80026f0 <MX_I2C1_Init+0x54>)
 80026a2:	2201      	movs	r2, #1
 80026a4:	6023      	str	r3, [r4, #0]
 80026a6:	4b13      	ldr	r3, [pc, #76]	@ (80026f4 <MX_I2C1_Init+0x58>)
 80026a8:	0020      	movs	r0, r4
 80026aa:	6063      	str	r3, [r4, #4]
 80026ac:	2300      	movs	r3, #0
 80026ae:	60e2      	str	r2, [r4, #12]
 80026b0:	60a3      	str	r3, [r4, #8]
 80026b2:	6123      	str	r3, [r4, #16]
 80026b4:	6163      	str	r3, [r4, #20]
 80026b6:	61a3      	str	r3, [r4, #24]
 80026b8:	61e3      	str	r3, [r4, #28]
 80026ba:	6223      	str	r3, [r4, #32]
 80026bc:	f7fe fc5e 	bl	8000f7c <HAL_I2C_Init>
 80026c0:	2800      	cmp	r0, #0
 80026c2:	d001      	beq.n	80026c8 <MX_I2C1_Init+0x2c>
 80026c4:	f000 fa30 	bl	8002b28 <Error_Handler>
 80026c8:	2100      	movs	r1, #0
 80026ca:	0020      	movs	r0, r4
 80026cc:	f7fe fe6c 	bl	80013a8 <HAL_I2CEx_ConfigAnalogFilter>
 80026d0:	2800      	cmp	r0, #0
 80026d2:	d001      	beq.n	80026d8 <MX_I2C1_Init+0x3c>
 80026d4:	f000 fa28 	bl	8002b28 <Error_Handler>
 80026d8:	2100      	movs	r1, #0
 80026da:	0020      	movs	r0, r4
 80026dc:	f7fe fe8a 	bl	80013f4 <HAL_I2CEx_ConfigDigitalFilter>
 80026e0:	2800      	cmp	r0, #0
 80026e2:	d001      	beq.n	80026e8 <MX_I2C1_Init+0x4c>
 80026e4:	f000 fa20 	bl	8002b28 <Error_Handler>
 80026e8:	bd10      	pop	{r4, pc}
 80026ea:	46c0      	nop			@ (mov r8, r8)
 80026ec:	40005400 	.word	0x40005400
 80026f0:	2000002c 	.word	0x2000002c
 80026f4:	00c12166 	.word	0x00c12166

080026f8 <HAL_I2C_MspInit>:
 80026f8:	b510      	push	{r4, lr}
 80026fa:	0004      	movs	r4, r0
 80026fc:	b094      	sub	sp, #80	@ 0x50
 80026fe:	2214      	movs	r2, #20
 8002700:	2100      	movs	r1, #0
 8002702:	a802      	add	r0, sp, #8
 8002704:	f000 fb88 	bl	8002e18 <memset>
 8002708:	2234      	movs	r2, #52	@ 0x34
 800270a:	2100      	movs	r1, #0
 800270c:	a807      	add	r0, sp, #28
 800270e:	f000 fb83 	bl	8002e18 <memset>
 8002712:	4b17      	ldr	r3, [pc, #92]	@ (8002770 <HAL_I2C_MspInit+0x78>)
 8002714:	6822      	ldr	r2, [r4, #0]
 8002716:	429a      	cmp	r2, r3
 8002718:	d128      	bne.n	800276c <HAL_I2C_MspInit+0x74>
 800271a:	2320      	movs	r3, #32
 800271c:	a807      	add	r0, sp, #28
 800271e:	9307      	str	r3, [sp, #28]
 8002720:	f7ff f9e2 	bl	8001ae8 <HAL_RCCEx_PeriphCLKConfig>
 8002724:	2800      	cmp	r0, #0
 8002726:	d001      	beq.n	800272c <HAL_I2C_MspInit+0x34>
 8002728:	f000 f9fe 	bl	8002b28 <Error_Handler>
 800272c:	2202      	movs	r2, #2
 800272e:	4c11      	ldr	r4, [pc, #68]	@ (8002774 <HAL_I2C_MspInit+0x7c>)
 8002730:	4811      	ldr	r0, [pc, #68]	@ (8002778 <HAL_I2C_MspInit+0x80>)
 8002732:	6b63      	ldr	r3, [r4, #52]	@ 0x34
 8002734:	a902      	add	r1, sp, #8
 8002736:	4313      	orrs	r3, r2
 8002738:	6363      	str	r3, [r4, #52]	@ 0x34
 800273a:	6b63      	ldr	r3, [r4, #52]	@ 0x34
 800273c:	4013      	ands	r3, r2
 800273e:	9300      	str	r3, [sp, #0]
 8002740:	9b00      	ldr	r3, [sp, #0]
 8002742:	23c0      	movs	r3, #192	@ 0xc0
 8002744:	009b      	lsls	r3, r3, #2
 8002746:	9302      	str	r3, [sp, #8]
 8002748:	2312      	movs	r3, #18
 800274a:	9303      	str	r3, [sp, #12]
 800274c:	2300      	movs	r3, #0
 800274e:	9304      	str	r3, [sp, #16]
 8002750:	9305      	str	r3, [sp, #20]
 8002752:	3306      	adds	r3, #6
 8002754:	9306      	str	r3, [sp, #24]
 8002756:	f7fe fa21 	bl	8000b9c <HAL_GPIO_Init>
 800275a:	2280      	movs	r2, #128	@ 0x80
 800275c:	6be3      	ldr	r3, [r4, #60]	@ 0x3c
 800275e:	0392      	lsls	r2, r2, #14
 8002760:	4313      	orrs	r3, r2
 8002762:	63e3      	str	r3, [r4, #60]	@ 0x3c
 8002764:	6be3      	ldr	r3, [r4, #60]	@ 0x3c
 8002766:	4013      	ands	r3, r2
 8002768:	9301      	str	r3, [sp, #4]
 800276a:	9b01      	ldr	r3, [sp, #4]
 800276c:	b014      	add	sp, #80	@ 0x50
 800276e:	bd10      	pop	{r4, pc}
 8002770:	40005400 	.word	0x40005400
 8002774:	40021000 	.word	0x40021000
 8002778:	50000400 	.word	0x50000400

0800277c <i2cSend>:
 800277c:	b51f      	push	{r0, r1, r2, r3, r4, lr}
 800277e:	6844      	ldr	r4, [r0, #4]
 8002780:	9300      	str	r3, [sp, #0]
 8002782:	9402      	str	r4, [sp, #8]
 8002784:	9c06      	ldr	r4, [sp, #24]
 8002786:	2301      	movs	r3, #1
 8002788:	b2a4      	uxth	r4, r4
 800278a:	9401      	str	r4, [sp, #4]
 800278c:	6800      	ldr	r0, [r0, #0]
 800278e:	f7fe fc53 	bl	8001038 <HAL_I2C_Mem_Write>
 8002792:	2800      	cmp	r0, #0
 8002794:	d003      	beq.n	800279e <i2cSend+0x22>
 8002796:	3803      	subs	r0, #3
 8002798:	4243      	negs	r3, r0
 800279a:	4158      	adcs	r0, r3
 800279c:	3001      	adds	r0, #1
 800279e:	b004      	add	sp, #16
 80027a0:	bd10      	pop	{r4, pc}

080027a2 <i2cReceive>:
 80027a2:	b51f      	push	{r0, r1, r2, r3, r4, lr}
 80027a4:	6884      	ldr	r4, [r0, #8]
 80027a6:	9300      	str	r3, [sp, #0]
 80027a8:	9402      	str	r4, [sp, #8]
 80027aa:	9c06      	ldr	r4, [sp, #24]
 80027ac:	2301      	movs	r3, #1
 80027ae:	b2a4      	uxth	r4, r4
 80027b0:	9401      	str	r4, [sp, #4]
 80027b2:	6800      	ldr	r0, [r0, #0]
 80027b4:	f7fe fd1a 	bl	80011ec <HAL_I2C_Mem_Read>
 80027b8:	2800      	cmp	r0, #0
 80027ba:	d003      	beq.n	80027c4 <i2cReceive+0x22>
 80027bc:	3803      	subs	r0, #3
 80027be:	4243      	negs	r3, r0
 80027c0:	4158      	adcs	r0, r3
 80027c2:	3001      	adds	r0, #1
 80027c4:	b004      	add	sp, #16
 80027c6:	bd10      	pop	{r4, pc}

080027c8 <modifyReg>:
 80027c8:	b5f0      	push	{r4, r5, r6, r7, lr}
 80027ca:	270e      	movs	r7, #14
 80027cc:	b087      	sub	sp, #28
 80027ce:	9303      	str	r3, [sp, #12]
 80027d0:	ab02      	add	r3, sp, #8
 80027d2:	18ff      	adds	r7, r7, r3
 80027d4:	2300      	movs	r3, #0
 80027d6:	2501      	movs	r5, #1
 80027d8:	703b      	strb	r3, [r7, #0]
 80027da:	9102      	str	r1, [sp, #8]
 80027dc:	0016      	movs	r6, r2
 80027de:	8981      	ldrh	r1, [r0, #12]
 80027e0:	003b      	movs	r3, r7
 80027e2:	9a02      	ldr	r2, [sp, #8]
 80027e4:	9500      	str	r5, [sp, #0]
 80027e6:	0004      	movs	r4, r0
 80027e8:	f7ff ffdb 	bl	80027a2 <i2cReceive>
 80027ec:	2800      	cmp	r0, #0
 80027ee:	d10f      	bne.n	8002810 <modifyReg+0x48>
 80027f0:	230f      	movs	r3, #15
 80027f2:	a902      	add	r1, sp, #8
 80027f4:	783a      	ldrb	r2, [r7, #0]
 80027f6:	185b      	adds	r3, r3, r1
 80027f8:	9903      	ldr	r1, [sp, #12]
 80027fa:	43b2      	bics	r2, r6
 80027fc:	4031      	ands	r1, r6
 80027fe:	703a      	strb	r2, [r7, #0]
 8002800:	430a      	orrs	r2, r1
 8002802:	701a      	strb	r2, [r3, #0]
 8002804:	89a1      	ldrh	r1, [r4, #12]
 8002806:	0020      	movs	r0, r4
 8002808:	9a02      	ldr	r2, [sp, #8]
 800280a:	9500      	str	r5, [sp, #0]
 800280c:	f7ff ffb6 	bl	800277c <i2cSend>
 8002810:	b007      	add	sp, #28
 8002812:	bdf0      	pop	{r4, r5, r6, r7, pc}

08002814 <lsm6ds_init>:
 8002814:	b530      	push	{r4, r5, lr}
 8002816:	0004      	movs	r4, r0
 8002818:	b085      	sub	sp, #20
 800281a:	6002      	str	r2, [r0, #0]
 800281c:	9a08      	ldr	r2, [sp, #32]
 800281e:	6043      	str	r3, [r0, #4]
 8002820:	8181      	strh	r1, [r0, #12]
 8002822:	6082      	str	r2, [r0, #8]
 8002824:	000d      	movs	r5, r1
 8002826:	2206      	movs	r2, #6
 8002828:	2100      	movs	r1, #0
 800282a:	3014      	adds	r0, #20
 800282c:	f000 faf4 	bl	8002e18 <memset>
 8002830:	0020      	movs	r0, r4
 8002832:	2206      	movs	r2, #6
 8002834:	2100      	movs	r1, #0
 8002836:	300e      	adds	r0, #14
 8002838:	f000 faee 	bl	8002e18 <memset>
 800283c:	2300      	movs	r3, #0
 800283e:	466a      	mov	r2, sp
 8002840:	8363      	strh	r3, [r4, #26]
 8002842:	73d3      	strb	r3, [r2, #15]
 8002844:	3301      	adds	r3, #1
 8002846:	9300      	str	r3, [sp, #0]
 8002848:	330e      	adds	r3, #14
 800284a:	220f      	movs	r2, #15
 800284c:	0029      	movs	r1, r5
 800284e:	0020      	movs	r0, r4
 8002850:	446b      	add	r3, sp
 8002852:	f7ff ffa6 	bl	80027a2 <i2cReceive>
 8002856:	2801      	cmp	r0, #1
 8002858:	d009      	beq.n	800286e <lsm6ds_init+0x5a>
 800285a:	2802      	cmp	r0, #2
 800285c:	d005      	beq.n	800286a <lsm6ds_init+0x56>
 800285e:	466b      	mov	r3, sp
 8002860:	7bd8      	ldrb	r0, [r3, #15]
 8002862:	386a      	subs	r0, #106	@ 0x6a
 8002864:	1e43      	subs	r3, r0, #1
 8002866:	4198      	sbcs	r0, r3
 8002868:	0080      	lsls	r0, r0, #2
 800286a:	b005      	add	sp, #20
 800286c:	bd30      	pop	{r4, r5, pc}
 800286e:	2003      	movs	r0, #3
 8002870:	e7fb      	b.n	800286a <lsm6ds_init+0x56>

08002872 <lsm6ds_setXLOutputDataRate>:
 8002872:	b510      	push	{r4, lr}
 8002874:	000b      	movs	r3, r1
 8002876:	22f0      	movs	r2, #240	@ 0xf0
 8002878:	2110      	movs	r1, #16
 800287a:	f7ff ffa5 	bl	80027c8 <modifyReg>
 800287e:	bd10      	pop	{r4, pc}

08002880 <lsm6ds_setXLFullScale>:
 8002880:	b510      	push	{r4, lr}
 8002882:	000b      	movs	r3, r1
 8002884:	220c      	movs	r2, #12
 8002886:	2110      	movs	r1, #16
 8002888:	f7ff ff9e 	bl	80027c8 <modifyReg>
 800288c:	bd10      	pop	{r4, pc}

0800288e <lsm6ds_setGROutputDataRate>:
 800288e:	b510      	push	{r4, lr}
 8002890:	000b      	movs	r3, r1
 8002892:	22f0      	movs	r2, #240	@ 0xf0
 8002894:	2111      	movs	r1, #17
 8002896:	f7ff ff97 	bl	80027c8 <modifyReg>
 800289a:	bd10      	pop	{r4, pc}

0800289c <lsm6ds_setGRFullScale>:
 800289c:	b570      	push	{r4, r5, r6, lr}
 800289e:	2300      	movs	r3, #0
 80028a0:	0004      	movs	r4, r0
 80028a2:	000d      	movs	r5, r1
 80028a4:	2902      	cmp	r1, #2
 80028a6:	d10c      	bne.n	80028c2 <lsm6ds_setGRFullScale+0x26>
 80028a8:	220c      	movs	r2, #12
 80028aa:	2111      	movs	r1, #17
 80028ac:	f7ff ff8c 	bl	80027c8 <modifyReg>
 80028b0:	2800      	cmp	r0, #0
 80028b2:	d105      	bne.n	80028c0 <lsm6ds_setGRFullScale+0x24>
 80028b4:	002b      	movs	r3, r5
 80028b6:	002a      	movs	r2, r5
 80028b8:	2111      	movs	r1, #17
 80028ba:	0020      	movs	r0, r4
 80028bc:	f7ff ff84 	bl	80027c8 <modifyReg>
 80028c0:	bd70      	pop	{r4, r5, r6, pc}
 80028c2:	2202      	movs	r2, #2
 80028c4:	2111      	movs	r1, #17
 80028c6:	f7ff ff7f 	bl	80027c8 <modifyReg>
 80028ca:	2800      	cmp	r0, #0
 80028cc:	d1f8      	bne.n	80028c0 <lsm6ds_setGRFullScale+0x24>
 80028ce:	002b      	movs	r3, r5
 80028d0:	220c      	movs	r2, #12
 80028d2:	e7f1      	b.n	80028b8 <lsm6ds_setGRFullScale+0x1c>

080028d4 <lsm6ds_reset>:
 80028d4:	2301      	movs	r3, #1
 80028d6:	b510      	push	{r4, lr}
 80028d8:	001a      	movs	r2, r3
 80028da:	2112      	movs	r1, #18
 80028dc:	f7ff ff74 	bl	80027c8 <modifyReg>
 80028e0:	bd10      	pop	{r4, pc}

080028e2 <lsm6ds_newDataAvailableCheck>:
 80028e2:	b507      	push	{r0, r1, r2, lr}
 80028e4:	2201      	movs	r2, #1
 80028e6:	000b      	movs	r3, r1
 80028e8:	8981      	ldrh	r1, [r0, #12]
 80028ea:	9200      	str	r2, [sp, #0]
 80028ec:	321d      	adds	r2, #29
 80028ee:	f7ff ff58 	bl	80027a2 <i2cReceive>
 80028f2:	bd0e      	pop	{r1, r2, r3, pc}

080028f4 <lsm6ds_updateTemp>:
 80028f4:	2302      	movs	r3, #2
 80028f6:	b530      	push	{r4, r5, lr}
 80028f8:	b085      	sub	sp, #20
 80028fa:	ad03      	add	r5, sp, #12
 80028fc:	8981      	ldrh	r1, [r0, #12]
 80028fe:	2220      	movs	r2, #32
 8002900:	9300      	str	r3, [sp, #0]
 8002902:	002b      	movs	r3, r5
 8002904:	0004      	movs	r4, r0
 8002906:	f7ff ff4c 	bl	80027a2 <i2cReceive>
 800290a:	2800      	cmp	r0, #0
 800290c:	d10a      	bne.n	8002924 <lsm6ds_updateTemp+0x30>
 800290e:	2200      	movs	r2, #0
 8002910:	5eab      	ldrsh	r3, [r5, r2]
 8002912:	2264      	movs	r2, #100	@ 0x64
 8002914:	435a      	muls	r2, r3
 8002916:	17d3      	asrs	r3, r2, #31
 8002918:	b2db      	uxtb	r3, r3
 800291a:	189b      	adds	r3, r3, r2
 800291c:	4a02      	ldr	r2, [pc, #8]	@ (8002928 <lsm6ds_updateTemp+0x34>)
 800291e:	121b      	asrs	r3, r3, #8
 8002920:	189b      	adds	r3, r3, r2
 8002922:	8363      	strh	r3, [r4, #26]
 8002924:	b005      	add	sp, #20
 8002926:	bd30      	pop	{r4, r5, pc}
 8002928:	000009c4 	.word	0x000009c4

0800292c <lsm6ds_updateGR>:
 800292c:	b57f      	push	{r0, r1, r2, r3, r4, r5, r6, lr}
 800292e:	2606      	movs	r6, #6
 8002930:	0004      	movs	r4, r0
 8002932:	ad02      	add	r5, sp, #8
 8002934:	0032      	movs	r2, r6
 8002936:	2100      	movs	r1, #0
 8002938:	0028      	movs	r0, r5
 800293a:	f000 fa6d 	bl	8002e18 <memset>
 800293e:	89a1      	ldrh	r1, [r4, #12]
 8002940:	002b      	movs	r3, r5
 8002942:	2222      	movs	r2, #34	@ 0x22
 8002944:	0020      	movs	r0, r4
 8002946:	9600      	str	r6, [sp, #0]
 8002948:	f7ff ff2b 	bl	80027a2 <i2cReceive>
 800294c:	2800      	cmp	r0, #0
 800294e:	d104      	bne.n	800295a <lsm6ds_updateGR+0x2e>
 8002950:	2204      	movs	r2, #4
 8002952:	5eab      	ldrsh	r3, [r5, r2]
 8002954:	9a02      	ldr	r2, [sp, #8]
 8002956:	8323      	strh	r3, [r4, #24]
 8002958:	6162      	str	r2, [r4, #20]
 800295a:	b004      	add	sp, #16
 800295c:	bd70      	pop	{r4, r5, r6, pc}

0800295e <SystemClock_Config>:
 800295e:	b510      	push	{r4, lr}
 8002960:	b092      	sub	sp, #72	@ 0x48
 8002962:	2238      	movs	r2, #56	@ 0x38
 8002964:	2100      	movs	r1, #0
 8002966:	a804      	add	r0, sp, #16
 8002968:	f000 fa56 	bl	8002e18 <memset>
 800296c:	2210      	movs	r2, #16
 800296e:	2100      	movs	r1, #0
 8002970:	4668      	mov	r0, sp
 8002972:	f000 fa51 	bl	8002e18 <memset>
 8002976:	2080      	movs	r0, #128	@ 0x80
 8002978:	0080      	lsls	r0, r0, #2
 800297a:	f7fe fd5f 	bl	800143c <HAL_PWREx_ControlVoltageScaling>
 800297e:	2380      	movs	r3, #128	@ 0x80
 8002980:	005b      	lsls	r3, r3, #1
 8002982:	9307      	str	r3, [sp, #28]
 8002984:	2300      	movs	r3, #0
 8002986:	9308      	str	r3, [sp, #32]
 8002988:	930d      	str	r3, [sp, #52]	@ 0x34
 800298a:	3308      	adds	r3, #8
 800298c:	930e      	str	r3, [sp, #56]	@ 0x38
 800298e:	2380      	movs	r3, #128	@ 0x80
 8002990:	029b      	lsls	r3, r3, #10
 8002992:	930f      	str	r3, [sp, #60]	@ 0x3c
 8002994:	2380      	movs	r3, #128	@ 0x80
 8002996:	049b      	lsls	r3, r3, #18
 8002998:	9310      	str	r3, [sp, #64]	@ 0x40
 800299a:	2380      	movs	r3, #128	@ 0x80
 800299c:	2402      	movs	r4, #2
 800299e:	2240      	movs	r2, #64	@ 0x40
 80029a0:	059b      	lsls	r3, r3, #22
 80029a2:	a804      	add	r0, sp, #16
 80029a4:	9404      	str	r4, [sp, #16]
 80029a6:	9209      	str	r2, [sp, #36]	@ 0x24
 80029a8:	940b      	str	r4, [sp, #44]	@ 0x2c
 80029aa:	940c      	str	r4, [sp, #48]	@ 0x30
 80029ac:	9311      	str	r3, [sp, #68]	@ 0x44
 80029ae:	f7fe fd71 	bl	8001494 <HAL_RCC_OscConfig>
 80029b2:	2800      	cmp	r0, #0
 80029b4:	d001      	beq.n	80029ba <SystemClock_Config+0x5c>
 80029b6:	b672      	cpsid	i
 80029b8:	e7fe      	b.n	80029b8 <SystemClock_Config+0x5a>
 80029ba:	2307      	movs	r3, #7
 80029bc:	9002      	str	r0, [sp, #8]
 80029be:	9003      	str	r0, [sp, #12]
 80029c0:	0021      	movs	r1, r4
 80029c2:	4668      	mov	r0, sp
 80029c4:	9300      	str	r3, [sp, #0]
 80029c6:	9401      	str	r4, [sp, #4]
 80029c8:	f7fe ffcc 	bl	8001964 <HAL_RCC_ClockConfig>
 80029cc:	2800      	cmp	r0, #0
 80029ce:	d001      	beq.n	80029d4 <SystemClock_Config+0x76>
 80029d0:	b672      	cpsid	i
 80029d2:	e7fe      	b.n	80029d2 <SystemClock_Config+0x74>
 80029d4:	b012      	add	sp, #72	@ 0x48
 80029d6:	bd10      	pop	{r4, pc}

080029d8 <main>:
 80029d8:	b5f0      	push	{r4, r5, r6, r7, lr}
 80029da:	b08b      	sub	sp, #44	@ 0x2c
 80029dc:	f7fe f862 	bl	8000aa4 <HAL_Init>
 80029e0:	f7ff ffbd 	bl	800295e <SystemClock_Config>
 80029e4:	f7ff fe10 	bl	8002608 <MX_GPIO_Init>
 80029e8:	f000 f8c2 	bl	8002b70 <MX_USART1_UART_Init>
 80029ec:	f000 f8f6 	bl	8002bdc <MX_USART2_UART_Init>
 80029f0:	f7ff fe54 	bl	800269c <MX_I2C1_Init>
 80029f4:	2364      	movs	r3, #100	@ 0x64
 80029f6:	4d42      	ldr	r5, [pc, #264]	@ (8002b00 <main+0x128>)
 80029f8:	21d4      	movs	r1, #212	@ 0xd4
 80029fa:	4a42      	ldr	r2, [pc, #264]	@ (8002b04 <main+0x12c>)
 80029fc:	9300      	str	r3, [sp, #0]
 80029fe:	0028      	movs	r0, r5
 8002a00:	f7ff ff08 	bl	8002814 <lsm6ds_init>
 8002a04:	4b40      	ldr	r3, [pc, #256]	@ (8002b08 <main+0x130>)
 8002a06:	2232      	movs	r2, #50	@ 0x32
 8002a08:	9305      	str	r3, [sp, #20]
 8002a0a:	23fa      	movs	r3, #250	@ 0xfa
 8002a0c:	493f      	ldr	r1, [pc, #252]	@ (8002b0c <main+0x134>)
 8002a0e:	00db      	lsls	r3, r3, #3
 8002a10:	9805      	ldr	r0, [sp, #20]
 8002a12:	f7ff fcff 	bl	8002414 <espAt_init>
 8002a16:	4a3e      	ldr	r2, [pc, #248]	@ (8002b10 <main+0x138>)
 8002a18:	493e      	ldr	r1, [pc, #248]	@ (8002b14 <main+0x13c>)
 8002a1a:	9805      	ldr	r0, [sp, #20]
 8002a1c:	f7ff fd9c 	bl	8002558 <espAt_sendString>
 8002a20:	20c8      	movs	r0, #200	@ 0xc8
 8002a22:	f7fe f865 	bl	8000af0 <HAL_Delay>
 8002a26:	2301      	movs	r3, #1
 8002a28:	493b      	ldr	r1, [pc, #236]	@ (8002b18 <main+0x140>)
 8002a2a:	001a      	movs	r2, r3
 8002a2c:	9805      	ldr	r0, [sp, #20]
 8002a2e:	f7ff fcf5 	bl	800241c <espAt_sendParams>
 8002a32:	20c8      	movs	r0, #200	@ 0xc8
 8002a34:	f7fe f85c 	bl	8000af0 <HAL_Delay>
 8002a38:	0028      	movs	r0, r5
 8002a3a:	f7ff ff4b 	bl	80028d4 <lsm6ds_reset>
 8002a3e:	2110      	movs	r1, #16
 8002a40:	0028      	movs	r0, r5
 8002a42:	f7ff ff16 	bl	8002872 <lsm6ds_setXLOutputDataRate>
 8002a46:	2150      	movs	r1, #80	@ 0x50
 8002a48:	0028      	movs	r0, r5
 8002a4a:	f7ff ff20 	bl	800288e <lsm6ds_setGROutputDataRate>
 8002a4e:	2104      	movs	r1, #4
 8002a50:	0028      	movs	r0, r5
 8002a52:	f7ff ff15 	bl	8002880 <lsm6ds_setXLFullScale>
 8002a56:	210c      	movs	r1, #12
 8002a58:	0028      	movs	r0, r5
 8002a5a:	f7ff ff1f 	bl	800289c <lsm6ds_setGRFullScale>
 8002a5e:	2417      	movs	r4, #23
 8002a60:	ab04      	add	r3, sp, #16
 8002a62:	18e4      	adds	r4, r4, r3
 8002a64:	2300      	movs	r3, #0
 8002a66:	0021      	movs	r1, r4
 8002a68:	0028      	movs	r0, r5
 8002a6a:	7023      	strb	r3, [r4, #0]
 8002a6c:	f7ff ff39 	bl	80028e2 <lsm6ds_newDataAvailableCheck>
 8002a70:	7823      	ldrb	r3, [r4, #0]
 8002a72:	075b      	lsls	r3, r3, #29
 8002a74:	d502      	bpl.n	8002a7c <main+0xa4>
 8002a76:	0028      	movs	r0, r5
 8002a78:	f7ff ff3c 	bl	80028f4 <lsm6ds_updateTemp>
 8002a7c:	7823      	ldrb	r3, [r4, #0]
 8002a7e:	079b      	lsls	r3, r3, #30
 8002a80:	d5ed      	bpl.n	8002a5e <main+0x86>
 8002a82:	0028      	movs	r0, r5
 8002a84:	f7ff ff52 	bl	800292c <lsm6ds_updateGR>
 8002a88:	2314      	movs	r3, #20
 8002a8a:	5ee8      	ldrsh	r0, [r5, r3]
 8002a8c:	f7fd ff02 	bl	8000894 <__aeabi_i2f>
 8002a90:	4922      	ldr	r1, [pc, #136]	@ (8002b1c <main+0x144>)
 8002a92:	f7fd fda1 	bl	80005d8 <__aeabi_fmul>
 8002a96:	f7fd fedd 	bl	8000854 <__aeabi_f2iz>
 8002a9a:	b204      	sxth	r4, r0
 8002a9c:	82ac      	strh	r4, [r5, #20]
 8002a9e:	2318      	movs	r3, #24
 8002aa0:	5ee8      	ldrsh	r0, [r5, r3]
 8002aa2:	f7fd fef7 	bl	8000894 <__aeabi_i2f>
 8002aa6:	491d      	ldr	r1, [pc, #116]	@ (8002b1c <main+0x144>)
 8002aa8:	f7fd fd96 	bl	80005d8 <__aeabi_fmul>
 8002aac:	f7fd fed2 	bl	8000854 <__aeabi_f2iz>
 8002ab0:	b206      	sxth	r6, r0
 8002ab2:	832e      	strh	r6, [r5, #24]
 8002ab4:	2c00      	cmp	r4, #0
 8002ab6:	da0c      	bge.n	8002ad2 <main+0xfa>
 8002ab8:	0020      	movs	r0, r4
 8002aba:	f7fd ff73 	bl	80009a4 <__aeabi_i2d>
 8002abe:	2380      	movs	r3, #128	@ 0x80
 8002ac0:	061b      	lsls	r3, r3, #24
 8002ac2:	18cb      	adds	r3, r1, r3
 8002ac4:	9006      	str	r0, [sp, #24]
 8002ac6:	9307      	str	r3, [sp, #28]
 8002ac8:	9806      	ldr	r0, [sp, #24]
 8002aca:	9907      	ldr	r1, [sp, #28]
 8002acc:	f7fd ff2e 	bl	800092c <__aeabi_d2iz>
 8002ad0:	0004      	movs	r4, r0
 8002ad2:	0037      	movs	r7, r6
 8002ad4:	4377      	muls	r7, r6
 8002ad6:	2e00      	cmp	r6, #0
 8002ad8:	da00      	bge.n	8002adc <main+0x104>
 8002ada:	427f      	negs	r7, r7
 8002adc:	2180      	movs	r1, #128	@ 0x80
 8002ade:	4810      	ldr	r0, [pc, #64]	@ (8002b20 <main+0x148>)
 8002ae0:	0189      	lsls	r1, r1, #6
 8002ae2:	f7fe f90d 	bl	8000d00 <HAL_GPIO_ReadPin>
 8002ae6:	1e03      	subs	r3, r0, #0
 8002ae8:	d1b9      	bne.n	8002a5e <main+0x86>
 8002aea:	4264      	negs	r4, r4
 8002aec:	427f      	negs	r7, r7
 8002aee:	9002      	str	r0, [sp, #8]
 8002af0:	2204      	movs	r2, #4
 8002af2:	490c      	ldr	r1, [pc, #48]	@ (8002b24 <main+0x14c>)
 8002af4:	9805      	ldr	r0, [sp, #20]
 8002af6:	9401      	str	r4, [sp, #4]
 8002af8:	9700      	str	r7, [sp, #0]
 8002afa:	f7ff fc8f 	bl	800241c <espAt_sendParams>
 8002afe:	e7ae      	b.n	8002a5e <main+0x86>
 8002b00:	20000080 	.word	0x20000080
 8002b04:	2000002c 	.word	0x2000002c
 8002b08:	2000009c 	.word	0x2000009c
 8002b0c:	2000013c 	.word	0x2000013c
 8002b10:	08002ecd 	.word	0x08002ecd
 8002b14:	08002ed6 	.word	0x08002ed6
 8002b18:	08002ee1 	.word	0x08002ee1
 8002b1c:	3ca3d70a 	.word	0x3ca3d70a
 8002b20:	50000800 	.word	0x50000800
 8002b24:	08002eec 	.word	0x08002eec

08002b28 <Error_Handler>:
 8002b28:	b672      	cpsid	i
 8002b2a:	e7fe      	b.n	8002b2a <Error_Handler+0x2>

08002b2c <HAL_MspInit>:
 8002b2c:	2101      	movs	r1, #1
 8002b2e:	4b0a      	ldr	r3, [pc, #40]	@ (8002b58 <HAL_MspInit+0x2c>)
 8002b30:	b082      	sub	sp, #8
 8002b32:	6c1a      	ldr	r2, [r3, #64]	@ 0x40
 8002b34:	430a      	orrs	r2, r1
 8002b36:	641a      	str	r2, [r3, #64]	@ 0x40
 8002b38:	6c1a      	ldr	r2, [r3, #64]	@ 0x40
 8002b3a:	400a      	ands	r2, r1
 8002b3c:	2180      	movs	r1, #128	@ 0x80
 8002b3e:	9200      	str	r2, [sp, #0]
 8002b40:	9a00      	ldr	r2, [sp, #0]
 8002b42:	6bda      	ldr	r2, [r3, #60]	@ 0x3c
 8002b44:	0549      	lsls	r1, r1, #21
 8002b46:	430a      	orrs	r2, r1
 8002b48:	63da      	str	r2, [r3, #60]	@ 0x3c
 8002b4a:	6bdb      	ldr	r3, [r3, #60]	@ 0x3c
 8002b4c:	400b      	ands	r3, r1
 8002b4e:	9301      	str	r3, [sp, #4]
 8002b50:	9b01      	ldr	r3, [sp, #4]
 8002b52:	b002      	add	sp, #8
 8002b54:	4770      	bx	lr
 8002b56:	46c0      	nop			@ (mov r8, r8)
 8002b58:	40021000 	.word	0x40021000

08002b5c <NMI_Handler>:
 8002b5c:	e7fe      	b.n	8002b5c <NMI_Handler>

08002b5e <HardFault_Handler>:
 8002b5e:	e7fe      	b.n	8002b5e <HardFault_Handler>

08002b60 <SVC_Handler>:
 8002b60:	4770      	bx	lr

08002b62 <PendSV_Handler>:
 8002b62:	4770      	bx	lr

08002b64 <SysTick_Handler>:
 8002b64:	b510      	push	{r4, lr}
 8002b66:	f7fd ffb1 	bl	8000acc <HAL_IncTick>
 8002b6a:	bd10      	pop	{r4, pc}

08002b6c <SystemInit>:
 8002b6c:	4770      	bx	lr
	...

08002b70 <MX_USART1_UART_Init>:
 8002b70:	b510      	push	{r4, lr}
 8002b72:	4b18      	ldr	r3, [pc, #96]	@ (8002bd4 <MX_USART1_UART_Init+0x64>)
 8002b74:	4c18      	ldr	r4, [pc, #96]	@ (8002bd8 <MX_USART1_UART_Init+0x68>)
 8002b76:	220c      	movs	r2, #12
 8002b78:	6023      	str	r3, [r4, #0]
 8002b7a:	23e1      	movs	r3, #225	@ 0xe1
 8002b7c:	025b      	lsls	r3, r3, #9
 8002b7e:	6063      	str	r3, [r4, #4]
 8002b80:	2300      	movs	r3, #0
 8002b82:	0020      	movs	r0, r4
 8002b84:	60a3      	str	r3, [r4, #8]
 8002b86:	60e3      	str	r3, [r4, #12]
 8002b88:	6123      	str	r3, [r4, #16]
 8002b8a:	6162      	str	r2, [r4, #20]
 8002b8c:	61a3      	str	r3, [r4, #24]
 8002b8e:	61e3      	str	r3, [r4, #28]
 8002b90:	6223      	str	r3, [r4, #32]
 8002b92:	6263      	str	r3, [r4, #36]	@ 0x24
 8002b94:	62a3      	str	r3, [r4, #40]	@ 0x28
 8002b96:	f7ff fb75 	bl	8002284 <HAL_UART_Init>
 8002b9a:	2800      	cmp	r0, #0
 8002b9c:	d001      	beq.n	8002ba2 <MX_USART1_UART_Init+0x32>
 8002b9e:	f7ff ffc3 	bl	8002b28 <Error_Handler>
 8002ba2:	2100      	movs	r1, #0
 8002ba4:	0020      	movs	r0, r4
 8002ba6:	f7ff fbe7 	bl	8002378 <HAL_UARTEx_SetTxFifoThreshold>
 8002baa:	2800      	cmp	r0, #0
 8002bac:	d001      	beq.n	8002bb2 <MX_USART1_UART_Init+0x42>
 8002bae:	f7ff ffbb 	bl	8002b28 <Error_Handler>
 8002bb2:	2100      	movs	r1, #0
 8002bb4:	0020      	movs	r0, r4
 8002bb6:	f7ff fbff 	bl	80023b8 <HAL_UARTEx_SetRxFifoThreshold>
 8002bba:	2800      	cmp	r0, #0
 8002bbc:	d001      	beq.n	8002bc2 <MX_USART1_UART_Init+0x52>
 8002bbe:	f7ff ffb3 	bl	8002b28 <Error_Handler>
 8002bc2:	0020      	movs	r0, r4
 8002bc4:	f7ff fbba 	bl	800233c <HAL_UARTEx_DisableFifoMode>
 8002bc8:	2800      	cmp	r0, #0
 8002bca:	d001      	beq.n	8002bd0 <MX_USART1_UART_Init+0x60>
 8002bcc:	f7ff ffac 	bl	8002b28 <Error_Handler>
 8002bd0:	bd10      	pop	{r4, pc}
 8002bd2:	46c0      	nop			@ (mov r8, r8)
 8002bd4:	40013800 	.word	0x40013800
 8002bd8:	2000013c 	.word	0x2000013c

08002bdc <MX_USART2_UART_Init>:
 8002bdc:	b510      	push	{r4, lr}
 8002bde:	4b18      	ldr	r3, [pc, #96]	@ (8002c40 <MX_USART2_UART_Init+0x64>)
 8002be0:	4c18      	ldr	r4, [pc, #96]	@ (8002c44 <MX_USART2_UART_Init+0x68>)
 8002be2:	220c      	movs	r2, #12
 8002be4:	6023      	str	r3, [r4, #0]
 8002be6:	23e1      	movs	r3, #225	@ 0xe1
 8002be8:	025b      	lsls	r3, r3, #9
 8002bea:	6063      	str	r3, [r4, #4]
 8002bec:	2300      	movs	r3, #0
 8002bee:	0020      	movs	r0, r4
 8002bf0:	60a3      	str	r3, [r4, #8]
 8002bf2:	60e3      	str	r3, [r4, #12]
 8002bf4:	6123      	str	r3, [r4, #16]
 8002bf6:	6162      	str	r2, [r4, #20]
 8002bf8:	61a3      	str	r3, [r4, #24]
 8002bfa:	61e3      	str	r3, [r4, #28]
 8002bfc:	6223      	str	r3, [r4, #32]
 8002bfe:	6263      	str	r3, [r4, #36]	@ 0x24
 8002c00:	62a3      	str	r3, [r4, #40]	@ 0x28
 8002c02:	f7ff fb3f 	bl	8002284 <HAL_UART_Init>
 8002c06:	2800      	cmp	r0, #0
 8002c08:	d001      	beq.n	8002c0e <MX_USART2_UART_Init+0x32>
 8002c0a:	f7ff ff8d 	bl	8002b28 <Error_Handler>
 8002c0e:	2100      	movs	r1, #0
 8002c10:	0020      	movs	r0, r4
 8002c12:	f7ff fbb1 	bl	8002378 <HAL_UARTEx_SetTxFifoThreshold>
 8002c16:	2800      	cmp	r0, #0
 8002c18:	d001      	beq.n	8002c1e <MX_USART2_UART_Init+0x42>
 8002c1a:	f7ff ff85 	bl	8002b28 <Error_Handler>
 8002c1e:	2100      	movs	r1, #0
 8002c20:	0020      	movs	r0, r4
 8002c22:	f7ff fbc9 	bl	80023b8 <HAL_UARTEx_SetRxFifoThreshold>
 8002c26:	2800      	cmp	r0, #0
 8002c28:	d001      	beq.n	8002c2e <MX_USART2_UART_Init+0x52>
 8002c2a:	f7ff ff7d 	bl	8002b28 <Error_Handler>
 8002c2e:	0020      	movs	r0, r4
 8002c30:	f7ff fb84 	bl	800233c <HAL_UARTEx_DisableFifoMode>
 8002c34:	2800      	cmp	r0, #0
 8002c36:	d001      	beq.n	8002c3c <MX_USART2_UART_Init+0x60>
 8002c38:	f7ff ff76 	bl	8002b28 <Error_Handler>
 8002c3c:	bd10      	pop	{r4, pc}
 8002c3e:	46c0      	nop			@ (mov r8, r8)
 8002c40:	40004400 	.word	0x40004400
 8002c44:	200000a8 	.word	0x200000a8

08002c48 <HAL_UART_MspInit>:
 8002c48:	b510      	push	{r4, lr}
 8002c4a:	0004      	movs	r4, r0
 8002c4c:	b096      	sub	sp, #88	@ 0x58
 8002c4e:	2214      	movs	r2, #20
 8002c50:	2100      	movs	r1, #0
 8002c52:	a804      	add	r0, sp, #16
 8002c54:	f000 f8e0 	bl	8002e18 <memset>
 8002c58:	2234      	movs	r2, #52	@ 0x34
 8002c5a:	2100      	movs	r1, #0
 8002c5c:	a809      	add	r0, sp, #36	@ 0x24
 8002c5e:	f000 f8db 	bl	8002e18 <memset>
 8002c62:	6823      	ldr	r3, [r4, #0]
 8002c64:	4a2b      	ldr	r2, [pc, #172]	@ (8002d14 <HAL_UART_MspInit+0xcc>)
 8002c66:	4293      	cmp	r3, r2
 8002c68:	d129      	bne.n	8002cbe <HAL_UART_MspInit+0x76>
 8002c6a:	2301      	movs	r3, #1
 8002c6c:	a809      	add	r0, sp, #36	@ 0x24
 8002c6e:	9309      	str	r3, [sp, #36]	@ 0x24
 8002c70:	f7fe ff3a 	bl	8001ae8 <HAL_RCCEx_PeriphCLKConfig>
 8002c74:	2800      	cmp	r0, #0
 8002c76:	d001      	beq.n	8002c7c <HAL_UART_MspInit+0x34>
 8002c78:	f7ff ff56 	bl	8002b28 <Error_Handler>
 8002c7c:	2180      	movs	r1, #128	@ 0x80
 8002c7e:	4b26      	ldr	r3, [pc, #152]	@ (8002d18 <HAL_UART_MspInit+0xd0>)
 8002c80:	01c9      	lsls	r1, r1, #7
 8002c82:	6c1a      	ldr	r2, [r3, #64]	@ 0x40
 8002c84:	4825      	ldr	r0, [pc, #148]	@ (8002d1c <HAL_UART_MspInit+0xd4>)
 8002c86:	430a      	orrs	r2, r1
 8002c88:	641a      	str	r2, [r3, #64]	@ 0x40
 8002c8a:	6c1a      	ldr	r2, [r3, #64]	@ 0x40
 8002c8c:	400a      	ands	r2, r1
 8002c8e:	2104      	movs	r1, #4
 8002c90:	9200      	str	r2, [sp, #0]
 8002c92:	9a00      	ldr	r2, [sp, #0]
 8002c94:	6b5a      	ldr	r2, [r3, #52]	@ 0x34
 8002c96:	430a      	orrs	r2, r1
 8002c98:	635a      	str	r2, [r3, #52]	@ 0x34
 8002c9a:	6b5b      	ldr	r3, [r3, #52]	@ 0x34
 8002c9c:	400b      	ands	r3, r1
 8002c9e:	9301      	str	r3, [sp, #4]
 8002ca0:	9b01      	ldr	r3, [sp, #4]
 8002ca2:	2330      	movs	r3, #48	@ 0x30
 8002ca4:	9304      	str	r3, [sp, #16]
 8002ca6:	3b2e      	subs	r3, #46	@ 0x2e
 8002ca8:	9305      	str	r3, [sp, #20]
 8002caa:	2300      	movs	r3, #0
 8002cac:	9306      	str	r3, [sp, #24]
 8002cae:	9307      	str	r3, [sp, #28]
 8002cb0:	3301      	adds	r3, #1
 8002cb2:	9308      	str	r3, [sp, #32]
 8002cb4:	a904      	add	r1, sp, #16
 8002cb6:	f7fd ff71 	bl	8000b9c <HAL_GPIO_Init>
 8002cba:	b016      	add	sp, #88	@ 0x58
 8002cbc:	bd10      	pop	{r4, pc}
 8002cbe:	4a18      	ldr	r2, [pc, #96]	@ (8002d20 <HAL_UART_MspInit+0xd8>)
 8002cc0:	4293      	cmp	r3, r2
 8002cc2:	d1fa      	bne.n	8002cba <HAL_UART_MspInit+0x72>
 8002cc4:	2302      	movs	r3, #2
 8002cc6:	a809      	add	r0, sp, #36	@ 0x24
 8002cc8:	9309      	str	r3, [sp, #36]	@ 0x24
 8002cca:	f7fe ff0d 	bl	8001ae8 <HAL_RCCEx_PeriphCLKConfig>
 8002cce:	2800      	cmp	r0, #0
 8002cd0:	d001      	beq.n	8002cd6 <HAL_UART_MspInit+0x8e>
 8002cd2:	f7ff ff29 	bl	8002b28 <Error_Handler>
 8002cd6:	2180      	movs	r1, #128	@ 0x80
 8002cd8:	4b0f      	ldr	r3, [pc, #60]	@ (8002d18 <HAL_UART_MspInit+0xd0>)
 8002cda:	0289      	lsls	r1, r1, #10
 8002cdc:	6bda      	ldr	r2, [r3, #60]	@ 0x3c
 8002cde:	20a0      	movs	r0, #160	@ 0xa0
 8002ce0:	430a      	orrs	r2, r1
 8002ce2:	63da      	str	r2, [r3, #60]	@ 0x3c
 8002ce4:	6bda      	ldr	r2, [r3, #60]	@ 0x3c
 8002ce6:	05c0      	lsls	r0, r0, #23
 8002ce8:	400a      	ands	r2, r1
 8002cea:	9202      	str	r2, [sp, #8]
 8002cec:	9a02      	ldr	r2, [sp, #8]
 8002cee:	2201      	movs	r2, #1
 8002cf0:	6b59      	ldr	r1, [r3, #52]	@ 0x34
 8002cf2:	4311      	orrs	r1, r2
 8002cf4:	6359      	str	r1, [r3, #52]	@ 0x34
 8002cf6:	6b5b      	ldr	r3, [r3, #52]	@ 0x34
 8002cf8:	a904      	add	r1, sp, #16
 8002cfa:	4013      	ands	r3, r2
 8002cfc:	9303      	str	r3, [sp, #12]
 8002cfe:	9b03      	ldr	r3, [sp, #12]
 8002d00:	230c      	movs	r3, #12
 8002d02:	9304      	str	r3, [sp, #16]
 8002d04:	3b0a      	subs	r3, #10
 8002d06:	9305      	str	r3, [sp, #20]
 8002d08:	2300      	movs	r3, #0
 8002d0a:	9208      	str	r2, [sp, #32]
 8002d0c:	9306      	str	r3, [sp, #24]
 8002d0e:	9307      	str	r3, [sp, #28]
 8002d10:	e7d1      	b.n	8002cb6 <HAL_UART_MspInit+0x6e>
 8002d12:	46c0      	nop			@ (mov r8, r8)
 8002d14:	40013800 	.word	0x40013800
 8002d18:	40021000 	.word	0x40021000
 8002d1c:	50000800 	.word	0x50000800
 8002d20:	40004400 	.word	0x40004400

08002d24 <Reset_Handler>:
 8002d24:	480d      	ldr	r0, [pc, #52]	@ (8002d5c <LoopForever+0x2>)
 8002d26:	4685      	mov	sp, r0
 8002d28:	f7ff ff20 	bl	8002b6c <SystemInit>
 8002d2c:	480c      	ldr	r0, [pc, #48]	@ (8002d60 <LoopForever+0x6>)
 8002d2e:	490d      	ldr	r1, [pc, #52]	@ (8002d64 <LoopForever+0xa>)
 8002d30:	4a0d      	ldr	r2, [pc, #52]	@ (8002d68 <LoopForever+0xe>)
 8002d32:	2300      	movs	r3, #0
 8002d34:	e002      	b.n	8002d3c <LoopCopyDataInit>

08002d36 <CopyDataInit>:
 8002d36:	58d4      	ldr	r4, [r2, r3]
 8002d38:	50c4      	str	r4, [r0, r3]
 8002d3a:	3304      	adds	r3, #4

08002d3c <LoopCopyDataInit>:
 8002d3c:	18c4      	adds	r4, r0, r3
 8002d3e:	428c      	cmp	r4, r1
 8002d40:	d3f9      	bcc.n	8002d36 <CopyDataInit>
 8002d42:	4a0a      	ldr	r2, [pc, #40]	@ (8002d6c <LoopForever+0x12>)
 8002d44:	4c0a      	ldr	r4, [pc, #40]	@ (8002d70 <LoopForever+0x16>)
 8002d46:	2300      	movs	r3, #0
 8002d48:	e001      	b.n	8002d4e <LoopFillZerobss>

08002d4a <FillZerobss>:
 8002d4a:	6013      	str	r3, [r2, #0]
 8002d4c:	3204      	adds	r2, #4

08002d4e <LoopFillZerobss>:
 8002d4e:	42a2      	cmp	r2, r4
 8002d50:	d3fb      	bcc.n	8002d4a <FillZerobss>
 8002d52:	f000 f869 	bl	8002e28 <__libc_init_array>
 8002d56:	f7ff fe3f 	bl	80029d8 <main>

08002d5a <LoopForever>:
 8002d5a:	e7fe      	b.n	8002d5a <LoopForever>
 8002d5c:	20009000 	.word	0x20009000
 8002d60:	20000000 	.word	0x20000000
 8002d64:	2000000c 	.word	0x2000000c
 8002d68:	08002f90 	.word	0x08002f90
 8002d6c:	2000000c 	.word	0x2000000c
 8002d70:	200001d0 	.word	0x200001d0

08002d74 <ADC1_COMP_IRQHandler>:
 8002d74:	e7fe      	b.n	8002d74 <ADC1_COMP_IRQHandler>

08002d76 <__itoa>:
 8002d76:	1e93      	subs	r3, r2, #2
 8002d78:	b510      	push	{r4, lr}
 8002d7a:	000c      	movs	r4, r1
 8002d7c:	2b22      	cmp	r3, #34	@ 0x22
 8002d7e:	d904      	bls.n	8002d8a <__itoa+0x14>
 8002d80:	2300      	movs	r3, #0
 8002d82:	001c      	movs	r4, r3
 8002d84:	700b      	strb	r3, [r1, #0]
 8002d86:	0020      	movs	r0, r4
 8002d88:	bd10      	pop	{r4, pc}
 8002d8a:	2a0a      	cmp	r2, #10
 8002d8c:	d109      	bne.n	8002da2 <__itoa+0x2c>
 8002d8e:	2800      	cmp	r0, #0
 8002d90:	da07      	bge.n	8002da2 <__itoa+0x2c>
 8002d92:	232d      	movs	r3, #45	@ 0x2d
 8002d94:	700b      	strb	r3, [r1, #0]
 8002d96:	2101      	movs	r1, #1
 8002d98:	4240      	negs	r0, r0
 8002d9a:	1861      	adds	r1, r4, r1
 8002d9c:	f000 f808 	bl	8002db0 <__utoa>
 8002da0:	e7f1      	b.n	8002d86 <__itoa+0x10>
 8002da2:	2100      	movs	r1, #0
 8002da4:	e7f9      	b.n	8002d9a <__itoa+0x24>

08002da6 <itoa>:
 8002da6:	b510      	push	{r4, lr}
 8002da8:	f7ff ffe5 	bl	8002d76 <__itoa>
 8002dac:	bd10      	pop	{r4, pc}
	...

08002db0 <__utoa>:
 8002db0:	b5f0      	push	{r4, r5, r6, r7, lr}
 8002db2:	000c      	movs	r4, r1
 8002db4:	0016      	movs	r6, r2
 8002db6:	b08d      	sub	sp, #52	@ 0x34
 8002db8:	2225      	movs	r2, #37	@ 0x25
 8002dba:	0007      	movs	r7, r0
 8002dbc:	4915      	ldr	r1, [pc, #84]	@ (8002e14 <__utoa+0x64>)
 8002dbe:	a802      	add	r0, sp, #8
 8002dc0:	f000 f856 	bl	8002e70 <memcpy>
 8002dc4:	1e62      	subs	r2, r4, #1
 8002dc6:	1eb3      	subs	r3, r6, #2
 8002dc8:	2500      	movs	r5, #0
 8002dca:	9201      	str	r2, [sp, #4]
 8002dcc:	2b22      	cmp	r3, #34	@ 0x22
 8002dce:	d904      	bls.n	8002dda <__utoa+0x2a>
 8002dd0:	7025      	strb	r5, [r4, #0]
 8002dd2:	002c      	movs	r4, r5
 8002dd4:	0020      	movs	r0, r4
 8002dd6:	b00d      	add	sp, #52	@ 0x34
 8002dd8:	bdf0      	pop	{r4, r5, r6, r7, pc}
 8002dda:	0038      	movs	r0, r7
 8002ddc:	0031      	movs	r1, r6
 8002dde:	f7fd fa1f 	bl	8000220 <__aeabi_uidivmod>
 8002de2:	000b      	movs	r3, r1
 8002de4:	aa02      	add	r2, sp, #8
 8002de6:	5cd3      	ldrb	r3, [r2, r3]
 8002de8:	9a01      	ldr	r2, [sp, #4]
 8002dea:	0029      	movs	r1, r5
 8002dec:	3501      	adds	r5, #1
 8002dee:	5553      	strb	r3, [r2, r5]
 8002df0:	003b      	movs	r3, r7
 8002df2:	0007      	movs	r7, r0
 8002df4:	429e      	cmp	r6, r3
 8002df6:	d9f0      	bls.n	8002dda <__utoa+0x2a>
 8002df8:	2300      	movs	r3, #0
 8002dfa:	0022      	movs	r2, r4
 8002dfc:	5563      	strb	r3, [r4, r5]
 8002dfe:	000b      	movs	r3, r1
 8002e00:	1ac8      	subs	r0, r1, r3
 8002e02:	4283      	cmp	r3, r0
 8002e04:	dde6      	ble.n	8002dd4 <__utoa+0x24>
 8002e06:	7810      	ldrb	r0, [r2, #0]
 8002e08:	5ce5      	ldrb	r5, [r4, r3]
 8002e0a:	7015      	strb	r5, [r2, #0]
 8002e0c:	54e0      	strb	r0, [r4, r3]
 8002e0e:	3201      	adds	r2, #1
 8002e10:	3b01      	subs	r3, #1
 8002e12:	e7f5      	b.n	8002e00 <__utoa+0x50>
 8002e14:	08002f58 	.word	0x08002f58

08002e18 <memset>:
 8002e18:	0003      	movs	r3, r0
 8002e1a:	1882      	adds	r2, r0, r2
 8002e1c:	4293      	cmp	r3, r2
 8002e1e:	d100      	bne.n	8002e22 <memset+0xa>
 8002e20:	4770      	bx	lr
 8002e22:	7019      	strb	r1, [r3, #0]
 8002e24:	3301      	adds	r3, #1
 8002e26:	e7f9      	b.n	8002e1c <memset+0x4>

08002e28 <__libc_init_array>:
 8002e28:	b570      	push	{r4, r5, r6, lr}
 8002e2a:	2600      	movs	r6, #0
 8002e2c:	4c0c      	ldr	r4, [pc, #48]	@ (8002e60 <__libc_init_array+0x38>)
 8002e2e:	4d0d      	ldr	r5, [pc, #52]	@ (8002e64 <__libc_init_array+0x3c>)
 8002e30:	1b64      	subs	r4, r4, r5
 8002e32:	10a4      	asrs	r4, r4, #2
 8002e34:	42a6      	cmp	r6, r4
 8002e36:	d109      	bne.n	8002e4c <__libc_init_array+0x24>
 8002e38:	2600      	movs	r6, #0
 8002e3a:	f000 f823 	bl	8002e84 <_init>
 8002e3e:	4c0a      	ldr	r4, [pc, #40]	@ (8002e68 <__libc_init_array+0x40>)
 8002e40:	4d0a      	ldr	r5, [pc, #40]	@ (8002e6c <__libc_init_array+0x44>)
 8002e42:	1b64      	subs	r4, r4, r5
 8002e44:	10a4      	asrs	r4, r4, #2
 8002e46:	42a6      	cmp	r6, r4
 8002e48:	d105      	bne.n	8002e56 <__libc_init_array+0x2e>
 8002e4a:	bd70      	pop	{r4, r5, r6, pc}
 8002e4c:	00b3      	lsls	r3, r6, #2
 8002e4e:	58eb      	ldr	r3, [r5, r3]
 8002e50:	4798      	blx	r3
 8002e52:	3601      	adds	r6, #1
 8002e54:	e7ee      	b.n	8002e34 <__libc_init_array+0xc>
 8002e56:	00b3      	lsls	r3, r6, #2
 8002e58:	58eb      	ldr	r3, [r5, r3]
 8002e5a:	4798      	blx	r3
 8002e5c:	3601      	adds	r6, #1
 8002e5e:	e7f2      	b.n	8002e46 <__libc_init_array+0x1e>
 8002e60:	08002f88 	.word	0x08002f88
 8002e64:	08002f88 	.word	0x08002f88
 8002e68:	08002f8c 	.word	0x08002f8c
 8002e6c:	08002f88 	.word	0x08002f88

08002e70 <memcpy>:
 8002e70:	2300      	movs	r3, #0
 8002e72:	b510      	push	{r4, lr}
 8002e74:	429a      	cmp	r2, r3
 8002e76:	d100      	bne.n	8002e7a <memcpy+0xa>
 8002e78:	bd10      	pop	{r4, pc}
 8002e7a:	5ccc      	ldrb	r4, [r1, r3]
 8002e7c:	54c4      	strb	r4, [r0, r3]
 8002e7e:	3301      	adds	r3, #1
 8002e80:	e7f8      	b.n	8002e74 <memcpy+0x4>
	...

08002e84 <_init>:
 8002e84:	b5f8      	push	{r3, r4, r5, r6, r7, lr}
 8002e86:	46c0      	nop			@ (mov r8, r8)
 8002e88:	bcf8      	pop	{r3, r4, r5, r6, r7}
 8002e8a:	bc08      	pop	{r3}
 8002e8c:	469e      	mov	lr, r3
 8002e8e:	4770      	bx	lr

08002e90 <_fini>:
 8002e90:	b5f8      	push	{r3, r4, r5, r6, r7, lr}
 8002e92:	46c0      	nop			@ (mov r8, r8)
 8002e94:	bcf8      	pop	{r3, r4, r5, r6, r7}
 8002e96:	bc08      	pop	{r3}
 8002e98:	469e      	mov	lr, r3
 8002e9a:	4770      	bx	lr
