
airMouse-firmware.elf:     file format elf32-littlearm

Sections:
Idx Name          Size      VMA       LMA       File off  Algn
  0 .isr_vector   000000bc  08000000  08000000  00001000  2**0
                  CONTENTS, ALLOC, LOAD, READONLY, DATA
  1 .text         00005b70  080000bc  080000bc  000010bc  2**2
                  CONTENTS, ALLOC, LOAD, READONLY, CODE
  2 .rodata       00000160  08005c30  08005c30  00006c30  2**3
                  CONTENTS, ALLOC, LOAD, READONLY, DATA
  3 .ARM.extab    00000000  08005d90  08005d90  00007070  2**0
                  CONTENTS
  4 .ARM          00000008  08005d90  08005d90  00006d90  2**2
                  CONTENTS, ALLOC, LOAD, READONLY, DATA
  5 .preinit_array 00000000  08005d98  08005d98  00007070  2**0
                  CONTENTS, ALLOC, LOAD, DATA
  6 .init_array   00000004  08005d98  08005d98  00006d98  2**2
                  CONTENTS, ALLOC, LOAD, READONLY, DATA
  7 .fini_array   00000004  08005d9c  08005d9c  00006d9c  2**2
                  CONTENTS, ALLOC, LOAD, READONLY, DATA
  8 .data         00000070  20000000  08005da0  00007000  2**3
                  CONTENTS, ALLOC, LOAD, DATA
  9 .bss          000002fc  20000070  08005e10  00007070  2**2
                  ALLOC
 10 ._user_heap_stack 00000604  2000036c  08005e10  0000736c  2**0
                  ALLOC
 11 .ARM.attributes 00000028  00000000  00000000  00007070  2**0
                  CONTENTS, READONLY
 12 .comment      00000043  00000000  00000000  00007098  2**0
                  CONTENTS, READONLY
 13 .debug_frame  00000790  00000000  00000000  000070dc  2**2
                  CONTENTS, READONLY, DEBUGGING, OCTETS

Disassembly of section .text:

080000bc <__do_global_dtors_aux>:
 80000bc:	b510      	push	{r4, lr}
 80000be:	4c06      	ldr	r4, [pc, #24]	@ (80000d8 <__do_global_dtors_aux+0x1c>)
 80000c0:	7823      	ldrb	r3, [r4, #0]
 80000c2:	2b00      	cmp	r3, #0
 80000c4:	d107      	bne.n	80000d6 <__do_global_dtors_aux+0x1a>
 80000c6:	4b05      	ldr	r3, [pc, #20]	@ (80000dc <__do_global_dtors_aux+0x20>)
 80000c8:	2b00      	cmp	r3, #0
 80000ca:	d002      	beq.n	80000d2 <__do_global_dtors_aux+0x16>
 80000cc:	4804      	ldr	r0, [pc, #16]	@ (80000e0 <__do_global_dtors_aux+0x24>)
 80000ce:	e000      	b.n	80000d2 <__do_global_dtors_aux+0x16>
 80000d0:	bf00      	nop
 80000d2:	2301      	movs	r3, #1
 80000d4:	7023      	strb	r3, [r4, #0]
 80000d6:	bd10      	pop	{r4, pc}
 80000d8:	20000070 	.word	0x20000070
 80000dc:	00000000 	.word	0x00000000
 80000e0:	08005c14 	.word	0x08005c14

080000e4 <frame_dummy>:
 80000e4:	4b04      	ldr	r3, [pc, #16]	@ (80000f8 <frame_dummy+0x14>)
 80000e6:	b510      	push	{r4, lr}
 80000e8:	2b00      	cmp	r3, #0
 80000ea:	d003      	beq.n	80000f4 <frame_dummy+0x10>
 80000ec:	4903      	ldr	r1, [pc, #12]	@ (80000fc <frame_dummy+0x18>)
 80000ee:	4804      	ldr	r0, [pc, #16]	@ (8000100 <frame_dummy+0x1c>)
 80000f0:	e000      	b.n	80000f4 <frame_dummy+0x10>
 80000f2:	bf00      	nop
 80000f4:	bd10      	pop	{r4, pc}
 80000f6:	46c0      	nop			@ (mov r8, r8)
 80000f8:	00000000 	.word	0x00000000
 80000fc:	20000074 	.word	0x20000074
 8000100:	08005c14 	.word	0x08005c14

08000104 <strlen>:
 8000104:	2300      	movs	r3, #0
 8000106:	5cc2      	ldrb	r2, [r0, r3]
 8000108:	3301      	adds	r3, #1
 800010a:	2a00      	cmp	r2, #0
 800010c:	d1fb      	bne.n	8000106 <strlen+0x2>
 800010e:	1e58      	subs	r0, r3, #1
 8000110:	4770      	bx	lr
	...

08000114 <__udivsi3>:
 8000114:	2200      	movs	r2, #0
 8000116:	0843      	lsrs	r3, r0, #1
 8000118:	428b      	cmp	r3, r1
 800011a:	d374      	bcc.n	8000206 <__udivsi3+0xf2>
 800011c:	0903      	lsrs	r3, r0, #4
 800011e:	428b      	cmp	r3, r1
 8000120:	d35f      	bcc.n	80001e2 <__udivsi3+0xce>
 8000122:	0a03      	lsrs	r3, r0, #8
 8000124:	428b      	cmp	r3, r1
 8000126:	d344      	bcc.n	80001b2 <__udivsi3+0x9e>
 8000128:	0b03      	lsrs	r3, r0, #12
 800012a:	428b      	cmp	r3, r1
 800012c:	d328      	bcc.n	8000180 <__udivsi3+0x6c>
 800012e:	0c03      	lsrs	r3, r0, #16
 8000130:	428b      	cmp	r3, r1
 8000132:	d30d      	bcc.n	8000150 <__udivsi3+0x3c>
 8000134:	22ff      	movs	r2, #255	@ 0xff
 8000136:	0209      	lsls	r1, r1, #8
 8000138:	ba12      	rev	r2, r2
 800013a:	0c03      	lsrs	r3, r0, #16
 800013c:	428b      	cmp	r3, r1
 800013e:	d302      	bcc.n	8000146 <__udivsi3+0x32>
 8000140:	1212      	asrs	r2, r2, #8
 8000142:	0209      	lsls	r1, r1, #8
 8000144:	d065      	beq.n	8000212 <__udivsi3+0xfe>
 8000146:	0b03      	lsrs	r3, r0, #12
 8000148:	428b      	cmp	r3, r1
 800014a:	d319      	bcc.n	8000180 <__udivsi3+0x6c>
 800014c:	e000      	b.n	8000150 <__udivsi3+0x3c>
 800014e:	0a09      	lsrs	r1, r1, #8
 8000150:	0bc3      	lsrs	r3, r0, #15
 8000152:	428b      	cmp	r3, r1
 8000154:	d301      	bcc.n	800015a <__udivsi3+0x46>
 8000156:	03cb      	lsls	r3, r1, #15
 8000158:	1ac0      	subs	r0, r0, r3
 800015a:	4152      	adcs	r2, r2
 800015c:	0b83      	lsrs	r3, r0, #14
 800015e:	428b      	cmp	r3, r1
 8000160:	d301      	bcc.n	8000166 <__udivsi3+0x52>
 8000162:	038b      	lsls	r3, r1, #14
 8000164:	1ac0      	subs	r0, r0, r3
 8000166:	4152      	adcs	r2, r2
 8000168:	0b43      	lsrs	r3, r0, #13
 800016a:	428b      	cmp	r3, r1
 800016c:	d301      	bcc.n	8000172 <__udivsi3+0x5e>
 800016e:	034b      	lsls	r3, r1, #13
 8000170:	1ac0      	subs	r0, r0, r3
 8000172:	4152      	adcs	r2, r2
 8000174:	0b03      	lsrs	r3, r0, #12
 8000176:	428b      	cmp	r3, r1
 8000178:	d301      	bcc.n	800017e <__udivsi3+0x6a>
 800017a:	030b      	lsls	r3, r1, #12
 800017c:	1ac0      	subs	r0, r0, r3
 800017e:	4152      	adcs	r2, r2
 8000180:	0ac3      	lsrs	r3, r0, #11
 8000182:	428b      	cmp	r3, r1
 8000184:	d301      	bcc.n	800018a <__udivsi3+0x76>
 8000186:	02cb      	lsls	r3, r1, #11
 8000188:	1ac0      	subs	r0, r0, r3
 800018a:	4152      	adcs	r2, r2
 800018c:	0a83      	lsrs	r3, r0, #10
 800018e:	428b      	cmp	r3, r1
 8000190:	d301      	bcc.n	8000196 <__udivsi3+0x82>
 8000192:	028b      	lsls	r3, r1, #10
 8000194:	1ac0      	subs	r0, r0, r3
 8000196:	4152      	adcs	r2, r2
 8000198:	0a43      	lsrs	r3, r0, #9
 800019a:	428b      	cmp	r3, r1
 800019c:	d301      	bcc.n	80001a2 <__udivsi3+0x8e>
 800019e:	024b      	lsls	r3, r1, #9
 80001a0:	1ac0      	subs	r0, r0, r3
 80001a2:	4152      	adcs	r2, r2
 80001a4:	0a03      	lsrs	r3, r0, #8
 80001a6:	428b      	cmp	r3, r1
 80001a8:	d301      	bcc.n	80001ae <__udivsi3+0x9a>
 80001aa:	020b      	lsls	r3, r1, #8
 80001ac:	1ac0      	subs	r0, r0, r3
 80001ae:	4152      	adcs	r2, r2
 80001b0:	d2cd      	bcs.n	800014e <__udivsi3+0x3a>
 80001b2:	09c3      	lsrs	r3, r0, #7
 80001b4:	428b      	cmp	r3, r1
 80001b6:	d301      	bcc.n	80001bc <__udivsi3+0xa8>
 80001b8:	01cb      	lsls	r3, r1, #7
 80001ba:	1ac0      	subs	r0, r0, r3
 80001bc:	4152      	adcs	r2, r2
 80001be:	0983      	lsrs	r3, r0, #6
 80001c0:	428b      	cmp	r3, r1
 80001c2:	d301      	bcc.n	80001c8 <__udivsi3+0xb4>
 80001c4:	018b      	lsls	r3, r1, #6
 80001c6:	1ac0      	subs	r0, r0, r3
 80001c8:	4152      	adcs	r2, r2
 80001ca:	0943      	lsrs	r3, r0, #5
 80001cc:	428b      	cmp	r3, r1
 80001ce:	d301      	bcc.n	80001d4 <__udivsi3+0xc0>
 80001d0:	014b      	lsls	r3, r1, #5
 80001d2:	1ac0      	subs	r0, r0, r3
 80001d4:	4152      	adcs	r2, r2
 80001d6:	0903      	lsrs	r3, r0, #4
 80001d8:	428b      	cmp	r3, r1
 80001da:	d301      	bcc.n	80001e0 <__udivsi3+0xcc>
 80001dc:	010b      	lsls	r3, r1, #4
 80001de:	1ac0      	subs	r0, r0, r3
 80001e0:	4152      	adcs	r2, r2
 80001e2:	08c3      	lsrs	r3, r0, #3
 80001e4:	428b      	cmp	r3, r1
 80001e6:	d301      	bcc.n	80001ec <__udivsi3+0xd8>
 80001e8:	00cb      	lsls	r3, r1, #3
 80001ea:	1ac0      	subs	r0, r0, r3
 80001ec:	4152      	adcs	r2, r2
 80001ee:	0883      	lsrs	r3, r0, #2
 80001f0:	428b      	cmp	r3, r1
 80001f2:	d301      	bcc.n	80001f8 <__udivsi3+0xe4>
 80001f4:	008b      	lsls	r3, r1, #2
 80001f6:	1ac0      	subs	r0, r0, r3
 80001f8:	4152      	adcs	r2, r2
 80001fa:	0843      	lsrs	r3, r0, #1
 80001fc:	428b      	cmp	r3, r1
 80001fe:	d301      	bcc.n	8000204 <__udivsi3+0xf0>
 8000200:	004b      	lsls	r3, r1, #1
 8000202:	1ac0      	subs	r0, r0, r3
 8000204:	4152      	adcs	r2, r2
 8000206:	1a41      	subs	r1, r0, r1
 8000208:	d200      	bcs.n	800020c <__udivsi3+0xf8>
 800020a:	4601      	mov	r1, r0
 800020c:	4152      	adcs	r2, r2
 800020e:	4610      	mov	r0, r2
 8000210:	4770      	bx	lr
 8000212:	e7ff      	b.n	8000214 <__udivsi3+0x100>
 8000214:	b501      	push	{r0, lr}
 8000216:	2000      	movs	r0, #0
 8000218:	f000 f8f0 	bl	80003fc <__aeabi_idiv0>
 800021c:	bd02      	pop	{r1, pc}
 800021e:	46c0      	nop			@ (mov r8, r8)

08000220 <__aeabi_uidivmod>:
 8000220:	2900      	cmp	r1, #0
 8000222:	d0f7      	beq.n	8000214 <__udivsi3+0x100>
 8000224:	e776      	b.n	8000114 <__udivsi3>
 8000226:	4770      	bx	lr

08000228 <__divsi3>:
 8000228:	4603      	mov	r3, r0
 800022a:	430b      	orrs	r3, r1
 800022c:	d47f      	bmi.n	800032e <__divsi3+0x106>
 800022e:	2200      	movs	r2, #0
 8000230:	0843      	lsrs	r3, r0, #1
 8000232:	428b      	cmp	r3, r1
 8000234:	d374      	bcc.n	8000320 <__divsi3+0xf8>
 8000236:	0903      	lsrs	r3, r0, #4
 8000238:	428b      	cmp	r3, r1
 800023a:	d35f      	bcc.n	80002fc <__divsi3+0xd4>
 800023c:	0a03      	lsrs	r3, r0, #8
 800023e:	428b      	cmp	r3, r1
 8000240:	d344      	bcc.n	80002cc <__divsi3+0xa4>
 8000242:	0b03      	lsrs	r3, r0, #12
 8000244:	428b      	cmp	r3, r1
 8000246:	d328      	bcc.n	800029a <__divsi3+0x72>
 8000248:	0c03      	lsrs	r3, r0, #16
 800024a:	428b      	cmp	r3, r1
 800024c:	d30d      	bcc.n	800026a <__divsi3+0x42>
 800024e:	22ff      	movs	r2, #255	@ 0xff
 8000250:	0209      	lsls	r1, r1, #8
 8000252:	ba12      	rev	r2, r2
 8000254:	0c03      	lsrs	r3, r0, #16
 8000256:	428b      	cmp	r3, r1
 8000258:	d302      	bcc.n	8000260 <__divsi3+0x38>
 800025a:	1212      	asrs	r2, r2, #8
 800025c:	0209      	lsls	r1, r1, #8
 800025e:	d065      	beq.n	800032c <__divsi3+0x104>
 8000260:	0b03      	lsrs	r3, r0, #12
 8000262:	428b      	cmp	r3, r1
 8000264:	d319      	bcc.n	800029a <__divsi3+0x72>
 8000266:	e000      	b.n	800026a <__divsi3+0x42>
 8000268:	0a09      	lsrs	r1, r1, #8
 800026a:	0bc3      	lsrs	r3, r0, #15
 800026c:	428b      	cmp	r3, r1
 800026e:	d301      	bcc.n	8000274 <__divsi3+0x4c>
 8000270:	03cb      	lsls	r3, r1, #15
 8000272:	1ac0      	subs	r0, r0, r3
 8000274:	4152      	adcs	r2, r2
 8000276:	0b83      	lsrs	r3, r0, #14
 8000278:	428b      	cmp	r3, r1
 800027a:	d301      	bcc.n	8000280 <__divsi3+0x58>
 800027c:	038b      	lsls	r3, r1, #14
 800027e:	1ac0      	subs	r0, r0, r3
 8000280:	4152      	adcs	r2, r2
 8000282:	0b43      	lsrs	r3, r0, #13
 8000284:	428b      	cmp	r3, r1
 8000286:	d301      	bcc.n	800028c <__divsi3+0x64>
 8000288:	034b      	lsls	r3, r1, #13
 800028a:	1ac0      	subs	r0, r0, r3
 800028c:	4152      	adcs	r2, r2
 800028e:	0b03      	lsrs	r3, r0, #12
 8000290:	428b      	cmp	r3, r1
 8000292:	d301      	bcc.n	8000298 <__divsi3+0x70>
 8000294:	030b      	lsls	r3, r1, #12
 8000296:	1ac0      	subs	r0, r0, r3
 8000298:	4152      	adcs	r2, r2
 800029a:	0ac3      	lsrs	r3, r0, #11
 800029c:	428b      	cmp	r3, r1
 800029e:	d301      	bcc.n	80002a4 <__divsi3+0x7c>
 80002a0:	02cb      	lsls	r3, r1, #11
 80002a2:	1ac0      	subs	r0, r0, r3
 80002a4:	4152      	adcs	r2, r2
 80002a6:	0a83      	lsrs	r3, r0, #10
 80002a8:	428b      	cmp	r3, r1
 80002aa:	d301      	bcc.n	80002b0 <__divsi3+0x88>
 80002ac:	028b      	lsls	r3, r1, #10
 80002ae:	1ac0      	subs	r0, r0, r3
 80002b0:	4152      	adcs	r2, r2
 80002b2:	0a43      	lsrs	r3, r0, #9
 80002b4:	428b      	cmp	r3, r1
 80002b6:	d301      	bcc.n	80002bc <__divsi3+0x94>
 80002b8:	024b      	lsls	r3, r1, #9
 80002ba:	1ac0      	subs	r0, r0, r3
 80002bc:	4152      	adcs	r2, r2
 80002be:	0a03      	lsrs	r3, r0, #8
 80002c0:	428b      	cmp	r3, r1
 80002c2:	d301      	bcc.n	80002c8 <__divsi3+0xa0>
 80002c4:	020b      	lsls	r3, r1, #8
 80002c6:	1ac0      	subs	r0, r0, r3
 80002c8:	4152      	adcs	r2, r2
 80002ca:	d2cd      	bcs.n	8000268 <__divsi3+0x40>
 80002cc:	09c3      	lsrs	r3, r0, #7
 80002ce:	428b      	cmp	r3, r1
 80002d0:	d301      	bcc.n	80002d6 <__divsi3+0xae>
 80002d2:	01cb      	lsls	r3, r1, #7
 80002d4:	1ac0      	subs	r0, r0, r3
 80002d6:	4152      	adcs	r2, r2
 80002d8:	0983      	lsrs	r3, r0, #6
 80002da:	428b      	cmp	r3, r1
 80002dc:	d301      	bcc.n	80002e2 <__divsi3+0xba>
 80002de:	018b      	lsls	r3, r1, #6
 80002e0:	1ac0      	subs	r0, r0, r3
 80002e2:	4152      	adcs	r2, r2
 80002e4:	0943      	lsrs	r3, r0, #5
 80002e6:	428b      	cmp	r3, r1
 80002e8:	d301      	bcc.n	80002ee <__divsi3+0xc6>
 80002ea:	014b      	lsls	r3, r1, #5
 80002ec:	1ac0      	subs	r0, r0, r3
 80002ee:	4152      	adcs	r2, r2
 80002f0:	0903      	lsrs	r3, r0, #4
 80002f2:	428b      	cmp	r3, r1
 80002f4:	d301      	bcc.n	80002fa <__divsi3+0xd2>
 80002f6:	010b      	lsls	r3, r1, #4
 80002f8:	1ac0      	subs	r0, r0, r3
 80002fa:	4152      	adcs	r2, r2
 80002fc:	08c3      	lsrs	r3, r0, #3
 80002fe:	428b      	cmp	r3, r1
 8000300:	d301      	bcc.n	8000306 <__divsi3+0xde>
 8000302:	00cb      	lsls	r3, r1, #3
 8000304:	1ac0      	subs	r0, r0, r3
 8000306:	4152      	adcs	r2, r2
 8000308:	0883      	lsrs	r3, r0, #2
 800030a:	428b      	cmp	r3, r1
 800030c:	d301      	bcc.n	8000312 <__divsi3+0xea>
 800030e:	008b      	lsls	r3, r1, #2
 8000310:	1ac0      	subs	r0, r0, r3
 8000312:	4152      	adcs	r2, r2
 8000314:	0843      	lsrs	r3, r0, #1
 8000316:	428b      	cmp	r3, r1
 8000318:	d301      	bcc.n	800031e <__divsi3+0xf6>
 800031a:	004b      	lsls	r3, r1, #1
 800031c:	1ac0      	subs	r0, r0, r3
 800031e:	4152      	adcs	r2, r2
 8000320:	1a41      	subs	r1, r0, r1
 8000322:	d200      	bcs.n	8000326 <__divsi3+0xfe>
 8000324:	4601      	mov	r1, r0
 8000326:	4152      	adcs	r2, r2
 8000328:	4610      	mov	r0, r2
 800032a:	4770      	bx	lr
 800032c:	e05d      	b.n	80003ea <__divsi3+0x1c2>
 800032e:	0fca      	lsrs	r2, r1, #31
 8000330:	d000      	beq.n	8000334 <__divsi3+0x10c>
 8000332:	4249      	negs	r1, r1
 8000334:	1003      	asrs	r3, r0, #32
 8000336:	d300      	bcc.n	800033a <__divsi3+0x112>
 8000338:	4240      	negs	r0, r0
 800033a:	4053      	eors	r3, r2
 800033c:	2200      	movs	r2, #0
 800033e:	469c      	mov	ip, r3
 8000340:	0903      	lsrs	r3, r0, #4
 8000342:	428b      	cmp	r3, r1
 8000344:	d32d      	bcc.n	80003a2 <__divsi3+0x17a>
 8000346:	0a03      	lsrs	r3, r0, #8
 8000348:	428b      	cmp	r3, r1
 800034a:	d312      	bcc.n	8000372 <__divsi3+0x14a>
 800034c:	22fc      	movs	r2, #252	@ 0xfc
 800034e:	0189      	lsls	r1, r1, #6
 8000350:	ba12      	rev	r2, r2
 8000352:	0a03      	lsrs	r3, r0, #8
 8000354:	428b      	cmp	r3, r1
 8000356:	d30c      	bcc.n	8000372 <__divsi3+0x14a>
 8000358:	0189      	lsls	r1, r1, #6
 800035a:	1192      	asrs	r2, r2, #6
 800035c:	428b      	cmp	r3, r1
 800035e:	d308      	bcc.n	8000372 <__divsi3+0x14a>
 8000360:	0189      	lsls	r1, r1, #6
 8000362:	1192      	asrs	r2, r2, #6
 8000364:	428b      	cmp	r3, r1
 8000366:	d304      	bcc.n	8000372 <__divsi3+0x14a>
 8000368:	0189      	lsls	r1, r1, #6
 800036a:	d03a      	beq.n	80003e2 <__divsi3+0x1ba>
 800036c:	1192      	asrs	r2, r2, #6
 800036e:	e000      	b.n	8000372 <__divsi3+0x14a>
 8000370:	0989      	lsrs	r1, r1, #6
 8000372:	09c3      	lsrs	r3, r0, #7
 8000374:	428b      	cmp	r3, r1
 8000376:	d301      	bcc.n	800037c <__divsi3+0x154>
 8000378:	01cb      	lsls	r3, r1, #7
 800037a:	1ac0      	subs	r0, r0, r3
 800037c:	4152      	adcs	r2, r2
 800037e:	0983      	lsrs	r3, r0, #6
 8000380:	428b      	cmp	r3, r1
 8000382:	d301      	bcc.n	8000388 <__divsi3+0x160>
 8000384:	018b      	lsls	r3, r1, #6
 8000386:	1ac0      	subs	r0, r0, r3
 8000388:	4152      	adcs	r2, r2
 800038a:	0943      	lsrs	r3, r0, #5
 800038c:	428b      	cmp	r3, r1
 800038e:	d301      	bcc.n	8000394 <__divsi3+0x16c>
 8000390:	014b      	lsls	r3, r1, #5
 8000392:	1ac0      	subs	r0, r0, r3
 8000394:	4152      	adcs	r2, r2
 8000396:	0903      	lsrs	r3, r0, #4
 8000398:	428b      	cmp	r3, r1
 800039a:	d301      	bcc.n	80003a0 <__divsi3+0x178>
 800039c:	010b      	lsls	r3, r1, #4
 800039e:	1ac0      	subs	r0, r0, r3
 80003a0:	4152      	adcs	r2, r2
 80003a2:	08c3      	lsrs	r3, r0, #3
 80003a4:	428b      	cmp	r3, r1
 80003a6:	d301      	bcc.n	80003ac <__divsi3+0x184>
 80003a8:	00cb      	lsls	r3, r1, #3
 80003aa:	1ac0      	subs	r0, r0, r3
 80003ac:	4152      	adcs	r2, r2
 80003ae:	0883      	lsrs	r3, r0, #2
 80003b0:	428b      	cmp	r3, r1
 80003b2:	d301      	bcc.n	80003b8 <__divsi3+0x190>
 80003b4:	008b      	lsls	r3, r1, #2
 80003b6:	1ac0      	subs	r0, r0, r3
 80003b8:	4152      	adcs	r2, r2
 80003ba:	d2d9      	bcs.n	8000370 <__divsi3+0x148>
 80003bc:	0843      	lsrs	r3, r0, #1
 80003be:	428b      	cmp	r3, r1
 80003c0:	d301      	bcc.n	80003c6 <__divsi3+0x19e>
 80003c2:	004b      	lsls	r3, r1, #1
 80003c4:	1ac0      	subs	r0, r0, r3
 80003c6:	4152      	adcs	r2, r2
 80003c8:	1a41      	subs	r1, r0, r1
 80003ca:	d200      	bcs.n	80003ce <__divsi3+0x1a6>
 80003cc:	4601      	mov	r1, r0
 80003ce:	4663      	mov	r3, ip
 80003d0:	4152      	adcs	r2, r2
 80003d2:	105b      	asrs	r3, r3, #1
 80003d4:	4610      	mov	r0, r2
 80003d6:	d301      	bcc.n	80003dc <__divsi3+0x1b4>
 80003d8:	4240      	negs	r0, r0
 80003da:	2b00      	cmp	r3, #0
 80003dc:	d500      	bpl.n	80003e0 <__divsi3+0x1b8>
 80003de:	4249      	negs	r1, r1
 80003e0:	4770      	bx	lr
 80003e2:	4663      	mov	r3, ip
 80003e4:	105b      	asrs	r3, r3, #1
 80003e6:	d300      	bcc.n	80003ea <__divsi3+0x1c2>
 80003e8:	4240      	negs	r0, r0
 80003ea:	b501      	push	{r0, lr}
 80003ec:	2000      	movs	r0, #0
 80003ee:	f000 f805 	bl	80003fc <__aeabi_idiv0>
 80003f2:	bd02      	pop	{r1, pc}

080003f4 <__aeabi_idivmod>:
 80003f4:	2900      	cmp	r1, #0
 80003f6:	d0f8      	beq.n	80003ea <__divsi3+0x1c2>
 80003f8:	e716      	b.n	8000228 <__divsi3>
 80003fa:	4770      	bx	lr

080003fc <__aeabi_idiv0>:
 80003fc:	4770      	bx	lr
 80003fe:	46c0      	nop			@ (mov r8, r8)

08000400 <__aeabi_cdrcmple>:
 8000400:	4684      	mov	ip, r0
 8000402:	0010      	movs	r0, r2
 8000404:	4662      	mov	r2, ip
 8000406:	468c      	mov	ip, r1
 8000408:	0019      	movs	r1, r3
 800040a:	4663      	mov	r3, ip
 800040c:	e000      	b.n	8000410 <__aeabi_cdcmpeq>
 800040e:	46c0      	nop			@ (mov r8, r8)

08000410 <__aeabi_cdcmpeq>:
 8000410:	b51f      	push	{r0, r1, r2, r3, r4, lr}
 8000412:	f001 f9ff 	bl	8001814 <__ledf2>
 8000416:	2800      	cmp	r0, #0
 8000418:	d401      	bmi.n	800041e <__aeabi_cdcmpeq+0xe>
 800041a:	2100      	movs	r1, #0
 800041c:	42c8      	cmn	r0, r1
 800041e:	bd1f      	pop	{r0, r1, r2, r3, r4, pc}

08000420 <__aeabi_dcmpeq>:
 8000420:	b510      	push	{r4, lr}
 8000422:	f001 f93f 	bl	80016a4 <__eqdf2>
 8000426:	4240      	negs	r0, r0
 8000428:	3001      	adds	r0, #1
 800042a:	bd10      	pop	{r4, pc}

0800042c <__aeabi_dcmplt>:
 800042c:	b510      	push	{r4, lr}
 800042e:	f001 f9f1 	bl	8001814 <__ledf2>
 8000432:	2800      	cmp	r0, #0
 8000434:	db01      	blt.n	800043a <__aeabi_dcmplt+0xe>
 8000436:	2000      	movs	r0, #0
 8000438:	bd10      	pop	{r4, pc}
 800043a:	2001      	movs	r0, #1
 800043c:	bd10      	pop	{r4, pc}
 800043e:	46c0      	nop			@ (mov r8, r8)

08000440 <__aeabi_dcmple>:
 8000440:	b510      	push	{r4, lr}
 8000442:	f001 f9e7 	bl	8001814 <__ledf2>
 8000446:	2800      	cmp	r0, #0
 8000448:	dd01      	ble.n	800044e <__aeabi_dcmple+0xe>
 800044a:	2000      	movs	r0, #0
 800044c:	bd10      	pop	{r4, pc}
 800044e:	2001      	movs	r0, #1
 8000450:	bd10      	pop	{r4, pc}
 8000452:	46c0      	nop			@ (mov r8, r8)

08000454 <__aeabi_dcmpgt>:
 8000454:	b510      	push	{r4, lr}
 8000456:	f001 f969 	bl	800172c <__gedf2>
 800045a:	2800      	cmp	r0, #0
 800045c:	dc01      	bgt.n	8000462 <__aeabi_dcmpgt+0xe>
 800045e:	2000      	movs	r0, #0
 8000460:	bd10      	pop	{r4, pc}
 8000462:	2001      	movs	r0, #1
 8000464:	bd10      	pop	{r4, pc}
 8000466:	46c0      	nop			@ (mov r8, r8)

08000468 <__aeabi_dcmpge>:
 8000468:	b510      	push	{r4, lr}
 800046a:	f001 f95f 	bl	800172c <__gedf2>
 800046e:	2800      	cmp	r0, #0
 8000470:	da01      	bge.n	8000476 <__aeabi_dcmpge+0xe>
 8000472:	2000      	movs	r0, #0
 8000474:	bd10      	pop	{r4, pc}
 8000476:	2001      	movs	r0, #1
 8000478:	bd10      	pop	{r4, pc}
 800047a:	46c0      	nop			@ (mov r8, r8)

0800047c <__aeabi_uldivmod>:
 800047c:	2b00      	cmp	r3, #0
 800047e:	d111      	bne.n	80004a4 <__aeabi_uldivmod+0x28>
 8000480:	2a00      	cmp	r2, #0
 8000482:	d10f      	bne.n	80004a4 <__aeabi_uldivmod+0x28>
 8000484:	2900      	cmp	r1, #0
 8000486:	d100      	bne.n	800048a <__aeabi_uldivmod+0xe>
 8000488:	2800      	cmp	r0, #0
 800048a:	d002      	beq.n	8000492 <__aeabi_uldivmod+0x16>
 800048c:	2100      	movs	r1, #0
 800048e:	43c9      	mvns	r1, r1
 8000490:	0008      	movs	r0, r1
 8000492:	b407      	push	{r0, r1, r2}
 8000494:	4802      	ldr	r0, [pc, #8]	@ (80004a0 <__aeabi_uldivmod+0x24>)
 8000496:	a102      	add	r1, pc, #8	@ (adr r1, 80004a0 <__aeabi_uldivmod+0x24>)
 8000498:	1840      	adds	r0, r0, r1
 800049a:	9002      	str	r0, [sp, #8]
 800049c:	bd03      	pop	{r0, r1, pc}
 800049e:	46c0      	nop			@ (mov r8, r8)
 80004a0:	ffffff5d 	.word	0xffffff5d
 80004a4:	b403      	push	{r0, r1}
 80004a6:	4668      	mov	r0, sp
 80004a8:	b501      	push	{r0, lr}
 80004aa:	9802      	ldr	r0, [sp, #8]
 80004ac:	f000 f806 	bl	80004bc <__udivmoddi4>
 80004b0:	9b01      	ldr	r3, [sp, #4]
 80004b2:	469e      	mov	lr, r3
 80004b4:	b002      	add	sp, #8
 80004b6:	bc0c      	pop	{r2, r3}
 80004b8:	4770      	bx	lr
 80004ba:	46c0      	nop			@ (mov r8, r8)

080004bc <__udivmoddi4>:
 80004bc:	b5f0      	push	{r4, r5, r6, r7, lr}
 80004be:	4657      	mov	r7, sl
 80004c0:	464e      	mov	r6, r9
 80004c2:	4645      	mov	r5, r8
 80004c4:	46de      	mov	lr, fp
 80004c6:	b5e0      	push	{r5, r6, r7, lr}
 80004c8:	0004      	movs	r4, r0
 80004ca:	000d      	movs	r5, r1
 80004cc:	4692      	mov	sl, r2
 80004ce:	4699      	mov	r9, r3
 80004d0:	b083      	sub	sp, #12
 80004d2:	428b      	cmp	r3, r1
 80004d4:	d830      	bhi.n	8000538 <__udivmoddi4+0x7c>
 80004d6:	d02d      	beq.n	8000534 <__udivmoddi4+0x78>
 80004d8:	4649      	mov	r1, r9
 80004da:	4650      	mov	r0, sl
 80004dc:	f002 f91a 	bl	8002714 <__clzdi2>
 80004e0:	0029      	movs	r1, r5
 80004e2:	0006      	movs	r6, r0
 80004e4:	0020      	movs	r0, r4
 80004e6:	f002 f915 	bl	8002714 <__clzdi2>
 80004ea:	1a33      	subs	r3, r6, r0
 80004ec:	4698      	mov	r8, r3
 80004ee:	3b20      	subs	r3, #32
 80004f0:	d434      	bmi.n	800055c <__udivmoddi4+0xa0>
 80004f2:	469b      	mov	fp, r3
 80004f4:	4653      	mov	r3, sl
 80004f6:	465a      	mov	r2, fp
 80004f8:	4093      	lsls	r3, r2
 80004fa:	4642      	mov	r2, r8
 80004fc:	001f      	movs	r7, r3
 80004fe:	4653      	mov	r3, sl
 8000500:	4093      	lsls	r3, r2
 8000502:	001e      	movs	r6, r3
 8000504:	42af      	cmp	r7, r5
 8000506:	d83b      	bhi.n	8000580 <__udivmoddi4+0xc4>
 8000508:	42af      	cmp	r7, r5
 800050a:	d100      	bne.n	800050e <__udivmoddi4+0x52>
 800050c:	e079      	b.n	8000602 <__udivmoddi4+0x146>
 800050e:	465b      	mov	r3, fp
 8000510:	1ba4      	subs	r4, r4, r6
 8000512:	41bd      	sbcs	r5, r7
 8000514:	2b00      	cmp	r3, #0
 8000516:	da00      	bge.n	800051a <__udivmoddi4+0x5e>
 8000518:	e076      	b.n	8000608 <__udivmoddi4+0x14c>
 800051a:	2200      	movs	r2, #0
 800051c:	2300      	movs	r3, #0
 800051e:	9200      	str	r2, [sp, #0]
 8000520:	9301      	str	r3, [sp, #4]
 8000522:	2301      	movs	r3, #1
 8000524:	465a      	mov	r2, fp
 8000526:	4093      	lsls	r3, r2
 8000528:	9301      	str	r3, [sp, #4]
 800052a:	2301      	movs	r3, #1
 800052c:	4642      	mov	r2, r8
 800052e:	4093      	lsls	r3, r2
 8000530:	9300      	str	r3, [sp, #0]
 8000532:	e029      	b.n	8000588 <__udivmoddi4+0xcc>
 8000534:	4282      	cmp	r2, r0
 8000536:	d9cf      	bls.n	80004d8 <__udivmoddi4+0x1c>
 8000538:	2200      	movs	r2, #0
 800053a:	2300      	movs	r3, #0
 800053c:	9200      	str	r2, [sp, #0]
 800053e:	9301      	str	r3, [sp, #4]
 8000540:	9b0c      	ldr	r3, [sp, #48]	@ 0x30
 8000542:	2b00      	cmp	r3, #0
 8000544:	d001      	beq.n	800054a <__udivmoddi4+0x8e>
 8000546:	601c      	str	r4, [r3, #0]
 8000548:	605d      	str	r5, [r3, #4]
 800054a:	9800      	ldr	r0, [sp, #0]
 800054c:	9901      	ldr	r1, [sp, #4]
 800054e:	b003      	add	sp, #12
 8000550:	bcf0      	pop	{r4, r5, r6, r7}
 8000552:	46bb      	mov	fp, r7
 8000554:	46b2      	mov	sl, r6
 8000556:	46a9      	mov	r9, r5
 8000558:	46a0      	mov	r8, r4
 800055a:	bdf0      	pop	{r4, r5, r6, r7, pc}
 800055c:	4642      	mov	r2, r8
 800055e:	469b      	mov	fp, r3
 8000560:	2320      	movs	r3, #32
 8000562:	1a9b      	subs	r3, r3, r2
 8000564:	4652      	mov	r2, sl
 8000566:	40da      	lsrs	r2, r3
 8000568:	4641      	mov	r1, r8
 800056a:	0013      	movs	r3, r2
 800056c:	464a      	mov	r2, r9
 800056e:	408a      	lsls	r2, r1
 8000570:	0017      	movs	r7, r2
 8000572:	4642      	mov	r2, r8
 8000574:	431f      	orrs	r7, r3
 8000576:	4653      	mov	r3, sl
 8000578:	4093      	lsls	r3, r2
 800057a:	001e      	movs	r6, r3
 800057c:	42af      	cmp	r7, r5
 800057e:	d9c3      	bls.n	8000508 <__udivmoddi4+0x4c>
 8000580:	2200      	movs	r2, #0
 8000582:	2300      	movs	r3, #0
 8000584:	9200      	str	r2, [sp, #0]
 8000586:	9301      	str	r3, [sp, #4]
 8000588:	4643      	mov	r3, r8
 800058a:	2b00      	cmp	r3, #0
 800058c:	d0d8      	beq.n	8000540 <__udivmoddi4+0x84>
 800058e:	07fb      	lsls	r3, r7, #31
 8000590:	0872      	lsrs	r2, r6, #1
 8000592:	431a      	orrs	r2, r3
 8000594:	4646      	mov	r6, r8
 8000596:	087b      	lsrs	r3, r7, #1
 8000598:	e00e      	b.n	80005b8 <__udivmoddi4+0xfc>
 800059a:	42ab      	cmp	r3, r5
 800059c:	d101      	bne.n	80005a2 <__udivmoddi4+0xe6>
 800059e:	42a2      	cmp	r2, r4
 80005a0:	d80c      	bhi.n	80005bc <__udivmoddi4+0x100>
 80005a2:	1aa4      	subs	r4, r4, r2
 80005a4:	419d      	sbcs	r5, r3
 80005a6:	2001      	movs	r0, #1
 80005a8:	1924      	adds	r4, r4, r4
 80005aa:	416d      	adcs	r5, r5
 80005ac:	2100      	movs	r1, #0
 80005ae:	3e01      	subs	r6, #1
 80005b0:	1824      	adds	r4, r4, r0
 80005b2:	414d      	adcs	r5, r1
 80005b4:	2e00      	cmp	r6, #0
 80005b6:	d006      	beq.n	80005c6 <__udivmoddi4+0x10a>
 80005b8:	42ab      	cmp	r3, r5
 80005ba:	d9ee      	bls.n	800059a <__udivmoddi4+0xde>
 80005bc:	3e01      	subs	r6, #1
 80005be:	1924      	adds	r4, r4, r4
 80005c0:	416d      	adcs	r5, r5
 80005c2:	2e00      	cmp	r6, #0
 80005c4:	d1f8      	bne.n	80005b8 <__udivmoddi4+0xfc>
 80005c6:	9800      	ldr	r0, [sp, #0]
 80005c8:	9901      	ldr	r1, [sp, #4]
 80005ca:	465b      	mov	r3, fp
 80005cc:	1900      	adds	r0, r0, r4
 80005ce:	4169      	adcs	r1, r5
 80005d0:	2b00      	cmp	r3, #0
 80005d2:	db24      	blt.n	800061e <__udivmoddi4+0x162>
 80005d4:	002b      	movs	r3, r5
 80005d6:	465a      	mov	r2, fp
 80005d8:	4644      	mov	r4, r8
 80005da:	40d3      	lsrs	r3, r2
 80005dc:	002a      	movs	r2, r5
 80005de:	40e2      	lsrs	r2, r4
 80005e0:	001c      	movs	r4, r3
 80005e2:	465b      	mov	r3, fp
 80005e4:	0015      	movs	r5, r2
 80005e6:	2b00      	cmp	r3, #0
 80005e8:	db2a      	blt.n	8000640 <__udivmoddi4+0x184>
 80005ea:	0026      	movs	r6, r4
 80005ec:	409e      	lsls	r6, r3
 80005ee:	0033      	movs	r3, r6
 80005f0:	0026      	movs	r6, r4
 80005f2:	4647      	mov	r7, r8
 80005f4:	40be      	lsls	r6, r7
 80005f6:	0032      	movs	r2, r6
 80005f8:	1a80      	subs	r0, r0, r2
 80005fa:	4199      	sbcs	r1, r3
 80005fc:	9000      	str	r0, [sp, #0]
 80005fe:	9101      	str	r1, [sp, #4]
 8000600:	e79e      	b.n	8000540 <__udivmoddi4+0x84>
 8000602:	42a3      	cmp	r3, r4
 8000604:	d8bc      	bhi.n	8000580 <__udivmoddi4+0xc4>
 8000606:	e782      	b.n	800050e <__udivmoddi4+0x52>
 8000608:	4642      	mov	r2, r8
 800060a:	2320      	movs	r3, #32
 800060c:	2100      	movs	r1, #0
 800060e:	1a9b      	subs	r3, r3, r2
 8000610:	2200      	movs	r2, #0
 8000612:	9100      	str	r1, [sp, #0]
 8000614:	9201      	str	r2, [sp, #4]
 8000616:	2201      	movs	r2, #1
 8000618:	40da      	lsrs	r2, r3
 800061a:	9201      	str	r2, [sp, #4]
 800061c:	e785      	b.n	800052a <__udivmoddi4+0x6e>
 800061e:	4642      	mov	r2, r8
 8000620:	2320      	movs	r3, #32
 8000622:	1a9b      	subs	r3, r3, r2
 8000624:	002a      	movs	r2, r5
 8000626:	4646      	mov	r6, r8
 8000628:	409a      	lsls	r2, r3
 800062a:	0023      	movs	r3, r4
 800062c:	40f3      	lsrs	r3, r6
 800062e:	4644      	mov	r4, r8
 8000630:	4313      	orrs	r3, r2
 8000632:	002a      	movs	r2, r5
 8000634:	40e2      	lsrs	r2, r4
 8000636:	001c      	movs	r4, r3
 8000638:	465b      	mov	r3, fp
 800063a:	0015      	movs	r5, r2
 800063c:	2b00      	cmp	r3, #0
 800063e:	dad4      	bge.n	80005ea <__udivmoddi4+0x12e>
 8000640:	4642      	mov	r2, r8
 8000642:	002f      	movs	r7, r5
 8000644:	2320      	movs	r3, #32
 8000646:	0026      	movs	r6, r4
 8000648:	4097      	lsls	r7, r2
 800064a:	1a9b      	subs	r3, r3, r2
 800064c:	40de      	lsrs	r6, r3
 800064e:	003b      	movs	r3, r7
 8000650:	4333      	orrs	r3, r6
 8000652:	e7cd      	b.n	80005f0 <__udivmoddi4+0x134>

08000654 <__aeabi_fmul>:
 8000654:	b5f0      	push	{r4, r5, r6, r7, lr}
 8000656:	464f      	mov	r7, r9
 8000658:	4646      	mov	r6, r8
 800065a:	46d6      	mov	lr, sl
 800065c:	0243      	lsls	r3, r0, #9
 800065e:	0a5b      	lsrs	r3, r3, #9
 8000660:	0045      	lsls	r5, r0, #1
 8000662:	b5c0      	push	{r6, r7, lr}
 8000664:	4699      	mov	r9, r3
 8000666:	1c0f      	adds	r7, r1, #0
 8000668:	0e2d      	lsrs	r5, r5, #24
 800066a:	0fc6      	lsrs	r6, r0, #31
 800066c:	2d00      	cmp	r5, #0
 800066e:	d100      	bne.n	8000672 <__aeabi_fmul+0x1e>
 8000670:	e088      	b.n	8000784 <__aeabi_fmul+0x130>
 8000672:	2dff      	cmp	r5, #255	@ 0xff
 8000674:	d100      	bne.n	8000678 <__aeabi_fmul+0x24>
 8000676:	e08d      	b.n	8000794 <__aeabi_fmul+0x140>
 8000678:	2280      	movs	r2, #128	@ 0x80
 800067a:	00db      	lsls	r3, r3, #3
 800067c:	04d2      	lsls	r2, r2, #19
 800067e:	431a      	orrs	r2, r3
 8000680:	2300      	movs	r3, #0
 8000682:	4691      	mov	r9, r2
 8000684:	4698      	mov	r8, r3
 8000686:	469a      	mov	sl, r3
 8000688:	3d7f      	subs	r5, #127	@ 0x7f
 800068a:	027c      	lsls	r4, r7, #9
 800068c:	007b      	lsls	r3, r7, #1
 800068e:	0a64      	lsrs	r4, r4, #9
 8000690:	0e1b      	lsrs	r3, r3, #24
 8000692:	0fff      	lsrs	r7, r7, #31
 8000694:	2b00      	cmp	r3, #0
 8000696:	d068      	beq.n	800076a <__aeabi_fmul+0x116>
 8000698:	2bff      	cmp	r3, #255	@ 0xff
 800069a:	d021      	beq.n	80006e0 <__aeabi_fmul+0x8c>
 800069c:	2280      	movs	r2, #128	@ 0x80
 800069e:	00e4      	lsls	r4, r4, #3
 80006a0:	04d2      	lsls	r2, r2, #19
 80006a2:	4314      	orrs	r4, r2
 80006a4:	4642      	mov	r2, r8
 80006a6:	3b7f      	subs	r3, #127	@ 0x7f
 80006a8:	195b      	adds	r3, r3, r5
 80006aa:	2100      	movs	r1, #0
 80006ac:	1c5d      	adds	r5, r3, #1
 80006ae:	2a0a      	cmp	r2, #10
 80006b0:	dc2e      	bgt.n	8000710 <__aeabi_fmul+0xbc>
 80006b2:	407e      	eors	r6, r7
 80006b4:	4642      	mov	r2, r8
 80006b6:	2a02      	cmp	r2, #2
 80006b8:	dc23      	bgt.n	8000702 <__aeabi_fmul+0xae>
 80006ba:	3a01      	subs	r2, #1
 80006bc:	2a01      	cmp	r2, #1
 80006be:	d900      	bls.n	80006c2 <__aeabi_fmul+0x6e>
 80006c0:	e0bd      	b.n	800083e <__aeabi_fmul+0x1ea>
 80006c2:	2902      	cmp	r1, #2
 80006c4:	d06e      	beq.n	80007a4 <__aeabi_fmul+0x150>
 80006c6:	2901      	cmp	r1, #1
 80006c8:	d12c      	bne.n	8000724 <__aeabi_fmul+0xd0>
 80006ca:	2000      	movs	r0, #0
 80006cc:	2200      	movs	r2, #0
 80006ce:	05c0      	lsls	r0, r0, #23
 80006d0:	07f6      	lsls	r6, r6, #31
 80006d2:	4310      	orrs	r0, r2
 80006d4:	4330      	orrs	r0, r6
 80006d6:	bce0      	pop	{r5, r6, r7}
 80006d8:	46ba      	mov	sl, r7
 80006da:	46b1      	mov	r9, r6
 80006dc:	46a8      	mov	r8, r5
 80006de:	bdf0      	pop	{r4, r5, r6, r7, pc}
 80006e0:	002b      	movs	r3, r5
 80006e2:	33ff      	adds	r3, #255	@ 0xff
 80006e4:	2c00      	cmp	r4, #0
 80006e6:	d065      	beq.n	80007b4 <__aeabi_fmul+0x160>
 80006e8:	2203      	movs	r2, #3
 80006ea:	4641      	mov	r1, r8
 80006ec:	4311      	orrs	r1, r2
 80006ee:	0032      	movs	r2, r6
 80006f0:	3501      	adds	r5, #1
 80006f2:	4688      	mov	r8, r1
 80006f4:	407a      	eors	r2, r7
 80006f6:	35ff      	adds	r5, #255	@ 0xff
 80006f8:	290a      	cmp	r1, #10
 80006fa:	dd00      	ble.n	80006fe <__aeabi_fmul+0xaa>
 80006fc:	e0d8      	b.n	80008b0 <__aeabi_fmul+0x25c>
 80006fe:	0016      	movs	r6, r2
 8000700:	2103      	movs	r1, #3
 8000702:	4640      	mov	r0, r8
 8000704:	2201      	movs	r2, #1
 8000706:	4082      	lsls	r2, r0
 8000708:	20a6      	movs	r0, #166	@ 0xa6
 800070a:	00c0      	lsls	r0, r0, #3
 800070c:	4202      	tst	r2, r0
 800070e:	d020      	beq.n	8000752 <__aeabi_fmul+0xfe>
 8000710:	4653      	mov	r3, sl
 8000712:	2b02      	cmp	r3, #2
 8000714:	d046      	beq.n	80007a4 <__aeabi_fmul+0x150>
 8000716:	2b03      	cmp	r3, #3
 8000718:	d100      	bne.n	800071c <__aeabi_fmul+0xc8>
 800071a:	e0bb      	b.n	8000894 <__aeabi_fmul+0x240>
 800071c:	4651      	mov	r1, sl
 800071e:	464c      	mov	r4, r9
 8000720:	2901      	cmp	r1, #1
 8000722:	d0d2      	beq.n	80006ca <__aeabi_fmul+0x76>
 8000724:	002b      	movs	r3, r5
 8000726:	337f      	adds	r3, #127	@ 0x7f
 8000728:	2b00      	cmp	r3, #0
 800072a:	dd70      	ble.n	800080e <__aeabi_fmul+0x1ba>
 800072c:	0762      	lsls	r2, r4, #29
 800072e:	d004      	beq.n	800073a <__aeabi_fmul+0xe6>
 8000730:	220f      	movs	r2, #15
 8000732:	4022      	ands	r2, r4
 8000734:	2a04      	cmp	r2, #4
 8000736:	d000      	beq.n	800073a <__aeabi_fmul+0xe6>
 8000738:	3404      	adds	r4, #4
 800073a:	0122      	lsls	r2, r4, #4
 800073c:	d503      	bpl.n	8000746 <__aeabi_fmul+0xf2>
 800073e:	4b63      	ldr	r3, [pc, #396]	@ (80008cc <__aeabi_fmul+0x278>)
 8000740:	401c      	ands	r4, r3
 8000742:	002b      	movs	r3, r5
 8000744:	3380      	adds	r3, #128	@ 0x80
 8000746:	2bfe      	cmp	r3, #254	@ 0xfe
 8000748:	dc2c      	bgt.n	80007a4 <__aeabi_fmul+0x150>
 800074a:	01a2      	lsls	r2, r4, #6
 800074c:	0a52      	lsrs	r2, r2, #9
 800074e:	b2d8      	uxtb	r0, r3
 8000750:	e7bd      	b.n	80006ce <__aeabi_fmul+0x7a>
 8000752:	2090      	movs	r0, #144	@ 0x90
 8000754:	0080      	lsls	r0, r0, #2
 8000756:	4202      	tst	r2, r0
 8000758:	d127      	bne.n	80007aa <__aeabi_fmul+0x156>
 800075a:	38b9      	subs	r0, #185	@ 0xb9
 800075c:	38ff      	subs	r0, #255	@ 0xff
 800075e:	4210      	tst	r0, r2
 8000760:	d06d      	beq.n	800083e <__aeabi_fmul+0x1ea>
 8000762:	003e      	movs	r6, r7
 8000764:	46a1      	mov	r9, r4
 8000766:	468a      	mov	sl, r1
 8000768:	e7d2      	b.n	8000710 <__aeabi_fmul+0xbc>
 800076a:	2c00      	cmp	r4, #0
 800076c:	d141      	bne.n	80007f2 <__aeabi_fmul+0x19e>
 800076e:	2301      	movs	r3, #1
 8000770:	4642      	mov	r2, r8
 8000772:	431a      	orrs	r2, r3
 8000774:	4690      	mov	r8, r2
 8000776:	002b      	movs	r3, r5
 8000778:	4642      	mov	r2, r8
 800077a:	2101      	movs	r1, #1
 800077c:	1c5d      	adds	r5, r3, #1
 800077e:	2a0a      	cmp	r2, #10
 8000780:	dd97      	ble.n	80006b2 <__aeabi_fmul+0x5e>
 8000782:	e7c5      	b.n	8000710 <__aeabi_fmul+0xbc>
 8000784:	2b00      	cmp	r3, #0
 8000786:	d126      	bne.n	80007d6 <__aeabi_fmul+0x182>
 8000788:	2304      	movs	r3, #4
 800078a:	4698      	mov	r8, r3
 800078c:	3b03      	subs	r3, #3
 800078e:	2500      	movs	r5, #0
 8000790:	469a      	mov	sl, r3
 8000792:	e77a      	b.n	800068a <__aeabi_fmul+0x36>
 8000794:	2b00      	cmp	r3, #0
 8000796:	d118      	bne.n	80007ca <__aeabi_fmul+0x176>
 8000798:	2308      	movs	r3, #8
 800079a:	4698      	mov	r8, r3
 800079c:	3b06      	subs	r3, #6
 800079e:	25ff      	movs	r5, #255	@ 0xff
 80007a0:	469a      	mov	sl, r3
 80007a2:	e772      	b.n	800068a <__aeabi_fmul+0x36>
 80007a4:	20ff      	movs	r0, #255	@ 0xff
 80007a6:	2200      	movs	r2, #0
 80007a8:	e791      	b.n	80006ce <__aeabi_fmul+0x7a>
 80007aa:	2280      	movs	r2, #128	@ 0x80
 80007ac:	2600      	movs	r6, #0
 80007ae:	20ff      	movs	r0, #255	@ 0xff
 80007b0:	03d2      	lsls	r2, r2, #15
 80007b2:	e78c      	b.n	80006ce <__aeabi_fmul+0x7a>
 80007b4:	4641      	mov	r1, r8
 80007b6:	2202      	movs	r2, #2
 80007b8:	3501      	adds	r5, #1
 80007ba:	4311      	orrs	r1, r2
 80007bc:	4688      	mov	r8, r1
 80007be:	35ff      	adds	r5, #255	@ 0xff
 80007c0:	290a      	cmp	r1, #10
 80007c2:	dca5      	bgt.n	8000710 <__aeabi_fmul+0xbc>
 80007c4:	2102      	movs	r1, #2
 80007c6:	407e      	eors	r6, r7
 80007c8:	e774      	b.n	80006b4 <__aeabi_fmul+0x60>
 80007ca:	230c      	movs	r3, #12
 80007cc:	4698      	mov	r8, r3
 80007ce:	3b09      	subs	r3, #9
 80007d0:	25ff      	movs	r5, #255	@ 0xff
 80007d2:	469a      	mov	sl, r3
 80007d4:	e759      	b.n	800068a <__aeabi_fmul+0x36>
 80007d6:	0018      	movs	r0, r3
 80007d8:	f001 ff7e 	bl	80026d8 <__clzsi2>
 80007dc:	464a      	mov	r2, r9
 80007de:	1f43      	subs	r3, r0, #5
 80007e0:	2576      	movs	r5, #118	@ 0x76
 80007e2:	409a      	lsls	r2, r3
 80007e4:	2300      	movs	r3, #0
 80007e6:	426d      	negs	r5, r5
 80007e8:	4691      	mov	r9, r2
 80007ea:	4698      	mov	r8, r3
 80007ec:	469a      	mov	sl, r3
 80007ee:	1a2d      	subs	r5, r5, r0
 80007f0:	e74b      	b.n	800068a <__aeabi_fmul+0x36>
 80007f2:	0020      	movs	r0, r4
 80007f4:	f001 ff70 	bl	80026d8 <__clzsi2>
 80007f8:	4642      	mov	r2, r8
 80007fa:	1f43      	subs	r3, r0, #5
 80007fc:	409c      	lsls	r4, r3
 80007fe:	1a2b      	subs	r3, r5, r0
 8000800:	3b76      	subs	r3, #118	@ 0x76
 8000802:	2100      	movs	r1, #0
 8000804:	1c5d      	adds	r5, r3, #1
 8000806:	2a0a      	cmp	r2, #10
 8000808:	dc00      	bgt.n	800080c <__aeabi_fmul+0x1b8>
 800080a:	e752      	b.n	80006b2 <__aeabi_fmul+0x5e>
 800080c:	e780      	b.n	8000710 <__aeabi_fmul+0xbc>
 800080e:	2201      	movs	r2, #1
 8000810:	1ad3      	subs	r3, r2, r3
 8000812:	2b1b      	cmp	r3, #27
 8000814:	dd00      	ble.n	8000818 <__aeabi_fmul+0x1c4>
 8000816:	e758      	b.n	80006ca <__aeabi_fmul+0x76>
 8000818:	359e      	adds	r5, #158	@ 0x9e
 800081a:	0022      	movs	r2, r4
 800081c:	40ac      	lsls	r4, r5
 800081e:	40da      	lsrs	r2, r3
 8000820:	1e63      	subs	r3, r4, #1
 8000822:	419c      	sbcs	r4, r3
 8000824:	4322      	orrs	r2, r4
 8000826:	0753      	lsls	r3, r2, #29
 8000828:	d004      	beq.n	8000834 <__aeabi_fmul+0x1e0>
 800082a:	230f      	movs	r3, #15
 800082c:	4013      	ands	r3, r2
 800082e:	2b04      	cmp	r3, #4
 8000830:	d000      	beq.n	8000834 <__aeabi_fmul+0x1e0>
 8000832:	3204      	adds	r2, #4
 8000834:	0153      	lsls	r3, r2, #5
 8000836:	d537      	bpl.n	80008a8 <__aeabi_fmul+0x254>
 8000838:	2001      	movs	r0, #1
 800083a:	2200      	movs	r2, #0
 800083c:	e747      	b.n	80006ce <__aeabi_fmul+0x7a>
 800083e:	0c21      	lsrs	r1, r4, #16
 8000840:	464a      	mov	r2, r9
 8000842:	0424      	lsls	r4, r4, #16
 8000844:	0c24      	lsrs	r4, r4, #16
 8000846:	0027      	movs	r7, r4
 8000848:	0c10      	lsrs	r0, r2, #16
 800084a:	0412      	lsls	r2, r2, #16
 800084c:	0c12      	lsrs	r2, r2, #16
 800084e:	4344      	muls	r4, r0
 8000850:	4357      	muls	r7, r2
 8000852:	4348      	muls	r0, r1
 8000854:	4351      	muls	r1, r2
 8000856:	0c3a      	lsrs	r2, r7, #16
 8000858:	1909      	adds	r1, r1, r4
 800085a:	1852      	adds	r2, r2, r1
 800085c:	4294      	cmp	r4, r2
 800085e:	d903      	bls.n	8000868 <__aeabi_fmul+0x214>
 8000860:	2180      	movs	r1, #128	@ 0x80
 8000862:	0249      	lsls	r1, r1, #9
 8000864:	468c      	mov	ip, r1
 8000866:	4460      	add	r0, ip
 8000868:	043f      	lsls	r7, r7, #16
 800086a:	0411      	lsls	r1, r2, #16
 800086c:	0c3f      	lsrs	r7, r7, #16
 800086e:	19c9      	adds	r1, r1, r7
 8000870:	018c      	lsls	r4, r1, #6
 8000872:	1e67      	subs	r7, r4, #1
 8000874:	41bc      	sbcs	r4, r7
 8000876:	0c12      	lsrs	r2, r2, #16
 8000878:	0e89      	lsrs	r1, r1, #26
 800087a:	1812      	adds	r2, r2, r0
 800087c:	430c      	orrs	r4, r1
 800087e:	0192      	lsls	r2, r2, #6
 8000880:	4314      	orrs	r4, r2
 8000882:	0112      	lsls	r2, r2, #4
 8000884:	d50e      	bpl.n	80008a4 <__aeabi_fmul+0x250>
 8000886:	2301      	movs	r3, #1
 8000888:	0862      	lsrs	r2, r4, #1
 800088a:	401c      	ands	r4, r3
 800088c:	4314      	orrs	r4, r2
 800088e:	e749      	b.n	8000724 <__aeabi_fmul+0xd0>
 8000890:	003e      	movs	r6, r7
 8000892:	46a1      	mov	r9, r4
 8000894:	2280      	movs	r2, #128	@ 0x80
 8000896:	464b      	mov	r3, r9
 8000898:	03d2      	lsls	r2, r2, #15
 800089a:	431a      	orrs	r2, r3
 800089c:	0252      	lsls	r2, r2, #9
 800089e:	20ff      	movs	r0, #255	@ 0xff
 80008a0:	0a52      	lsrs	r2, r2, #9
 80008a2:	e714      	b.n	80006ce <__aeabi_fmul+0x7a>
 80008a4:	001d      	movs	r5, r3
 80008a6:	e73d      	b.n	8000724 <__aeabi_fmul+0xd0>
 80008a8:	0192      	lsls	r2, r2, #6
 80008aa:	2000      	movs	r0, #0
 80008ac:	0a52      	lsrs	r2, r2, #9
 80008ae:	e70e      	b.n	80006ce <__aeabi_fmul+0x7a>
 80008b0:	290f      	cmp	r1, #15
 80008b2:	d1ed      	bne.n	8000890 <__aeabi_fmul+0x23c>
 80008b4:	2280      	movs	r2, #128	@ 0x80
 80008b6:	464b      	mov	r3, r9
 80008b8:	03d2      	lsls	r2, r2, #15
 80008ba:	4213      	tst	r3, r2
 80008bc:	d0ea      	beq.n	8000894 <__aeabi_fmul+0x240>
 80008be:	4214      	tst	r4, r2
 80008c0:	d1e8      	bne.n	8000894 <__aeabi_fmul+0x240>
 80008c2:	003e      	movs	r6, r7
 80008c4:	20ff      	movs	r0, #255	@ 0xff
 80008c6:	4322      	orrs	r2, r4
 80008c8:	e701      	b.n	80006ce <__aeabi_fmul+0x7a>
 80008ca:	46c0      	nop			@ (mov r8, r8)
 80008cc:	f7ffffff 	.word	0xf7ffffff

080008d0 <__aeabi_f2iz>:
 80008d0:	0241      	lsls	r1, r0, #9
 80008d2:	0042      	lsls	r2, r0, #1
 80008d4:	0fc3      	lsrs	r3, r0, #31
 80008d6:	0a49      	lsrs	r1, r1, #9
 80008d8:	2000      	movs	r0, #0
 80008da:	0e12      	lsrs	r2, r2, #24
 80008dc:	2a7e      	cmp	r2, #126	@ 0x7e
 80008de:	dd03      	ble.n	80008e8 <__aeabi_f2iz+0x18>
 80008e0:	2a9d      	cmp	r2, #157	@ 0x9d
 80008e2:	dd02      	ble.n	80008ea <__aeabi_f2iz+0x1a>
 80008e4:	4a09      	ldr	r2, [pc, #36]	@ (800090c <__aeabi_f2iz+0x3c>)
 80008e6:	1898      	adds	r0, r3, r2
 80008e8:	4770      	bx	lr
 80008ea:	2080      	movs	r0, #128	@ 0x80
 80008ec:	0400      	lsls	r0, r0, #16
 80008ee:	4301      	orrs	r1, r0
 80008f0:	2a95      	cmp	r2, #149	@ 0x95
 80008f2:	dc07      	bgt.n	8000904 <__aeabi_f2iz+0x34>
 80008f4:	2096      	movs	r0, #150	@ 0x96
 80008f6:	1a82      	subs	r2, r0, r2
 80008f8:	40d1      	lsrs	r1, r2
 80008fa:	4248      	negs	r0, r1
 80008fc:	2b00      	cmp	r3, #0
 80008fe:	d1f3      	bne.n	80008e8 <__aeabi_f2iz+0x18>
 8000900:	0008      	movs	r0, r1
 8000902:	e7f1      	b.n	80008e8 <__aeabi_f2iz+0x18>
 8000904:	3a96      	subs	r2, #150	@ 0x96
 8000906:	4091      	lsls	r1, r2
 8000908:	e7f7      	b.n	80008fa <__aeabi_f2iz+0x2a>
 800090a:	46c0      	nop			@ (mov r8, r8)
 800090c:	7fffffff 	.word	0x7fffffff

08000910 <__aeabi_i2f>:
 8000910:	b570      	push	{r4, r5, r6, lr}
 8000912:	2800      	cmp	r0, #0
 8000914:	d013      	beq.n	800093e <__aeabi_i2f+0x2e>
 8000916:	17c3      	asrs	r3, r0, #31
 8000918:	18c5      	adds	r5, r0, r3
 800091a:	405d      	eors	r5, r3
 800091c:	0fc4      	lsrs	r4, r0, #31
 800091e:	0028      	movs	r0, r5
 8000920:	f001 feda 	bl	80026d8 <__clzsi2>
 8000924:	239e      	movs	r3, #158	@ 0x9e
 8000926:	0001      	movs	r1, r0
 8000928:	1a1b      	subs	r3, r3, r0
 800092a:	2b96      	cmp	r3, #150	@ 0x96
 800092c:	dc0f      	bgt.n	800094e <__aeabi_i2f+0x3e>
 800092e:	2808      	cmp	r0, #8
 8000930:	d034      	beq.n	800099c <__aeabi_i2f+0x8c>
 8000932:	3908      	subs	r1, #8
 8000934:	408d      	lsls	r5, r1
 8000936:	026d      	lsls	r5, r5, #9
 8000938:	0a6d      	lsrs	r5, r5, #9
 800093a:	b2d8      	uxtb	r0, r3
 800093c:	e002      	b.n	8000944 <__aeabi_i2f+0x34>
 800093e:	2400      	movs	r4, #0
 8000940:	2000      	movs	r0, #0
 8000942:	2500      	movs	r5, #0
 8000944:	05c0      	lsls	r0, r0, #23
 8000946:	4328      	orrs	r0, r5
 8000948:	07e4      	lsls	r4, r4, #31
 800094a:	4320      	orrs	r0, r4
 800094c:	bd70      	pop	{r4, r5, r6, pc}
 800094e:	2b99      	cmp	r3, #153	@ 0x99
 8000950:	dc16      	bgt.n	8000980 <__aeabi_i2f+0x70>
 8000952:	1f42      	subs	r2, r0, #5
 8000954:	2805      	cmp	r0, #5
 8000956:	d000      	beq.n	800095a <__aeabi_i2f+0x4a>
 8000958:	4095      	lsls	r5, r2
 800095a:	002a      	movs	r2, r5
 800095c:	4811      	ldr	r0, [pc, #68]	@ (80009a4 <__aeabi_i2f+0x94>)
 800095e:	4002      	ands	r2, r0
 8000960:	076e      	lsls	r6, r5, #29
 8000962:	d009      	beq.n	8000978 <__aeabi_i2f+0x68>
 8000964:	260f      	movs	r6, #15
 8000966:	4035      	ands	r5, r6
 8000968:	2d04      	cmp	r5, #4
 800096a:	d005      	beq.n	8000978 <__aeabi_i2f+0x68>
 800096c:	3204      	adds	r2, #4
 800096e:	0155      	lsls	r5, r2, #5
 8000970:	d502      	bpl.n	8000978 <__aeabi_i2f+0x68>
 8000972:	239f      	movs	r3, #159	@ 0x9f
 8000974:	4002      	ands	r2, r0
 8000976:	1a5b      	subs	r3, r3, r1
 8000978:	0192      	lsls	r2, r2, #6
 800097a:	0a55      	lsrs	r5, r2, #9
 800097c:	b2d8      	uxtb	r0, r3
 800097e:	e7e1      	b.n	8000944 <__aeabi_i2f+0x34>
 8000980:	2205      	movs	r2, #5
 8000982:	1a12      	subs	r2, r2, r0
 8000984:	0028      	movs	r0, r5
 8000986:	40d0      	lsrs	r0, r2
 8000988:	0002      	movs	r2, r0
 800098a:	0008      	movs	r0, r1
 800098c:	301b      	adds	r0, #27
 800098e:	4085      	lsls	r5, r0
 8000990:	0028      	movs	r0, r5
 8000992:	1e45      	subs	r5, r0, #1
 8000994:	41a8      	sbcs	r0, r5
 8000996:	4302      	orrs	r2, r0
 8000998:	0015      	movs	r5, r2
 800099a:	e7de      	b.n	800095a <__aeabi_i2f+0x4a>
 800099c:	026d      	lsls	r5, r5, #9
 800099e:	2096      	movs	r0, #150	@ 0x96
 80009a0:	0a6d      	lsrs	r5, r5, #9
 80009a2:	e7cf      	b.n	8000944 <__aeabi_i2f+0x34>
 80009a4:	fbffffff 	.word	0xfbffffff

080009a8 <__aeabi_dadd>:
 80009a8:	b5f0      	push	{r4, r5, r6, r7, lr}
 80009aa:	4657      	mov	r7, sl
 80009ac:	464e      	mov	r6, r9
 80009ae:	4645      	mov	r5, r8
 80009b0:	46de      	mov	lr, fp
 80009b2:	b5e0      	push	{r5, r6, r7, lr}
 80009b4:	b083      	sub	sp, #12
 80009b6:	9000      	str	r0, [sp, #0]
 80009b8:	9101      	str	r1, [sp, #4]
 80009ba:	030c      	lsls	r4, r1, #12
 80009bc:	004f      	lsls	r7, r1, #1
 80009be:	0fce      	lsrs	r6, r1, #31
 80009c0:	0a61      	lsrs	r1, r4, #9
 80009c2:	9c00      	ldr	r4, [sp, #0]
 80009c4:	031d      	lsls	r5, r3, #12
 80009c6:	0f64      	lsrs	r4, r4, #29
 80009c8:	430c      	orrs	r4, r1
 80009ca:	9900      	ldr	r1, [sp, #0]
 80009cc:	9200      	str	r2, [sp, #0]
 80009ce:	9301      	str	r3, [sp, #4]
 80009d0:	00c8      	lsls	r0, r1, #3
 80009d2:	0059      	lsls	r1, r3, #1
 80009d4:	0d4b      	lsrs	r3, r1, #21
 80009d6:	4699      	mov	r9, r3
 80009d8:	9a00      	ldr	r2, [sp, #0]
 80009da:	9b01      	ldr	r3, [sp, #4]
 80009dc:	0a6d      	lsrs	r5, r5, #9
 80009de:	0fd9      	lsrs	r1, r3, #31
 80009e0:	0f53      	lsrs	r3, r2, #29
 80009e2:	432b      	orrs	r3, r5
 80009e4:	469a      	mov	sl, r3
 80009e6:	9b00      	ldr	r3, [sp, #0]
 80009e8:	0d7f      	lsrs	r7, r7, #21
 80009ea:	00da      	lsls	r2, r3, #3
 80009ec:	4694      	mov	ip, r2
 80009ee:	464a      	mov	r2, r9
 80009f0:	46b0      	mov	r8, r6
 80009f2:	1aba      	subs	r2, r7, r2
 80009f4:	428e      	cmp	r6, r1
 80009f6:	d100      	bne.n	80009fa <__aeabi_dadd+0x52>
 80009f8:	e0b0      	b.n	8000b5c <__aeabi_dadd+0x1b4>
 80009fa:	2a00      	cmp	r2, #0
 80009fc:	dc00      	bgt.n	8000a00 <__aeabi_dadd+0x58>
 80009fe:	e078      	b.n	8000af2 <__aeabi_dadd+0x14a>
 8000a00:	4649      	mov	r1, r9
 8000a02:	2900      	cmp	r1, #0
 8000a04:	d100      	bne.n	8000a08 <__aeabi_dadd+0x60>
 8000a06:	e0e9      	b.n	8000bdc <__aeabi_dadd+0x234>
 8000a08:	49c9      	ldr	r1, [pc, #804]	@ (8000d30 <__aeabi_dadd+0x388>)
 8000a0a:	428f      	cmp	r7, r1
 8000a0c:	d100      	bne.n	8000a10 <__aeabi_dadd+0x68>
 8000a0e:	e195      	b.n	8000d3c <__aeabi_dadd+0x394>
 8000a10:	2501      	movs	r5, #1
 8000a12:	2a38      	cmp	r2, #56	@ 0x38
 8000a14:	dc16      	bgt.n	8000a44 <__aeabi_dadd+0x9c>
 8000a16:	2180      	movs	r1, #128	@ 0x80
 8000a18:	4653      	mov	r3, sl
 8000a1a:	0409      	lsls	r1, r1, #16
 8000a1c:	430b      	orrs	r3, r1
 8000a1e:	469a      	mov	sl, r3
 8000a20:	2a1f      	cmp	r2, #31
 8000a22:	dd00      	ble.n	8000a26 <__aeabi_dadd+0x7e>
 8000a24:	e1e7      	b.n	8000df6 <__aeabi_dadd+0x44e>
 8000a26:	2120      	movs	r1, #32
 8000a28:	4655      	mov	r5, sl
 8000a2a:	1a8b      	subs	r3, r1, r2
 8000a2c:	4661      	mov	r1, ip
 8000a2e:	409d      	lsls	r5, r3
 8000a30:	40d1      	lsrs	r1, r2
 8000a32:	430d      	orrs	r5, r1
 8000a34:	4661      	mov	r1, ip
 8000a36:	4099      	lsls	r1, r3
 8000a38:	1e4b      	subs	r3, r1, #1
 8000a3a:	4199      	sbcs	r1, r3
 8000a3c:	4653      	mov	r3, sl
 8000a3e:	40d3      	lsrs	r3, r2
 8000a40:	430d      	orrs	r5, r1
 8000a42:	1ae4      	subs	r4, r4, r3
 8000a44:	1b45      	subs	r5, r0, r5
 8000a46:	42a8      	cmp	r0, r5
 8000a48:	4180      	sbcs	r0, r0
 8000a4a:	4240      	negs	r0, r0
 8000a4c:	1a24      	subs	r4, r4, r0
 8000a4e:	0223      	lsls	r3, r4, #8
 8000a50:	d400      	bmi.n	8000a54 <__aeabi_dadd+0xac>
 8000a52:	e10f      	b.n	8000c74 <__aeabi_dadd+0x2cc>
 8000a54:	0264      	lsls	r4, r4, #9
 8000a56:	0a64      	lsrs	r4, r4, #9
 8000a58:	2c00      	cmp	r4, #0
 8000a5a:	d100      	bne.n	8000a5e <__aeabi_dadd+0xb6>
 8000a5c:	e139      	b.n	8000cd2 <__aeabi_dadd+0x32a>
 8000a5e:	0020      	movs	r0, r4
 8000a60:	f001 fe3a 	bl	80026d8 <__clzsi2>
 8000a64:	0003      	movs	r3, r0
 8000a66:	3b08      	subs	r3, #8
 8000a68:	2120      	movs	r1, #32
 8000a6a:	0028      	movs	r0, r5
 8000a6c:	1aca      	subs	r2, r1, r3
 8000a6e:	40d0      	lsrs	r0, r2
 8000a70:	409c      	lsls	r4, r3
 8000a72:	0002      	movs	r2, r0
 8000a74:	409d      	lsls	r5, r3
 8000a76:	4322      	orrs	r2, r4
 8000a78:	429f      	cmp	r7, r3
 8000a7a:	dd00      	ble.n	8000a7e <__aeabi_dadd+0xd6>
 8000a7c:	e173      	b.n	8000d66 <__aeabi_dadd+0x3be>
 8000a7e:	1bd8      	subs	r0, r3, r7
 8000a80:	3001      	adds	r0, #1
 8000a82:	1a09      	subs	r1, r1, r0
 8000a84:	002c      	movs	r4, r5
 8000a86:	408d      	lsls	r5, r1
 8000a88:	40c4      	lsrs	r4, r0
 8000a8a:	1e6b      	subs	r3, r5, #1
 8000a8c:	419d      	sbcs	r5, r3
 8000a8e:	0013      	movs	r3, r2
 8000a90:	40c2      	lsrs	r2, r0
 8000a92:	408b      	lsls	r3, r1
 8000a94:	4325      	orrs	r5, r4
 8000a96:	2700      	movs	r7, #0
 8000a98:	0014      	movs	r4, r2
 8000a9a:	431d      	orrs	r5, r3
 8000a9c:	076b      	lsls	r3, r5, #29
 8000a9e:	d009      	beq.n	8000ab4 <__aeabi_dadd+0x10c>
 8000aa0:	230f      	movs	r3, #15
 8000aa2:	402b      	ands	r3, r5
 8000aa4:	2b04      	cmp	r3, #4
 8000aa6:	d005      	beq.n	8000ab4 <__aeabi_dadd+0x10c>
 8000aa8:	1d2b      	adds	r3, r5, #4
 8000aaa:	42ab      	cmp	r3, r5
 8000aac:	41ad      	sbcs	r5, r5
 8000aae:	426d      	negs	r5, r5
 8000ab0:	1964      	adds	r4, r4, r5
 8000ab2:	001d      	movs	r5, r3
 8000ab4:	0223      	lsls	r3, r4, #8
 8000ab6:	d400      	bmi.n	8000aba <__aeabi_dadd+0x112>
 8000ab8:	e12d      	b.n	8000d16 <__aeabi_dadd+0x36e>
 8000aba:	4a9d      	ldr	r2, [pc, #628]	@ (8000d30 <__aeabi_dadd+0x388>)
 8000abc:	3701      	adds	r7, #1
 8000abe:	4297      	cmp	r7, r2
 8000ac0:	d100      	bne.n	8000ac4 <__aeabi_dadd+0x11c>
 8000ac2:	e0d3      	b.n	8000c6c <__aeabi_dadd+0x2c4>
 8000ac4:	4646      	mov	r6, r8
 8000ac6:	499b      	ldr	r1, [pc, #620]	@ (8000d34 <__aeabi_dadd+0x38c>)
 8000ac8:	08ed      	lsrs	r5, r5, #3
 8000aca:	4021      	ands	r1, r4
 8000acc:	074a      	lsls	r2, r1, #29
 8000ace:	432a      	orrs	r2, r5
 8000ad0:	057c      	lsls	r4, r7, #21
 8000ad2:	024d      	lsls	r5, r1, #9
 8000ad4:	0b2d      	lsrs	r5, r5, #12
 8000ad6:	0d64      	lsrs	r4, r4, #21
 8000ad8:	0524      	lsls	r4, r4, #20
 8000ada:	432c      	orrs	r4, r5
 8000adc:	07f6      	lsls	r6, r6, #31
 8000ade:	4334      	orrs	r4, r6
 8000ae0:	0010      	movs	r0, r2
 8000ae2:	0021      	movs	r1, r4
 8000ae4:	b003      	add	sp, #12
 8000ae6:	bcf0      	pop	{r4, r5, r6, r7}
 8000ae8:	46bb      	mov	fp, r7
 8000aea:	46b2      	mov	sl, r6
 8000aec:	46a9      	mov	r9, r5
 8000aee:	46a0      	mov	r8, r4
 8000af0:	bdf0      	pop	{r4, r5, r6, r7, pc}
 8000af2:	2a00      	cmp	r2, #0
 8000af4:	d100      	bne.n	8000af8 <__aeabi_dadd+0x150>
 8000af6:	e084      	b.n	8000c02 <__aeabi_dadd+0x25a>
 8000af8:	464a      	mov	r2, r9
 8000afa:	1bd2      	subs	r2, r2, r7
 8000afc:	2f00      	cmp	r7, #0
 8000afe:	d000      	beq.n	8000b02 <__aeabi_dadd+0x15a>
 8000b00:	e16d      	b.n	8000dde <__aeabi_dadd+0x436>
 8000b02:	0025      	movs	r5, r4
 8000b04:	4305      	orrs	r5, r0
 8000b06:	d100      	bne.n	8000b0a <__aeabi_dadd+0x162>
 8000b08:	e127      	b.n	8000d5a <__aeabi_dadd+0x3b2>
 8000b0a:	1e56      	subs	r6, r2, #1
 8000b0c:	2a01      	cmp	r2, #1
 8000b0e:	d100      	bne.n	8000b12 <__aeabi_dadd+0x16a>
 8000b10:	e23b      	b.n	8000f8a <__aeabi_dadd+0x5e2>
 8000b12:	4d87      	ldr	r5, [pc, #540]	@ (8000d30 <__aeabi_dadd+0x388>)
 8000b14:	42aa      	cmp	r2, r5
 8000b16:	d100      	bne.n	8000b1a <__aeabi_dadd+0x172>
 8000b18:	e26a      	b.n	8000ff0 <__aeabi_dadd+0x648>
 8000b1a:	2501      	movs	r5, #1
 8000b1c:	2e38      	cmp	r6, #56	@ 0x38
 8000b1e:	dc12      	bgt.n	8000b46 <__aeabi_dadd+0x19e>
 8000b20:	0032      	movs	r2, r6
 8000b22:	2a1f      	cmp	r2, #31
 8000b24:	dd00      	ble.n	8000b28 <__aeabi_dadd+0x180>
 8000b26:	e1f8      	b.n	8000f1a <__aeabi_dadd+0x572>
 8000b28:	2620      	movs	r6, #32
 8000b2a:	0025      	movs	r5, r4
 8000b2c:	1ab6      	subs	r6, r6, r2
 8000b2e:	0007      	movs	r7, r0
 8000b30:	4653      	mov	r3, sl
 8000b32:	40b0      	lsls	r0, r6
 8000b34:	40d4      	lsrs	r4, r2
 8000b36:	40b5      	lsls	r5, r6
 8000b38:	40d7      	lsrs	r7, r2
 8000b3a:	1e46      	subs	r6, r0, #1
 8000b3c:	41b0      	sbcs	r0, r6
 8000b3e:	1b1b      	subs	r3, r3, r4
 8000b40:	469a      	mov	sl, r3
 8000b42:	433d      	orrs	r5, r7
 8000b44:	4305      	orrs	r5, r0
 8000b46:	4662      	mov	r2, ip
 8000b48:	1b55      	subs	r5, r2, r5
 8000b4a:	45ac      	cmp	ip, r5
 8000b4c:	4192      	sbcs	r2, r2
 8000b4e:	4653      	mov	r3, sl
 8000b50:	4252      	negs	r2, r2
 8000b52:	000e      	movs	r6, r1
 8000b54:	464f      	mov	r7, r9
 8000b56:	4688      	mov	r8, r1
 8000b58:	1a9c      	subs	r4, r3, r2
 8000b5a:	e778      	b.n	8000a4e <__aeabi_dadd+0xa6>
 8000b5c:	2a00      	cmp	r2, #0
 8000b5e:	dc00      	bgt.n	8000b62 <__aeabi_dadd+0x1ba>
 8000b60:	e08e      	b.n	8000c80 <__aeabi_dadd+0x2d8>
 8000b62:	4649      	mov	r1, r9
 8000b64:	2900      	cmp	r1, #0
 8000b66:	d175      	bne.n	8000c54 <__aeabi_dadd+0x2ac>
 8000b68:	4661      	mov	r1, ip
 8000b6a:	4653      	mov	r3, sl
 8000b6c:	4319      	orrs	r1, r3
 8000b6e:	d100      	bne.n	8000b72 <__aeabi_dadd+0x1ca>
 8000b70:	e0f6      	b.n	8000d60 <__aeabi_dadd+0x3b8>
 8000b72:	1e51      	subs	r1, r2, #1
 8000b74:	2a01      	cmp	r2, #1
 8000b76:	d100      	bne.n	8000b7a <__aeabi_dadd+0x1d2>
 8000b78:	e191      	b.n	8000e9e <__aeabi_dadd+0x4f6>
 8000b7a:	4d6d      	ldr	r5, [pc, #436]	@ (8000d30 <__aeabi_dadd+0x388>)
 8000b7c:	42aa      	cmp	r2, r5
 8000b7e:	d100      	bne.n	8000b82 <__aeabi_dadd+0x1da>
 8000b80:	e0dc      	b.n	8000d3c <__aeabi_dadd+0x394>
 8000b82:	2501      	movs	r5, #1
 8000b84:	2938      	cmp	r1, #56	@ 0x38
 8000b86:	dc14      	bgt.n	8000bb2 <__aeabi_dadd+0x20a>
 8000b88:	000a      	movs	r2, r1
 8000b8a:	2a1f      	cmp	r2, #31
 8000b8c:	dd00      	ble.n	8000b90 <__aeabi_dadd+0x1e8>
 8000b8e:	e1a2      	b.n	8000ed6 <__aeabi_dadd+0x52e>
 8000b90:	2120      	movs	r1, #32
 8000b92:	4653      	mov	r3, sl
 8000b94:	1a89      	subs	r1, r1, r2
 8000b96:	408b      	lsls	r3, r1
 8000b98:	001d      	movs	r5, r3
 8000b9a:	4663      	mov	r3, ip
 8000b9c:	40d3      	lsrs	r3, r2
 8000b9e:	431d      	orrs	r5, r3
 8000ba0:	4663      	mov	r3, ip
 8000ba2:	408b      	lsls	r3, r1
 8000ba4:	0019      	movs	r1, r3
 8000ba6:	1e4b      	subs	r3, r1, #1
 8000ba8:	4199      	sbcs	r1, r3
 8000baa:	4653      	mov	r3, sl
 8000bac:	40d3      	lsrs	r3, r2
 8000bae:	430d      	orrs	r5, r1
 8000bb0:	18e4      	adds	r4, r4, r3
 8000bb2:	182d      	adds	r5, r5, r0
 8000bb4:	4285      	cmp	r5, r0
 8000bb6:	4180      	sbcs	r0, r0
 8000bb8:	4240      	negs	r0, r0
 8000bba:	1824      	adds	r4, r4, r0
 8000bbc:	0223      	lsls	r3, r4, #8
 8000bbe:	d559      	bpl.n	8000c74 <__aeabi_dadd+0x2cc>
 8000bc0:	4b5b      	ldr	r3, [pc, #364]	@ (8000d30 <__aeabi_dadd+0x388>)
 8000bc2:	3701      	adds	r7, #1
 8000bc4:	429f      	cmp	r7, r3
 8000bc6:	d051      	beq.n	8000c6c <__aeabi_dadd+0x2c4>
 8000bc8:	2101      	movs	r1, #1
 8000bca:	4b5a      	ldr	r3, [pc, #360]	@ (8000d34 <__aeabi_dadd+0x38c>)
 8000bcc:	086a      	lsrs	r2, r5, #1
 8000bce:	401c      	ands	r4, r3
 8000bd0:	4029      	ands	r1, r5
 8000bd2:	430a      	orrs	r2, r1
 8000bd4:	07e5      	lsls	r5, r4, #31
 8000bd6:	4315      	orrs	r5, r2
 8000bd8:	0864      	lsrs	r4, r4, #1
 8000bda:	e75f      	b.n	8000a9c <__aeabi_dadd+0xf4>
 8000bdc:	4661      	mov	r1, ip
 8000bde:	4653      	mov	r3, sl
 8000be0:	4319      	orrs	r1, r3
 8000be2:	d100      	bne.n	8000be6 <__aeabi_dadd+0x23e>
 8000be4:	e0bc      	b.n	8000d60 <__aeabi_dadd+0x3b8>
 8000be6:	1e51      	subs	r1, r2, #1
 8000be8:	2a01      	cmp	r2, #1
 8000bea:	d100      	bne.n	8000bee <__aeabi_dadd+0x246>
 8000bec:	e164      	b.n	8000eb8 <__aeabi_dadd+0x510>
 8000bee:	4d50      	ldr	r5, [pc, #320]	@ (8000d30 <__aeabi_dadd+0x388>)
 8000bf0:	42aa      	cmp	r2, r5
 8000bf2:	d100      	bne.n	8000bf6 <__aeabi_dadd+0x24e>
 8000bf4:	e16a      	b.n	8000ecc <__aeabi_dadd+0x524>
 8000bf6:	2501      	movs	r5, #1
 8000bf8:	2938      	cmp	r1, #56	@ 0x38
 8000bfa:	dd00      	ble.n	8000bfe <__aeabi_dadd+0x256>
 8000bfc:	e722      	b.n	8000a44 <__aeabi_dadd+0x9c>
 8000bfe:	000a      	movs	r2, r1
 8000c00:	e70e      	b.n	8000a20 <__aeabi_dadd+0x78>
 8000c02:	4a4d      	ldr	r2, [pc, #308]	@ (8000d38 <__aeabi_dadd+0x390>)
 8000c04:	1c7d      	adds	r5, r7, #1
 8000c06:	4215      	tst	r5, r2
 8000c08:	d000      	beq.n	8000c0c <__aeabi_dadd+0x264>
 8000c0a:	e0d0      	b.n	8000dae <__aeabi_dadd+0x406>
 8000c0c:	0025      	movs	r5, r4
 8000c0e:	4662      	mov	r2, ip
 8000c10:	4653      	mov	r3, sl
 8000c12:	4305      	orrs	r5, r0
 8000c14:	431a      	orrs	r2, r3
 8000c16:	2f00      	cmp	r7, #0
 8000c18:	d000      	beq.n	8000c1c <__aeabi_dadd+0x274>
 8000c1a:	e137      	b.n	8000e8c <__aeabi_dadd+0x4e4>
 8000c1c:	2d00      	cmp	r5, #0
 8000c1e:	d100      	bne.n	8000c22 <__aeabi_dadd+0x27a>
 8000c20:	e1a8      	b.n	8000f74 <__aeabi_dadd+0x5cc>
 8000c22:	2a00      	cmp	r2, #0
 8000c24:	d100      	bne.n	8000c28 <__aeabi_dadd+0x280>
 8000c26:	e16a      	b.n	8000efe <__aeabi_dadd+0x556>
 8000c28:	4663      	mov	r3, ip
 8000c2a:	1ac5      	subs	r5, r0, r3
 8000c2c:	4653      	mov	r3, sl
 8000c2e:	1ae2      	subs	r2, r4, r3
 8000c30:	42a8      	cmp	r0, r5
 8000c32:	419b      	sbcs	r3, r3
 8000c34:	425b      	negs	r3, r3
 8000c36:	1ad3      	subs	r3, r2, r3
 8000c38:	021a      	lsls	r2, r3, #8
 8000c3a:	d400      	bmi.n	8000c3e <__aeabi_dadd+0x296>
 8000c3c:	e203      	b.n	8001046 <__aeabi_dadd+0x69e>
 8000c3e:	4663      	mov	r3, ip
 8000c40:	1a1d      	subs	r5, r3, r0
 8000c42:	45ac      	cmp	ip, r5
 8000c44:	4192      	sbcs	r2, r2
 8000c46:	4653      	mov	r3, sl
 8000c48:	4252      	negs	r2, r2
 8000c4a:	1b1c      	subs	r4, r3, r4
 8000c4c:	000e      	movs	r6, r1
 8000c4e:	4688      	mov	r8, r1
 8000c50:	1aa4      	subs	r4, r4, r2
 8000c52:	e723      	b.n	8000a9c <__aeabi_dadd+0xf4>
 8000c54:	4936      	ldr	r1, [pc, #216]	@ (8000d30 <__aeabi_dadd+0x388>)
 8000c56:	428f      	cmp	r7, r1
 8000c58:	d070      	beq.n	8000d3c <__aeabi_dadd+0x394>
 8000c5a:	2501      	movs	r5, #1
 8000c5c:	2a38      	cmp	r2, #56	@ 0x38
 8000c5e:	dca8      	bgt.n	8000bb2 <__aeabi_dadd+0x20a>
 8000c60:	2180      	movs	r1, #128	@ 0x80
 8000c62:	4653      	mov	r3, sl
 8000c64:	0409      	lsls	r1, r1, #16
 8000c66:	430b      	orrs	r3, r1
 8000c68:	469a      	mov	sl, r3
 8000c6a:	e78e      	b.n	8000b8a <__aeabi_dadd+0x1e2>
 8000c6c:	003c      	movs	r4, r7
 8000c6e:	2500      	movs	r5, #0
 8000c70:	2200      	movs	r2, #0
 8000c72:	e731      	b.n	8000ad8 <__aeabi_dadd+0x130>
 8000c74:	2307      	movs	r3, #7
 8000c76:	402b      	ands	r3, r5
 8000c78:	2b00      	cmp	r3, #0
 8000c7a:	d000      	beq.n	8000c7e <__aeabi_dadd+0x2d6>
 8000c7c:	e710      	b.n	8000aa0 <__aeabi_dadd+0xf8>
 8000c7e:	e093      	b.n	8000da8 <__aeabi_dadd+0x400>
 8000c80:	2a00      	cmp	r2, #0
 8000c82:	d074      	beq.n	8000d6e <__aeabi_dadd+0x3c6>
 8000c84:	464a      	mov	r2, r9
 8000c86:	1bd2      	subs	r2, r2, r7
 8000c88:	2f00      	cmp	r7, #0
 8000c8a:	d100      	bne.n	8000c8e <__aeabi_dadd+0x2e6>
 8000c8c:	e0c7      	b.n	8000e1e <__aeabi_dadd+0x476>
 8000c8e:	4928      	ldr	r1, [pc, #160]	@ (8000d30 <__aeabi_dadd+0x388>)
 8000c90:	4589      	cmp	r9, r1
 8000c92:	d100      	bne.n	8000c96 <__aeabi_dadd+0x2ee>
 8000c94:	e185      	b.n	8000fa2 <__aeabi_dadd+0x5fa>
 8000c96:	2501      	movs	r5, #1
 8000c98:	2a38      	cmp	r2, #56	@ 0x38
 8000c9a:	dc12      	bgt.n	8000cc2 <__aeabi_dadd+0x31a>
 8000c9c:	2180      	movs	r1, #128	@ 0x80
 8000c9e:	0409      	lsls	r1, r1, #16
 8000ca0:	430c      	orrs	r4, r1
 8000ca2:	2a1f      	cmp	r2, #31
 8000ca4:	dd00      	ble.n	8000ca8 <__aeabi_dadd+0x300>
 8000ca6:	e1ab      	b.n	8001000 <__aeabi_dadd+0x658>
 8000ca8:	2120      	movs	r1, #32
 8000caa:	0025      	movs	r5, r4
 8000cac:	1a89      	subs	r1, r1, r2
 8000cae:	0007      	movs	r7, r0
 8000cb0:	4088      	lsls	r0, r1
 8000cb2:	408d      	lsls	r5, r1
 8000cb4:	40d7      	lsrs	r7, r2
 8000cb6:	1e41      	subs	r1, r0, #1
 8000cb8:	4188      	sbcs	r0, r1
 8000cba:	40d4      	lsrs	r4, r2
 8000cbc:	433d      	orrs	r5, r7
 8000cbe:	4305      	orrs	r5, r0
 8000cc0:	44a2      	add	sl, r4
 8000cc2:	4465      	add	r5, ip
 8000cc4:	4565      	cmp	r5, ip
 8000cc6:	4192      	sbcs	r2, r2
 8000cc8:	4252      	negs	r2, r2
 8000cca:	4452      	add	r2, sl
 8000ccc:	0014      	movs	r4, r2
 8000cce:	464f      	mov	r7, r9
 8000cd0:	e774      	b.n	8000bbc <__aeabi_dadd+0x214>
 8000cd2:	0028      	movs	r0, r5
 8000cd4:	f001 fd00 	bl	80026d8 <__clzsi2>
 8000cd8:	0003      	movs	r3, r0
 8000cda:	3318      	adds	r3, #24
 8000cdc:	2b1f      	cmp	r3, #31
 8000cde:	dc00      	bgt.n	8000ce2 <__aeabi_dadd+0x33a>
 8000ce0:	e6c2      	b.n	8000a68 <__aeabi_dadd+0xc0>
 8000ce2:	002a      	movs	r2, r5
 8000ce4:	3808      	subs	r0, #8
 8000ce6:	4082      	lsls	r2, r0
 8000ce8:	429f      	cmp	r7, r3
 8000cea:	dd00      	ble.n	8000cee <__aeabi_dadd+0x346>
 8000cec:	e0a9      	b.n	8000e42 <__aeabi_dadd+0x49a>
 8000cee:	1bdb      	subs	r3, r3, r7
 8000cf0:	1c58      	adds	r0, r3, #1
 8000cf2:	281f      	cmp	r0, #31
 8000cf4:	dc00      	bgt.n	8000cf8 <__aeabi_dadd+0x350>
 8000cf6:	e1ac      	b.n	8001052 <__aeabi_dadd+0x6aa>
 8000cf8:	0015      	movs	r5, r2
 8000cfa:	3b1f      	subs	r3, #31
 8000cfc:	40dd      	lsrs	r5, r3
 8000cfe:	2820      	cmp	r0, #32
 8000d00:	d005      	beq.n	8000d0e <__aeabi_dadd+0x366>
 8000d02:	2340      	movs	r3, #64	@ 0x40
 8000d04:	1a1b      	subs	r3, r3, r0
 8000d06:	409a      	lsls	r2, r3
 8000d08:	1e53      	subs	r3, r2, #1
 8000d0a:	419a      	sbcs	r2, r3
 8000d0c:	4315      	orrs	r5, r2
 8000d0e:	2307      	movs	r3, #7
 8000d10:	2700      	movs	r7, #0
 8000d12:	402b      	ands	r3, r5
 8000d14:	e7b0      	b.n	8000c78 <__aeabi_dadd+0x2d0>
 8000d16:	08ed      	lsrs	r5, r5, #3
 8000d18:	4b05      	ldr	r3, [pc, #20]	@ (8000d30 <__aeabi_dadd+0x388>)
 8000d1a:	0762      	lsls	r2, r4, #29
 8000d1c:	432a      	orrs	r2, r5
 8000d1e:	08e4      	lsrs	r4, r4, #3
 8000d20:	429f      	cmp	r7, r3
 8000d22:	d00f      	beq.n	8000d44 <__aeabi_dadd+0x39c>
 8000d24:	0324      	lsls	r4, r4, #12
 8000d26:	0b25      	lsrs	r5, r4, #12
 8000d28:	057c      	lsls	r4, r7, #21
 8000d2a:	0d64      	lsrs	r4, r4, #21
 8000d2c:	e6d4      	b.n	8000ad8 <__aeabi_dadd+0x130>
 8000d2e:	46c0      	nop			@ (mov r8, r8)
 8000d30:	000007ff 	.word	0x000007ff
 8000d34:	ff7fffff 	.word	0xff7fffff
 8000d38:	000007fe 	.word	0x000007fe
 8000d3c:	08c0      	lsrs	r0, r0, #3
 8000d3e:	0762      	lsls	r2, r4, #29
 8000d40:	4302      	orrs	r2, r0
 8000d42:	08e4      	lsrs	r4, r4, #3
 8000d44:	0013      	movs	r3, r2
 8000d46:	4323      	orrs	r3, r4
 8000d48:	d100      	bne.n	8000d4c <__aeabi_dadd+0x3a4>
 8000d4a:	e186      	b.n	800105a <__aeabi_dadd+0x6b2>
 8000d4c:	2580      	movs	r5, #128	@ 0x80
 8000d4e:	032d      	lsls	r5, r5, #12
 8000d50:	4325      	orrs	r5, r4
 8000d52:	032d      	lsls	r5, r5, #12
 8000d54:	4cc3      	ldr	r4, [pc, #780]	@ (8001064 <__aeabi_dadd+0x6bc>)
 8000d56:	0b2d      	lsrs	r5, r5, #12
 8000d58:	e6be      	b.n	8000ad8 <__aeabi_dadd+0x130>
 8000d5a:	4660      	mov	r0, ip
 8000d5c:	4654      	mov	r4, sl
 8000d5e:	000e      	movs	r6, r1
 8000d60:	0017      	movs	r7, r2
 8000d62:	08c5      	lsrs	r5, r0, #3
 8000d64:	e7d8      	b.n	8000d18 <__aeabi_dadd+0x370>
 8000d66:	4cc0      	ldr	r4, [pc, #768]	@ (8001068 <__aeabi_dadd+0x6c0>)
 8000d68:	1aff      	subs	r7, r7, r3
 8000d6a:	4014      	ands	r4, r2
 8000d6c:	e696      	b.n	8000a9c <__aeabi_dadd+0xf4>
 8000d6e:	4abf      	ldr	r2, [pc, #764]	@ (800106c <__aeabi_dadd+0x6c4>)
 8000d70:	1c79      	adds	r1, r7, #1
 8000d72:	4211      	tst	r1, r2
 8000d74:	d16b      	bne.n	8000e4e <__aeabi_dadd+0x4a6>
 8000d76:	0022      	movs	r2, r4
 8000d78:	4302      	orrs	r2, r0
 8000d7a:	2f00      	cmp	r7, #0
 8000d7c:	d000      	beq.n	8000d80 <__aeabi_dadd+0x3d8>
 8000d7e:	e0db      	b.n	8000f38 <__aeabi_dadd+0x590>
 8000d80:	2a00      	cmp	r2, #0
 8000d82:	d100      	bne.n	8000d86 <__aeabi_dadd+0x3de>
 8000d84:	e12d      	b.n	8000fe2 <__aeabi_dadd+0x63a>
 8000d86:	4662      	mov	r2, ip
 8000d88:	4653      	mov	r3, sl
 8000d8a:	431a      	orrs	r2, r3
 8000d8c:	d100      	bne.n	8000d90 <__aeabi_dadd+0x3e8>
 8000d8e:	e0b6      	b.n	8000efe <__aeabi_dadd+0x556>
 8000d90:	4663      	mov	r3, ip
 8000d92:	18c5      	adds	r5, r0, r3
 8000d94:	4285      	cmp	r5, r0
 8000d96:	4180      	sbcs	r0, r0
 8000d98:	4454      	add	r4, sl
 8000d9a:	4240      	negs	r0, r0
 8000d9c:	1824      	adds	r4, r4, r0
 8000d9e:	0223      	lsls	r3, r4, #8
 8000da0:	d502      	bpl.n	8000da8 <__aeabi_dadd+0x400>
 8000da2:	000f      	movs	r7, r1
 8000da4:	4bb0      	ldr	r3, [pc, #704]	@ (8001068 <__aeabi_dadd+0x6c0>)
 8000da6:	401c      	ands	r4, r3
 8000da8:	003a      	movs	r2, r7
 8000daa:	0028      	movs	r0, r5
 8000dac:	e7d8      	b.n	8000d60 <__aeabi_dadd+0x3b8>
 8000dae:	4662      	mov	r2, ip
 8000db0:	1a85      	subs	r5, r0, r2
 8000db2:	42a8      	cmp	r0, r5
 8000db4:	4192      	sbcs	r2, r2
 8000db6:	4653      	mov	r3, sl
 8000db8:	4252      	negs	r2, r2
 8000dba:	4691      	mov	r9, r2
 8000dbc:	1ae3      	subs	r3, r4, r3
 8000dbe:	001a      	movs	r2, r3
 8000dc0:	464b      	mov	r3, r9
 8000dc2:	1ad2      	subs	r2, r2, r3
 8000dc4:	0013      	movs	r3, r2
 8000dc6:	4691      	mov	r9, r2
 8000dc8:	021a      	lsls	r2, r3, #8
 8000dca:	d454      	bmi.n	8000e76 <__aeabi_dadd+0x4ce>
 8000dcc:	464a      	mov	r2, r9
 8000dce:	464c      	mov	r4, r9
 8000dd0:	432a      	orrs	r2, r5
 8000dd2:	d000      	beq.n	8000dd6 <__aeabi_dadd+0x42e>
 8000dd4:	e640      	b.n	8000a58 <__aeabi_dadd+0xb0>
 8000dd6:	2600      	movs	r6, #0
 8000dd8:	2400      	movs	r4, #0
 8000dda:	2500      	movs	r5, #0
 8000ddc:	e67c      	b.n	8000ad8 <__aeabi_dadd+0x130>
 8000dde:	4da1      	ldr	r5, [pc, #644]	@ (8001064 <__aeabi_dadd+0x6bc>)
 8000de0:	45a9      	cmp	r9, r5
 8000de2:	d100      	bne.n	8000de6 <__aeabi_dadd+0x43e>
 8000de4:	e090      	b.n	8000f08 <__aeabi_dadd+0x560>
 8000de6:	2501      	movs	r5, #1
 8000de8:	2a38      	cmp	r2, #56	@ 0x38
 8000dea:	dd00      	ble.n	8000dee <__aeabi_dadd+0x446>
 8000dec:	e6ab      	b.n	8000b46 <__aeabi_dadd+0x19e>
 8000dee:	2580      	movs	r5, #128	@ 0x80
 8000df0:	042d      	lsls	r5, r5, #16
 8000df2:	432c      	orrs	r4, r5
 8000df4:	e695      	b.n	8000b22 <__aeabi_dadd+0x17a>
 8000df6:	0011      	movs	r1, r2
 8000df8:	4655      	mov	r5, sl
 8000dfa:	3920      	subs	r1, #32
 8000dfc:	40cd      	lsrs	r5, r1
 8000dfe:	46a9      	mov	r9, r5
 8000e00:	2a20      	cmp	r2, #32
 8000e02:	d006      	beq.n	8000e12 <__aeabi_dadd+0x46a>
 8000e04:	2140      	movs	r1, #64	@ 0x40
 8000e06:	4653      	mov	r3, sl
 8000e08:	1a8a      	subs	r2, r1, r2
 8000e0a:	4093      	lsls	r3, r2
 8000e0c:	4662      	mov	r2, ip
 8000e0e:	431a      	orrs	r2, r3
 8000e10:	4694      	mov	ip, r2
 8000e12:	4665      	mov	r5, ip
 8000e14:	1e6b      	subs	r3, r5, #1
 8000e16:	419d      	sbcs	r5, r3
 8000e18:	464b      	mov	r3, r9
 8000e1a:	431d      	orrs	r5, r3
 8000e1c:	e612      	b.n	8000a44 <__aeabi_dadd+0x9c>
 8000e1e:	0021      	movs	r1, r4
 8000e20:	4301      	orrs	r1, r0
 8000e22:	d100      	bne.n	8000e26 <__aeabi_dadd+0x47e>
 8000e24:	e0c4      	b.n	8000fb0 <__aeabi_dadd+0x608>
 8000e26:	1e51      	subs	r1, r2, #1
 8000e28:	2a01      	cmp	r2, #1
 8000e2a:	d100      	bne.n	8000e2e <__aeabi_dadd+0x486>
 8000e2c:	e0fb      	b.n	8001026 <__aeabi_dadd+0x67e>
 8000e2e:	4d8d      	ldr	r5, [pc, #564]	@ (8001064 <__aeabi_dadd+0x6bc>)
 8000e30:	42aa      	cmp	r2, r5
 8000e32:	d100      	bne.n	8000e36 <__aeabi_dadd+0x48e>
 8000e34:	e0b5      	b.n	8000fa2 <__aeabi_dadd+0x5fa>
 8000e36:	2501      	movs	r5, #1
 8000e38:	2938      	cmp	r1, #56	@ 0x38
 8000e3a:	dd00      	ble.n	8000e3e <__aeabi_dadd+0x496>
 8000e3c:	e741      	b.n	8000cc2 <__aeabi_dadd+0x31a>
 8000e3e:	000a      	movs	r2, r1
 8000e40:	e72f      	b.n	8000ca2 <__aeabi_dadd+0x2fa>
 8000e42:	4c89      	ldr	r4, [pc, #548]	@ (8001068 <__aeabi_dadd+0x6c0>)
 8000e44:	1aff      	subs	r7, r7, r3
 8000e46:	4014      	ands	r4, r2
 8000e48:	0762      	lsls	r2, r4, #29
 8000e4a:	08e4      	lsrs	r4, r4, #3
 8000e4c:	e76a      	b.n	8000d24 <__aeabi_dadd+0x37c>
 8000e4e:	4a85      	ldr	r2, [pc, #532]	@ (8001064 <__aeabi_dadd+0x6bc>)
 8000e50:	4291      	cmp	r1, r2
 8000e52:	d100      	bne.n	8000e56 <__aeabi_dadd+0x4ae>
 8000e54:	e0e3      	b.n	800101e <__aeabi_dadd+0x676>
 8000e56:	4663      	mov	r3, ip
 8000e58:	18c2      	adds	r2, r0, r3
 8000e5a:	4282      	cmp	r2, r0
 8000e5c:	4180      	sbcs	r0, r0
 8000e5e:	0023      	movs	r3, r4
 8000e60:	4240      	negs	r0, r0
 8000e62:	4453      	add	r3, sl
 8000e64:	181b      	adds	r3, r3, r0
 8000e66:	07dd      	lsls	r5, r3, #31
 8000e68:	085c      	lsrs	r4, r3, #1
 8000e6a:	2307      	movs	r3, #7
 8000e6c:	0852      	lsrs	r2, r2, #1
 8000e6e:	4315      	orrs	r5, r2
 8000e70:	000f      	movs	r7, r1
 8000e72:	402b      	ands	r3, r5
 8000e74:	e700      	b.n	8000c78 <__aeabi_dadd+0x2d0>
 8000e76:	4663      	mov	r3, ip
 8000e78:	1a1d      	subs	r5, r3, r0
 8000e7a:	45ac      	cmp	ip, r5
 8000e7c:	4192      	sbcs	r2, r2
 8000e7e:	4653      	mov	r3, sl
 8000e80:	4252      	negs	r2, r2
 8000e82:	1b1c      	subs	r4, r3, r4
 8000e84:	000e      	movs	r6, r1
 8000e86:	4688      	mov	r8, r1
 8000e88:	1aa4      	subs	r4, r4, r2
 8000e8a:	e5e5      	b.n	8000a58 <__aeabi_dadd+0xb0>
 8000e8c:	2d00      	cmp	r5, #0
 8000e8e:	d000      	beq.n	8000e92 <__aeabi_dadd+0x4ea>
 8000e90:	e091      	b.n	8000fb6 <__aeabi_dadd+0x60e>
 8000e92:	2a00      	cmp	r2, #0
 8000e94:	d138      	bne.n	8000f08 <__aeabi_dadd+0x560>
 8000e96:	2480      	movs	r4, #128	@ 0x80
 8000e98:	2600      	movs	r6, #0
 8000e9a:	0324      	lsls	r4, r4, #12
 8000e9c:	e756      	b.n	8000d4c <__aeabi_dadd+0x3a4>
 8000e9e:	4663      	mov	r3, ip
 8000ea0:	18c5      	adds	r5, r0, r3
 8000ea2:	4285      	cmp	r5, r0
 8000ea4:	4180      	sbcs	r0, r0
 8000ea6:	4454      	add	r4, sl
 8000ea8:	4240      	negs	r0, r0
 8000eaa:	1824      	adds	r4, r4, r0
 8000eac:	2701      	movs	r7, #1
 8000eae:	0223      	lsls	r3, r4, #8
 8000eb0:	d400      	bmi.n	8000eb4 <__aeabi_dadd+0x50c>
 8000eb2:	e6df      	b.n	8000c74 <__aeabi_dadd+0x2cc>
 8000eb4:	2702      	movs	r7, #2
 8000eb6:	e687      	b.n	8000bc8 <__aeabi_dadd+0x220>
 8000eb8:	4663      	mov	r3, ip
 8000eba:	1ac5      	subs	r5, r0, r3
 8000ebc:	42a8      	cmp	r0, r5
 8000ebe:	4180      	sbcs	r0, r0
 8000ec0:	4653      	mov	r3, sl
 8000ec2:	4240      	negs	r0, r0
 8000ec4:	1ae4      	subs	r4, r4, r3
 8000ec6:	2701      	movs	r7, #1
 8000ec8:	1a24      	subs	r4, r4, r0
 8000eca:	e5c0      	b.n	8000a4e <__aeabi_dadd+0xa6>
 8000ecc:	0762      	lsls	r2, r4, #29
 8000ece:	08c0      	lsrs	r0, r0, #3
 8000ed0:	4302      	orrs	r2, r0
 8000ed2:	08e4      	lsrs	r4, r4, #3
 8000ed4:	e736      	b.n	8000d44 <__aeabi_dadd+0x39c>
 8000ed6:	0011      	movs	r1, r2
 8000ed8:	4653      	mov	r3, sl
 8000eda:	3920      	subs	r1, #32
 8000edc:	40cb      	lsrs	r3, r1
 8000ede:	4699      	mov	r9, r3
 8000ee0:	2a20      	cmp	r2, #32
 8000ee2:	d006      	beq.n	8000ef2 <__aeabi_dadd+0x54a>
 8000ee4:	2140      	movs	r1, #64	@ 0x40
 8000ee6:	4653      	mov	r3, sl
 8000ee8:	1a8a      	subs	r2, r1, r2
 8000eea:	4093      	lsls	r3, r2
 8000eec:	4662      	mov	r2, ip
 8000eee:	431a      	orrs	r2, r3
 8000ef0:	4694      	mov	ip, r2
 8000ef2:	4665      	mov	r5, ip
 8000ef4:	1e6b      	subs	r3, r5, #1
 8000ef6:	419d      	sbcs	r5, r3
 8000ef8:	464b      	mov	r3, r9
 8000efa:	431d      	orrs	r5, r3
 8000efc:	e659      	b.n	8000bb2 <__aeabi_dadd+0x20a>
 8000efe:	0762      	lsls	r2, r4, #29
 8000f00:	08c0      	lsrs	r0, r0, #3
 8000f02:	4302      	orrs	r2, r0
 8000f04:	08e4      	lsrs	r4, r4, #3
 8000f06:	e70d      	b.n	8000d24 <__aeabi_dadd+0x37c>
 8000f08:	4653      	mov	r3, sl
 8000f0a:	075a      	lsls	r2, r3, #29
 8000f0c:	4663      	mov	r3, ip
 8000f0e:	08d8      	lsrs	r0, r3, #3
 8000f10:	4653      	mov	r3, sl
 8000f12:	000e      	movs	r6, r1
 8000f14:	4302      	orrs	r2, r0
 8000f16:	08dc      	lsrs	r4, r3, #3
 8000f18:	e714      	b.n	8000d44 <__aeabi_dadd+0x39c>
 8000f1a:	0015      	movs	r5, r2
 8000f1c:	0026      	movs	r6, r4
 8000f1e:	3d20      	subs	r5, #32
 8000f20:	40ee      	lsrs	r6, r5
 8000f22:	2a20      	cmp	r2, #32
 8000f24:	d003      	beq.n	8000f2e <__aeabi_dadd+0x586>
 8000f26:	2540      	movs	r5, #64	@ 0x40
 8000f28:	1aaa      	subs	r2, r5, r2
 8000f2a:	4094      	lsls	r4, r2
 8000f2c:	4320      	orrs	r0, r4
 8000f2e:	1e42      	subs	r2, r0, #1
 8000f30:	4190      	sbcs	r0, r2
 8000f32:	0005      	movs	r5, r0
 8000f34:	4335      	orrs	r5, r6
 8000f36:	e606      	b.n	8000b46 <__aeabi_dadd+0x19e>
 8000f38:	2a00      	cmp	r2, #0
 8000f3a:	d07c      	beq.n	8001036 <__aeabi_dadd+0x68e>
 8000f3c:	4662      	mov	r2, ip
 8000f3e:	4653      	mov	r3, sl
 8000f40:	08c0      	lsrs	r0, r0, #3
 8000f42:	431a      	orrs	r2, r3
 8000f44:	d100      	bne.n	8000f48 <__aeabi_dadd+0x5a0>
 8000f46:	e6fa      	b.n	8000d3e <__aeabi_dadd+0x396>
 8000f48:	0762      	lsls	r2, r4, #29
 8000f4a:	4310      	orrs	r0, r2
 8000f4c:	2280      	movs	r2, #128	@ 0x80
 8000f4e:	08e4      	lsrs	r4, r4, #3
 8000f50:	0312      	lsls	r2, r2, #12
 8000f52:	4214      	tst	r4, r2
 8000f54:	d008      	beq.n	8000f68 <__aeabi_dadd+0x5c0>
 8000f56:	08d9      	lsrs	r1, r3, #3
 8000f58:	4211      	tst	r1, r2
 8000f5a:	d105      	bne.n	8000f68 <__aeabi_dadd+0x5c0>
 8000f5c:	4663      	mov	r3, ip
 8000f5e:	08d8      	lsrs	r0, r3, #3
 8000f60:	4653      	mov	r3, sl
 8000f62:	000c      	movs	r4, r1
 8000f64:	075b      	lsls	r3, r3, #29
 8000f66:	4318      	orrs	r0, r3
 8000f68:	0f42      	lsrs	r2, r0, #29
 8000f6a:	00c0      	lsls	r0, r0, #3
 8000f6c:	08c0      	lsrs	r0, r0, #3
 8000f6e:	0752      	lsls	r2, r2, #29
 8000f70:	4302      	orrs	r2, r0
 8000f72:	e6e7      	b.n	8000d44 <__aeabi_dadd+0x39c>
 8000f74:	2a00      	cmp	r2, #0
 8000f76:	d100      	bne.n	8000f7a <__aeabi_dadd+0x5d2>
 8000f78:	e72d      	b.n	8000dd6 <__aeabi_dadd+0x42e>
 8000f7a:	4663      	mov	r3, ip
 8000f7c:	08d8      	lsrs	r0, r3, #3
 8000f7e:	4653      	mov	r3, sl
 8000f80:	075a      	lsls	r2, r3, #29
 8000f82:	000e      	movs	r6, r1
 8000f84:	4302      	orrs	r2, r0
 8000f86:	08dc      	lsrs	r4, r3, #3
 8000f88:	e6cc      	b.n	8000d24 <__aeabi_dadd+0x37c>
 8000f8a:	4663      	mov	r3, ip
 8000f8c:	1a1d      	subs	r5, r3, r0
 8000f8e:	45ac      	cmp	ip, r5
 8000f90:	4192      	sbcs	r2, r2
 8000f92:	4653      	mov	r3, sl
 8000f94:	4252      	negs	r2, r2
 8000f96:	1b1c      	subs	r4, r3, r4
 8000f98:	000e      	movs	r6, r1
 8000f9a:	4688      	mov	r8, r1
 8000f9c:	1aa4      	subs	r4, r4, r2
 8000f9e:	3701      	adds	r7, #1
 8000fa0:	e555      	b.n	8000a4e <__aeabi_dadd+0xa6>
 8000fa2:	4663      	mov	r3, ip
 8000fa4:	08d9      	lsrs	r1, r3, #3
 8000fa6:	4653      	mov	r3, sl
 8000fa8:	075a      	lsls	r2, r3, #29
 8000faa:	430a      	orrs	r2, r1
 8000fac:	08dc      	lsrs	r4, r3, #3
 8000fae:	e6c9      	b.n	8000d44 <__aeabi_dadd+0x39c>
 8000fb0:	4660      	mov	r0, ip
 8000fb2:	4654      	mov	r4, sl
 8000fb4:	e6d4      	b.n	8000d60 <__aeabi_dadd+0x3b8>
 8000fb6:	08c0      	lsrs	r0, r0, #3
 8000fb8:	2a00      	cmp	r2, #0
 8000fba:	d100      	bne.n	8000fbe <__aeabi_dadd+0x616>
 8000fbc:	e6bf      	b.n	8000d3e <__aeabi_dadd+0x396>
 8000fbe:	0762      	lsls	r2, r4, #29
 8000fc0:	4310      	orrs	r0, r2
 8000fc2:	2280      	movs	r2, #128	@ 0x80
 8000fc4:	08e4      	lsrs	r4, r4, #3
 8000fc6:	0312      	lsls	r2, r2, #12
 8000fc8:	4214      	tst	r4, r2
 8000fca:	d0cd      	beq.n	8000f68 <__aeabi_dadd+0x5c0>
 8000fcc:	08dd      	lsrs	r5, r3, #3
 8000fce:	4215      	tst	r5, r2
 8000fd0:	d1ca      	bne.n	8000f68 <__aeabi_dadd+0x5c0>
 8000fd2:	4663      	mov	r3, ip
 8000fd4:	08d8      	lsrs	r0, r3, #3
 8000fd6:	4653      	mov	r3, sl
 8000fd8:	075b      	lsls	r3, r3, #29
 8000fda:	000e      	movs	r6, r1
 8000fdc:	002c      	movs	r4, r5
 8000fde:	4318      	orrs	r0, r3
 8000fe0:	e7c2      	b.n	8000f68 <__aeabi_dadd+0x5c0>
 8000fe2:	4663      	mov	r3, ip
 8000fe4:	08d9      	lsrs	r1, r3, #3
 8000fe6:	4653      	mov	r3, sl
 8000fe8:	075a      	lsls	r2, r3, #29
 8000fea:	430a      	orrs	r2, r1
 8000fec:	08dc      	lsrs	r4, r3, #3
 8000fee:	e699      	b.n	8000d24 <__aeabi_dadd+0x37c>
 8000ff0:	4663      	mov	r3, ip
 8000ff2:	08d8      	lsrs	r0, r3, #3
 8000ff4:	4653      	mov	r3, sl
 8000ff6:	075a      	lsls	r2, r3, #29
 8000ff8:	000e      	movs	r6, r1
 8000ffa:	4302      	orrs	r2, r0
 8000ffc:	08dc      	lsrs	r4, r3, #3
 8000ffe:	e6a1      	b.n	8000d44 <__aeabi_dadd+0x39c>
 8001000:	0011      	movs	r1, r2
 8001002:	0027      	movs	r7, r4
 8001004:	3920      	subs	r1, #32
 8001006:	40cf      	lsrs	r7, r1
 8001008:	2a20      	cmp	r2, #32
 800100a:	d003      	beq.n	8001014 <__aeabi_dadd+0x66c>
 800100c:	2140      	movs	r1, #64	@ 0x40
 800100e:	1a8a      	subs	r2, r1, r2
 8001010:	4094      	lsls	r4, r2
 8001012:	4320      	orrs	r0, r4
 8001014:	1e42      	subs	r2, r0, #1
 8001016:	4190      	sbcs	r0, r2
 8001018:	0005      	movs	r5, r0
 800101a:	433d      	orrs	r5, r7
 800101c:	e651      	b.n	8000cc2 <__aeabi_dadd+0x31a>
 800101e:	000c      	movs	r4, r1
 8001020:	2500      	movs	r5, #0
 8001022:	2200      	movs	r2, #0
 8001024:	e558      	b.n	8000ad8 <__aeabi_dadd+0x130>
 8001026:	4460      	add	r0, ip
 8001028:	4560      	cmp	r0, ip
 800102a:	4192      	sbcs	r2, r2
 800102c:	4454      	add	r4, sl
 800102e:	4252      	negs	r2, r2
 8001030:	0005      	movs	r5, r0
 8001032:	18a4      	adds	r4, r4, r2
 8001034:	e73a      	b.n	8000eac <__aeabi_dadd+0x504>
 8001036:	4653      	mov	r3, sl
 8001038:	075a      	lsls	r2, r3, #29
 800103a:	4663      	mov	r3, ip
 800103c:	08d9      	lsrs	r1, r3, #3
 800103e:	4653      	mov	r3, sl
 8001040:	430a      	orrs	r2, r1
 8001042:	08dc      	lsrs	r4, r3, #3
 8001044:	e67e      	b.n	8000d44 <__aeabi_dadd+0x39c>
 8001046:	001a      	movs	r2, r3
 8001048:	001c      	movs	r4, r3
 800104a:	432a      	orrs	r2, r5
 800104c:	d000      	beq.n	8001050 <__aeabi_dadd+0x6a8>
 800104e:	e6ab      	b.n	8000da8 <__aeabi_dadd+0x400>
 8001050:	e6c1      	b.n	8000dd6 <__aeabi_dadd+0x42e>
 8001052:	2120      	movs	r1, #32
 8001054:	2500      	movs	r5, #0
 8001056:	1a09      	subs	r1, r1, r0
 8001058:	e519      	b.n	8000a8e <__aeabi_dadd+0xe6>
 800105a:	2200      	movs	r2, #0
 800105c:	2500      	movs	r5, #0
 800105e:	4c01      	ldr	r4, [pc, #4]	@ (8001064 <__aeabi_dadd+0x6bc>)
 8001060:	e53a      	b.n	8000ad8 <__aeabi_dadd+0x130>
 8001062:	46c0      	nop			@ (mov r8, r8)
 8001064:	000007ff 	.word	0x000007ff
 8001068:	ff7fffff 	.word	0xff7fffff
 800106c:	000007fe 	.word	0x000007fe

08001070 <__aeabi_ddiv>:
 8001070:	b5f0      	push	{r4, r5, r6, r7, lr}
 8001072:	46de      	mov	lr, fp
 8001074:	4645      	mov	r5, r8
 8001076:	4657      	mov	r7, sl
 8001078:	464e      	mov	r6, r9
 800107a:	b5e0      	push	{r5, r6, r7, lr}
 800107c:	b087      	sub	sp, #28
 800107e:	9200      	str	r2, [sp, #0]
 8001080:	9301      	str	r3, [sp, #4]
 8001082:	030b      	lsls	r3, r1, #12
 8001084:	0b1b      	lsrs	r3, r3, #12
 8001086:	469b      	mov	fp, r3
 8001088:	0fca      	lsrs	r2, r1, #31
 800108a:	004b      	lsls	r3, r1, #1
 800108c:	0004      	movs	r4, r0
 800108e:	4680      	mov	r8, r0
 8001090:	0d5b      	lsrs	r3, r3, #21
 8001092:	9202      	str	r2, [sp, #8]
 8001094:	d100      	bne.n	8001098 <__aeabi_ddiv+0x28>
 8001096:	e16a      	b.n	800136e <__aeabi_ddiv+0x2fe>
 8001098:	4ad4      	ldr	r2, [pc, #848]	@ (80013ec <__aeabi_ddiv+0x37c>)
 800109a:	4293      	cmp	r3, r2
 800109c:	d100      	bne.n	80010a0 <__aeabi_ddiv+0x30>
 800109e:	e18c      	b.n	80013ba <__aeabi_ddiv+0x34a>
 80010a0:	4659      	mov	r1, fp
 80010a2:	0f42      	lsrs	r2, r0, #29
 80010a4:	00c9      	lsls	r1, r1, #3
 80010a6:	430a      	orrs	r2, r1
 80010a8:	2180      	movs	r1, #128	@ 0x80
 80010aa:	0409      	lsls	r1, r1, #16
 80010ac:	4311      	orrs	r1, r2
 80010ae:	00c2      	lsls	r2, r0, #3
 80010b0:	4690      	mov	r8, r2
 80010b2:	4acf      	ldr	r2, [pc, #828]	@ (80013f0 <__aeabi_ddiv+0x380>)
 80010b4:	4689      	mov	r9, r1
 80010b6:	4692      	mov	sl, r2
 80010b8:	449a      	add	sl, r3
 80010ba:	2300      	movs	r3, #0
 80010bc:	2400      	movs	r4, #0
 80010be:	9303      	str	r3, [sp, #12]
 80010c0:	9e00      	ldr	r6, [sp, #0]
 80010c2:	9f01      	ldr	r7, [sp, #4]
 80010c4:	033b      	lsls	r3, r7, #12
 80010c6:	0b1b      	lsrs	r3, r3, #12
 80010c8:	469b      	mov	fp, r3
 80010ca:	007b      	lsls	r3, r7, #1
 80010cc:	0030      	movs	r0, r6
 80010ce:	0d5b      	lsrs	r3, r3, #21
 80010d0:	0ffd      	lsrs	r5, r7, #31
 80010d2:	2b00      	cmp	r3, #0
 80010d4:	d100      	bne.n	80010d8 <__aeabi_ddiv+0x68>
 80010d6:	e128      	b.n	800132a <__aeabi_ddiv+0x2ba>
 80010d8:	4ac4      	ldr	r2, [pc, #784]	@ (80013ec <__aeabi_ddiv+0x37c>)
 80010da:	4293      	cmp	r3, r2
 80010dc:	d100      	bne.n	80010e0 <__aeabi_ddiv+0x70>
 80010de:	e177      	b.n	80013d0 <__aeabi_ddiv+0x360>
 80010e0:	4659      	mov	r1, fp
 80010e2:	0f72      	lsrs	r2, r6, #29
 80010e4:	00c9      	lsls	r1, r1, #3
 80010e6:	430a      	orrs	r2, r1
 80010e8:	2180      	movs	r1, #128	@ 0x80
 80010ea:	0409      	lsls	r1, r1, #16
 80010ec:	4311      	orrs	r1, r2
 80010ee:	468b      	mov	fp, r1
 80010f0:	49bf      	ldr	r1, [pc, #764]	@ (80013f0 <__aeabi_ddiv+0x380>)
 80010f2:	00f2      	lsls	r2, r6, #3
 80010f4:	468c      	mov	ip, r1
 80010f6:	4651      	mov	r1, sl
 80010f8:	4463      	add	r3, ip
 80010fa:	1acb      	subs	r3, r1, r3
 80010fc:	469a      	mov	sl, r3
 80010fe:	2300      	movs	r3, #0
 8001100:	9e02      	ldr	r6, [sp, #8]
 8001102:	406e      	eors	r6, r5
 8001104:	2c0f      	cmp	r4, #15
 8001106:	d827      	bhi.n	8001158 <__aeabi_ddiv+0xe8>
 8001108:	49ba      	ldr	r1, [pc, #744]	@ (80013f4 <__aeabi_ddiv+0x384>)
 800110a:	00a4      	lsls	r4, r4, #2
 800110c:	5909      	ldr	r1, [r1, r4]
 800110e:	468f      	mov	pc, r1
 8001110:	46cb      	mov	fp, r9
 8001112:	4642      	mov	r2, r8
 8001114:	9e02      	ldr	r6, [sp, #8]
 8001116:	9b03      	ldr	r3, [sp, #12]
 8001118:	2b02      	cmp	r3, #2
 800111a:	d016      	beq.n	800114a <__aeabi_ddiv+0xda>
 800111c:	2b03      	cmp	r3, #3
 800111e:	d100      	bne.n	8001122 <__aeabi_ddiv+0xb2>
 8001120:	e2a6      	b.n	8001670 <__aeabi_ddiv+0x600>
 8001122:	2b01      	cmp	r3, #1
 8001124:	d000      	beq.n	8001128 <__aeabi_ddiv+0xb8>
 8001126:	e0df      	b.n	80012e8 <__aeabi_ddiv+0x278>
 8001128:	2200      	movs	r2, #0
 800112a:	2300      	movs	r3, #0
 800112c:	2400      	movs	r4, #0
 800112e:	4690      	mov	r8, r2
 8001130:	051b      	lsls	r3, r3, #20
 8001132:	4323      	orrs	r3, r4
 8001134:	07f6      	lsls	r6, r6, #31
 8001136:	4333      	orrs	r3, r6
 8001138:	4640      	mov	r0, r8
 800113a:	0019      	movs	r1, r3
 800113c:	b007      	add	sp, #28
 800113e:	bcf0      	pop	{r4, r5, r6, r7}
 8001140:	46bb      	mov	fp, r7
 8001142:	46b2      	mov	sl, r6
 8001144:	46a9      	mov	r9, r5
 8001146:	46a0      	mov	r8, r4
 8001148:	bdf0      	pop	{r4, r5, r6, r7, pc}
 800114a:	2200      	movs	r2, #0
 800114c:	2400      	movs	r4, #0
 800114e:	4690      	mov	r8, r2
 8001150:	4ba6      	ldr	r3, [pc, #664]	@ (80013ec <__aeabi_ddiv+0x37c>)
 8001152:	e7ed      	b.n	8001130 <__aeabi_ddiv+0xc0>
 8001154:	002e      	movs	r6, r5
 8001156:	e7df      	b.n	8001118 <__aeabi_ddiv+0xa8>
 8001158:	45cb      	cmp	fp, r9
 800115a:	d200      	bcs.n	800115e <__aeabi_ddiv+0xee>
 800115c:	e1d4      	b.n	8001508 <__aeabi_ddiv+0x498>
 800115e:	d100      	bne.n	8001162 <__aeabi_ddiv+0xf2>
 8001160:	e1cf      	b.n	8001502 <__aeabi_ddiv+0x492>
 8001162:	2301      	movs	r3, #1
 8001164:	425b      	negs	r3, r3
 8001166:	469c      	mov	ip, r3
 8001168:	4644      	mov	r4, r8
 800116a:	4648      	mov	r0, r9
 800116c:	2700      	movs	r7, #0
 800116e:	44e2      	add	sl, ip
 8001170:	465b      	mov	r3, fp
 8001172:	0e15      	lsrs	r5, r2, #24
 8001174:	021b      	lsls	r3, r3, #8
 8001176:	431d      	orrs	r5, r3
 8001178:	0c19      	lsrs	r1, r3, #16
 800117a:	042b      	lsls	r3, r5, #16
 800117c:	0212      	lsls	r2, r2, #8
 800117e:	9500      	str	r5, [sp, #0]
 8001180:	0c1d      	lsrs	r5, r3, #16
 8001182:	4691      	mov	r9, r2
 8001184:	9102      	str	r1, [sp, #8]
 8001186:	9503      	str	r5, [sp, #12]
 8001188:	f7ff f84a 	bl	8000220 <__aeabi_uidivmod>
 800118c:	0002      	movs	r2, r0
 800118e:	436a      	muls	r2, r5
 8001190:	040b      	lsls	r3, r1, #16
 8001192:	0c21      	lsrs	r1, r4, #16
 8001194:	4680      	mov	r8, r0
 8001196:	4319      	orrs	r1, r3
 8001198:	428a      	cmp	r2, r1
 800119a:	d909      	bls.n	80011b0 <__aeabi_ddiv+0x140>
 800119c:	9d00      	ldr	r5, [sp, #0]
 800119e:	2301      	movs	r3, #1
 80011a0:	46ac      	mov	ip, r5
 80011a2:	425b      	negs	r3, r3
 80011a4:	4461      	add	r1, ip
 80011a6:	469c      	mov	ip, r3
 80011a8:	44e0      	add	r8, ip
 80011aa:	428d      	cmp	r5, r1
 80011ac:	d800      	bhi.n	80011b0 <__aeabi_ddiv+0x140>
 80011ae:	e1fb      	b.n	80015a8 <__aeabi_ddiv+0x538>
 80011b0:	1a88      	subs	r0, r1, r2
 80011b2:	9902      	ldr	r1, [sp, #8]
 80011b4:	f7ff f834 	bl	8000220 <__aeabi_uidivmod>
 80011b8:	9a03      	ldr	r2, [sp, #12]
 80011ba:	0424      	lsls	r4, r4, #16
 80011bc:	4342      	muls	r2, r0
 80011be:	0409      	lsls	r1, r1, #16
 80011c0:	0c24      	lsrs	r4, r4, #16
 80011c2:	0003      	movs	r3, r0
 80011c4:	430c      	orrs	r4, r1
 80011c6:	42a2      	cmp	r2, r4
 80011c8:	d906      	bls.n	80011d8 <__aeabi_ddiv+0x168>
 80011ca:	9900      	ldr	r1, [sp, #0]
 80011cc:	3b01      	subs	r3, #1
 80011ce:	468c      	mov	ip, r1
 80011d0:	4464      	add	r4, ip
 80011d2:	42a1      	cmp	r1, r4
 80011d4:	d800      	bhi.n	80011d8 <__aeabi_ddiv+0x168>
 80011d6:	e1e1      	b.n	800159c <__aeabi_ddiv+0x52c>
 80011d8:	1aa0      	subs	r0, r4, r2
 80011da:	4642      	mov	r2, r8
 80011dc:	0412      	lsls	r2, r2, #16
 80011de:	431a      	orrs	r2, r3
 80011e0:	4693      	mov	fp, r2
 80011e2:	464b      	mov	r3, r9
 80011e4:	4659      	mov	r1, fp
 80011e6:	0c1b      	lsrs	r3, r3, #16
 80011e8:	001d      	movs	r5, r3
 80011ea:	9304      	str	r3, [sp, #16]
 80011ec:	040b      	lsls	r3, r1, #16
 80011ee:	4649      	mov	r1, r9
 80011f0:	0409      	lsls	r1, r1, #16
 80011f2:	0c09      	lsrs	r1, r1, #16
 80011f4:	000c      	movs	r4, r1
 80011f6:	0c1b      	lsrs	r3, r3, #16
 80011f8:	435c      	muls	r4, r3
 80011fa:	0c12      	lsrs	r2, r2, #16
 80011fc:	436b      	muls	r3, r5
 80011fe:	4688      	mov	r8, r1
 8001200:	4351      	muls	r1, r2
 8001202:	436a      	muls	r2, r5
 8001204:	0c25      	lsrs	r5, r4, #16
 8001206:	46ac      	mov	ip, r5
 8001208:	185b      	adds	r3, r3, r1
 800120a:	4463      	add	r3, ip
 800120c:	4299      	cmp	r1, r3
 800120e:	d903      	bls.n	8001218 <__aeabi_ddiv+0x1a8>
 8001210:	2180      	movs	r1, #128	@ 0x80
 8001212:	0249      	lsls	r1, r1, #9
 8001214:	468c      	mov	ip, r1
 8001216:	4462      	add	r2, ip
 8001218:	0c19      	lsrs	r1, r3, #16
 800121a:	0424      	lsls	r4, r4, #16
 800121c:	041b      	lsls	r3, r3, #16
 800121e:	0c24      	lsrs	r4, r4, #16
 8001220:	188a      	adds	r2, r1, r2
 8001222:	191c      	adds	r4, r3, r4
 8001224:	4290      	cmp	r0, r2
 8001226:	d302      	bcc.n	800122e <__aeabi_ddiv+0x1be>
 8001228:	d116      	bne.n	8001258 <__aeabi_ddiv+0x1e8>
 800122a:	42a7      	cmp	r7, r4
 800122c:	d214      	bcs.n	8001258 <__aeabi_ddiv+0x1e8>
 800122e:	465b      	mov	r3, fp
 8001230:	9d00      	ldr	r5, [sp, #0]
 8001232:	3b01      	subs	r3, #1
 8001234:	444f      	add	r7, r9
 8001236:	9305      	str	r3, [sp, #20]
 8001238:	454f      	cmp	r7, r9
 800123a:	419b      	sbcs	r3, r3
 800123c:	46ac      	mov	ip, r5
 800123e:	425b      	negs	r3, r3
 8001240:	4463      	add	r3, ip
 8001242:	18c0      	adds	r0, r0, r3
 8001244:	4285      	cmp	r5, r0
 8001246:	d300      	bcc.n	800124a <__aeabi_ddiv+0x1da>
 8001248:	e1a1      	b.n	800158e <__aeabi_ddiv+0x51e>
 800124a:	4282      	cmp	r2, r0
 800124c:	d900      	bls.n	8001250 <__aeabi_ddiv+0x1e0>
 800124e:	e1f6      	b.n	800163e <__aeabi_ddiv+0x5ce>
 8001250:	d100      	bne.n	8001254 <__aeabi_ddiv+0x1e4>
 8001252:	e1f1      	b.n	8001638 <__aeabi_ddiv+0x5c8>
 8001254:	9b05      	ldr	r3, [sp, #20]
 8001256:	469b      	mov	fp, r3
 8001258:	1b3c      	subs	r4, r7, r4
 800125a:	42a7      	cmp	r7, r4
 800125c:	41bf      	sbcs	r7, r7
 800125e:	9d00      	ldr	r5, [sp, #0]
 8001260:	1a80      	subs	r0, r0, r2
 8001262:	427f      	negs	r7, r7
 8001264:	1bc0      	subs	r0, r0, r7
 8001266:	4285      	cmp	r5, r0
 8001268:	d100      	bne.n	800126c <__aeabi_ddiv+0x1fc>
 800126a:	e1d0      	b.n	800160e <__aeabi_ddiv+0x59e>
 800126c:	9902      	ldr	r1, [sp, #8]
 800126e:	f7fe ffd7 	bl	8000220 <__aeabi_uidivmod>
 8001272:	9a03      	ldr	r2, [sp, #12]
 8001274:	040b      	lsls	r3, r1, #16
 8001276:	4342      	muls	r2, r0
 8001278:	0c21      	lsrs	r1, r4, #16
 800127a:	0007      	movs	r7, r0
 800127c:	4319      	orrs	r1, r3
 800127e:	428a      	cmp	r2, r1
 8001280:	d900      	bls.n	8001284 <__aeabi_ddiv+0x214>
 8001282:	e178      	b.n	8001576 <__aeabi_ddiv+0x506>
 8001284:	1a88      	subs	r0, r1, r2
 8001286:	9902      	ldr	r1, [sp, #8]
 8001288:	f7fe ffca 	bl	8000220 <__aeabi_uidivmod>
 800128c:	9a03      	ldr	r2, [sp, #12]
 800128e:	0424      	lsls	r4, r4, #16
 8001290:	4342      	muls	r2, r0
 8001292:	0409      	lsls	r1, r1, #16
 8001294:	0c24      	lsrs	r4, r4, #16
 8001296:	0003      	movs	r3, r0
 8001298:	430c      	orrs	r4, r1
 800129a:	42a2      	cmp	r2, r4
 800129c:	d900      	bls.n	80012a0 <__aeabi_ddiv+0x230>
 800129e:	e15d      	b.n	800155c <__aeabi_ddiv+0x4ec>
 80012a0:	4641      	mov	r1, r8
 80012a2:	1aa4      	subs	r4, r4, r2
 80012a4:	043a      	lsls	r2, r7, #16
 80012a6:	431a      	orrs	r2, r3
 80012a8:	9d04      	ldr	r5, [sp, #16]
 80012aa:	0413      	lsls	r3, r2, #16
 80012ac:	0c1b      	lsrs	r3, r3, #16
 80012ae:	4359      	muls	r1, r3
 80012b0:	4647      	mov	r7, r8
 80012b2:	436b      	muls	r3, r5
 80012b4:	469c      	mov	ip, r3
 80012b6:	0c10      	lsrs	r0, r2, #16
 80012b8:	4347      	muls	r7, r0
 80012ba:	0c0b      	lsrs	r3, r1, #16
 80012bc:	44bc      	add	ip, r7
 80012be:	4463      	add	r3, ip
 80012c0:	4368      	muls	r0, r5
 80012c2:	429f      	cmp	r7, r3
 80012c4:	d903      	bls.n	80012ce <__aeabi_ddiv+0x25e>
 80012c6:	2580      	movs	r5, #128	@ 0x80
 80012c8:	026d      	lsls	r5, r5, #9
 80012ca:	46ac      	mov	ip, r5
 80012cc:	4460      	add	r0, ip
 80012ce:	0c1f      	lsrs	r7, r3, #16
 80012d0:	0409      	lsls	r1, r1, #16
 80012d2:	041b      	lsls	r3, r3, #16
 80012d4:	0c09      	lsrs	r1, r1, #16
 80012d6:	183f      	adds	r7, r7, r0
 80012d8:	185b      	adds	r3, r3, r1
 80012da:	42bc      	cmp	r4, r7
 80012dc:	d200      	bcs.n	80012e0 <__aeabi_ddiv+0x270>
 80012de:	e102      	b.n	80014e6 <__aeabi_ddiv+0x476>
 80012e0:	d100      	bne.n	80012e4 <__aeabi_ddiv+0x274>
 80012e2:	e0fd      	b.n	80014e0 <__aeabi_ddiv+0x470>
 80012e4:	2301      	movs	r3, #1
 80012e6:	431a      	orrs	r2, r3
 80012e8:	4b43      	ldr	r3, [pc, #268]	@ (80013f8 <__aeabi_ddiv+0x388>)
 80012ea:	4453      	add	r3, sl
 80012ec:	2b00      	cmp	r3, #0
 80012ee:	dc00      	bgt.n	80012f2 <__aeabi_ddiv+0x282>
 80012f0:	e0ae      	b.n	8001450 <__aeabi_ddiv+0x3e0>
 80012f2:	0751      	lsls	r1, r2, #29
 80012f4:	d000      	beq.n	80012f8 <__aeabi_ddiv+0x288>
 80012f6:	e198      	b.n	800162a <__aeabi_ddiv+0x5ba>
 80012f8:	4659      	mov	r1, fp
 80012fa:	01c9      	lsls	r1, r1, #7
 80012fc:	d506      	bpl.n	800130c <__aeabi_ddiv+0x29c>
 80012fe:	4659      	mov	r1, fp
 8001300:	4b3e      	ldr	r3, [pc, #248]	@ (80013fc <__aeabi_ddiv+0x38c>)
 8001302:	4019      	ands	r1, r3
 8001304:	2380      	movs	r3, #128	@ 0x80
 8001306:	468b      	mov	fp, r1
 8001308:	00db      	lsls	r3, r3, #3
 800130a:	4453      	add	r3, sl
 800130c:	493c      	ldr	r1, [pc, #240]	@ (8001400 <__aeabi_ddiv+0x390>)
 800130e:	428b      	cmp	r3, r1
 8001310:	dd00      	ble.n	8001314 <__aeabi_ddiv+0x2a4>
 8001312:	e71a      	b.n	800114a <__aeabi_ddiv+0xda>
 8001314:	4659      	mov	r1, fp
 8001316:	08d2      	lsrs	r2, r2, #3
 8001318:	0749      	lsls	r1, r1, #29
 800131a:	4311      	orrs	r1, r2
 800131c:	465a      	mov	r2, fp
 800131e:	055b      	lsls	r3, r3, #21
 8001320:	0254      	lsls	r4, r2, #9
 8001322:	4688      	mov	r8, r1
 8001324:	0b24      	lsrs	r4, r4, #12
 8001326:	0d5b      	lsrs	r3, r3, #21
 8001328:	e702      	b.n	8001130 <__aeabi_ddiv+0xc0>
 800132a:	465a      	mov	r2, fp
 800132c:	9b00      	ldr	r3, [sp, #0]
 800132e:	431a      	orrs	r2, r3
 8001330:	d100      	bne.n	8001334 <__aeabi_ddiv+0x2c4>
 8001332:	e07e      	b.n	8001432 <__aeabi_ddiv+0x3c2>
 8001334:	465b      	mov	r3, fp
 8001336:	2b00      	cmp	r3, #0
 8001338:	d100      	bne.n	800133c <__aeabi_ddiv+0x2cc>
 800133a:	e100      	b.n	800153e <__aeabi_ddiv+0x4ce>
 800133c:	4658      	mov	r0, fp
 800133e:	f001 f9cb 	bl	80026d8 <__clzsi2>
 8001342:	0002      	movs	r2, r0
 8001344:	0003      	movs	r3, r0
 8001346:	3a0b      	subs	r2, #11
 8001348:	271d      	movs	r7, #29
 800134a:	9e00      	ldr	r6, [sp, #0]
 800134c:	1aba      	subs	r2, r7, r2
 800134e:	0019      	movs	r1, r3
 8001350:	4658      	mov	r0, fp
 8001352:	40d6      	lsrs	r6, r2
 8001354:	3908      	subs	r1, #8
 8001356:	4088      	lsls	r0, r1
 8001358:	0032      	movs	r2, r6
 800135a:	4302      	orrs	r2, r0
 800135c:	4693      	mov	fp, r2
 800135e:	9a00      	ldr	r2, [sp, #0]
 8001360:	408a      	lsls	r2, r1
 8001362:	4928      	ldr	r1, [pc, #160]	@ (8001404 <__aeabi_ddiv+0x394>)
 8001364:	4453      	add	r3, sl
 8001366:	468a      	mov	sl, r1
 8001368:	449a      	add	sl, r3
 800136a:	2300      	movs	r3, #0
 800136c:	e6c8      	b.n	8001100 <__aeabi_ddiv+0x90>
 800136e:	465b      	mov	r3, fp
 8001370:	4303      	orrs	r3, r0
 8001372:	4699      	mov	r9, r3
 8001374:	d056      	beq.n	8001424 <__aeabi_ddiv+0x3b4>
 8001376:	465b      	mov	r3, fp
 8001378:	2b00      	cmp	r3, #0
 800137a:	d100      	bne.n	800137e <__aeabi_ddiv+0x30e>
 800137c:	e0cd      	b.n	800151a <__aeabi_ddiv+0x4aa>
 800137e:	4658      	mov	r0, fp
 8001380:	f001 f9aa 	bl	80026d8 <__clzsi2>
 8001384:	230b      	movs	r3, #11
 8001386:	425b      	negs	r3, r3
 8001388:	469c      	mov	ip, r3
 800138a:	0002      	movs	r2, r0
 800138c:	4484      	add	ip, r0
 800138e:	4666      	mov	r6, ip
 8001390:	231d      	movs	r3, #29
 8001392:	1b9b      	subs	r3, r3, r6
 8001394:	0026      	movs	r6, r4
 8001396:	0011      	movs	r1, r2
 8001398:	4658      	mov	r0, fp
 800139a:	40de      	lsrs	r6, r3
 800139c:	3908      	subs	r1, #8
 800139e:	4088      	lsls	r0, r1
 80013a0:	0033      	movs	r3, r6
 80013a2:	4303      	orrs	r3, r0
 80013a4:	4699      	mov	r9, r3
 80013a6:	0023      	movs	r3, r4
 80013a8:	408b      	lsls	r3, r1
 80013aa:	4698      	mov	r8, r3
 80013ac:	4b16      	ldr	r3, [pc, #88]	@ (8001408 <__aeabi_ddiv+0x398>)
 80013ae:	2400      	movs	r4, #0
 80013b0:	1a9b      	subs	r3, r3, r2
 80013b2:	469a      	mov	sl, r3
 80013b4:	2300      	movs	r3, #0
 80013b6:	9303      	str	r3, [sp, #12]
 80013b8:	e682      	b.n	80010c0 <__aeabi_ddiv+0x50>
 80013ba:	465a      	mov	r2, fp
 80013bc:	4302      	orrs	r2, r0
 80013be:	4691      	mov	r9, r2
 80013c0:	d12a      	bne.n	8001418 <__aeabi_ddiv+0x3a8>
 80013c2:	2200      	movs	r2, #0
 80013c4:	469a      	mov	sl, r3
 80013c6:	2302      	movs	r3, #2
 80013c8:	4690      	mov	r8, r2
 80013ca:	2408      	movs	r4, #8
 80013cc:	9303      	str	r3, [sp, #12]
 80013ce:	e677      	b.n	80010c0 <__aeabi_ddiv+0x50>
 80013d0:	465a      	mov	r2, fp
 80013d2:	9b00      	ldr	r3, [sp, #0]
 80013d4:	431a      	orrs	r2, r3
 80013d6:	4b0d      	ldr	r3, [pc, #52]	@ (800140c <__aeabi_ddiv+0x39c>)
 80013d8:	469c      	mov	ip, r3
 80013da:	44e2      	add	sl, ip
 80013dc:	2a00      	cmp	r2, #0
 80013de:	d117      	bne.n	8001410 <__aeabi_ddiv+0x3a0>
 80013e0:	2302      	movs	r3, #2
 80013e2:	431c      	orrs	r4, r3
 80013e4:	2300      	movs	r3, #0
 80013e6:	469b      	mov	fp, r3
 80013e8:	3302      	adds	r3, #2
 80013ea:	e689      	b.n	8001100 <__aeabi_ddiv+0x90>
 80013ec:	000007ff 	.word	0x000007ff
 80013f0:	fffffc01 	.word	0xfffffc01
 80013f4:	08005c30 	.word	0x08005c30
 80013f8:	000003ff 	.word	0x000003ff
 80013fc:	feffffff 	.word	0xfeffffff
 8001400:	000007fe 	.word	0x000007fe
 8001404:	000003f3 	.word	0x000003f3
 8001408:	fffffc0d 	.word	0xfffffc0d
 800140c:	fffff801 	.word	0xfffff801
 8001410:	2303      	movs	r3, #3
 8001412:	0032      	movs	r2, r6
 8001414:	431c      	orrs	r4, r3
 8001416:	e673      	b.n	8001100 <__aeabi_ddiv+0x90>
 8001418:	469a      	mov	sl, r3
 800141a:	2303      	movs	r3, #3
 800141c:	46d9      	mov	r9, fp
 800141e:	240c      	movs	r4, #12
 8001420:	9303      	str	r3, [sp, #12]
 8001422:	e64d      	b.n	80010c0 <__aeabi_ddiv+0x50>
 8001424:	2300      	movs	r3, #0
 8001426:	4698      	mov	r8, r3
 8001428:	469a      	mov	sl, r3
 800142a:	3301      	adds	r3, #1
 800142c:	2404      	movs	r4, #4
 800142e:	9303      	str	r3, [sp, #12]
 8001430:	e646      	b.n	80010c0 <__aeabi_ddiv+0x50>
 8001432:	2301      	movs	r3, #1
 8001434:	431c      	orrs	r4, r3
 8001436:	2300      	movs	r3, #0
 8001438:	469b      	mov	fp, r3
 800143a:	3301      	adds	r3, #1
 800143c:	e660      	b.n	8001100 <__aeabi_ddiv+0x90>
 800143e:	2300      	movs	r3, #0
 8001440:	2480      	movs	r4, #128	@ 0x80
 8001442:	4698      	mov	r8, r3
 8001444:	2600      	movs	r6, #0
 8001446:	4b92      	ldr	r3, [pc, #584]	@ (8001690 <__aeabi_ddiv+0x620>)
 8001448:	0324      	lsls	r4, r4, #12
 800144a:	e671      	b.n	8001130 <__aeabi_ddiv+0xc0>
 800144c:	2201      	movs	r2, #1
 800144e:	4252      	negs	r2, r2
 8001450:	2101      	movs	r1, #1
 8001452:	1ac9      	subs	r1, r1, r3
 8001454:	2938      	cmp	r1, #56	@ 0x38
 8001456:	dd00      	ble.n	800145a <__aeabi_ddiv+0x3ea>
 8001458:	e666      	b.n	8001128 <__aeabi_ddiv+0xb8>
 800145a:	291f      	cmp	r1, #31
 800145c:	dc00      	bgt.n	8001460 <__aeabi_ddiv+0x3f0>
 800145e:	e0ab      	b.n	80015b8 <__aeabi_ddiv+0x548>
 8001460:	201f      	movs	r0, #31
 8001462:	4240      	negs	r0, r0
 8001464:	1ac3      	subs	r3, r0, r3
 8001466:	4658      	mov	r0, fp
 8001468:	40d8      	lsrs	r0, r3
 800146a:	0003      	movs	r3, r0
 800146c:	2920      	cmp	r1, #32
 800146e:	d004      	beq.n	800147a <__aeabi_ddiv+0x40a>
 8001470:	4658      	mov	r0, fp
 8001472:	4988      	ldr	r1, [pc, #544]	@ (8001694 <__aeabi_ddiv+0x624>)
 8001474:	4451      	add	r1, sl
 8001476:	4088      	lsls	r0, r1
 8001478:	4302      	orrs	r2, r0
 800147a:	1e51      	subs	r1, r2, #1
 800147c:	418a      	sbcs	r2, r1
 800147e:	431a      	orrs	r2, r3
 8001480:	2307      	movs	r3, #7
 8001482:	0019      	movs	r1, r3
 8001484:	2400      	movs	r4, #0
 8001486:	4011      	ands	r1, r2
 8001488:	4213      	tst	r3, r2
 800148a:	d00c      	beq.n	80014a6 <__aeabi_ddiv+0x436>
 800148c:	230f      	movs	r3, #15
 800148e:	4013      	ands	r3, r2
 8001490:	2b04      	cmp	r3, #4
 8001492:	d100      	bne.n	8001496 <__aeabi_ddiv+0x426>
 8001494:	e0f9      	b.n	800168a <__aeabi_ddiv+0x61a>
 8001496:	1d11      	adds	r1, r2, #4
 8001498:	4291      	cmp	r1, r2
 800149a:	419b      	sbcs	r3, r3
 800149c:	000a      	movs	r2, r1
 800149e:	425b      	negs	r3, r3
 80014a0:	0759      	lsls	r1, r3, #29
 80014a2:	025b      	lsls	r3, r3, #9
 80014a4:	0b1c      	lsrs	r4, r3, #12
 80014a6:	08d2      	lsrs	r2, r2, #3
 80014a8:	430a      	orrs	r2, r1
 80014aa:	4690      	mov	r8, r2
 80014ac:	2300      	movs	r3, #0
 80014ae:	e63f      	b.n	8001130 <__aeabi_ddiv+0xc0>
 80014b0:	2480      	movs	r4, #128	@ 0x80
 80014b2:	464b      	mov	r3, r9
 80014b4:	0324      	lsls	r4, r4, #12
 80014b6:	4223      	tst	r3, r4
 80014b8:	d009      	beq.n	80014ce <__aeabi_ddiv+0x45e>
 80014ba:	465b      	mov	r3, fp
 80014bc:	4223      	tst	r3, r4
 80014be:	d106      	bne.n	80014ce <__aeabi_ddiv+0x45e>
 80014c0:	431c      	orrs	r4, r3
 80014c2:	0324      	lsls	r4, r4, #12
 80014c4:	002e      	movs	r6, r5
 80014c6:	4690      	mov	r8, r2
 80014c8:	4b71      	ldr	r3, [pc, #452]	@ (8001690 <__aeabi_ddiv+0x620>)
 80014ca:	0b24      	lsrs	r4, r4, #12
 80014cc:	e630      	b.n	8001130 <__aeabi_ddiv+0xc0>
 80014ce:	2480      	movs	r4, #128	@ 0x80
 80014d0:	464b      	mov	r3, r9
 80014d2:	0324      	lsls	r4, r4, #12
 80014d4:	431c      	orrs	r4, r3
 80014d6:	0324      	lsls	r4, r4, #12
 80014d8:	9e02      	ldr	r6, [sp, #8]
 80014da:	4b6d      	ldr	r3, [pc, #436]	@ (8001690 <__aeabi_ddiv+0x620>)
 80014dc:	0b24      	lsrs	r4, r4, #12
 80014de:	e627      	b.n	8001130 <__aeabi_ddiv+0xc0>
 80014e0:	2b00      	cmp	r3, #0
 80014e2:	d100      	bne.n	80014e6 <__aeabi_ddiv+0x476>
 80014e4:	e700      	b.n	80012e8 <__aeabi_ddiv+0x278>
 80014e6:	9800      	ldr	r0, [sp, #0]
 80014e8:	1e51      	subs	r1, r2, #1
 80014ea:	4684      	mov	ip, r0
 80014ec:	4464      	add	r4, ip
 80014ee:	4284      	cmp	r4, r0
 80014f0:	d200      	bcs.n	80014f4 <__aeabi_ddiv+0x484>
 80014f2:	e084      	b.n	80015fe <__aeabi_ddiv+0x58e>
 80014f4:	42bc      	cmp	r4, r7
 80014f6:	d200      	bcs.n	80014fa <__aeabi_ddiv+0x48a>
 80014f8:	e0ae      	b.n	8001658 <__aeabi_ddiv+0x5e8>
 80014fa:	d100      	bne.n	80014fe <__aeabi_ddiv+0x48e>
 80014fc:	e0c1      	b.n	8001682 <__aeabi_ddiv+0x612>
 80014fe:	000a      	movs	r2, r1
 8001500:	e6f0      	b.n	80012e4 <__aeabi_ddiv+0x274>
 8001502:	4542      	cmp	r2, r8
 8001504:	d900      	bls.n	8001508 <__aeabi_ddiv+0x498>
 8001506:	e62c      	b.n	8001162 <__aeabi_ddiv+0xf2>
 8001508:	464b      	mov	r3, r9
 800150a:	07dc      	lsls	r4, r3, #31
 800150c:	0858      	lsrs	r0, r3, #1
 800150e:	4643      	mov	r3, r8
 8001510:	085b      	lsrs	r3, r3, #1
 8001512:	431c      	orrs	r4, r3
 8001514:	4643      	mov	r3, r8
 8001516:	07df      	lsls	r7, r3, #31
 8001518:	e62a      	b.n	8001170 <__aeabi_ddiv+0x100>
 800151a:	f001 f8dd 	bl	80026d8 <__clzsi2>
 800151e:	2315      	movs	r3, #21
 8001520:	469c      	mov	ip, r3
 8001522:	4484      	add	ip, r0
 8001524:	0002      	movs	r2, r0
 8001526:	4663      	mov	r3, ip
 8001528:	3220      	adds	r2, #32
 800152a:	2b1c      	cmp	r3, #28
 800152c:	dc00      	bgt.n	8001530 <__aeabi_ddiv+0x4c0>
 800152e:	e72e      	b.n	800138e <__aeabi_ddiv+0x31e>
 8001530:	0023      	movs	r3, r4
 8001532:	3808      	subs	r0, #8
 8001534:	4083      	lsls	r3, r0
 8001536:	4699      	mov	r9, r3
 8001538:	2300      	movs	r3, #0
 800153a:	4698      	mov	r8, r3
 800153c:	e736      	b.n	80013ac <__aeabi_ddiv+0x33c>
 800153e:	f001 f8cb 	bl	80026d8 <__clzsi2>
 8001542:	0002      	movs	r2, r0
 8001544:	0003      	movs	r3, r0
 8001546:	3215      	adds	r2, #21
 8001548:	3320      	adds	r3, #32
 800154a:	2a1c      	cmp	r2, #28
 800154c:	dc00      	bgt.n	8001550 <__aeabi_ddiv+0x4e0>
 800154e:	e6fb      	b.n	8001348 <__aeabi_ddiv+0x2d8>
 8001550:	9900      	ldr	r1, [sp, #0]
 8001552:	3808      	subs	r0, #8
 8001554:	4081      	lsls	r1, r0
 8001556:	2200      	movs	r2, #0
 8001558:	468b      	mov	fp, r1
 800155a:	e702      	b.n	8001362 <__aeabi_ddiv+0x2f2>
 800155c:	9900      	ldr	r1, [sp, #0]
 800155e:	3b01      	subs	r3, #1
 8001560:	468c      	mov	ip, r1
 8001562:	4464      	add	r4, ip
 8001564:	42a1      	cmp	r1, r4
 8001566:	d900      	bls.n	800156a <__aeabi_ddiv+0x4fa>
 8001568:	e69a      	b.n	80012a0 <__aeabi_ddiv+0x230>
 800156a:	42a2      	cmp	r2, r4
 800156c:	d800      	bhi.n	8001570 <__aeabi_ddiv+0x500>
 800156e:	e697      	b.n	80012a0 <__aeabi_ddiv+0x230>
 8001570:	1e83      	subs	r3, r0, #2
 8001572:	4464      	add	r4, ip
 8001574:	e694      	b.n	80012a0 <__aeabi_ddiv+0x230>
 8001576:	46ac      	mov	ip, r5
 8001578:	4461      	add	r1, ip
 800157a:	3f01      	subs	r7, #1
 800157c:	428d      	cmp	r5, r1
 800157e:	d900      	bls.n	8001582 <__aeabi_ddiv+0x512>
 8001580:	e680      	b.n	8001284 <__aeabi_ddiv+0x214>
 8001582:	428a      	cmp	r2, r1
 8001584:	d800      	bhi.n	8001588 <__aeabi_ddiv+0x518>
 8001586:	e67d      	b.n	8001284 <__aeabi_ddiv+0x214>
 8001588:	1e87      	subs	r7, r0, #2
 800158a:	4461      	add	r1, ip
 800158c:	e67a      	b.n	8001284 <__aeabi_ddiv+0x214>
 800158e:	4285      	cmp	r5, r0
 8001590:	d000      	beq.n	8001594 <__aeabi_ddiv+0x524>
 8001592:	e65f      	b.n	8001254 <__aeabi_ddiv+0x1e4>
 8001594:	45b9      	cmp	r9, r7
 8001596:	d900      	bls.n	800159a <__aeabi_ddiv+0x52a>
 8001598:	e65c      	b.n	8001254 <__aeabi_ddiv+0x1e4>
 800159a:	e656      	b.n	800124a <__aeabi_ddiv+0x1da>
 800159c:	42a2      	cmp	r2, r4
 800159e:	d800      	bhi.n	80015a2 <__aeabi_ddiv+0x532>
 80015a0:	e61a      	b.n	80011d8 <__aeabi_ddiv+0x168>
 80015a2:	1e83      	subs	r3, r0, #2
 80015a4:	4464      	add	r4, ip
 80015a6:	e617      	b.n	80011d8 <__aeabi_ddiv+0x168>
 80015a8:	428a      	cmp	r2, r1
 80015aa:	d800      	bhi.n	80015ae <__aeabi_ddiv+0x53e>
 80015ac:	e600      	b.n	80011b0 <__aeabi_ddiv+0x140>
 80015ae:	46ac      	mov	ip, r5
 80015b0:	1e83      	subs	r3, r0, #2
 80015b2:	4698      	mov	r8, r3
 80015b4:	4461      	add	r1, ip
 80015b6:	e5fb      	b.n	80011b0 <__aeabi_ddiv+0x140>
 80015b8:	4837      	ldr	r0, [pc, #220]	@ (8001698 <__aeabi_ddiv+0x628>)
 80015ba:	0014      	movs	r4, r2
 80015bc:	4450      	add	r0, sl
 80015be:	4082      	lsls	r2, r0
 80015c0:	465b      	mov	r3, fp
 80015c2:	0017      	movs	r7, r2
 80015c4:	4083      	lsls	r3, r0
 80015c6:	40cc      	lsrs	r4, r1
 80015c8:	1e7a      	subs	r2, r7, #1
 80015ca:	4197      	sbcs	r7, r2
 80015cc:	4323      	orrs	r3, r4
 80015ce:	433b      	orrs	r3, r7
 80015d0:	001a      	movs	r2, r3
 80015d2:	465b      	mov	r3, fp
 80015d4:	40cb      	lsrs	r3, r1
 80015d6:	0751      	lsls	r1, r2, #29
 80015d8:	d009      	beq.n	80015ee <__aeabi_ddiv+0x57e>
 80015da:	210f      	movs	r1, #15
 80015dc:	4011      	ands	r1, r2
 80015de:	2904      	cmp	r1, #4
 80015e0:	d005      	beq.n	80015ee <__aeabi_ddiv+0x57e>
 80015e2:	1d11      	adds	r1, r2, #4
 80015e4:	4291      	cmp	r1, r2
 80015e6:	4192      	sbcs	r2, r2
 80015e8:	4252      	negs	r2, r2
 80015ea:	189b      	adds	r3, r3, r2
 80015ec:	000a      	movs	r2, r1
 80015ee:	0219      	lsls	r1, r3, #8
 80015f0:	d400      	bmi.n	80015f4 <__aeabi_ddiv+0x584>
 80015f2:	e755      	b.n	80014a0 <__aeabi_ddiv+0x430>
 80015f4:	2200      	movs	r2, #0
 80015f6:	2301      	movs	r3, #1
 80015f8:	2400      	movs	r4, #0
 80015fa:	4690      	mov	r8, r2
 80015fc:	e598      	b.n	8001130 <__aeabi_ddiv+0xc0>
 80015fe:	000a      	movs	r2, r1
 8001600:	42bc      	cmp	r4, r7
 8001602:	d000      	beq.n	8001606 <__aeabi_ddiv+0x596>
 8001604:	e66e      	b.n	80012e4 <__aeabi_ddiv+0x274>
 8001606:	454b      	cmp	r3, r9
 8001608:	d000      	beq.n	800160c <__aeabi_ddiv+0x59c>
 800160a:	e66b      	b.n	80012e4 <__aeabi_ddiv+0x274>
 800160c:	e66c      	b.n	80012e8 <__aeabi_ddiv+0x278>
 800160e:	4b23      	ldr	r3, [pc, #140]	@ (800169c <__aeabi_ddiv+0x62c>)
 8001610:	4a23      	ldr	r2, [pc, #140]	@ (80016a0 <__aeabi_ddiv+0x630>)
 8001612:	4453      	add	r3, sl
 8001614:	4592      	cmp	sl, r2
 8001616:	da00      	bge.n	800161a <__aeabi_ddiv+0x5aa>
 8001618:	e718      	b.n	800144c <__aeabi_ddiv+0x3dc>
 800161a:	2101      	movs	r1, #1
 800161c:	4249      	negs	r1, r1
 800161e:	1d0a      	adds	r2, r1, #4
 8001620:	428a      	cmp	r2, r1
 8001622:	4189      	sbcs	r1, r1
 8001624:	4249      	negs	r1, r1
 8001626:	448b      	add	fp, r1
 8001628:	e666      	b.n	80012f8 <__aeabi_ddiv+0x288>
 800162a:	210f      	movs	r1, #15
 800162c:	4011      	ands	r1, r2
 800162e:	2904      	cmp	r1, #4
 8001630:	d100      	bne.n	8001634 <__aeabi_ddiv+0x5c4>
 8001632:	e661      	b.n	80012f8 <__aeabi_ddiv+0x288>
 8001634:	0011      	movs	r1, r2
 8001636:	e7f2      	b.n	800161e <__aeabi_ddiv+0x5ae>
 8001638:	42bc      	cmp	r4, r7
 800163a:	d800      	bhi.n	800163e <__aeabi_ddiv+0x5ce>
 800163c:	e60a      	b.n	8001254 <__aeabi_ddiv+0x1e4>
 800163e:	2302      	movs	r3, #2
 8001640:	425b      	negs	r3, r3
 8001642:	469c      	mov	ip, r3
 8001644:	9900      	ldr	r1, [sp, #0]
 8001646:	444f      	add	r7, r9
 8001648:	454f      	cmp	r7, r9
 800164a:	419b      	sbcs	r3, r3
 800164c:	44e3      	add	fp, ip
 800164e:	468c      	mov	ip, r1
 8001650:	425b      	negs	r3, r3
 8001652:	4463      	add	r3, ip
 8001654:	18c0      	adds	r0, r0, r3
 8001656:	e5ff      	b.n	8001258 <__aeabi_ddiv+0x1e8>
 8001658:	4649      	mov	r1, r9
 800165a:	9d00      	ldr	r5, [sp, #0]
 800165c:	0048      	lsls	r0, r1, #1
 800165e:	4548      	cmp	r0, r9
 8001660:	4189      	sbcs	r1, r1
 8001662:	46ac      	mov	ip, r5
 8001664:	4249      	negs	r1, r1
 8001666:	4461      	add	r1, ip
 8001668:	4681      	mov	r9, r0
 800166a:	3a02      	subs	r2, #2
 800166c:	1864      	adds	r4, r4, r1
 800166e:	e7c7      	b.n	8001600 <__aeabi_ddiv+0x590>
 8001670:	2480      	movs	r4, #128	@ 0x80
 8001672:	465b      	mov	r3, fp
 8001674:	0324      	lsls	r4, r4, #12
 8001676:	431c      	orrs	r4, r3
 8001678:	0324      	lsls	r4, r4, #12
 800167a:	4690      	mov	r8, r2
 800167c:	4b04      	ldr	r3, [pc, #16]	@ (8001690 <__aeabi_ddiv+0x620>)
 800167e:	0b24      	lsrs	r4, r4, #12
 8001680:	e556      	b.n	8001130 <__aeabi_ddiv+0xc0>
 8001682:	4599      	cmp	r9, r3
 8001684:	d3e8      	bcc.n	8001658 <__aeabi_ddiv+0x5e8>
 8001686:	000a      	movs	r2, r1
 8001688:	e7bd      	b.n	8001606 <__aeabi_ddiv+0x596>
 800168a:	2300      	movs	r3, #0
 800168c:	e708      	b.n	80014a0 <__aeabi_ddiv+0x430>
 800168e:	46c0      	nop			@ (mov r8, r8)
 8001690:	000007ff 	.word	0x000007ff
 8001694:	0000043e 	.word	0x0000043e
 8001698:	0000041e 	.word	0x0000041e
 800169c:	000003ff 	.word	0x000003ff
 80016a0:	fffffc02 	.word	0xfffffc02

080016a4 <__eqdf2>:
 80016a4:	b5f0      	push	{r4, r5, r6, r7, lr}
 80016a6:	4657      	mov	r7, sl
 80016a8:	46de      	mov	lr, fp
 80016aa:	464e      	mov	r6, r9
 80016ac:	4645      	mov	r5, r8
 80016ae:	b5e0      	push	{r5, r6, r7, lr}
 80016b0:	000d      	movs	r5, r1
 80016b2:	0004      	movs	r4, r0
 80016b4:	0fe8      	lsrs	r0, r5, #31
 80016b6:	4683      	mov	fp, r0
 80016b8:	0309      	lsls	r1, r1, #12
 80016ba:	0fd8      	lsrs	r0, r3, #31
 80016bc:	0b09      	lsrs	r1, r1, #12
 80016be:	4682      	mov	sl, r0
 80016c0:	4819      	ldr	r0, [pc, #100]	@ (8001728 <__eqdf2+0x84>)
 80016c2:	468c      	mov	ip, r1
 80016c4:	031f      	lsls	r7, r3, #12
 80016c6:	0069      	lsls	r1, r5, #1
 80016c8:	005e      	lsls	r6, r3, #1
 80016ca:	0d49      	lsrs	r1, r1, #21
 80016cc:	0b3f      	lsrs	r7, r7, #12
 80016ce:	0d76      	lsrs	r6, r6, #21
 80016d0:	4281      	cmp	r1, r0
 80016d2:	d018      	beq.n	8001706 <__eqdf2+0x62>
 80016d4:	4286      	cmp	r6, r0
 80016d6:	d00f      	beq.n	80016f8 <__eqdf2+0x54>
 80016d8:	2001      	movs	r0, #1
 80016da:	42b1      	cmp	r1, r6
 80016dc:	d10d      	bne.n	80016fa <__eqdf2+0x56>
 80016de:	45bc      	cmp	ip, r7
 80016e0:	d10b      	bne.n	80016fa <__eqdf2+0x56>
 80016e2:	4294      	cmp	r4, r2
 80016e4:	d109      	bne.n	80016fa <__eqdf2+0x56>
 80016e6:	45d3      	cmp	fp, sl
 80016e8:	d01c      	beq.n	8001724 <__eqdf2+0x80>
 80016ea:	2900      	cmp	r1, #0
 80016ec:	d105      	bne.n	80016fa <__eqdf2+0x56>
 80016ee:	4660      	mov	r0, ip
 80016f0:	4320      	orrs	r0, r4
 80016f2:	1e43      	subs	r3, r0, #1
 80016f4:	4198      	sbcs	r0, r3
 80016f6:	e000      	b.n	80016fa <__eqdf2+0x56>
 80016f8:	2001      	movs	r0, #1
 80016fa:	bcf0      	pop	{r4, r5, r6, r7}
 80016fc:	46bb      	mov	fp, r7
 80016fe:	46b2      	mov	sl, r6
 8001700:	46a9      	mov	r9, r5
 8001702:	46a0      	mov	r8, r4
 8001704:	bdf0      	pop	{r4, r5, r6, r7, pc}
 8001706:	2001      	movs	r0, #1
 8001708:	428e      	cmp	r6, r1
 800170a:	d1f6      	bne.n	80016fa <__eqdf2+0x56>
 800170c:	4661      	mov	r1, ip
 800170e:	4339      	orrs	r1, r7
 8001710:	000f      	movs	r7, r1
 8001712:	4317      	orrs	r7, r2
 8001714:	4327      	orrs	r7, r4
 8001716:	d1f0      	bne.n	80016fa <__eqdf2+0x56>
 8001718:	465b      	mov	r3, fp
 800171a:	4652      	mov	r2, sl
 800171c:	1a98      	subs	r0, r3, r2
 800171e:	1e43      	subs	r3, r0, #1
 8001720:	4198      	sbcs	r0, r3
 8001722:	e7ea      	b.n	80016fa <__eqdf2+0x56>
 8001724:	2000      	movs	r0, #0
 8001726:	e7e8      	b.n	80016fa <__eqdf2+0x56>
 8001728:	000007ff 	.word	0x000007ff

0800172c <__gedf2>:
 800172c:	b5f0      	push	{r4, r5, r6, r7, lr}
 800172e:	4657      	mov	r7, sl
 8001730:	464e      	mov	r6, r9
 8001732:	4645      	mov	r5, r8
 8001734:	46de      	mov	lr, fp
 8001736:	b5e0      	push	{r5, r6, r7, lr}
 8001738:	000d      	movs	r5, r1
 800173a:	030f      	lsls	r7, r1, #12
 800173c:	0b39      	lsrs	r1, r7, #12
 800173e:	b083      	sub	sp, #12
 8001740:	0004      	movs	r4, r0
 8001742:	4680      	mov	r8, r0
 8001744:	9101      	str	r1, [sp, #4]
 8001746:	0058      	lsls	r0, r3, #1
 8001748:	0fe9      	lsrs	r1, r5, #31
 800174a:	4f31      	ldr	r7, [pc, #196]	@ (8001810 <__gedf2+0xe4>)
 800174c:	0d40      	lsrs	r0, r0, #21
 800174e:	468c      	mov	ip, r1
 8001750:	006e      	lsls	r6, r5, #1
 8001752:	0319      	lsls	r1, r3, #12
 8001754:	4682      	mov	sl, r0
 8001756:	4691      	mov	r9, r2
 8001758:	0d76      	lsrs	r6, r6, #21
 800175a:	0b09      	lsrs	r1, r1, #12
 800175c:	0fd8      	lsrs	r0, r3, #31
 800175e:	42be      	cmp	r6, r7
 8001760:	d01f      	beq.n	80017a2 <__gedf2+0x76>
 8001762:	45ba      	cmp	sl, r7
 8001764:	d00f      	beq.n	8001786 <__gedf2+0x5a>
 8001766:	2e00      	cmp	r6, #0
 8001768:	d12f      	bne.n	80017ca <__gedf2+0x9e>
 800176a:	4655      	mov	r5, sl
 800176c:	9e01      	ldr	r6, [sp, #4]
 800176e:	4334      	orrs	r4, r6
 8001770:	2d00      	cmp	r5, #0
 8001772:	d127      	bne.n	80017c4 <__gedf2+0x98>
 8001774:	430a      	orrs	r2, r1
 8001776:	d03a      	beq.n	80017ee <__gedf2+0xc2>
 8001778:	2c00      	cmp	r4, #0
 800177a:	d145      	bne.n	8001808 <__gedf2+0xdc>
 800177c:	2800      	cmp	r0, #0
 800177e:	d11a      	bne.n	80017b6 <__gedf2+0x8a>
 8001780:	2001      	movs	r0, #1
 8001782:	4240      	negs	r0, r0
 8001784:	e017      	b.n	80017b6 <__gedf2+0x8a>
 8001786:	4311      	orrs	r1, r2
 8001788:	d13b      	bne.n	8001802 <__gedf2+0xd6>
 800178a:	2e00      	cmp	r6, #0
 800178c:	d102      	bne.n	8001794 <__gedf2+0x68>
 800178e:	9f01      	ldr	r7, [sp, #4]
 8001790:	4327      	orrs	r7, r4
 8001792:	d0f3      	beq.n	800177c <__gedf2+0x50>
 8001794:	4584      	cmp	ip, r0
 8001796:	d109      	bne.n	80017ac <__gedf2+0x80>
 8001798:	4663      	mov	r3, ip
 800179a:	2b00      	cmp	r3, #0
 800179c:	d0f0      	beq.n	8001780 <__gedf2+0x54>
 800179e:	4660      	mov	r0, ip
 80017a0:	e009      	b.n	80017b6 <__gedf2+0x8a>
 80017a2:	9f01      	ldr	r7, [sp, #4]
 80017a4:	4327      	orrs	r7, r4
 80017a6:	d12c      	bne.n	8001802 <__gedf2+0xd6>
 80017a8:	45b2      	cmp	sl, r6
 80017aa:	d024      	beq.n	80017f6 <__gedf2+0xca>
 80017ac:	4663      	mov	r3, ip
 80017ae:	2002      	movs	r0, #2
 80017b0:	3b01      	subs	r3, #1
 80017b2:	4018      	ands	r0, r3
 80017b4:	3801      	subs	r0, #1
 80017b6:	b003      	add	sp, #12
 80017b8:	bcf0      	pop	{r4, r5, r6, r7}
 80017ba:	46bb      	mov	fp, r7
 80017bc:	46b2      	mov	sl, r6
 80017be:	46a9      	mov	r9, r5
 80017c0:	46a0      	mov	r8, r4
 80017c2:	bdf0      	pop	{r4, r5, r6, r7, pc}
 80017c4:	2c00      	cmp	r4, #0
 80017c6:	d0d9      	beq.n	800177c <__gedf2+0x50>
 80017c8:	e7e4      	b.n	8001794 <__gedf2+0x68>
 80017ca:	4654      	mov	r4, sl
 80017cc:	2c00      	cmp	r4, #0
 80017ce:	d0ed      	beq.n	80017ac <__gedf2+0x80>
 80017d0:	4584      	cmp	ip, r0
 80017d2:	d1eb      	bne.n	80017ac <__gedf2+0x80>
 80017d4:	4556      	cmp	r6, sl
 80017d6:	dce9      	bgt.n	80017ac <__gedf2+0x80>
 80017d8:	dbde      	blt.n	8001798 <__gedf2+0x6c>
 80017da:	9b01      	ldr	r3, [sp, #4]
 80017dc:	428b      	cmp	r3, r1
 80017de:	d8e5      	bhi.n	80017ac <__gedf2+0x80>
 80017e0:	d1da      	bne.n	8001798 <__gedf2+0x6c>
 80017e2:	45c8      	cmp	r8, r9
 80017e4:	d8e2      	bhi.n	80017ac <__gedf2+0x80>
 80017e6:	2000      	movs	r0, #0
 80017e8:	45c8      	cmp	r8, r9
 80017ea:	d2e4      	bcs.n	80017b6 <__gedf2+0x8a>
 80017ec:	e7d4      	b.n	8001798 <__gedf2+0x6c>
 80017ee:	2000      	movs	r0, #0
 80017f0:	2c00      	cmp	r4, #0
 80017f2:	d0e0      	beq.n	80017b6 <__gedf2+0x8a>
 80017f4:	e7da      	b.n	80017ac <__gedf2+0x80>
 80017f6:	4311      	orrs	r1, r2
 80017f8:	d103      	bne.n	8001802 <__gedf2+0xd6>
 80017fa:	4584      	cmp	ip, r0
 80017fc:	d1d6      	bne.n	80017ac <__gedf2+0x80>
 80017fe:	2000      	movs	r0, #0
 8001800:	e7d9      	b.n	80017b6 <__gedf2+0x8a>
 8001802:	2002      	movs	r0, #2
 8001804:	4240      	negs	r0, r0
 8001806:	e7d6      	b.n	80017b6 <__gedf2+0x8a>
 8001808:	4584      	cmp	ip, r0
 800180a:	d0e6      	beq.n	80017da <__gedf2+0xae>
 800180c:	e7ce      	b.n	80017ac <__gedf2+0x80>
 800180e:	46c0      	nop			@ (mov r8, r8)
 8001810:	000007ff 	.word	0x000007ff

08001814 <__ledf2>:
 8001814:	b5f0      	push	{r4, r5, r6, r7, lr}
 8001816:	4657      	mov	r7, sl
 8001818:	464e      	mov	r6, r9
 800181a:	4645      	mov	r5, r8
 800181c:	46de      	mov	lr, fp
 800181e:	b5e0      	push	{r5, r6, r7, lr}
 8001820:	000d      	movs	r5, r1
 8001822:	030f      	lsls	r7, r1, #12
 8001824:	0004      	movs	r4, r0
 8001826:	4680      	mov	r8, r0
 8001828:	0fe8      	lsrs	r0, r5, #31
 800182a:	0b39      	lsrs	r1, r7, #12
 800182c:	4684      	mov	ip, r0
 800182e:	b083      	sub	sp, #12
 8001830:	0058      	lsls	r0, r3, #1
 8001832:	4f30      	ldr	r7, [pc, #192]	@ (80018f4 <__ledf2+0xe0>)
 8001834:	0d40      	lsrs	r0, r0, #21
 8001836:	9101      	str	r1, [sp, #4]
 8001838:	031e      	lsls	r6, r3, #12
 800183a:	0069      	lsls	r1, r5, #1
 800183c:	4682      	mov	sl, r0
 800183e:	4691      	mov	r9, r2
 8001840:	0d49      	lsrs	r1, r1, #21
 8001842:	0b36      	lsrs	r6, r6, #12
 8001844:	0fd8      	lsrs	r0, r3, #31
 8001846:	42b9      	cmp	r1, r7
 8001848:	d020      	beq.n	800188c <__ledf2+0x78>
 800184a:	45ba      	cmp	sl, r7
 800184c:	d00f      	beq.n	800186e <__ledf2+0x5a>
 800184e:	2900      	cmp	r1, #0
 8001850:	d12b      	bne.n	80018aa <__ledf2+0x96>
 8001852:	9901      	ldr	r1, [sp, #4]
 8001854:	430c      	orrs	r4, r1
 8001856:	4651      	mov	r1, sl
 8001858:	2900      	cmp	r1, #0
 800185a:	d137      	bne.n	80018cc <__ledf2+0xb8>
 800185c:	4332      	orrs	r2, r6
 800185e:	d038      	beq.n	80018d2 <__ledf2+0xbe>
 8001860:	2c00      	cmp	r4, #0
 8001862:	d144      	bne.n	80018ee <__ledf2+0xda>
 8001864:	2800      	cmp	r0, #0
 8001866:	d119      	bne.n	800189c <__ledf2+0x88>
 8001868:	2001      	movs	r0, #1
 800186a:	4240      	negs	r0, r0
 800186c:	e016      	b.n	800189c <__ledf2+0x88>
 800186e:	4316      	orrs	r6, r2
 8001870:	d113      	bne.n	800189a <__ledf2+0x86>
 8001872:	2900      	cmp	r1, #0
 8001874:	d102      	bne.n	800187c <__ledf2+0x68>
 8001876:	9f01      	ldr	r7, [sp, #4]
 8001878:	4327      	orrs	r7, r4
 800187a:	d0f3      	beq.n	8001864 <__ledf2+0x50>
 800187c:	4584      	cmp	ip, r0
 800187e:	d020      	beq.n	80018c2 <__ledf2+0xae>
 8001880:	4663      	mov	r3, ip
 8001882:	2002      	movs	r0, #2
 8001884:	3b01      	subs	r3, #1
 8001886:	4018      	ands	r0, r3
 8001888:	3801      	subs	r0, #1
 800188a:	e007      	b.n	800189c <__ledf2+0x88>
 800188c:	9f01      	ldr	r7, [sp, #4]
 800188e:	4327      	orrs	r7, r4
 8001890:	d103      	bne.n	800189a <__ledf2+0x86>
 8001892:	458a      	cmp	sl, r1
 8001894:	d1f4      	bne.n	8001880 <__ledf2+0x6c>
 8001896:	4316      	orrs	r6, r2
 8001898:	d01f      	beq.n	80018da <__ledf2+0xc6>
 800189a:	2002      	movs	r0, #2
 800189c:	b003      	add	sp, #12
 800189e:	bcf0      	pop	{r4, r5, r6, r7}
 80018a0:	46bb      	mov	fp, r7
 80018a2:	46b2      	mov	sl, r6
 80018a4:	46a9      	mov	r9, r5
 80018a6:	46a0      	mov	r8, r4
 80018a8:	bdf0      	pop	{r4, r5, r6, r7, pc}
 80018aa:	4654      	mov	r4, sl
 80018ac:	2c00      	cmp	r4, #0
 80018ae:	d0e7      	beq.n	8001880 <__ledf2+0x6c>
 80018b0:	4584      	cmp	ip, r0
 80018b2:	d1e5      	bne.n	8001880 <__ledf2+0x6c>
 80018b4:	4551      	cmp	r1, sl
 80018b6:	dce3      	bgt.n	8001880 <__ledf2+0x6c>
 80018b8:	db03      	blt.n	80018c2 <__ledf2+0xae>
 80018ba:	9b01      	ldr	r3, [sp, #4]
 80018bc:	42b3      	cmp	r3, r6
 80018be:	d8df      	bhi.n	8001880 <__ledf2+0x6c>
 80018c0:	d00f      	beq.n	80018e2 <__ledf2+0xce>
 80018c2:	4663      	mov	r3, ip
 80018c4:	2b00      	cmp	r3, #0
 80018c6:	d0cf      	beq.n	8001868 <__ledf2+0x54>
 80018c8:	4660      	mov	r0, ip
 80018ca:	e7e7      	b.n	800189c <__ledf2+0x88>
 80018cc:	2c00      	cmp	r4, #0
 80018ce:	d0c9      	beq.n	8001864 <__ledf2+0x50>
 80018d0:	e7d4      	b.n	800187c <__ledf2+0x68>
 80018d2:	2000      	movs	r0, #0
 80018d4:	2c00      	cmp	r4, #0
 80018d6:	d0e1      	beq.n	800189c <__ledf2+0x88>
 80018d8:	e7d2      	b.n	8001880 <__ledf2+0x6c>
 80018da:	4584      	cmp	ip, r0
 80018dc:	d1d0      	bne.n	8001880 <__ledf2+0x6c>
 80018de:	2000      	movs	r0, #0
 80018e0:	e7dc      	b.n	800189c <__ledf2+0x88>
 80018e2:	45c8      	cmp	r8, r9
 80018e4:	d8cc      	bhi.n	8001880 <__ledf2+0x6c>
 80018e6:	2000      	movs	r0, #0
 80018e8:	45c8      	cmp	r8, r9
 80018ea:	d2d7      	bcs.n	800189c <__ledf2+0x88>
 80018ec:	e7e9      	b.n	80018c2 <__ledf2+0xae>
 80018ee:	4584      	cmp	ip, r0
 80018f0:	d0e3      	beq.n	80018ba <__ledf2+0xa6>
 80018f2:	e7c5      	b.n	8001880 <__ledf2+0x6c>
 80018f4:	000007ff 	.word	0x000007ff

080018f8 <__aeabi_dmul>:
 80018f8:	b5f0      	push	{r4, r5, r6, r7, lr}
 80018fa:	4657      	mov	r7, sl
 80018fc:	46de      	mov	lr, fp
 80018fe:	464e      	mov	r6, r9
 8001900:	4645      	mov	r5, r8
 8001902:	b5e0      	push	{r5, r6, r7, lr}
 8001904:	001f      	movs	r7, r3
 8001906:	030b      	lsls	r3, r1, #12
 8001908:	0b1b      	lsrs	r3, r3, #12
 800190a:	0016      	movs	r6, r2
 800190c:	469a      	mov	sl, r3
 800190e:	0fca      	lsrs	r2, r1, #31
 8001910:	004b      	lsls	r3, r1, #1
 8001912:	0004      	movs	r4, r0
 8001914:	4693      	mov	fp, r2
 8001916:	b087      	sub	sp, #28
 8001918:	0d5b      	lsrs	r3, r3, #21
 800191a:	d100      	bne.n	800191e <__aeabi_dmul+0x26>
 800191c:	e0d5      	b.n	8001aca <__aeabi_dmul+0x1d2>
 800191e:	4abb      	ldr	r2, [pc, #748]	@ (8001c0c <__aeabi_dmul+0x314>)
 8001920:	4293      	cmp	r3, r2
 8001922:	d100      	bne.n	8001926 <__aeabi_dmul+0x2e>
 8001924:	e0f8      	b.n	8001b18 <__aeabi_dmul+0x220>
 8001926:	4651      	mov	r1, sl
 8001928:	0f42      	lsrs	r2, r0, #29
 800192a:	00c9      	lsls	r1, r1, #3
 800192c:	430a      	orrs	r2, r1
 800192e:	2180      	movs	r1, #128	@ 0x80
 8001930:	0409      	lsls	r1, r1, #16
 8001932:	4311      	orrs	r1, r2
 8001934:	00c2      	lsls	r2, r0, #3
 8001936:	4691      	mov	r9, r2
 8001938:	4ab5      	ldr	r2, [pc, #724]	@ (8001c10 <__aeabi_dmul+0x318>)
 800193a:	468a      	mov	sl, r1
 800193c:	189d      	adds	r5, r3, r2
 800193e:	2300      	movs	r3, #0
 8001940:	4698      	mov	r8, r3
 8001942:	9302      	str	r3, [sp, #8]
 8001944:	033c      	lsls	r4, r7, #12
 8001946:	007b      	lsls	r3, r7, #1
 8001948:	0ffa      	lsrs	r2, r7, #31
 800194a:	0030      	movs	r0, r6
 800194c:	0b24      	lsrs	r4, r4, #12
 800194e:	0d5b      	lsrs	r3, r3, #21
 8001950:	9200      	str	r2, [sp, #0]
 8001952:	d100      	bne.n	8001956 <__aeabi_dmul+0x5e>
 8001954:	e096      	b.n	8001a84 <__aeabi_dmul+0x18c>
 8001956:	4aad      	ldr	r2, [pc, #692]	@ (8001c0c <__aeabi_dmul+0x314>)
 8001958:	4293      	cmp	r3, r2
 800195a:	d031      	beq.n	80019c0 <__aeabi_dmul+0xc8>
 800195c:	0f72      	lsrs	r2, r6, #29
 800195e:	00e4      	lsls	r4, r4, #3
 8001960:	4322      	orrs	r2, r4
 8001962:	2480      	movs	r4, #128	@ 0x80
 8001964:	0424      	lsls	r4, r4, #16
 8001966:	4314      	orrs	r4, r2
 8001968:	4aa9      	ldr	r2, [pc, #676]	@ (8001c10 <__aeabi_dmul+0x318>)
 800196a:	00f0      	lsls	r0, r6, #3
 800196c:	4694      	mov	ip, r2
 800196e:	4463      	add	r3, ip
 8001970:	195b      	adds	r3, r3, r5
 8001972:	1c5a      	adds	r2, r3, #1
 8001974:	9201      	str	r2, [sp, #4]
 8001976:	4642      	mov	r2, r8
 8001978:	2600      	movs	r6, #0
 800197a:	2a0a      	cmp	r2, #10
 800197c:	dc42      	bgt.n	8001a04 <__aeabi_dmul+0x10c>
 800197e:	465a      	mov	r2, fp
 8001980:	9900      	ldr	r1, [sp, #0]
 8001982:	404a      	eors	r2, r1
 8001984:	4693      	mov	fp, r2
 8001986:	4642      	mov	r2, r8
 8001988:	2a02      	cmp	r2, #2
 800198a:	dc32      	bgt.n	80019f2 <__aeabi_dmul+0xfa>
 800198c:	3a01      	subs	r2, #1
 800198e:	2a01      	cmp	r2, #1
 8001990:	d900      	bls.n	8001994 <__aeabi_dmul+0x9c>
 8001992:	e149      	b.n	8001c28 <__aeabi_dmul+0x330>
 8001994:	2e02      	cmp	r6, #2
 8001996:	d100      	bne.n	800199a <__aeabi_dmul+0xa2>
 8001998:	e0ca      	b.n	8001b30 <__aeabi_dmul+0x238>
 800199a:	2e01      	cmp	r6, #1
 800199c:	d13d      	bne.n	8001a1a <__aeabi_dmul+0x122>
 800199e:	2300      	movs	r3, #0
 80019a0:	2400      	movs	r4, #0
 80019a2:	2200      	movs	r2, #0
 80019a4:	0010      	movs	r0, r2
 80019a6:	465a      	mov	r2, fp
 80019a8:	051b      	lsls	r3, r3, #20
 80019aa:	4323      	orrs	r3, r4
 80019ac:	07d2      	lsls	r2, r2, #31
 80019ae:	4313      	orrs	r3, r2
 80019b0:	0019      	movs	r1, r3
 80019b2:	b007      	add	sp, #28
 80019b4:	bcf0      	pop	{r4, r5, r6, r7}
 80019b6:	46bb      	mov	fp, r7
 80019b8:	46b2      	mov	sl, r6
 80019ba:	46a9      	mov	r9, r5
 80019bc:	46a0      	mov	r8, r4
 80019be:	bdf0      	pop	{r4, r5, r6, r7, pc}
 80019c0:	4b92      	ldr	r3, [pc, #584]	@ (8001c0c <__aeabi_dmul+0x314>)
 80019c2:	4326      	orrs	r6, r4
 80019c4:	18eb      	adds	r3, r5, r3
 80019c6:	2e00      	cmp	r6, #0
 80019c8:	d100      	bne.n	80019cc <__aeabi_dmul+0xd4>
 80019ca:	e0bb      	b.n	8001b44 <__aeabi_dmul+0x24c>
 80019cc:	2203      	movs	r2, #3
 80019ce:	4641      	mov	r1, r8
 80019d0:	4311      	orrs	r1, r2
 80019d2:	465a      	mov	r2, fp
 80019d4:	4688      	mov	r8, r1
 80019d6:	9900      	ldr	r1, [sp, #0]
 80019d8:	404a      	eors	r2, r1
 80019da:	2180      	movs	r1, #128	@ 0x80
 80019dc:	0109      	lsls	r1, r1, #4
 80019de:	468c      	mov	ip, r1
 80019e0:	0029      	movs	r1, r5
 80019e2:	4461      	add	r1, ip
 80019e4:	9101      	str	r1, [sp, #4]
 80019e6:	4641      	mov	r1, r8
 80019e8:	290a      	cmp	r1, #10
 80019ea:	dd00      	ble.n	80019ee <__aeabi_dmul+0xf6>
 80019ec:	e233      	b.n	8001e56 <__aeabi_dmul+0x55e>
 80019ee:	4693      	mov	fp, r2
 80019f0:	2603      	movs	r6, #3
 80019f2:	4642      	mov	r2, r8
 80019f4:	2701      	movs	r7, #1
 80019f6:	4097      	lsls	r7, r2
 80019f8:	21a6      	movs	r1, #166	@ 0xa6
 80019fa:	003a      	movs	r2, r7
 80019fc:	00c9      	lsls	r1, r1, #3
 80019fe:	400a      	ands	r2, r1
 8001a00:	420f      	tst	r7, r1
 8001a02:	d031      	beq.n	8001a68 <__aeabi_dmul+0x170>
 8001a04:	9e02      	ldr	r6, [sp, #8]
 8001a06:	2e02      	cmp	r6, #2
 8001a08:	d100      	bne.n	8001a0c <__aeabi_dmul+0x114>
 8001a0a:	e235      	b.n	8001e78 <__aeabi_dmul+0x580>
 8001a0c:	2e03      	cmp	r6, #3
 8001a0e:	d100      	bne.n	8001a12 <__aeabi_dmul+0x11a>
 8001a10:	e1d2      	b.n	8001db8 <__aeabi_dmul+0x4c0>
 8001a12:	4654      	mov	r4, sl
 8001a14:	4648      	mov	r0, r9
 8001a16:	2e01      	cmp	r6, #1
 8001a18:	d0c1      	beq.n	800199e <__aeabi_dmul+0xa6>
 8001a1a:	9a01      	ldr	r2, [sp, #4]
 8001a1c:	4b7d      	ldr	r3, [pc, #500]	@ (8001c14 <__aeabi_dmul+0x31c>)
 8001a1e:	4694      	mov	ip, r2
 8001a20:	4463      	add	r3, ip
 8001a22:	2b00      	cmp	r3, #0
 8001a24:	dc00      	bgt.n	8001a28 <__aeabi_dmul+0x130>
 8001a26:	e0c0      	b.n	8001baa <__aeabi_dmul+0x2b2>
 8001a28:	0742      	lsls	r2, r0, #29
 8001a2a:	d009      	beq.n	8001a40 <__aeabi_dmul+0x148>
 8001a2c:	220f      	movs	r2, #15
 8001a2e:	4002      	ands	r2, r0
 8001a30:	2a04      	cmp	r2, #4
 8001a32:	d005      	beq.n	8001a40 <__aeabi_dmul+0x148>
 8001a34:	1d02      	adds	r2, r0, #4
 8001a36:	4282      	cmp	r2, r0
 8001a38:	4180      	sbcs	r0, r0
 8001a3a:	4240      	negs	r0, r0
 8001a3c:	1824      	adds	r4, r4, r0
 8001a3e:	0010      	movs	r0, r2
 8001a40:	01e2      	lsls	r2, r4, #7
 8001a42:	d506      	bpl.n	8001a52 <__aeabi_dmul+0x15a>
 8001a44:	4b74      	ldr	r3, [pc, #464]	@ (8001c18 <__aeabi_dmul+0x320>)
 8001a46:	9a01      	ldr	r2, [sp, #4]
 8001a48:	401c      	ands	r4, r3
 8001a4a:	2380      	movs	r3, #128	@ 0x80
 8001a4c:	4694      	mov	ip, r2
 8001a4e:	00db      	lsls	r3, r3, #3
 8001a50:	4463      	add	r3, ip
 8001a52:	4a72      	ldr	r2, [pc, #456]	@ (8001c1c <__aeabi_dmul+0x324>)
 8001a54:	4293      	cmp	r3, r2
 8001a56:	dc6b      	bgt.n	8001b30 <__aeabi_dmul+0x238>
 8001a58:	0762      	lsls	r2, r4, #29
 8001a5a:	08c0      	lsrs	r0, r0, #3
 8001a5c:	0264      	lsls	r4, r4, #9
 8001a5e:	055b      	lsls	r3, r3, #21
 8001a60:	4302      	orrs	r2, r0
 8001a62:	0b24      	lsrs	r4, r4, #12
 8001a64:	0d5b      	lsrs	r3, r3, #21
 8001a66:	e79d      	b.n	80019a4 <__aeabi_dmul+0xac>
 8001a68:	2190      	movs	r1, #144	@ 0x90
 8001a6a:	0089      	lsls	r1, r1, #2
 8001a6c:	420f      	tst	r7, r1
 8001a6e:	d163      	bne.n	8001b38 <__aeabi_dmul+0x240>
 8001a70:	2288      	movs	r2, #136	@ 0x88
 8001a72:	423a      	tst	r2, r7
 8001a74:	d100      	bne.n	8001a78 <__aeabi_dmul+0x180>
 8001a76:	e0d7      	b.n	8001c28 <__aeabi_dmul+0x330>
 8001a78:	9b00      	ldr	r3, [sp, #0]
 8001a7a:	46a2      	mov	sl, r4
 8001a7c:	469b      	mov	fp, r3
 8001a7e:	4681      	mov	r9, r0
 8001a80:	9602      	str	r6, [sp, #8]
 8001a82:	e7bf      	b.n	8001a04 <__aeabi_dmul+0x10c>
 8001a84:	0023      	movs	r3, r4
 8001a86:	4333      	orrs	r3, r6
 8001a88:	d100      	bne.n	8001a8c <__aeabi_dmul+0x194>
 8001a8a:	e07f      	b.n	8001b8c <__aeabi_dmul+0x294>
 8001a8c:	2c00      	cmp	r4, #0
 8001a8e:	d100      	bne.n	8001a92 <__aeabi_dmul+0x19a>
 8001a90:	e1ad      	b.n	8001dee <__aeabi_dmul+0x4f6>
 8001a92:	0020      	movs	r0, r4
 8001a94:	f000 fe20 	bl	80026d8 <__clzsi2>
 8001a98:	0002      	movs	r2, r0
 8001a9a:	0003      	movs	r3, r0
 8001a9c:	3a0b      	subs	r2, #11
 8001a9e:	201d      	movs	r0, #29
 8001aa0:	0019      	movs	r1, r3
 8001aa2:	1a82      	subs	r2, r0, r2
 8001aa4:	0030      	movs	r0, r6
 8001aa6:	3908      	subs	r1, #8
 8001aa8:	40d0      	lsrs	r0, r2
 8001aaa:	408c      	lsls	r4, r1
 8001aac:	4304      	orrs	r4, r0
 8001aae:	0030      	movs	r0, r6
 8001ab0:	4088      	lsls	r0, r1
 8001ab2:	4a5b      	ldr	r2, [pc, #364]	@ (8001c20 <__aeabi_dmul+0x328>)
 8001ab4:	1aeb      	subs	r3, r5, r3
 8001ab6:	4694      	mov	ip, r2
 8001ab8:	4463      	add	r3, ip
 8001aba:	1c5a      	adds	r2, r3, #1
 8001abc:	9201      	str	r2, [sp, #4]
 8001abe:	4642      	mov	r2, r8
 8001ac0:	2600      	movs	r6, #0
 8001ac2:	2a0a      	cmp	r2, #10
 8001ac4:	dc00      	bgt.n	8001ac8 <__aeabi_dmul+0x1d0>
 8001ac6:	e75a      	b.n	800197e <__aeabi_dmul+0x86>
 8001ac8:	e79c      	b.n	8001a04 <__aeabi_dmul+0x10c>
 8001aca:	4653      	mov	r3, sl
 8001acc:	4303      	orrs	r3, r0
 8001ace:	4699      	mov	r9, r3
 8001ad0:	d054      	beq.n	8001b7c <__aeabi_dmul+0x284>
 8001ad2:	4653      	mov	r3, sl
 8001ad4:	2b00      	cmp	r3, #0
 8001ad6:	d100      	bne.n	8001ada <__aeabi_dmul+0x1e2>
 8001ad8:	e177      	b.n	8001dca <__aeabi_dmul+0x4d2>
 8001ada:	4650      	mov	r0, sl
 8001adc:	f000 fdfc 	bl	80026d8 <__clzsi2>
 8001ae0:	230b      	movs	r3, #11
 8001ae2:	425b      	negs	r3, r3
 8001ae4:	469c      	mov	ip, r3
 8001ae6:	0002      	movs	r2, r0
 8001ae8:	4484      	add	ip, r0
 8001aea:	0011      	movs	r1, r2
 8001aec:	4650      	mov	r0, sl
 8001aee:	3908      	subs	r1, #8
 8001af0:	4088      	lsls	r0, r1
 8001af2:	231d      	movs	r3, #29
 8001af4:	4680      	mov	r8, r0
 8001af6:	4660      	mov	r0, ip
 8001af8:	1a1b      	subs	r3, r3, r0
 8001afa:	0020      	movs	r0, r4
 8001afc:	40d8      	lsrs	r0, r3
 8001afe:	0003      	movs	r3, r0
 8001b00:	4640      	mov	r0, r8
 8001b02:	4303      	orrs	r3, r0
 8001b04:	469a      	mov	sl, r3
 8001b06:	0023      	movs	r3, r4
 8001b08:	408b      	lsls	r3, r1
 8001b0a:	4699      	mov	r9, r3
 8001b0c:	2300      	movs	r3, #0
 8001b0e:	4d44      	ldr	r5, [pc, #272]	@ (8001c20 <__aeabi_dmul+0x328>)
 8001b10:	4698      	mov	r8, r3
 8001b12:	1aad      	subs	r5, r5, r2
 8001b14:	9302      	str	r3, [sp, #8]
 8001b16:	e715      	b.n	8001944 <__aeabi_dmul+0x4c>
 8001b18:	4652      	mov	r2, sl
 8001b1a:	4302      	orrs	r2, r0
 8001b1c:	4691      	mov	r9, r2
 8001b1e:	d126      	bne.n	8001b6e <__aeabi_dmul+0x276>
 8001b20:	2200      	movs	r2, #0
 8001b22:	001d      	movs	r5, r3
 8001b24:	2302      	movs	r3, #2
 8001b26:	4692      	mov	sl, r2
 8001b28:	3208      	adds	r2, #8
 8001b2a:	4690      	mov	r8, r2
 8001b2c:	9302      	str	r3, [sp, #8]
 8001b2e:	e709      	b.n	8001944 <__aeabi_dmul+0x4c>
 8001b30:	2400      	movs	r4, #0
 8001b32:	2200      	movs	r2, #0
 8001b34:	4b35      	ldr	r3, [pc, #212]	@ (8001c0c <__aeabi_dmul+0x314>)
 8001b36:	e735      	b.n	80019a4 <__aeabi_dmul+0xac>
 8001b38:	2300      	movs	r3, #0
 8001b3a:	2480      	movs	r4, #128	@ 0x80
 8001b3c:	469b      	mov	fp, r3
 8001b3e:	0324      	lsls	r4, r4, #12
 8001b40:	4b32      	ldr	r3, [pc, #200]	@ (8001c0c <__aeabi_dmul+0x314>)
 8001b42:	e72f      	b.n	80019a4 <__aeabi_dmul+0xac>
 8001b44:	2202      	movs	r2, #2
 8001b46:	4641      	mov	r1, r8
 8001b48:	4311      	orrs	r1, r2
 8001b4a:	2280      	movs	r2, #128	@ 0x80
 8001b4c:	0112      	lsls	r2, r2, #4
 8001b4e:	4694      	mov	ip, r2
 8001b50:	002a      	movs	r2, r5
 8001b52:	4462      	add	r2, ip
 8001b54:	4688      	mov	r8, r1
 8001b56:	9201      	str	r2, [sp, #4]
 8001b58:	290a      	cmp	r1, #10
 8001b5a:	dd00      	ble.n	8001b5e <__aeabi_dmul+0x266>
 8001b5c:	e752      	b.n	8001a04 <__aeabi_dmul+0x10c>
 8001b5e:	465a      	mov	r2, fp
 8001b60:	2000      	movs	r0, #0
 8001b62:	9900      	ldr	r1, [sp, #0]
 8001b64:	0004      	movs	r4, r0
 8001b66:	404a      	eors	r2, r1
 8001b68:	4693      	mov	fp, r2
 8001b6a:	2602      	movs	r6, #2
 8001b6c:	e70b      	b.n	8001986 <__aeabi_dmul+0x8e>
 8001b6e:	220c      	movs	r2, #12
 8001b70:	001d      	movs	r5, r3
 8001b72:	2303      	movs	r3, #3
 8001b74:	4681      	mov	r9, r0
 8001b76:	4690      	mov	r8, r2
 8001b78:	9302      	str	r3, [sp, #8]
 8001b7a:	e6e3      	b.n	8001944 <__aeabi_dmul+0x4c>
 8001b7c:	2300      	movs	r3, #0
 8001b7e:	469a      	mov	sl, r3
 8001b80:	3304      	adds	r3, #4
 8001b82:	4698      	mov	r8, r3
 8001b84:	3b03      	subs	r3, #3
 8001b86:	2500      	movs	r5, #0
 8001b88:	9302      	str	r3, [sp, #8]
 8001b8a:	e6db      	b.n	8001944 <__aeabi_dmul+0x4c>
 8001b8c:	4642      	mov	r2, r8
 8001b8e:	3301      	adds	r3, #1
 8001b90:	431a      	orrs	r2, r3
 8001b92:	002b      	movs	r3, r5
 8001b94:	4690      	mov	r8, r2
 8001b96:	1c5a      	adds	r2, r3, #1
 8001b98:	9201      	str	r2, [sp, #4]
 8001b9a:	4642      	mov	r2, r8
 8001b9c:	2400      	movs	r4, #0
 8001b9e:	2000      	movs	r0, #0
 8001ba0:	2601      	movs	r6, #1
 8001ba2:	2a0a      	cmp	r2, #10
 8001ba4:	dc00      	bgt.n	8001ba8 <__aeabi_dmul+0x2b0>
 8001ba6:	e6ea      	b.n	800197e <__aeabi_dmul+0x86>
 8001ba8:	e72c      	b.n	8001a04 <__aeabi_dmul+0x10c>
 8001baa:	2201      	movs	r2, #1
 8001bac:	1ad2      	subs	r2, r2, r3
 8001bae:	2a38      	cmp	r2, #56	@ 0x38
 8001bb0:	dd00      	ble.n	8001bb4 <__aeabi_dmul+0x2bc>
 8001bb2:	e6f4      	b.n	800199e <__aeabi_dmul+0xa6>
 8001bb4:	2a1f      	cmp	r2, #31
 8001bb6:	dc00      	bgt.n	8001bba <__aeabi_dmul+0x2c2>
 8001bb8:	e12a      	b.n	8001e10 <__aeabi_dmul+0x518>
 8001bba:	211f      	movs	r1, #31
 8001bbc:	4249      	negs	r1, r1
 8001bbe:	1acb      	subs	r3, r1, r3
 8001bc0:	0021      	movs	r1, r4
 8001bc2:	40d9      	lsrs	r1, r3
 8001bc4:	000b      	movs	r3, r1
 8001bc6:	2a20      	cmp	r2, #32
 8001bc8:	d005      	beq.n	8001bd6 <__aeabi_dmul+0x2de>
 8001bca:	4a16      	ldr	r2, [pc, #88]	@ (8001c24 <__aeabi_dmul+0x32c>)
 8001bcc:	9d01      	ldr	r5, [sp, #4]
 8001bce:	4694      	mov	ip, r2
 8001bd0:	4465      	add	r5, ip
 8001bd2:	40ac      	lsls	r4, r5
 8001bd4:	4320      	orrs	r0, r4
 8001bd6:	1e42      	subs	r2, r0, #1
 8001bd8:	4190      	sbcs	r0, r2
 8001bda:	4318      	orrs	r0, r3
 8001bdc:	2307      	movs	r3, #7
 8001bde:	0019      	movs	r1, r3
 8001be0:	2400      	movs	r4, #0
 8001be2:	4001      	ands	r1, r0
 8001be4:	4203      	tst	r3, r0
 8001be6:	d00c      	beq.n	8001c02 <__aeabi_dmul+0x30a>
 8001be8:	230f      	movs	r3, #15
 8001bea:	4003      	ands	r3, r0
 8001bec:	2b04      	cmp	r3, #4
 8001bee:	d100      	bne.n	8001bf2 <__aeabi_dmul+0x2fa>
 8001bf0:	e140      	b.n	8001e74 <__aeabi_dmul+0x57c>
 8001bf2:	1d03      	adds	r3, r0, #4
 8001bf4:	4283      	cmp	r3, r0
 8001bf6:	41a4      	sbcs	r4, r4
 8001bf8:	0018      	movs	r0, r3
 8001bfa:	4264      	negs	r4, r4
 8001bfc:	0761      	lsls	r1, r4, #29
 8001bfe:	0264      	lsls	r4, r4, #9
 8001c00:	0b24      	lsrs	r4, r4, #12
 8001c02:	08c2      	lsrs	r2, r0, #3
 8001c04:	2300      	movs	r3, #0
 8001c06:	430a      	orrs	r2, r1
 8001c08:	e6cc      	b.n	80019a4 <__aeabi_dmul+0xac>
 8001c0a:	46c0      	nop			@ (mov r8, r8)
 8001c0c:	000007ff 	.word	0x000007ff
 8001c10:	fffffc01 	.word	0xfffffc01
 8001c14:	000003ff 	.word	0x000003ff
 8001c18:	feffffff 	.word	0xfeffffff
 8001c1c:	000007fe 	.word	0x000007fe
 8001c20:	fffffc0d 	.word	0xfffffc0d
 8001c24:	0000043e 	.word	0x0000043e
 8001c28:	4649      	mov	r1, r9
 8001c2a:	464a      	mov	r2, r9
 8001c2c:	0409      	lsls	r1, r1, #16
 8001c2e:	0c09      	lsrs	r1, r1, #16
 8001c30:	000d      	movs	r5, r1
 8001c32:	0c16      	lsrs	r6, r2, #16
 8001c34:	0c02      	lsrs	r2, r0, #16
 8001c36:	0400      	lsls	r0, r0, #16
 8001c38:	0c00      	lsrs	r0, r0, #16
 8001c3a:	4345      	muls	r5, r0
 8001c3c:	46ac      	mov	ip, r5
 8001c3e:	0005      	movs	r5, r0
 8001c40:	4375      	muls	r5, r6
 8001c42:	46a8      	mov	r8, r5
 8001c44:	0015      	movs	r5, r2
 8001c46:	000f      	movs	r7, r1
 8001c48:	4375      	muls	r5, r6
 8001c4a:	9200      	str	r2, [sp, #0]
 8001c4c:	9502      	str	r5, [sp, #8]
 8001c4e:	002a      	movs	r2, r5
 8001c50:	9d00      	ldr	r5, [sp, #0]
 8001c52:	436f      	muls	r7, r5
 8001c54:	4665      	mov	r5, ip
 8001c56:	0c2d      	lsrs	r5, r5, #16
 8001c58:	46a9      	mov	r9, r5
 8001c5a:	4447      	add	r7, r8
 8001c5c:	444f      	add	r7, r9
 8001c5e:	45b8      	cmp	r8, r7
 8001c60:	d905      	bls.n	8001c6e <__aeabi_dmul+0x376>
 8001c62:	0015      	movs	r5, r2
 8001c64:	2280      	movs	r2, #128	@ 0x80
 8001c66:	0252      	lsls	r2, r2, #9
 8001c68:	4690      	mov	r8, r2
 8001c6a:	4445      	add	r5, r8
 8001c6c:	9502      	str	r5, [sp, #8]
 8001c6e:	0c3d      	lsrs	r5, r7, #16
 8001c70:	9503      	str	r5, [sp, #12]
 8001c72:	4665      	mov	r5, ip
 8001c74:	042d      	lsls	r5, r5, #16
 8001c76:	043f      	lsls	r7, r7, #16
 8001c78:	0c2d      	lsrs	r5, r5, #16
 8001c7a:	46ac      	mov	ip, r5
 8001c7c:	003d      	movs	r5, r7
 8001c7e:	4465      	add	r5, ip
 8001c80:	9504      	str	r5, [sp, #16]
 8001c82:	0c25      	lsrs	r5, r4, #16
 8001c84:	0424      	lsls	r4, r4, #16
 8001c86:	0c24      	lsrs	r4, r4, #16
 8001c88:	46ac      	mov	ip, r5
 8001c8a:	0025      	movs	r5, r4
 8001c8c:	4375      	muls	r5, r6
 8001c8e:	46a8      	mov	r8, r5
 8001c90:	4665      	mov	r5, ip
 8001c92:	000f      	movs	r7, r1
 8001c94:	4369      	muls	r1, r5
 8001c96:	4441      	add	r1, r8
 8001c98:	4689      	mov	r9, r1
 8001c9a:	4367      	muls	r7, r4
 8001c9c:	0c39      	lsrs	r1, r7, #16
 8001c9e:	4449      	add	r1, r9
 8001ca0:	436e      	muls	r6, r5
 8001ca2:	4588      	cmp	r8, r1
 8001ca4:	d903      	bls.n	8001cae <__aeabi_dmul+0x3b6>
 8001ca6:	2280      	movs	r2, #128	@ 0x80
 8001ca8:	0252      	lsls	r2, r2, #9
 8001caa:	4690      	mov	r8, r2
 8001cac:	4446      	add	r6, r8
 8001cae:	0c0d      	lsrs	r5, r1, #16
 8001cb0:	46a8      	mov	r8, r5
 8001cb2:	0035      	movs	r5, r6
 8001cb4:	4445      	add	r5, r8
 8001cb6:	9505      	str	r5, [sp, #20]
 8001cb8:	9d03      	ldr	r5, [sp, #12]
 8001cba:	043f      	lsls	r7, r7, #16
 8001cbc:	46a8      	mov	r8, r5
 8001cbe:	0c3f      	lsrs	r7, r7, #16
 8001cc0:	0409      	lsls	r1, r1, #16
 8001cc2:	19c9      	adds	r1, r1, r7
 8001cc4:	4488      	add	r8, r1
 8001cc6:	4645      	mov	r5, r8
 8001cc8:	9503      	str	r5, [sp, #12]
 8001cca:	4655      	mov	r5, sl
 8001ccc:	042e      	lsls	r6, r5, #16
 8001cce:	0c36      	lsrs	r6, r6, #16
 8001cd0:	0c2f      	lsrs	r7, r5, #16
 8001cd2:	0035      	movs	r5, r6
 8001cd4:	4345      	muls	r5, r0
 8001cd6:	4378      	muls	r0, r7
 8001cd8:	4681      	mov	r9, r0
 8001cda:	0038      	movs	r0, r7
 8001cdc:	46a8      	mov	r8, r5
 8001cde:	0c2d      	lsrs	r5, r5, #16
 8001ce0:	46aa      	mov	sl, r5
 8001ce2:	9a00      	ldr	r2, [sp, #0]
 8001ce4:	4350      	muls	r0, r2
 8001ce6:	4372      	muls	r2, r6
 8001ce8:	444a      	add	r2, r9
 8001cea:	4452      	add	r2, sl
 8001cec:	4591      	cmp	r9, r2
 8001cee:	d903      	bls.n	8001cf8 <__aeabi_dmul+0x400>
 8001cf0:	2580      	movs	r5, #128	@ 0x80
 8001cf2:	026d      	lsls	r5, r5, #9
 8001cf4:	46a9      	mov	r9, r5
 8001cf6:	4448      	add	r0, r9
 8001cf8:	0c15      	lsrs	r5, r2, #16
 8001cfa:	46a9      	mov	r9, r5
 8001cfc:	4645      	mov	r5, r8
 8001cfe:	042d      	lsls	r5, r5, #16
 8001d00:	0c2d      	lsrs	r5, r5, #16
 8001d02:	46a8      	mov	r8, r5
 8001d04:	4665      	mov	r5, ip
 8001d06:	437d      	muls	r5, r7
 8001d08:	0412      	lsls	r2, r2, #16
 8001d0a:	4448      	add	r0, r9
 8001d0c:	4490      	add	r8, r2
 8001d0e:	46a9      	mov	r9, r5
 8001d10:	0032      	movs	r2, r6
 8001d12:	4665      	mov	r5, ip
 8001d14:	4362      	muls	r2, r4
 8001d16:	436e      	muls	r6, r5
 8001d18:	437c      	muls	r4, r7
 8001d1a:	0c17      	lsrs	r7, r2, #16
 8001d1c:	1936      	adds	r6, r6, r4
 8001d1e:	19bf      	adds	r7, r7, r6
 8001d20:	42bc      	cmp	r4, r7
 8001d22:	d903      	bls.n	8001d2c <__aeabi_dmul+0x434>
 8001d24:	2480      	movs	r4, #128	@ 0x80
 8001d26:	0264      	lsls	r4, r4, #9
 8001d28:	46a4      	mov	ip, r4
 8001d2a:	44e1      	add	r9, ip
 8001d2c:	9c02      	ldr	r4, [sp, #8]
 8001d2e:	9e03      	ldr	r6, [sp, #12]
 8001d30:	46a4      	mov	ip, r4
 8001d32:	9d05      	ldr	r5, [sp, #20]
 8001d34:	4466      	add	r6, ip
 8001d36:	428e      	cmp	r6, r1
 8001d38:	4189      	sbcs	r1, r1
 8001d3a:	46ac      	mov	ip, r5
 8001d3c:	0412      	lsls	r2, r2, #16
 8001d3e:	043c      	lsls	r4, r7, #16
 8001d40:	0c12      	lsrs	r2, r2, #16
 8001d42:	18a2      	adds	r2, r4, r2
 8001d44:	4462      	add	r2, ip
 8001d46:	4249      	negs	r1, r1
 8001d48:	1854      	adds	r4, r2, r1
 8001d4a:	4446      	add	r6, r8
 8001d4c:	46a4      	mov	ip, r4
 8001d4e:	4546      	cmp	r6, r8
 8001d50:	41a4      	sbcs	r4, r4
 8001d52:	4682      	mov	sl, r0
 8001d54:	4264      	negs	r4, r4
 8001d56:	46a0      	mov	r8, r4
 8001d58:	42aa      	cmp	r2, r5
 8001d5a:	4192      	sbcs	r2, r2
 8001d5c:	458c      	cmp	ip, r1
 8001d5e:	4189      	sbcs	r1, r1
 8001d60:	44e2      	add	sl, ip
 8001d62:	44d0      	add	r8, sl
 8001d64:	4249      	negs	r1, r1
 8001d66:	4252      	negs	r2, r2
 8001d68:	430a      	orrs	r2, r1
 8001d6a:	45a0      	cmp	r8, r4
 8001d6c:	41a4      	sbcs	r4, r4
 8001d6e:	4582      	cmp	sl, r0
 8001d70:	4189      	sbcs	r1, r1
 8001d72:	4264      	negs	r4, r4
 8001d74:	4249      	negs	r1, r1
 8001d76:	430c      	orrs	r4, r1
 8001d78:	4641      	mov	r1, r8
 8001d7a:	0c3f      	lsrs	r7, r7, #16
 8001d7c:	19d2      	adds	r2, r2, r7
 8001d7e:	1912      	adds	r2, r2, r4
 8001d80:	0dcc      	lsrs	r4, r1, #23
 8001d82:	9904      	ldr	r1, [sp, #16]
 8001d84:	0270      	lsls	r0, r6, #9
 8001d86:	4308      	orrs	r0, r1
 8001d88:	1e41      	subs	r1, r0, #1
 8001d8a:	4188      	sbcs	r0, r1
 8001d8c:	4641      	mov	r1, r8
 8001d8e:	444a      	add	r2, r9
 8001d90:	0df6      	lsrs	r6, r6, #23
 8001d92:	0252      	lsls	r2, r2, #9
 8001d94:	4330      	orrs	r0, r6
 8001d96:	0249      	lsls	r1, r1, #9
 8001d98:	4314      	orrs	r4, r2
 8001d9a:	4308      	orrs	r0, r1
 8001d9c:	01d2      	lsls	r2, r2, #7
 8001d9e:	d535      	bpl.n	8001e0c <__aeabi_dmul+0x514>
 8001da0:	2201      	movs	r2, #1
 8001da2:	0843      	lsrs	r3, r0, #1
 8001da4:	4002      	ands	r2, r0
 8001da6:	4313      	orrs	r3, r2
 8001da8:	07e0      	lsls	r0, r4, #31
 8001daa:	4318      	orrs	r0, r3
 8001dac:	0864      	lsrs	r4, r4, #1
 8001dae:	e634      	b.n	8001a1a <__aeabi_dmul+0x122>
 8001db0:	9b00      	ldr	r3, [sp, #0]
 8001db2:	46a2      	mov	sl, r4
 8001db4:	469b      	mov	fp, r3
 8001db6:	4681      	mov	r9, r0
 8001db8:	2480      	movs	r4, #128	@ 0x80
 8001dba:	4653      	mov	r3, sl
 8001dbc:	0324      	lsls	r4, r4, #12
 8001dbe:	431c      	orrs	r4, r3
 8001dc0:	0324      	lsls	r4, r4, #12
 8001dc2:	464a      	mov	r2, r9
 8001dc4:	4b2e      	ldr	r3, [pc, #184]	@ (8001e80 <__aeabi_dmul+0x588>)
 8001dc6:	0b24      	lsrs	r4, r4, #12
 8001dc8:	e5ec      	b.n	80019a4 <__aeabi_dmul+0xac>
 8001dca:	f000 fc85 	bl	80026d8 <__clzsi2>
 8001dce:	2315      	movs	r3, #21
 8001dd0:	469c      	mov	ip, r3
 8001dd2:	4484      	add	ip, r0
 8001dd4:	0002      	movs	r2, r0
 8001dd6:	4663      	mov	r3, ip
 8001dd8:	3220      	adds	r2, #32
 8001dda:	2b1c      	cmp	r3, #28
 8001ddc:	dc00      	bgt.n	8001de0 <__aeabi_dmul+0x4e8>
 8001dde:	e684      	b.n	8001aea <__aeabi_dmul+0x1f2>
 8001de0:	2300      	movs	r3, #0
 8001de2:	4699      	mov	r9, r3
 8001de4:	0023      	movs	r3, r4
 8001de6:	3808      	subs	r0, #8
 8001de8:	4083      	lsls	r3, r0
 8001dea:	469a      	mov	sl, r3
 8001dec:	e68e      	b.n	8001b0c <__aeabi_dmul+0x214>
 8001dee:	f000 fc73 	bl	80026d8 <__clzsi2>
 8001df2:	0002      	movs	r2, r0
 8001df4:	0003      	movs	r3, r0
 8001df6:	3215      	adds	r2, #21
 8001df8:	3320      	adds	r3, #32
 8001dfa:	2a1c      	cmp	r2, #28
 8001dfc:	dc00      	bgt.n	8001e00 <__aeabi_dmul+0x508>
 8001dfe:	e64e      	b.n	8001a9e <__aeabi_dmul+0x1a6>
 8001e00:	0002      	movs	r2, r0
 8001e02:	0034      	movs	r4, r6
 8001e04:	3a08      	subs	r2, #8
 8001e06:	2000      	movs	r0, #0
 8001e08:	4094      	lsls	r4, r2
 8001e0a:	e652      	b.n	8001ab2 <__aeabi_dmul+0x1ba>
 8001e0c:	9301      	str	r3, [sp, #4]
 8001e0e:	e604      	b.n	8001a1a <__aeabi_dmul+0x122>
 8001e10:	4b1c      	ldr	r3, [pc, #112]	@ (8001e84 <__aeabi_dmul+0x58c>)
 8001e12:	0021      	movs	r1, r4
 8001e14:	469c      	mov	ip, r3
 8001e16:	0003      	movs	r3, r0
 8001e18:	9d01      	ldr	r5, [sp, #4]
 8001e1a:	40d3      	lsrs	r3, r2
 8001e1c:	4465      	add	r5, ip
 8001e1e:	40a9      	lsls	r1, r5
 8001e20:	4319      	orrs	r1, r3
 8001e22:	0003      	movs	r3, r0
 8001e24:	40ab      	lsls	r3, r5
 8001e26:	1e58      	subs	r0, r3, #1
 8001e28:	4183      	sbcs	r3, r0
 8001e2a:	4319      	orrs	r1, r3
 8001e2c:	0008      	movs	r0, r1
 8001e2e:	40d4      	lsrs	r4, r2
 8001e30:	074b      	lsls	r3, r1, #29
 8001e32:	d009      	beq.n	8001e48 <__aeabi_dmul+0x550>
 8001e34:	230f      	movs	r3, #15
 8001e36:	400b      	ands	r3, r1
 8001e38:	2b04      	cmp	r3, #4
 8001e3a:	d005      	beq.n	8001e48 <__aeabi_dmul+0x550>
 8001e3c:	1d0b      	adds	r3, r1, #4
 8001e3e:	428b      	cmp	r3, r1
 8001e40:	4180      	sbcs	r0, r0
 8001e42:	4240      	negs	r0, r0
 8001e44:	1824      	adds	r4, r4, r0
 8001e46:	0018      	movs	r0, r3
 8001e48:	0223      	lsls	r3, r4, #8
 8001e4a:	d400      	bmi.n	8001e4e <__aeabi_dmul+0x556>
 8001e4c:	e6d6      	b.n	8001bfc <__aeabi_dmul+0x304>
 8001e4e:	2301      	movs	r3, #1
 8001e50:	2400      	movs	r4, #0
 8001e52:	2200      	movs	r2, #0
 8001e54:	e5a6      	b.n	80019a4 <__aeabi_dmul+0xac>
 8001e56:	290f      	cmp	r1, #15
 8001e58:	d1aa      	bne.n	8001db0 <__aeabi_dmul+0x4b8>
 8001e5a:	2380      	movs	r3, #128	@ 0x80
 8001e5c:	4652      	mov	r2, sl
 8001e5e:	031b      	lsls	r3, r3, #12
 8001e60:	421a      	tst	r2, r3
 8001e62:	d0a9      	beq.n	8001db8 <__aeabi_dmul+0x4c0>
 8001e64:	421c      	tst	r4, r3
 8001e66:	d1a7      	bne.n	8001db8 <__aeabi_dmul+0x4c0>
 8001e68:	431c      	orrs	r4, r3
 8001e6a:	9b00      	ldr	r3, [sp, #0]
 8001e6c:	0002      	movs	r2, r0
 8001e6e:	469b      	mov	fp, r3
 8001e70:	4b03      	ldr	r3, [pc, #12]	@ (8001e80 <__aeabi_dmul+0x588>)
 8001e72:	e597      	b.n	80019a4 <__aeabi_dmul+0xac>
 8001e74:	2400      	movs	r4, #0
 8001e76:	e6c1      	b.n	8001bfc <__aeabi_dmul+0x304>
 8001e78:	2400      	movs	r4, #0
 8001e7a:	4b01      	ldr	r3, [pc, #4]	@ (8001e80 <__aeabi_dmul+0x588>)
 8001e7c:	0022      	movs	r2, r4
 8001e7e:	e591      	b.n	80019a4 <__aeabi_dmul+0xac>
 8001e80:	000007ff 	.word	0x000007ff
 8001e84:	0000041e 	.word	0x0000041e

08001e88 <__aeabi_dsub>:
 8001e88:	b5f0      	push	{r4, r5, r6, r7, lr}
 8001e8a:	464e      	mov	r6, r9
 8001e8c:	4645      	mov	r5, r8
 8001e8e:	46de      	mov	lr, fp
 8001e90:	4657      	mov	r7, sl
 8001e92:	b5e0      	push	{r5, r6, r7, lr}
 8001e94:	b085      	sub	sp, #20
 8001e96:	9000      	str	r0, [sp, #0]
 8001e98:	9101      	str	r1, [sp, #4]
 8001e9a:	030c      	lsls	r4, r1, #12
 8001e9c:	004f      	lsls	r7, r1, #1
 8001e9e:	0fce      	lsrs	r6, r1, #31
 8001ea0:	0a61      	lsrs	r1, r4, #9
 8001ea2:	9c00      	ldr	r4, [sp, #0]
 8001ea4:	46b0      	mov	r8, r6
 8001ea6:	0f64      	lsrs	r4, r4, #29
 8001ea8:	430c      	orrs	r4, r1
 8001eaa:	9900      	ldr	r1, [sp, #0]
 8001eac:	0d7f      	lsrs	r7, r7, #21
 8001eae:	00c8      	lsls	r0, r1, #3
 8001eb0:	0011      	movs	r1, r2
 8001eb2:	001a      	movs	r2, r3
 8001eb4:	031b      	lsls	r3, r3, #12
 8001eb6:	469c      	mov	ip, r3
 8001eb8:	9100      	str	r1, [sp, #0]
 8001eba:	9201      	str	r2, [sp, #4]
 8001ebc:	0051      	lsls	r1, r2, #1
 8001ebe:	0d4b      	lsrs	r3, r1, #21
 8001ec0:	4699      	mov	r9, r3
 8001ec2:	9b01      	ldr	r3, [sp, #4]
 8001ec4:	9d00      	ldr	r5, [sp, #0]
 8001ec6:	0fd9      	lsrs	r1, r3, #31
 8001ec8:	4663      	mov	r3, ip
 8001eca:	0f6a      	lsrs	r2, r5, #29
 8001ecc:	0a5b      	lsrs	r3, r3, #9
 8001ece:	4313      	orrs	r3, r2
 8001ed0:	00ea      	lsls	r2, r5, #3
 8001ed2:	4694      	mov	ip, r2
 8001ed4:	4693      	mov	fp, r2
 8001ed6:	4ac1      	ldr	r2, [pc, #772]	@ (80021dc <__aeabi_dsub+0x354>)
 8001ed8:	9003      	str	r0, [sp, #12]
 8001eda:	9302      	str	r3, [sp, #8]
 8001edc:	4591      	cmp	r9, r2
 8001ede:	d100      	bne.n	8001ee2 <__aeabi_dsub+0x5a>
 8001ee0:	e0cd      	b.n	800207e <__aeabi_dsub+0x1f6>
 8001ee2:	2501      	movs	r5, #1
 8001ee4:	4069      	eors	r1, r5
 8001ee6:	464d      	mov	r5, r9
 8001ee8:	1b7d      	subs	r5, r7, r5
 8001eea:	46aa      	mov	sl, r5
 8001eec:	428e      	cmp	r6, r1
 8001eee:	d100      	bne.n	8001ef2 <__aeabi_dsub+0x6a>
 8001ef0:	e080      	b.n	8001ff4 <__aeabi_dsub+0x16c>
 8001ef2:	2d00      	cmp	r5, #0
 8001ef4:	dc00      	bgt.n	8001ef8 <__aeabi_dsub+0x70>
 8001ef6:	e335      	b.n	8002564 <__aeabi_dsub+0x6dc>
 8001ef8:	4649      	mov	r1, r9
 8001efa:	2900      	cmp	r1, #0
 8001efc:	d100      	bne.n	8001f00 <__aeabi_dsub+0x78>
 8001efe:	e0df      	b.n	80020c0 <__aeabi_dsub+0x238>
 8001f00:	4297      	cmp	r7, r2
 8001f02:	d100      	bne.n	8001f06 <__aeabi_dsub+0x7e>
 8001f04:	e194      	b.n	8002230 <__aeabi_dsub+0x3a8>
 8001f06:	4652      	mov	r2, sl
 8001f08:	2501      	movs	r5, #1
 8001f0a:	2a38      	cmp	r2, #56	@ 0x38
 8001f0c:	dc19      	bgt.n	8001f42 <__aeabi_dsub+0xba>
 8001f0e:	2280      	movs	r2, #128	@ 0x80
 8001f10:	9b02      	ldr	r3, [sp, #8]
 8001f12:	0412      	lsls	r2, r2, #16
 8001f14:	4313      	orrs	r3, r2
 8001f16:	9302      	str	r3, [sp, #8]
 8001f18:	4652      	mov	r2, sl
 8001f1a:	2a1f      	cmp	r2, #31
 8001f1c:	dd00      	ble.n	8001f20 <__aeabi_dsub+0x98>
 8001f1e:	e1e3      	b.n	80022e8 <__aeabi_dsub+0x460>
 8001f20:	4653      	mov	r3, sl
 8001f22:	2220      	movs	r2, #32
 8001f24:	4661      	mov	r1, ip
 8001f26:	9d02      	ldr	r5, [sp, #8]
 8001f28:	1ad2      	subs	r2, r2, r3
 8001f2a:	4095      	lsls	r5, r2
 8001f2c:	40d9      	lsrs	r1, r3
 8001f2e:	430d      	orrs	r5, r1
 8001f30:	4661      	mov	r1, ip
 8001f32:	4091      	lsls	r1, r2
 8001f34:	000a      	movs	r2, r1
 8001f36:	1e51      	subs	r1, r2, #1
 8001f38:	418a      	sbcs	r2, r1
 8001f3a:	4315      	orrs	r5, r2
 8001f3c:	9a02      	ldr	r2, [sp, #8]
 8001f3e:	40da      	lsrs	r2, r3
 8001f40:	1aa4      	subs	r4, r4, r2
 8001f42:	1b45      	subs	r5, r0, r5
 8001f44:	42a8      	cmp	r0, r5
 8001f46:	4180      	sbcs	r0, r0
 8001f48:	4240      	negs	r0, r0
 8001f4a:	1a24      	subs	r4, r4, r0
 8001f4c:	0223      	lsls	r3, r4, #8
 8001f4e:	d400      	bmi.n	8001f52 <__aeabi_dsub+0xca>
 8001f50:	e13d      	b.n	80021ce <__aeabi_dsub+0x346>
 8001f52:	0264      	lsls	r4, r4, #9
 8001f54:	0a64      	lsrs	r4, r4, #9
 8001f56:	2c00      	cmp	r4, #0
 8001f58:	d100      	bne.n	8001f5c <__aeabi_dsub+0xd4>
 8001f5a:	e147      	b.n	80021ec <__aeabi_dsub+0x364>
 8001f5c:	0020      	movs	r0, r4
 8001f5e:	f000 fbbb 	bl	80026d8 <__clzsi2>
 8001f62:	0003      	movs	r3, r0
 8001f64:	3b08      	subs	r3, #8
 8001f66:	2120      	movs	r1, #32
 8001f68:	0028      	movs	r0, r5
 8001f6a:	1aca      	subs	r2, r1, r3
 8001f6c:	40d0      	lsrs	r0, r2
 8001f6e:	409c      	lsls	r4, r3
 8001f70:	0002      	movs	r2, r0
 8001f72:	409d      	lsls	r5, r3
 8001f74:	4322      	orrs	r2, r4
 8001f76:	429f      	cmp	r7, r3
 8001f78:	dd00      	ble.n	8001f7c <__aeabi_dsub+0xf4>
 8001f7a:	e177      	b.n	800226c <__aeabi_dsub+0x3e4>
 8001f7c:	1bd8      	subs	r0, r3, r7
 8001f7e:	3001      	adds	r0, #1
 8001f80:	1a09      	subs	r1, r1, r0
 8001f82:	002c      	movs	r4, r5
 8001f84:	408d      	lsls	r5, r1
 8001f86:	40c4      	lsrs	r4, r0
 8001f88:	1e6b      	subs	r3, r5, #1
 8001f8a:	419d      	sbcs	r5, r3
 8001f8c:	0013      	movs	r3, r2
 8001f8e:	40c2      	lsrs	r2, r0
 8001f90:	408b      	lsls	r3, r1
 8001f92:	4325      	orrs	r5, r4
 8001f94:	2700      	movs	r7, #0
 8001f96:	0014      	movs	r4, r2
 8001f98:	431d      	orrs	r5, r3
 8001f9a:	076b      	lsls	r3, r5, #29
 8001f9c:	d009      	beq.n	8001fb2 <__aeabi_dsub+0x12a>
 8001f9e:	230f      	movs	r3, #15
 8001fa0:	402b      	ands	r3, r5
 8001fa2:	2b04      	cmp	r3, #4
 8001fa4:	d005      	beq.n	8001fb2 <__aeabi_dsub+0x12a>
 8001fa6:	1d2b      	adds	r3, r5, #4
 8001fa8:	42ab      	cmp	r3, r5
 8001faa:	41ad      	sbcs	r5, r5
 8001fac:	426d      	negs	r5, r5
 8001fae:	1964      	adds	r4, r4, r5
 8001fb0:	001d      	movs	r5, r3
 8001fb2:	0223      	lsls	r3, r4, #8
 8001fb4:	d400      	bmi.n	8001fb8 <__aeabi_dsub+0x130>
 8001fb6:	e140      	b.n	800223a <__aeabi_dsub+0x3b2>
 8001fb8:	4a88      	ldr	r2, [pc, #544]	@ (80021dc <__aeabi_dsub+0x354>)
 8001fba:	3701      	adds	r7, #1
 8001fbc:	4297      	cmp	r7, r2
 8001fbe:	d100      	bne.n	8001fc2 <__aeabi_dsub+0x13a>
 8001fc0:	e101      	b.n	80021c6 <__aeabi_dsub+0x33e>
 8001fc2:	2601      	movs	r6, #1
 8001fc4:	4643      	mov	r3, r8
 8001fc6:	4986      	ldr	r1, [pc, #536]	@ (80021e0 <__aeabi_dsub+0x358>)
 8001fc8:	08ed      	lsrs	r5, r5, #3
 8001fca:	4021      	ands	r1, r4
 8001fcc:	074a      	lsls	r2, r1, #29
 8001fce:	432a      	orrs	r2, r5
 8001fd0:	057c      	lsls	r4, r7, #21
 8001fd2:	024d      	lsls	r5, r1, #9
 8001fd4:	0b2d      	lsrs	r5, r5, #12
 8001fd6:	0d64      	lsrs	r4, r4, #21
 8001fd8:	401e      	ands	r6, r3
 8001fda:	0524      	lsls	r4, r4, #20
 8001fdc:	432c      	orrs	r4, r5
 8001fde:	07f6      	lsls	r6, r6, #31
 8001fe0:	4334      	orrs	r4, r6
 8001fe2:	0010      	movs	r0, r2
 8001fe4:	0021      	movs	r1, r4
 8001fe6:	b005      	add	sp, #20
 8001fe8:	bcf0      	pop	{r4, r5, r6, r7}
 8001fea:	46bb      	mov	fp, r7
 8001fec:	46b2      	mov	sl, r6
 8001fee:	46a9      	mov	r9, r5
 8001ff0:	46a0      	mov	r8, r4
 8001ff2:	bdf0      	pop	{r4, r5, r6, r7, pc}
 8001ff4:	2d00      	cmp	r5, #0
 8001ff6:	dc00      	bgt.n	8001ffa <__aeabi_dsub+0x172>
 8001ff8:	e2d0      	b.n	800259c <__aeabi_dsub+0x714>
 8001ffa:	4649      	mov	r1, r9
 8001ffc:	2900      	cmp	r1, #0
 8001ffe:	d000      	beq.n	8002002 <__aeabi_dsub+0x17a>
 8002000:	e0d4      	b.n	80021ac <__aeabi_dsub+0x324>
 8002002:	4661      	mov	r1, ip
 8002004:	9b02      	ldr	r3, [sp, #8]
 8002006:	4319      	orrs	r1, r3
 8002008:	d100      	bne.n	800200c <__aeabi_dsub+0x184>
 800200a:	e12b      	b.n	8002264 <__aeabi_dsub+0x3dc>
 800200c:	1e69      	subs	r1, r5, #1
 800200e:	2d01      	cmp	r5, #1
 8002010:	d100      	bne.n	8002014 <__aeabi_dsub+0x18c>
 8002012:	e1d9      	b.n	80023c8 <__aeabi_dsub+0x540>
 8002014:	4295      	cmp	r5, r2
 8002016:	d100      	bne.n	800201a <__aeabi_dsub+0x192>
 8002018:	e10a      	b.n	8002230 <__aeabi_dsub+0x3a8>
 800201a:	2501      	movs	r5, #1
 800201c:	2938      	cmp	r1, #56	@ 0x38
 800201e:	dc17      	bgt.n	8002050 <__aeabi_dsub+0x1c8>
 8002020:	468a      	mov	sl, r1
 8002022:	4653      	mov	r3, sl
 8002024:	2b1f      	cmp	r3, #31
 8002026:	dd00      	ble.n	800202a <__aeabi_dsub+0x1a2>
 8002028:	e1e7      	b.n	80023fa <__aeabi_dsub+0x572>
 800202a:	2220      	movs	r2, #32
 800202c:	1ad2      	subs	r2, r2, r3
 800202e:	9b02      	ldr	r3, [sp, #8]
 8002030:	4661      	mov	r1, ip
 8002032:	4093      	lsls	r3, r2
 8002034:	001d      	movs	r5, r3
 8002036:	4653      	mov	r3, sl
 8002038:	40d9      	lsrs	r1, r3
 800203a:	4663      	mov	r3, ip
 800203c:	4093      	lsls	r3, r2
 800203e:	001a      	movs	r2, r3
 8002040:	430d      	orrs	r5, r1
 8002042:	1e51      	subs	r1, r2, #1
 8002044:	418a      	sbcs	r2, r1
 8002046:	4653      	mov	r3, sl
 8002048:	4315      	orrs	r5, r2
 800204a:	9a02      	ldr	r2, [sp, #8]
 800204c:	40da      	lsrs	r2, r3
 800204e:	18a4      	adds	r4, r4, r2
 8002050:	182d      	adds	r5, r5, r0
 8002052:	4285      	cmp	r5, r0
 8002054:	4180      	sbcs	r0, r0
 8002056:	4240      	negs	r0, r0
 8002058:	1824      	adds	r4, r4, r0
 800205a:	0223      	lsls	r3, r4, #8
 800205c:	d400      	bmi.n	8002060 <__aeabi_dsub+0x1d8>
 800205e:	e0b6      	b.n	80021ce <__aeabi_dsub+0x346>
 8002060:	4b5e      	ldr	r3, [pc, #376]	@ (80021dc <__aeabi_dsub+0x354>)
 8002062:	3701      	adds	r7, #1
 8002064:	429f      	cmp	r7, r3
 8002066:	d100      	bne.n	800206a <__aeabi_dsub+0x1e2>
 8002068:	e0ad      	b.n	80021c6 <__aeabi_dsub+0x33e>
 800206a:	2101      	movs	r1, #1
 800206c:	4b5c      	ldr	r3, [pc, #368]	@ (80021e0 <__aeabi_dsub+0x358>)
 800206e:	086a      	lsrs	r2, r5, #1
 8002070:	401c      	ands	r4, r3
 8002072:	4029      	ands	r1, r5
 8002074:	430a      	orrs	r2, r1
 8002076:	07e5      	lsls	r5, r4, #31
 8002078:	4315      	orrs	r5, r2
 800207a:	0864      	lsrs	r4, r4, #1
 800207c:	e78d      	b.n	8001f9a <__aeabi_dsub+0x112>
 800207e:	4a59      	ldr	r2, [pc, #356]	@ (80021e4 <__aeabi_dsub+0x35c>)
 8002080:	9b02      	ldr	r3, [sp, #8]
 8002082:	4692      	mov	sl, r2
 8002084:	4662      	mov	r2, ip
 8002086:	44ba      	add	sl, r7
 8002088:	431a      	orrs	r2, r3
 800208a:	d02c      	beq.n	80020e6 <__aeabi_dsub+0x25e>
 800208c:	428e      	cmp	r6, r1
 800208e:	d02e      	beq.n	80020ee <__aeabi_dsub+0x266>
 8002090:	4652      	mov	r2, sl
 8002092:	2a00      	cmp	r2, #0
 8002094:	d060      	beq.n	8002158 <__aeabi_dsub+0x2d0>
 8002096:	2f00      	cmp	r7, #0
 8002098:	d100      	bne.n	800209c <__aeabi_dsub+0x214>
 800209a:	e0db      	b.n	8002254 <__aeabi_dsub+0x3cc>
 800209c:	4663      	mov	r3, ip
 800209e:	000e      	movs	r6, r1
 80020a0:	9c02      	ldr	r4, [sp, #8]
 80020a2:	08d8      	lsrs	r0, r3, #3
 80020a4:	0762      	lsls	r2, r4, #29
 80020a6:	4302      	orrs	r2, r0
 80020a8:	08e4      	lsrs	r4, r4, #3
 80020aa:	0013      	movs	r3, r2
 80020ac:	4323      	orrs	r3, r4
 80020ae:	d100      	bne.n	80020b2 <__aeabi_dsub+0x22a>
 80020b0:	e254      	b.n	800255c <__aeabi_dsub+0x6d4>
 80020b2:	2580      	movs	r5, #128	@ 0x80
 80020b4:	032d      	lsls	r5, r5, #12
 80020b6:	4325      	orrs	r5, r4
 80020b8:	032d      	lsls	r5, r5, #12
 80020ba:	4c48      	ldr	r4, [pc, #288]	@ (80021dc <__aeabi_dsub+0x354>)
 80020bc:	0b2d      	lsrs	r5, r5, #12
 80020be:	e78c      	b.n	8001fda <__aeabi_dsub+0x152>
 80020c0:	4661      	mov	r1, ip
 80020c2:	9b02      	ldr	r3, [sp, #8]
 80020c4:	4319      	orrs	r1, r3
 80020c6:	d100      	bne.n	80020ca <__aeabi_dsub+0x242>
 80020c8:	e0cc      	b.n	8002264 <__aeabi_dsub+0x3dc>
 80020ca:	0029      	movs	r1, r5
 80020cc:	3901      	subs	r1, #1
 80020ce:	2d01      	cmp	r5, #1
 80020d0:	d100      	bne.n	80020d4 <__aeabi_dsub+0x24c>
 80020d2:	e188      	b.n	80023e6 <__aeabi_dsub+0x55e>
 80020d4:	4295      	cmp	r5, r2
 80020d6:	d100      	bne.n	80020da <__aeabi_dsub+0x252>
 80020d8:	e0aa      	b.n	8002230 <__aeabi_dsub+0x3a8>
 80020da:	2501      	movs	r5, #1
 80020dc:	2938      	cmp	r1, #56	@ 0x38
 80020de:	dd00      	ble.n	80020e2 <__aeabi_dsub+0x25a>
 80020e0:	e72f      	b.n	8001f42 <__aeabi_dsub+0xba>
 80020e2:	468a      	mov	sl, r1
 80020e4:	e718      	b.n	8001f18 <__aeabi_dsub+0x90>
 80020e6:	2201      	movs	r2, #1
 80020e8:	4051      	eors	r1, r2
 80020ea:	428e      	cmp	r6, r1
 80020ec:	d1d0      	bne.n	8002090 <__aeabi_dsub+0x208>
 80020ee:	4653      	mov	r3, sl
 80020f0:	2b00      	cmp	r3, #0
 80020f2:	d100      	bne.n	80020f6 <__aeabi_dsub+0x26e>
 80020f4:	e0be      	b.n	8002274 <__aeabi_dsub+0x3ec>
 80020f6:	2f00      	cmp	r7, #0
 80020f8:	d000      	beq.n	80020fc <__aeabi_dsub+0x274>
 80020fa:	e138      	b.n	800236e <__aeabi_dsub+0x4e6>
 80020fc:	46ca      	mov	sl, r9
 80020fe:	0022      	movs	r2, r4
 8002100:	4302      	orrs	r2, r0
 8002102:	d100      	bne.n	8002106 <__aeabi_dsub+0x27e>
 8002104:	e1e2      	b.n	80024cc <__aeabi_dsub+0x644>
 8002106:	4653      	mov	r3, sl
 8002108:	1e59      	subs	r1, r3, #1
 800210a:	2b01      	cmp	r3, #1
 800210c:	d100      	bne.n	8002110 <__aeabi_dsub+0x288>
 800210e:	e20d      	b.n	800252c <__aeabi_dsub+0x6a4>
 8002110:	4a32      	ldr	r2, [pc, #200]	@ (80021dc <__aeabi_dsub+0x354>)
 8002112:	4592      	cmp	sl, r2
 8002114:	d100      	bne.n	8002118 <__aeabi_dsub+0x290>
 8002116:	e1d2      	b.n	80024be <__aeabi_dsub+0x636>
 8002118:	2701      	movs	r7, #1
 800211a:	2938      	cmp	r1, #56	@ 0x38
 800211c:	dc13      	bgt.n	8002146 <__aeabi_dsub+0x2be>
 800211e:	291f      	cmp	r1, #31
 8002120:	dd00      	ble.n	8002124 <__aeabi_dsub+0x29c>
 8002122:	e1ee      	b.n	8002502 <__aeabi_dsub+0x67a>
 8002124:	2220      	movs	r2, #32
 8002126:	9b02      	ldr	r3, [sp, #8]
 8002128:	1a52      	subs	r2, r2, r1
 800212a:	0025      	movs	r5, r4
 800212c:	0007      	movs	r7, r0
 800212e:	469a      	mov	sl, r3
 8002130:	40cc      	lsrs	r4, r1
 8002132:	4090      	lsls	r0, r2
 8002134:	4095      	lsls	r5, r2
 8002136:	40cf      	lsrs	r7, r1
 8002138:	44a2      	add	sl, r4
 800213a:	1e42      	subs	r2, r0, #1
 800213c:	4190      	sbcs	r0, r2
 800213e:	4653      	mov	r3, sl
 8002140:	432f      	orrs	r7, r5
 8002142:	4307      	orrs	r7, r0
 8002144:	9302      	str	r3, [sp, #8]
 8002146:	003d      	movs	r5, r7
 8002148:	4465      	add	r5, ip
 800214a:	4565      	cmp	r5, ip
 800214c:	4192      	sbcs	r2, r2
 800214e:	9b02      	ldr	r3, [sp, #8]
 8002150:	4252      	negs	r2, r2
 8002152:	464f      	mov	r7, r9
 8002154:	18d4      	adds	r4, r2, r3
 8002156:	e780      	b.n	800205a <__aeabi_dsub+0x1d2>
 8002158:	4a23      	ldr	r2, [pc, #140]	@ (80021e8 <__aeabi_dsub+0x360>)
 800215a:	1c7d      	adds	r5, r7, #1
 800215c:	4215      	tst	r5, r2
 800215e:	d000      	beq.n	8002162 <__aeabi_dsub+0x2da>
 8002160:	e0aa      	b.n	80022b8 <__aeabi_dsub+0x430>
 8002162:	4662      	mov	r2, ip
 8002164:	0025      	movs	r5, r4
 8002166:	9b02      	ldr	r3, [sp, #8]
 8002168:	4305      	orrs	r5, r0
 800216a:	431a      	orrs	r2, r3
 800216c:	2f00      	cmp	r7, #0
 800216e:	d000      	beq.n	8002172 <__aeabi_dsub+0x2ea>
 8002170:	e0f5      	b.n	800235e <__aeabi_dsub+0x4d6>
 8002172:	2d00      	cmp	r5, #0
 8002174:	d100      	bne.n	8002178 <__aeabi_dsub+0x2f0>
 8002176:	e16b      	b.n	8002450 <__aeabi_dsub+0x5c8>
 8002178:	2a00      	cmp	r2, #0
 800217a:	d100      	bne.n	800217e <__aeabi_dsub+0x2f6>
 800217c:	e152      	b.n	8002424 <__aeabi_dsub+0x59c>
 800217e:	4663      	mov	r3, ip
 8002180:	1ac5      	subs	r5, r0, r3
 8002182:	9b02      	ldr	r3, [sp, #8]
 8002184:	1ae2      	subs	r2, r4, r3
 8002186:	42a8      	cmp	r0, r5
 8002188:	419b      	sbcs	r3, r3
 800218a:	425b      	negs	r3, r3
 800218c:	1ad3      	subs	r3, r2, r3
 800218e:	021a      	lsls	r2, r3, #8
 8002190:	d400      	bmi.n	8002194 <__aeabi_dsub+0x30c>
 8002192:	e1d5      	b.n	8002540 <__aeabi_dsub+0x6b8>
 8002194:	4663      	mov	r3, ip
 8002196:	1a1d      	subs	r5, r3, r0
 8002198:	45ac      	cmp	ip, r5
 800219a:	4192      	sbcs	r2, r2
 800219c:	2601      	movs	r6, #1
 800219e:	9b02      	ldr	r3, [sp, #8]
 80021a0:	4252      	negs	r2, r2
 80021a2:	1b1c      	subs	r4, r3, r4
 80021a4:	4688      	mov	r8, r1
 80021a6:	1aa4      	subs	r4, r4, r2
 80021a8:	400e      	ands	r6, r1
 80021aa:	e6f6      	b.n	8001f9a <__aeabi_dsub+0x112>
 80021ac:	4297      	cmp	r7, r2
 80021ae:	d03f      	beq.n	8002230 <__aeabi_dsub+0x3a8>
 80021b0:	4652      	mov	r2, sl
 80021b2:	2501      	movs	r5, #1
 80021b4:	2a38      	cmp	r2, #56	@ 0x38
 80021b6:	dd00      	ble.n	80021ba <__aeabi_dsub+0x332>
 80021b8:	e74a      	b.n	8002050 <__aeabi_dsub+0x1c8>
 80021ba:	2280      	movs	r2, #128	@ 0x80
 80021bc:	9b02      	ldr	r3, [sp, #8]
 80021be:	0412      	lsls	r2, r2, #16
 80021c0:	4313      	orrs	r3, r2
 80021c2:	9302      	str	r3, [sp, #8]
 80021c4:	e72d      	b.n	8002022 <__aeabi_dsub+0x19a>
 80021c6:	003c      	movs	r4, r7
 80021c8:	2500      	movs	r5, #0
 80021ca:	2200      	movs	r2, #0
 80021cc:	e705      	b.n	8001fda <__aeabi_dsub+0x152>
 80021ce:	2307      	movs	r3, #7
 80021d0:	402b      	ands	r3, r5
 80021d2:	2b00      	cmp	r3, #0
 80021d4:	d000      	beq.n	80021d8 <__aeabi_dsub+0x350>
 80021d6:	e6e2      	b.n	8001f9e <__aeabi_dsub+0x116>
 80021d8:	e06b      	b.n	80022b2 <__aeabi_dsub+0x42a>
 80021da:	46c0      	nop			@ (mov r8, r8)
 80021dc:	000007ff 	.word	0x000007ff
 80021e0:	ff7fffff 	.word	0xff7fffff
 80021e4:	fffff801 	.word	0xfffff801
 80021e8:	000007fe 	.word	0x000007fe
 80021ec:	0028      	movs	r0, r5
 80021ee:	f000 fa73 	bl	80026d8 <__clzsi2>
 80021f2:	0003      	movs	r3, r0
 80021f4:	3318      	adds	r3, #24
 80021f6:	2b1f      	cmp	r3, #31
 80021f8:	dc00      	bgt.n	80021fc <__aeabi_dsub+0x374>
 80021fa:	e6b4      	b.n	8001f66 <__aeabi_dsub+0xde>
 80021fc:	002a      	movs	r2, r5
 80021fe:	3808      	subs	r0, #8
 8002200:	4082      	lsls	r2, r0
 8002202:	429f      	cmp	r7, r3
 8002204:	dd00      	ble.n	8002208 <__aeabi_dsub+0x380>
 8002206:	e0b9      	b.n	800237c <__aeabi_dsub+0x4f4>
 8002208:	1bdb      	subs	r3, r3, r7
 800220a:	1c58      	adds	r0, r3, #1
 800220c:	281f      	cmp	r0, #31
 800220e:	dc00      	bgt.n	8002212 <__aeabi_dsub+0x38a>
 8002210:	e1a0      	b.n	8002554 <__aeabi_dsub+0x6cc>
 8002212:	0015      	movs	r5, r2
 8002214:	3b1f      	subs	r3, #31
 8002216:	40dd      	lsrs	r5, r3
 8002218:	2820      	cmp	r0, #32
 800221a:	d005      	beq.n	8002228 <__aeabi_dsub+0x3a0>
 800221c:	2340      	movs	r3, #64	@ 0x40
 800221e:	1a1b      	subs	r3, r3, r0
 8002220:	409a      	lsls	r2, r3
 8002222:	1e53      	subs	r3, r2, #1
 8002224:	419a      	sbcs	r2, r3
 8002226:	4315      	orrs	r5, r2
 8002228:	2307      	movs	r3, #7
 800222a:	2700      	movs	r7, #0
 800222c:	402b      	ands	r3, r5
 800222e:	e7d0      	b.n	80021d2 <__aeabi_dsub+0x34a>
 8002230:	08c0      	lsrs	r0, r0, #3
 8002232:	0762      	lsls	r2, r4, #29
 8002234:	4302      	orrs	r2, r0
 8002236:	08e4      	lsrs	r4, r4, #3
 8002238:	e737      	b.n	80020aa <__aeabi_dsub+0x222>
 800223a:	08ea      	lsrs	r2, r5, #3
 800223c:	0763      	lsls	r3, r4, #29
 800223e:	431a      	orrs	r2, r3
 8002240:	4bd3      	ldr	r3, [pc, #844]	@ (8002590 <__aeabi_dsub+0x708>)
 8002242:	08e4      	lsrs	r4, r4, #3
 8002244:	429f      	cmp	r7, r3
 8002246:	d100      	bne.n	800224a <__aeabi_dsub+0x3c2>
 8002248:	e72f      	b.n	80020aa <__aeabi_dsub+0x222>
 800224a:	0324      	lsls	r4, r4, #12
 800224c:	0b25      	lsrs	r5, r4, #12
 800224e:	057c      	lsls	r4, r7, #21
 8002250:	0d64      	lsrs	r4, r4, #21
 8002252:	e6c2      	b.n	8001fda <__aeabi_dsub+0x152>
 8002254:	46ca      	mov	sl, r9
 8002256:	0022      	movs	r2, r4
 8002258:	4302      	orrs	r2, r0
 800225a:	d158      	bne.n	800230e <__aeabi_dsub+0x486>
 800225c:	4663      	mov	r3, ip
 800225e:	000e      	movs	r6, r1
 8002260:	9c02      	ldr	r4, [sp, #8]
 8002262:	9303      	str	r3, [sp, #12]
 8002264:	9b03      	ldr	r3, [sp, #12]
 8002266:	4657      	mov	r7, sl
 8002268:	08da      	lsrs	r2, r3, #3
 800226a:	e7e7      	b.n	800223c <__aeabi_dsub+0x3b4>
 800226c:	4cc9      	ldr	r4, [pc, #804]	@ (8002594 <__aeabi_dsub+0x70c>)
 800226e:	1aff      	subs	r7, r7, r3
 8002270:	4014      	ands	r4, r2
 8002272:	e692      	b.n	8001f9a <__aeabi_dsub+0x112>
 8002274:	4dc8      	ldr	r5, [pc, #800]	@ (8002598 <__aeabi_dsub+0x710>)
 8002276:	1c7a      	adds	r2, r7, #1
 8002278:	422a      	tst	r2, r5
 800227a:	d000      	beq.n	800227e <__aeabi_dsub+0x3f6>
 800227c:	e084      	b.n	8002388 <__aeabi_dsub+0x500>
 800227e:	0022      	movs	r2, r4
 8002280:	4302      	orrs	r2, r0
 8002282:	2f00      	cmp	r7, #0
 8002284:	d000      	beq.n	8002288 <__aeabi_dsub+0x400>
 8002286:	e0ef      	b.n	8002468 <__aeabi_dsub+0x5e0>
 8002288:	2a00      	cmp	r2, #0
 800228a:	d100      	bne.n	800228e <__aeabi_dsub+0x406>
 800228c:	e0e5      	b.n	800245a <__aeabi_dsub+0x5d2>
 800228e:	4662      	mov	r2, ip
 8002290:	9902      	ldr	r1, [sp, #8]
 8002292:	430a      	orrs	r2, r1
 8002294:	d100      	bne.n	8002298 <__aeabi_dsub+0x410>
 8002296:	e0c5      	b.n	8002424 <__aeabi_dsub+0x59c>
 8002298:	4663      	mov	r3, ip
 800229a:	18c5      	adds	r5, r0, r3
 800229c:	468c      	mov	ip, r1
 800229e:	4285      	cmp	r5, r0
 80022a0:	4180      	sbcs	r0, r0
 80022a2:	4464      	add	r4, ip
 80022a4:	4240      	negs	r0, r0
 80022a6:	1824      	adds	r4, r4, r0
 80022a8:	0223      	lsls	r3, r4, #8
 80022aa:	d502      	bpl.n	80022b2 <__aeabi_dsub+0x42a>
 80022ac:	4bb9      	ldr	r3, [pc, #740]	@ (8002594 <__aeabi_dsub+0x70c>)
 80022ae:	3701      	adds	r7, #1
 80022b0:	401c      	ands	r4, r3
 80022b2:	46ba      	mov	sl, r7
 80022b4:	9503      	str	r5, [sp, #12]
 80022b6:	e7d5      	b.n	8002264 <__aeabi_dsub+0x3dc>
 80022b8:	4662      	mov	r2, ip
 80022ba:	1a85      	subs	r5, r0, r2
 80022bc:	42a8      	cmp	r0, r5
 80022be:	4192      	sbcs	r2, r2
 80022c0:	4252      	negs	r2, r2
 80022c2:	4691      	mov	r9, r2
 80022c4:	9b02      	ldr	r3, [sp, #8]
 80022c6:	1ae3      	subs	r3, r4, r3
 80022c8:	001a      	movs	r2, r3
 80022ca:	464b      	mov	r3, r9
 80022cc:	1ad2      	subs	r2, r2, r3
 80022ce:	0013      	movs	r3, r2
 80022d0:	4691      	mov	r9, r2
 80022d2:	021a      	lsls	r2, r3, #8
 80022d4:	d46c      	bmi.n	80023b0 <__aeabi_dsub+0x528>
 80022d6:	464a      	mov	r2, r9
 80022d8:	464c      	mov	r4, r9
 80022da:	432a      	orrs	r2, r5
 80022dc:	d000      	beq.n	80022e0 <__aeabi_dsub+0x458>
 80022de:	e63a      	b.n	8001f56 <__aeabi_dsub+0xce>
 80022e0:	2600      	movs	r6, #0
 80022e2:	2400      	movs	r4, #0
 80022e4:	2500      	movs	r5, #0
 80022e6:	e678      	b.n	8001fda <__aeabi_dsub+0x152>
 80022e8:	9902      	ldr	r1, [sp, #8]
 80022ea:	4653      	mov	r3, sl
 80022ec:	000d      	movs	r5, r1
 80022ee:	3a20      	subs	r2, #32
 80022f0:	40d5      	lsrs	r5, r2
 80022f2:	2b20      	cmp	r3, #32
 80022f4:	d006      	beq.n	8002304 <__aeabi_dsub+0x47c>
 80022f6:	2240      	movs	r2, #64	@ 0x40
 80022f8:	1ad2      	subs	r2, r2, r3
 80022fa:	000b      	movs	r3, r1
 80022fc:	4093      	lsls	r3, r2
 80022fe:	4662      	mov	r2, ip
 8002300:	431a      	orrs	r2, r3
 8002302:	4693      	mov	fp, r2
 8002304:	465b      	mov	r3, fp
 8002306:	1e5a      	subs	r2, r3, #1
 8002308:	4193      	sbcs	r3, r2
 800230a:	431d      	orrs	r5, r3
 800230c:	e619      	b.n	8001f42 <__aeabi_dsub+0xba>
 800230e:	4653      	mov	r3, sl
 8002310:	1e5a      	subs	r2, r3, #1
 8002312:	2b01      	cmp	r3, #1
 8002314:	d100      	bne.n	8002318 <__aeabi_dsub+0x490>
 8002316:	e0c6      	b.n	80024a6 <__aeabi_dsub+0x61e>
 8002318:	4e9d      	ldr	r6, [pc, #628]	@ (8002590 <__aeabi_dsub+0x708>)
 800231a:	45b2      	cmp	sl, r6
 800231c:	d100      	bne.n	8002320 <__aeabi_dsub+0x498>
 800231e:	e6bd      	b.n	800209c <__aeabi_dsub+0x214>
 8002320:	4688      	mov	r8, r1
 8002322:	000e      	movs	r6, r1
 8002324:	2501      	movs	r5, #1
 8002326:	2a38      	cmp	r2, #56	@ 0x38
 8002328:	dc10      	bgt.n	800234c <__aeabi_dsub+0x4c4>
 800232a:	2a1f      	cmp	r2, #31
 800232c:	dc7f      	bgt.n	800242e <__aeabi_dsub+0x5a6>
 800232e:	2120      	movs	r1, #32
 8002330:	0025      	movs	r5, r4
 8002332:	1a89      	subs	r1, r1, r2
 8002334:	0007      	movs	r7, r0
 8002336:	4088      	lsls	r0, r1
 8002338:	408d      	lsls	r5, r1
 800233a:	40d7      	lsrs	r7, r2
 800233c:	40d4      	lsrs	r4, r2
 800233e:	1e41      	subs	r1, r0, #1
 8002340:	4188      	sbcs	r0, r1
 8002342:	9b02      	ldr	r3, [sp, #8]
 8002344:	433d      	orrs	r5, r7
 8002346:	1b1b      	subs	r3, r3, r4
 8002348:	4305      	orrs	r5, r0
 800234a:	9302      	str	r3, [sp, #8]
 800234c:	4662      	mov	r2, ip
 800234e:	1b55      	subs	r5, r2, r5
 8002350:	45ac      	cmp	ip, r5
 8002352:	4192      	sbcs	r2, r2
 8002354:	9b02      	ldr	r3, [sp, #8]
 8002356:	4252      	negs	r2, r2
 8002358:	464f      	mov	r7, r9
 800235a:	1a9c      	subs	r4, r3, r2
 800235c:	e5f6      	b.n	8001f4c <__aeabi_dsub+0xc4>
 800235e:	2d00      	cmp	r5, #0
 8002360:	d000      	beq.n	8002364 <__aeabi_dsub+0x4dc>
 8002362:	e0b7      	b.n	80024d4 <__aeabi_dsub+0x64c>
 8002364:	2a00      	cmp	r2, #0
 8002366:	d100      	bne.n	800236a <__aeabi_dsub+0x4e2>
 8002368:	e0f0      	b.n	800254c <__aeabi_dsub+0x6c4>
 800236a:	2601      	movs	r6, #1
 800236c:	400e      	ands	r6, r1
 800236e:	4663      	mov	r3, ip
 8002370:	9802      	ldr	r0, [sp, #8]
 8002372:	08d9      	lsrs	r1, r3, #3
 8002374:	0742      	lsls	r2, r0, #29
 8002376:	430a      	orrs	r2, r1
 8002378:	08c4      	lsrs	r4, r0, #3
 800237a:	e696      	b.n	80020aa <__aeabi_dsub+0x222>
 800237c:	4c85      	ldr	r4, [pc, #532]	@ (8002594 <__aeabi_dsub+0x70c>)
 800237e:	1aff      	subs	r7, r7, r3
 8002380:	4014      	ands	r4, r2
 8002382:	0762      	lsls	r2, r4, #29
 8002384:	08e4      	lsrs	r4, r4, #3
 8002386:	e760      	b.n	800224a <__aeabi_dsub+0x3c2>
 8002388:	4981      	ldr	r1, [pc, #516]	@ (8002590 <__aeabi_dsub+0x708>)
 800238a:	428a      	cmp	r2, r1
 800238c:	d100      	bne.n	8002390 <__aeabi_dsub+0x508>
 800238e:	e0c9      	b.n	8002524 <__aeabi_dsub+0x69c>
 8002390:	4663      	mov	r3, ip
 8002392:	18c1      	adds	r1, r0, r3
 8002394:	4281      	cmp	r1, r0
 8002396:	4180      	sbcs	r0, r0
 8002398:	9b02      	ldr	r3, [sp, #8]
 800239a:	4240      	negs	r0, r0
 800239c:	18e3      	adds	r3, r4, r3
 800239e:	181b      	adds	r3, r3, r0
 80023a0:	07dd      	lsls	r5, r3, #31
 80023a2:	085c      	lsrs	r4, r3, #1
 80023a4:	2307      	movs	r3, #7
 80023a6:	0849      	lsrs	r1, r1, #1
 80023a8:	430d      	orrs	r5, r1
 80023aa:	0017      	movs	r7, r2
 80023ac:	402b      	ands	r3, r5
 80023ae:	e710      	b.n	80021d2 <__aeabi_dsub+0x34a>
 80023b0:	4663      	mov	r3, ip
 80023b2:	1a1d      	subs	r5, r3, r0
 80023b4:	45ac      	cmp	ip, r5
 80023b6:	4192      	sbcs	r2, r2
 80023b8:	2601      	movs	r6, #1
 80023ba:	9b02      	ldr	r3, [sp, #8]
 80023bc:	4252      	negs	r2, r2
 80023be:	1b1c      	subs	r4, r3, r4
 80023c0:	4688      	mov	r8, r1
 80023c2:	1aa4      	subs	r4, r4, r2
 80023c4:	400e      	ands	r6, r1
 80023c6:	e5c6      	b.n	8001f56 <__aeabi_dsub+0xce>
 80023c8:	4663      	mov	r3, ip
 80023ca:	18c5      	adds	r5, r0, r3
 80023cc:	9b02      	ldr	r3, [sp, #8]
 80023ce:	4285      	cmp	r5, r0
 80023d0:	4180      	sbcs	r0, r0
 80023d2:	469c      	mov	ip, r3
 80023d4:	4240      	negs	r0, r0
 80023d6:	4464      	add	r4, ip
 80023d8:	1824      	adds	r4, r4, r0
 80023da:	2701      	movs	r7, #1
 80023dc:	0223      	lsls	r3, r4, #8
 80023de:	d400      	bmi.n	80023e2 <__aeabi_dsub+0x55a>
 80023e0:	e6f5      	b.n	80021ce <__aeabi_dsub+0x346>
 80023e2:	2702      	movs	r7, #2
 80023e4:	e641      	b.n	800206a <__aeabi_dsub+0x1e2>
 80023e6:	4663      	mov	r3, ip
 80023e8:	1ac5      	subs	r5, r0, r3
 80023ea:	42a8      	cmp	r0, r5
 80023ec:	4180      	sbcs	r0, r0
 80023ee:	9b02      	ldr	r3, [sp, #8]
 80023f0:	4240      	negs	r0, r0
 80023f2:	1ae4      	subs	r4, r4, r3
 80023f4:	2701      	movs	r7, #1
 80023f6:	1a24      	subs	r4, r4, r0
 80023f8:	e5a8      	b.n	8001f4c <__aeabi_dsub+0xc4>
 80023fa:	9d02      	ldr	r5, [sp, #8]
 80023fc:	4652      	mov	r2, sl
 80023fe:	002b      	movs	r3, r5
 8002400:	3a20      	subs	r2, #32
 8002402:	40d3      	lsrs	r3, r2
 8002404:	0019      	movs	r1, r3
 8002406:	4653      	mov	r3, sl
 8002408:	2b20      	cmp	r3, #32
 800240a:	d006      	beq.n	800241a <__aeabi_dsub+0x592>
 800240c:	2240      	movs	r2, #64	@ 0x40
 800240e:	1ad2      	subs	r2, r2, r3
 8002410:	002b      	movs	r3, r5
 8002412:	4093      	lsls	r3, r2
 8002414:	4662      	mov	r2, ip
 8002416:	431a      	orrs	r2, r3
 8002418:	4693      	mov	fp, r2
 800241a:	465d      	mov	r5, fp
 800241c:	1e6b      	subs	r3, r5, #1
 800241e:	419d      	sbcs	r5, r3
 8002420:	430d      	orrs	r5, r1
 8002422:	e615      	b.n	8002050 <__aeabi_dsub+0x1c8>
 8002424:	0762      	lsls	r2, r4, #29
 8002426:	08c0      	lsrs	r0, r0, #3
 8002428:	4302      	orrs	r2, r0
 800242a:	08e4      	lsrs	r4, r4, #3
 800242c:	e70d      	b.n	800224a <__aeabi_dsub+0x3c2>
 800242e:	0011      	movs	r1, r2
 8002430:	0027      	movs	r7, r4
 8002432:	3920      	subs	r1, #32
 8002434:	40cf      	lsrs	r7, r1
 8002436:	2a20      	cmp	r2, #32
 8002438:	d005      	beq.n	8002446 <__aeabi_dsub+0x5be>
 800243a:	2140      	movs	r1, #64	@ 0x40
 800243c:	1a8a      	subs	r2, r1, r2
 800243e:	4094      	lsls	r4, r2
 8002440:	0025      	movs	r5, r4
 8002442:	4305      	orrs	r5, r0
 8002444:	9503      	str	r5, [sp, #12]
 8002446:	9d03      	ldr	r5, [sp, #12]
 8002448:	1e6a      	subs	r2, r5, #1
 800244a:	4195      	sbcs	r5, r2
 800244c:	433d      	orrs	r5, r7
 800244e:	e77d      	b.n	800234c <__aeabi_dsub+0x4c4>
 8002450:	2a00      	cmp	r2, #0
 8002452:	d100      	bne.n	8002456 <__aeabi_dsub+0x5ce>
 8002454:	e744      	b.n	80022e0 <__aeabi_dsub+0x458>
 8002456:	2601      	movs	r6, #1
 8002458:	400e      	ands	r6, r1
 800245a:	4663      	mov	r3, ip
 800245c:	08d9      	lsrs	r1, r3, #3
 800245e:	9b02      	ldr	r3, [sp, #8]
 8002460:	075a      	lsls	r2, r3, #29
 8002462:	430a      	orrs	r2, r1
 8002464:	08dc      	lsrs	r4, r3, #3
 8002466:	e6f0      	b.n	800224a <__aeabi_dsub+0x3c2>
 8002468:	2a00      	cmp	r2, #0
 800246a:	d028      	beq.n	80024be <__aeabi_dsub+0x636>
 800246c:	4662      	mov	r2, ip
 800246e:	9f02      	ldr	r7, [sp, #8]
 8002470:	08c0      	lsrs	r0, r0, #3
 8002472:	433a      	orrs	r2, r7
 8002474:	d100      	bne.n	8002478 <__aeabi_dsub+0x5f0>
 8002476:	e6dc      	b.n	8002232 <__aeabi_dsub+0x3aa>
 8002478:	0762      	lsls	r2, r4, #29
 800247a:	4310      	orrs	r0, r2
 800247c:	2280      	movs	r2, #128	@ 0x80
 800247e:	08e4      	lsrs	r4, r4, #3
 8002480:	0312      	lsls	r2, r2, #12
 8002482:	4214      	tst	r4, r2
 8002484:	d009      	beq.n	800249a <__aeabi_dsub+0x612>
 8002486:	08fd      	lsrs	r5, r7, #3
 8002488:	4215      	tst	r5, r2
 800248a:	d106      	bne.n	800249a <__aeabi_dsub+0x612>
 800248c:	4663      	mov	r3, ip
 800248e:	2601      	movs	r6, #1
 8002490:	002c      	movs	r4, r5
 8002492:	08d8      	lsrs	r0, r3, #3
 8002494:	077b      	lsls	r3, r7, #29
 8002496:	4318      	orrs	r0, r3
 8002498:	400e      	ands	r6, r1
 800249a:	0f42      	lsrs	r2, r0, #29
 800249c:	00c0      	lsls	r0, r0, #3
 800249e:	08c0      	lsrs	r0, r0, #3
 80024a0:	0752      	lsls	r2, r2, #29
 80024a2:	4302      	orrs	r2, r0
 80024a4:	e601      	b.n	80020aa <__aeabi_dsub+0x222>
 80024a6:	4663      	mov	r3, ip
 80024a8:	1a1d      	subs	r5, r3, r0
 80024aa:	45ac      	cmp	ip, r5
 80024ac:	4192      	sbcs	r2, r2
 80024ae:	9b02      	ldr	r3, [sp, #8]
 80024b0:	4252      	negs	r2, r2
 80024b2:	1b1c      	subs	r4, r3, r4
 80024b4:	000e      	movs	r6, r1
 80024b6:	4688      	mov	r8, r1
 80024b8:	2701      	movs	r7, #1
 80024ba:	1aa4      	subs	r4, r4, r2
 80024bc:	e546      	b.n	8001f4c <__aeabi_dsub+0xc4>
 80024be:	4663      	mov	r3, ip
 80024c0:	08d9      	lsrs	r1, r3, #3
 80024c2:	9b02      	ldr	r3, [sp, #8]
 80024c4:	075a      	lsls	r2, r3, #29
 80024c6:	430a      	orrs	r2, r1
 80024c8:	08dc      	lsrs	r4, r3, #3
 80024ca:	e5ee      	b.n	80020aa <__aeabi_dsub+0x222>
 80024cc:	4663      	mov	r3, ip
 80024ce:	9c02      	ldr	r4, [sp, #8]
 80024d0:	9303      	str	r3, [sp, #12]
 80024d2:	e6c7      	b.n	8002264 <__aeabi_dsub+0x3dc>
 80024d4:	08c0      	lsrs	r0, r0, #3
 80024d6:	2a00      	cmp	r2, #0
 80024d8:	d100      	bne.n	80024dc <__aeabi_dsub+0x654>
 80024da:	e6aa      	b.n	8002232 <__aeabi_dsub+0x3aa>
 80024dc:	0762      	lsls	r2, r4, #29
 80024de:	4310      	orrs	r0, r2
 80024e0:	2280      	movs	r2, #128	@ 0x80
 80024e2:	08e4      	lsrs	r4, r4, #3
 80024e4:	0312      	lsls	r2, r2, #12
 80024e6:	4214      	tst	r4, r2
 80024e8:	d0d7      	beq.n	800249a <__aeabi_dsub+0x612>
 80024ea:	9f02      	ldr	r7, [sp, #8]
 80024ec:	08fd      	lsrs	r5, r7, #3
 80024ee:	4215      	tst	r5, r2
 80024f0:	d1d3      	bne.n	800249a <__aeabi_dsub+0x612>
 80024f2:	4663      	mov	r3, ip
 80024f4:	2601      	movs	r6, #1
 80024f6:	08d8      	lsrs	r0, r3, #3
 80024f8:	077b      	lsls	r3, r7, #29
 80024fa:	002c      	movs	r4, r5
 80024fc:	4318      	orrs	r0, r3
 80024fe:	400e      	ands	r6, r1
 8002500:	e7cb      	b.n	800249a <__aeabi_dsub+0x612>
 8002502:	000a      	movs	r2, r1
 8002504:	0027      	movs	r7, r4
 8002506:	3a20      	subs	r2, #32
 8002508:	40d7      	lsrs	r7, r2
 800250a:	2920      	cmp	r1, #32
 800250c:	d005      	beq.n	800251a <__aeabi_dsub+0x692>
 800250e:	2240      	movs	r2, #64	@ 0x40
 8002510:	1a52      	subs	r2, r2, r1
 8002512:	4094      	lsls	r4, r2
 8002514:	0025      	movs	r5, r4
 8002516:	4305      	orrs	r5, r0
 8002518:	9503      	str	r5, [sp, #12]
 800251a:	9d03      	ldr	r5, [sp, #12]
 800251c:	1e6a      	subs	r2, r5, #1
 800251e:	4195      	sbcs	r5, r2
 8002520:	432f      	orrs	r7, r5
 8002522:	e610      	b.n	8002146 <__aeabi_dsub+0x2be>
 8002524:	0014      	movs	r4, r2
 8002526:	2500      	movs	r5, #0
 8002528:	2200      	movs	r2, #0
 800252a:	e556      	b.n	8001fda <__aeabi_dsub+0x152>
 800252c:	9b02      	ldr	r3, [sp, #8]
 800252e:	4460      	add	r0, ip
 8002530:	4699      	mov	r9, r3
 8002532:	4560      	cmp	r0, ip
 8002534:	4192      	sbcs	r2, r2
 8002536:	444c      	add	r4, r9
 8002538:	4252      	negs	r2, r2
 800253a:	0005      	movs	r5, r0
 800253c:	18a4      	adds	r4, r4, r2
 800253e:	e74c      	b.n	80023da <__aeabi_dsub+0x552>
 8002540:	001a      	movs	r2, r3
 8002542:	001c      	movs	r4, r3
 8002544:	432a      	orrs	r2, r5
 8002546:	d000      	beq.n	800254a <__aeabi_dsub+0x6c2>
 8002548:	e6b3      	b.n	80022b2 <__aeabi_dsub+0x42a>
 800254a:	e6c9      	b.n	80022e0 <__aeabi_dsub+0x458>
 800254c:	2480      	movs	r4, #128	@ 0x80
 800254e:	2600      	movs	r6, #0
 8002550:	0324      	lsls	r4, r4, #12
 8002552:	e5ae      	b.n	80020b2 <__aeabi_dsub+0x22a>
 8002554:	2120      	movs	r1, #32
 8002556:	2500      	movs	r5, #0
 8002558:	1a09      	subs	r1, r1, r0
 800255a:	e517      	b.n	8001f8c <__aeabi_dsub+0x104>
 800255c:	2200      	movs	r2, #0
 800255e:	2500      	movs	r5, #0
 8002560:	4c0b      	ldr	r4, [pc, #44]	@ (8002590 <__aeabi_dsub+0x708>)
 8002562:	e53a      	b.n	8001fda <__aeabi_dsub+0x152>
 8002564:	2d00      	cmp	r5, #0
 8002566:	d100      	bne.n	800256a <__aeabi_dsub+0x6e2>
 8002568:	e5f6      	b.n	8002158 <__aeabi_dsub+0x2d0>
 800256a:	464b      	mov	r3, r9
 800256c:	1bda      	subs	r2, r3, r7
 800256e:	4692      	mov	sl, r2
 8002570:	2f00      	cmp	r7, #0
 8002572:	d100      	bne.n	8002576 <__aeabi_dsub+0x6ee>
 8002574:	e66f      	b.n	8002256 <__aeabi_dsub+0x3ce>
 8002576:	2a38      	cmp	r2, #56	@ 0x38
 8002578:	dc05      	bgt.n	8002586 <__aeabi_dsub+0x6fe>
 800257a:	2680      	movs	r6, #128	@ 0x80
 800257c:	0436      	lsls	r6, r6, #16
 800257e:	4334      	orrs	r4, r6
 8002580:	4688      	mov	r8, r1
 8002582:	000e      	movs	r6, r1
 8002584:	e6d1      	b.n	800232a <__aeabi_dsub+0x4a2>
 8002586:	4688      	mov	r8, r1
 8002588:	000e      	movs	r6, r1
 800258a:	2501      	movs	r5, #1
 800258c:	e6de      	b.n	800234c <__aeabi_dsub+0x4c4>
 800258e:	46c0      	nop			@ (mov r8, r8)
 8002590:	000007ff 	.word	0x000007ff
 8002594:	ff7fffff 	.word	0xff7fffff
 8002598:	000007fe 	.word	0x000007fe
 800259c:	2d00      	cmp	r5, #0
 800259e:	d100      	bne.n	80025a2 <__aeabi_dsub+0x71a>
 80025a0:	e668      	b.n	8002274 <__aeabi_dsub+0x3ec>
 80025a2:	464b      	mov	r3, r9
 80025a4:	1bd9      	subs	r1, r3, r7
 80025a6:	2f00      	cmp	r7, #0
 80025a8:	d101      	bne.n	80025ae <__aeabi_dsub+0x726>
 80025aa:	468a      	mov	sl, r1
 80025ac:	e5a7      	b.n	80020fe <__aeabi_dsub+0x276>
 80025ae:	2701      	movs	r7, #1
 80025b0:	2938      	cmp	r1, #56	@ 0x38
 80025b2:	dd00      	ble.n	80025b6 <__aeabi_dsub+0x72e>
 80025b4:	e5c7      	b.n	8002146 <__aeabi_dsub+0x2be>
 80025b6:	2280      	movs	r2, #128	@ 0x80
 80025b8:	0412      	lsls	r2, r2, #16
 80025ba:	4314      	orrs	r4, r2
 80025bc:	e5af      	b.n	800211e <__aeabi_dsub+0x296>
 80025be:	46c0      	nop			@ (mov r8, r8)

080025c0 <__aeabi_dcmpun>:
 80025c0:	b5f0      	push	{r4, r5, r6, r7, lr}
 80025c2:	46c6      	mov	lr, r8
 80025c4:	031e      	lsls	r6, r3, #12
 80025c6:	0b36      	lsrs	r6, r6, #12
 80025c8:	46b0      	mov	r8, r6
 80025ca:	4e0d      	ldr	r6, [pc, #52]	@ (8002600 <__aeabi_dcmpun+0x40>)
 80025cc:	030c      	lsls	r4, r1, #12
 80025ce:	004d      	lsls	r5, r1, #1
 80025d0:	005f      	lsls	r7, r3, #1
 80025d2:	b500      	push	{lr}
 80025d4:	0b24      	lsrs	r4, r4, #12
 80025d6:	0d6d      	lsrs	r5, r5, #21
 80025d8:	0d7f      	lsrs	r7, r7, #21
 80025da:	42b5      	cmp	r5, r6
 80025dc:	d00b      	beq.n	80025f6 <__aeabi_dcmpun+0x36>
 80025de:	4908      	ldr	r1, [pc, #32]	@ (8002600 <__aeabi_dcmpun+0x40>)
 80025e0:	2000      	movs	r0, #0
 80025e2:	428f      	cmp	r7, r1
 80025e4:	d104      	bne.n	80025f0 <__aeabi_dcmpun+0x30>
 80025e6:	4646      	mov	r6, r8
 80025e8:	4316      	orrs	r6, r2
 80025ea:	0030      	movs	r0, r6
 80025ec:	1e43      	subs	r3, r0, #1
 80025ee:	4198      	sbcs	r0, r3
 80025f0:	bc80      	pop	{r7}
 80025f2:	46b8      	mov	r8, r7
 80025f4:	bdf0      	pop	{r4, r5, r6, r7, pc}
 80025f6:	4304      	orrs	r4, r0
 80025f8:	2001      	movs	r0, #1
 80025fa:	2c00      	cmp	r4, #0
 80025fc:	d1f8      	bne.n	80025f0 <__aeabi_dcmpun+0x30>
 80025fe:	e7ee      	b.n	80025de <__aeabi_dcmpun+0x1e>
 8002600:	000007ff 	.word	0x000007ff

08002604 <__aeabi_d2iz>:
 8002604:	000b      	movs	r3, r1
 8002606:	0002      	movs	r2, r0
 8002608:	b570      	push	{r4, r5, r6, lr}
 800260a:	4d16      	ldr	r5, [pc, #88]	@ (8002664 <__aeabi_d2iz+0x60>)
 800260c:	030c      	lsls	r4, r1, #12
 800260e:	b082      	sub	sp, #8
 8002610:	0049      	lsls	r1, r1, #1
 8002612:	2000      	movs	r0, #0
 8002614:	9200      	str	r2, [sp, #0]
 8002616:	9301      	str	r3, [sp, #4]
 8002618:	0b24      	lsrs	r4, r4, #12
 800261a:	0d49      	lsrs	r1, r1, #21
 800261c:	0fde      	lsrs	r6, r3, #31
 800261e:	42a9      	cmp	r1, r5
 8002620:	dd04      	ble.n	800262c <__aeabi_d2iz+0x28>
 8002622:	4811      	ldr	r0, [pc, #68]	@ (8002668 <__aeabi_d2iz+0x64>)
 8002624:	4281      	cmp	r1, r0
 8002626:	dd03      	ble.n	8002630 <__aeabi_d2iz+0x2c>
 8002628:	4b10      	ldr	r3, [pc, #64]	@ (800266c <__aeabi_d2iz+0x68>)
 800262a:	18f0      	adds	r0, r6, r3
 800262c:	b002      	add	sp, #8
 800262e:	bd70      	pop	{r4, r5, r6, pc}
 8002630:	2080      	movs	r0, #128	@ 0x80
 8002632:	0340      	lsls	r0, r0, #13
 8002634:	4320      	orrs	r0, r4
 8002636:	4c0e      	ldr	r4, [pc, #56]	@ (8002670 <__aeabi_d2iz+0x6c>)
 8002638:	1a64      	subs	r4, r4, r1
 800263a:	2c1f      	cmp	r4, #31
 800263c:	dd08      	ble.n	8002650 <__aeabi_d2iz+0x4c>
 800263e:	4b0d      	ldr	r3, [pc, #52]	@ (8002674 <__aeabi_d2iz+0x70>)
 8002640:	1a5b      	subs	r3, r3, r1
 8002642:	40d8      	lsrs	r0, r3
 8002644:	0003      	movs	r3, r0
 8002646:	4258      	negs	r0, r3
 8002648:	2e00      	cmp	r6, #0
 800264a:	d1ef      	bne.n	800262c <__aeabi_d2iz+0x28>
 800264c:	0018      	movs	r0, r3
 800264e:	e7ed      	b.n	800262c <__aeabi_d2iz+0x28>
 8002650:	4b09      	ldr	r3, [pc, #36]	@ (8002678 <__aeabi_d2iz+0x74>)
 8002652:	9a00      	ldr	r2, [sp, #0]
 8002654:	469c      	mov	ip, r3
 8002656:	0003      	movs	r3, r0
 8002658:	4461      	add	r1, ip
 800265a:	408b      	lsls	r3, r1
 800265c:	40e2      	lsrs	r2, r4
 800265e:	4313      	orrs	r3, r2
 8002660:	e7f1      	b.n	8002646 <__aeabi_d2iz+0x42>
 8002662:	46c0      	nop			@ (mov r8, r8)
 8002664:	000003fe 	.word	0x000003fe
 8002668:	0000041d 	.word	0x0000041d
 800266c:	7fffffff 	.word	0x7fffffff
 8002670:	00000433 	.word	0x00000433
 8002674:	00000413 	.word	0x00000413
 8002678:	fffffbed 	.word	0xfffffbed

0800267c <__aeabi_i2d>:
 800267c:	b570      	push	{r4, r5, r6, lr}
 800267e:	2800      	cmp	r0, #0
 8002680:	d016      	beq.n	80026b0 <__aeabi_i2d+0x34>
 8002682:	17c3      	asrs	r3, r0, #31
 8002684:	18c5      	adds	r5, r0, r3
 8002686:	405d      	eors	r5, r3
 8002688:	0fc4      	lsrs	r4, r0, #31
 800268a:	0028      	movs	r0, r5
 800268c:	f000 f824 	bl	80026d8 <__clzsi2>
 8002690:	4b10      	ldr	r3, [pc, #64]	@ (80026d4 <__aeabi_i2d+0x58>)
 8002692:	1a1b      	subs	r3, r3, r0
 8002694:	055b      	lsls	r3, r3, #21
 8002696:	0d5b      	lsrs	r3, r3, #21
 8002698:	280a      	cmp	r0, #10
 800269a:	dc14      	bgt.n	80026c6 <__aeabi_i2d+0x4a>
 800269c:	0002      	movs	r2, r0
 800269e:	002e      	movs	r6, r5
 80026a0:	3215      	adds	r2, #21
 80026a2:	4096      	lsls	r6, r2
 80026a4:	220b      	movs	r2, #11
 80026a6:	1a12      	subs	r2, r2, r0
 80026a8:	40d5      	lsrs	r5, r2
 80026aa:	032d      	lsls	r5, r5, #12
 80026ac:	0b2d      	lsrs	r5, r5, #12
 80026ae:	e003      	b.n	80026b8 <__aeabi_i2d+0x3c>
 80026b0:	2400      	movs	r4, #0
 80026b2:	2300      	movs	r3, #0
 80026b4:	2500      	movs	r5, #0
 80026b6:	2600      	movs	r6, #0
 80026b8:	051b      	lsls	r3, r3, #20
 80026ba:	432b      	orrs	r3, r5
 80026bc:	07e4      	lsls	r4, r4, #31
 80026be:	4323      	orrs	r3, r4
 80026c0:	0030      	movs	r0, r6
 80026c2:	0019      	movs	r1, r3
 80026c4:	bd70      	pop	{r4, r5, r6, pc}
 80026c6:	380b      	subs	r0, #11
 80026c8:	4085      	lsls	r5, r0
 80026ca:	032d      	lsls	r5, r5, #12
 80026cc:	2600      	movs	r6, #0
 80026ce:	0b2d      	lsrs	r5, r5, #12
 80026d0:	e7f2      	b.n	80026b8 <__aeabi_i2d+0x3c>
 80026d2:	46c0      	nop			@ (mov r8, r8)
 80026d4:	0000041e 	.word	0x0000041e

080026d8 <__clzsi2>:
 80026d8:	211c      	movs	r1, #28
 80026da:	2301      	movs	r3, #1
 80026dc:	041b      	lsls	r3, r3, #16
 80026de:	4298      	cmp	r0, r3
 80026e0:	d301      	bcc.n	80026e6 <__clzsi2+0xe>
 80026e2:	0c00      	lsrs	r0, r0, #16
 80026e4:	3910      	subs	r1, #16
 80026e6:	0a1b      	lsrs	r3, r3, #8
 80026e8:	4298      	cmp	r0, r3
 80026ea:	d301      	bcc.n	80026f0 <__clzsi2+0x18>
 80026ec:	0a00      	lsrs	r0, r0, #8
 80026ee:	3908      	subs	r1, #8
 80026f0:	091b      	lsrs	r3, r3, #4
 80026f2:	4298      	cmp	r0, r3
 80026f4:	d301      	bcc.n	80026fa <__clzsi2+0x22>
 80026f6:	0900      	lsrs	r0, r0, #4
 80026f8:	3904      	subs	r1, #4
 80026fa:	a202      	add	r2, pc, #8	@ (adr r2, 8002704 <__clzsi2+0x2c>)
 80026fc:	5c10      	ldrb	r0, [r2, r0]
 80026fe:	1840      	adds	r0, r0, r1
 8002700:	4770      	bx	lr
 8002702:	46c0      	nop			@ (mov r8, r8)
 8002704:	02020304 	.word	0x02020304
 8002708:	01010101 	.word	0x01010101
	...

08002714 <__clzdi2>:
 8002714:	b510      	push	{r4, lr}
 8002716:	2900      	cmp	r1, #0
 8002718:	d103      	bne.n	8002722 <__clzdi2+0xe>
 800271a:	f7ff ffdd 	bl	80026d8 <__clzsi2>
 800271e:	3020      	adds	r0, #32
 8002720:	e002      	b.n	8002728 <__clzdi2+0x14>
 8002722:	0008      	movs	r0, r1
 8002724:	f7ff ffd8 	bl	80026d8 <__clzsi2>
 8002728:	bd10      	pop	{r4, pc}
 800272a:	46c0      	nop			@ (mov r8, r8)

0800272c <HAL_InitTick>:
 800272c:	b570      	push	{r4, r5, r6, lr}
 800272e:	4b10      	ldr	r3, [pc, #64]	@ (8002770 <HAL_InitTick+0x44>)
 8002730:	0005      	movs	r5, r0
 8002732:	7819      	ldrb	r1, [r3, #0]
 8002734:	2900      	cmp	r1, #0
 8002736:	d101      	bne.n	800273c <HAL_InitTick+0x10>
 8002738:	2001      	movs	r0, #1
 800273a:	bd70      	pop	{r4, r5, r6, pc}
 800273c:	20fa      	movs	r0, #250	@ 0xfa
 800273e:	0080      	lsls	r0, r0, #2
 8002740:	f7fd fce8 	bl	8000114 <__udivsi3>
 8002744:	4c0b      	ldr	r4, [pc, #44]	@ (8002774 <HAL_InitTick+0x48>)
 8002746:	0001      	movs	r1, r0
 8002748:	6820      	ldr	r0, [r4, #0]
 800274a:	f7fd fce3 	bl	8000114 <__udivsi3>
 800274e:	f000 f877 	bl	8002840 <HAL_SYSTICK_Config>
 8002752:	1e04      	subs	r4, r0, #0
 8002754:	d1f0      	bne.n	8002738 <HAL_InitTick+0xc>
 8002756:	2d03      	cmp	r5, #3
 8002758:	d8ee      	bhi.n	8002738 <HAL_InitTick+0xc>
 800275a:	0002      	movs	r2, r0
 800275c:	2001      	movs	r0, #1
 800275e:	0029      	movs	r1, r5
 8002760:	4240      	negs	r0, r0
 8002762:	f000 f843 	bl	80027ec <HAL_NVIC_SetPriority>
 8002766:	4b04      	ldr	r3, [pc, #16]	@ (8002778 <HAL_InitTick+0x4c>)
 8002768:	0020      	movs	r0, r4
 800276a:	601d      	str	r5, [r3, #0]
 800276c:	e7e5      	b.n	800273a <HAL_InitTick+0xe>
 800276e:	46c0      	nop			@ (mov r8, r8)
 8002770:	20000000 	.word	0x20000000
 8002774:	20000008 	.word	0x20000008
 8002778:	20000004 	.word	0x20000004

0800277c <HAL_Init>:
 800277c:	2380      	movs	r3, #128	@ 0x80
 800277e:	4a08      	ldr	r2, [pc, #32]	@ (80027a0 <HAL_Init+0x24>)
 8002780:	005b      	lsls	r3, r3, #1
 8002782:	6811      	ldr	r1, [r2, #0]
 8002784:	b510      	push	{r4, lr}
 8002786:	430b      	orrs	r3, r1
 8002788:	2003      	movs	r0, #3
 800278a:	6013      	str	r3, [r2, #0]
 800278c:	f7ff ffce 	bl	800272c <HAL_InitTick>
 8002790:	1e04      	subs	r4, r0, #0
 8002792:	d103      	bne.n	800279c <HAL_Init+0x20>
 8002794:	f002 f92e 	bl	80049f4 <HAL_MspInit>
 8002798:	0020      	movs	r0, r4
 800279a:	bd10      	pop	{r4, pc}
 800279c:	2401      	movs	r4, #1
 800279e:	e7fb      	b.n	8002798 <HAL_Init+0x1c>
 80027a0:	40022000 	.word	0x40022000

080027a4 <HAL_IncTick>:
 80027a4:	4a03      	ldr	r2, [pc, #12]	@ (80027b4 <HAL_IncTick+0x10>)
 80027a6:	4b04      	ldr	r3, [pc, #16]	@ (80027b8 <HAL_IncTick+0x14>)
 80027a8:	6811      	ldr	r1, [r2, #0]
 80027aa:	781b      	ldrb	r3, [r3, #0]
 80027ac:	185b      	adds	r3, r3, r1
 80027ae:	6013      	str	r3, [r2, #0]
 80027b0:	4770      	bx	lr
 80027b2:	46c0      	nop			@ (mov r8, r8)
 80027b4:	2000008c 	.word	0x2000008c
 80027b8:	20000000 	.word	0x20000000

080027bc <HAL_GetTick>:
 80027bc:	4b01      	ldr	r3, [pc, #4]	@ (80027c4 <HAL_GetTick+0x8>)
 80027be:	6818      	ldr	r0, [r3, #0]
 80027c0:	4770      	bx	lr
 80027c2:	46c0      	nop			@ (mov r8, r8)
 80027c4:	2000008c 	.word	0x2000008c

080027c8 <HAL_Delay>:
 80027c8:	b570      	push	{r4, r5, r6, lr}
 80027ca:	0004      	movs	r4, r0
 80027cc:	f7ff fff6 	bl	80027bc <HAL_GetTick>
 80027d0:	0005      	movs	r5, r0
 80027d2:	1c63      	adds	r3, r4, #1
 80027d4:	d002      	beq.n	80027dc <HAL_Delay+0x14>
 80027d6:	4b04      	ldr	r3, [pc, #16]	@ (80027e8 <HAL_Delay+0x20>)
 80027d8:	781b      	ldrb	r3, [r3, #0]
 80027da:	18e4      	adds	r4, r4, r3
 80027dc:	f7ff ffee 	bl	80027bc <HAL_GetTick>
 80027e0:	1b40      	subs	r0, r0, r5
 80027e2:	42a0      	cmp	r0, r4
 80027e4:	d3fa      	bcc.n	80027dc <HAL_Delay+0x14>
 80027e6:	bd70      	pop	{r4, r5, r6, pc}
 80027e8:	20000000 	.word	0x20000000

080027ec <HAL_NVIC_SetPriority>:
 80027ec:	b510      	push	{r4, lr}
 80027ee:	24ff      	movs	r4, #255	@ 0xff
 80027f0:	2203      	movs	r2, #3
 80027f2:	000b      	movs	r3, r1
 80027f4:	0021      	movs	r1, r4
 80027f6:	4002      	ands	r2, r0
 80027f8:	00d2      	lsls	r2, r2, #3
 80027fa:	4091      	lsls	r1, r2
 80027fc:	019b      	lsls	r3, r3, #6
 80027fe:	4023      	ands	r3, r4
 8002800:	43c9      	mvns	r1, r1
 8002802:	4093      	lsls	r3, r2
 8002804:	2800      	cmp	r0, #0
 8002806:	db0a      	blt.n	800281e <HAL_NVIC_SetPriority+0x32>
 8002808:	24c0      	movs	r4, #192	@ 0xc0
 800280a:	4a0b      	ldr	r2, [pc, #44]	@ (8002838 <HAL_NVIC_SetPriority+0x4c>)
 800280c:	0880      	lsrs	r0, r0, #2
 800280e:	0080      	lsls	r0, r0, #2
 8002810:	1880      	adds	r0, r0, r2
 8002812:	00a4      	lsls	r4, r4, #2
 8002814:	5902      	ldr	r2, [r0, r4]
 8002816:	400a      	ands	r2, r1
 8002818:	4313      	orrs	r3, r2
 800281a:	5103      	str	r3, [r0, r4]
 800281c:	bd10      	pop	{r4, pc}
 800281e:	220f      	movs	r2, #15
 8002820:	4010      	ands	r0, r2
 8002822:	3808      	subs	r0, #8
 8002824:	4a05      	ldr	r2, [pc, #20]	@ (800283c <HAL_NVIC_SetPriority+0x50>)
 8002826:	0880      	lsrs	r0, r0, #2
 8002828:	0080      	lsls	r0, r0, #2
 800282a:	1880      	adds	r0, r0, r2
 800282c:	69c2      	ldr	r2, [r0, #28]
 800282e:	4011      	ands	r1, r2
 8002830:	4319      	orrs	r1, r3
 8002832:	61c1      	str	r1, [r0, #28]
 8002834:	e7f2      	b.n	800281c <HAL_NVIC_SetPriority+0x30>
 8002836:	46c0      	nop			@ (mov r8, r8)
 8002838:	e000e100 	.word	0xe000e100
 800283c:	e000ed00 	.word	0xe000ed00

08002840 <HAL_SYSTICK_Config>:
 8002840:	2280      	movs	r2, #128	@ 0x80
 8002842:	1e43      	subs	r3, r0, #1
 8002844:	0452      	lsls	r2, r2, #17
 8002846:	2001      	movs	r0, #1
 8002848:	4293      	cmp	r3, r2
 800284a:	d20d      	bcs.n	8002868 <HAL_SYSTICK_Config+0x28>
 800284c:	21c0      	movs	r1, #192	@ 0xc0
 800284e:	4a07      	ldr	r2, [pc, #28]	@ (800286c <HAL_SYSTICK_Config+0x2c>)
 8002850:	4807      	ldr	r0, [pc, #28]	@ (8002870 <HAL_SYSTICK_Config+0x30>)
 8002852:	6053      	str	r3, [r2, #4]
 8002854:	6a03      	ldr	r3, [r0, #32]
 8002856:	0609      	lsls	r1, r1, #24
 8002858:	021b      	lsls	r3, r3, #8
 800285a:	0a1b      	lsrs	r3, r3, #8
 800285c:	430b      	orrs	r3, r1
 800285e:	6203      	str	r3, [r0, #32]
 8002860:	2000      	movs	r0, #0
 8002862:	2307      	movs	r3, #7
 8002864:	6090      	str	r0, [r2, #8]
 8002866:	6013      	str	r3, [r2, #0]
 8002868:	4770      	bx	lr
 800286a:	46c0      	nop			@ (mov r8, r8)
 800286c:	e000e010 	.word	0xe000e010
 8002870:	e000ed00 	.word	0xe000ed00

08002874 <HAL_GPIO_Init>:
 8002874:	2300      	movs	r3, #0
 8002876:	b5f0      	push	{r4, r5, r6, r7, lr}
 8002878:	b085      	sub	sp, #20
 800287a:	680a      	ldr	r2, [r1, #0]
 800287c:	0014      	movs	r4, r2
 800287e:	40dc      	lsrs	r4, r3
 8002880:	d101      	bne.n	8002886 <HAL_GPIO_Init+0x12>
 8002882:	b005      	add	sp, #20
 8002884:	bdf0      	pop	{r4, r5, r6, r7, pc}
 8002886:	2501      	movs	r5, #1
 8002888:	0014      	movs	r4, r2
 800288a:	409d      	lsls	r5, r3
 800288c:	402c      	ands	r4, r5
 800288e:	9400      	str	r4, [sp, #0]
 8002890:	422a      	tst	r2, r5
 8002892:	d100      	bne.n	8002896 <HAL_GPIO_Init+0x22>
 8002894:	e091      	b.n	80029ba <HAL_GPIO_Init+0x146>
 8002896:	684a      	ldr	r2, [r1, #4]
 8002898:	005f      	lsls	r7, r3, #1
 800289a:	4694      	mov	ip, r2
 800289c:	2203      	movs	r2, #3
 800289e:	4664      	mov	r4, ip
 80028a0:	4022      	ands	r2, r4
 80028a2:	2403      	movs	r4, #3
 80028a4:	40bc      	lsls	r4, r7
 80028a6:	43e4      	mvns	r4, r4
 80028a8:	9401      	str	r4, [sp, #4]
 80028aa:	1e54      	subs	r4, r2, #1
 80028ac:	2c01      	cmp	r4, #1
 80028ae:	d82e      	bhi.n	800290e <HAL_GPIO_Init+0x9a>
 80028b0:	6886      	ldr	r6, [r0, #8]
 80028b2:	9c01      	ldr	r4, [sp, #4]
 80028b4:	4026      	ands	r6, r4
 80028b6:	68cc      	ldr	r4, [r1, #12]
 80028b8:	40bc      	lsls	r4, r7
 80028ba:	4334      	orrs	r4, r6
 80028bc:	6084      	str	r4, [r0, #8]
 80028be:	6844      	ldr	r4, [r0, #4]
 80028c0:	2601      	movs	r6, #1
 80028c2:	43ac      	bics	r4, r5
 80028c4:	0025      	movs	r5, r4
 80028c6:	4664      	mov	r4, ip
 80028c8:	0924      	lsrs	r4, r4, #4
 80028ca:	4034      	ands	r4, r6
 80028cc:	409c      	lsls	r4, r3
 80028ce:	432c      	orrs	r4, r5
 80028d0:	6044      	str	r4, [r0, #4]
 80028d2:	68c5      	ldr	r5, [r0, #12]
 80028d4:	9c01      	ldr	r4, [sp, #4]
 80028d6:	4025      	ands	r5, r4
 80028d8:	688c      	ldr	r4, [r1, #8]
 80028da:	40bc      	lsls	r4, r7
 80028dc:	432c      	orrs	r4, r5
 80028de:	60c4      	str	r4, [r0, #12]
 80028e0:	2a02      	cmp	r2, #2
 80028e2:	d116      	bne.n	8002912 <HAL_GPIO_Init+0x9e>
 80028e4:	2507      	movs	r5, #7
 80028e6:	260f      	movs	r6, #15
 80028e8:	401d      	ands	r5, r3
 80028ea:	00ad      	lsls	r5, r5, #2
 80028ec:	40ae      	lsls	r6, r5
 80028ee:	08dc      	lsrs	r4, r3, #3
 80028f0:	00a4      	lsls	r4, r4, #2
 80028f2:	1904      	adds	r4, r0, r4
 80028f4:	9402      	str	r4, [sp, #8]
 80028f6:	6a24      	ldr	r4, [r4, #32]
 80028f8:	9603      	str	r6, [sp, #12]
 80028fa:	0026      	movs	r6, r4
 80028fc:	9c03      	ldr	r4, [sp, #12]
 80028fe:	43a6      	bics	r6, r4
 8002900:	0034      	movs	r4, r6
 8002902:	690e      	ldr	r6, [r1, #16]
 8002904:	40ae      	lsls	r6, r5
 8002906:	4326      	orrs	r6, r4
 8002908:	9c02      	ldr	r4, [sp, #8]
 800290a:	6226      	str	r6, [r4, #32]
 800290c:	e001      	b.n	8002912 <HAL_GPIO_Init+0x9e>
 800290e:	2a03      	cmp	r2, #3
 8002910:	d1df      	bne.n	80028d2 <HAL_GPIO_Init+0x5e>
 8002912:	40ba      	lsls	r2, r7
 8002914:	6804      	ldr	r4, [r0, #0]
 8002916:	9d01      	ldr	r5, [sp, #4]
 8002918:	4025      	ands	r5, r4
 800291a:	432a      	orrs	r2, r5
 800291c:	24c0      	movs	r4, #192	@ 0xc0
 800291e:	6002      	str	r2, [r0, #0]
 8002920:	4662      	mov	r2, ip
 8002922:	02a4      	lsls	r4, r4, #10
 8002924:	4222      	tst	r2, r4
 8002926:	d048      	beq.n	80029ba <HAL_GPIO_Init+0x146>
 8002928:	4a25      	ldr	r2, [pc, #148]	@ (80029c0 <HAL_GPIO_Init+0x14c>)
 800292a:	2503      	movs	r5, #3
 800292c:	089c      	lsrs	r4, r3, #2
 800292e:	00a4      	lsls	r4, r4, #2
 8002930:	18a4      	adds	r4, r4, r2
 8002932:	220f      	movs	r2, #15
 8002934:	401d      	ands	r5, r3
 8002936:	00ed      	lsls	r5, r5, #3
 8002938:	40aa      	lsls	r2, r5
 800293a:	27a0      	movs	r7, #160	@ 0xa0
 800293c:	6e26      	ldr	r6, [r4, #96]	@ 0x60
 800293e:	05ff      	lsls	r7, r7, #23
 8002940:	4396      	bics	r6, r2
 8002942:	2200      	movs	r2, #0
 8002944:	42b8      	cmp	r0, r7
 8002946:	d00c      	beq.n	8002962 <HAL_GPIO_Init+0xee>
 8002948:	4f1e      	ldr	r7, [pc, #120]	@ (80029c4 <HAL_GPIO_Init+0x150>)
 800294a:	3201      	adds	r2, #1
 800294c:	42b8      	cmp	r0, r7
 800294e:	d008      	beq.n	8002962 <HAL_GPIO_Init+0xee>
 8002950:	4f1d      	ldr	r7, [pc, #116]	@ (80029c8 <HAL_GPIO_Init+0x154>)
 8002952:	3201      	adds	r2, #1
 8002954:	42b8      	cmp	r0, r7
 8002956:	d004      	beq.n	8002962 <HAL_GPIO_Init+0xee>
 8002958:	4f1c      	ldr	r7, [pc, #112]	@ (80029cc <HAL_GPIO_Init+0x158>)
 800295a:	3203      	adds	r2, #3
 800295c:	42b8      	cmp	r0, r7
 800295e:	d100      	bne.n	8002962 <HAL_GPIO_Init+0xee>
 8002960:	3a02      	subs	r2, #2
 8002962:	40aa      	lsls	r2, r5
 8002964:	4667      	mov	r7, ip
 8002966:	4332      	orrs	r2, r6
 8002968:	6622      	str	r2, [r4, #96]	@ 0x60
 800296a:	4c15      	ldr	r4, [pc, #84]	@ (80029c0 <HAL_GPIO_Init+0x14c>)
 800296c:	9a00      	ldr	r2, [sp, #0]
 800296e:	6826      	ldr	r6, [r4, #0]
 8002970:	9d00      	ldr	r5, [sp, #0]
 8002972:	43d2      	mvns	r2, r2
 8002974:	4335      	orrs	r5, r6
 8002976:	02ff      	lsls	r7, r7, #11
 8002978:	d401      	bmi.n	800297e <HAL_GPIO_Init+0x10a>
 800297a:	0035      	movs	r5, r6
 800297c:	4015      	ands	r5, r2
 800297e:	4667      	mov	r7, ip
 8002980:	6025      	str	r5, [r4, #0]
 8002982:	6866      	ldr	r6, [r4, #4]
 8002984:	9d00      	ldr	r5, [sp, #0]
 8002986:	4335      	orrs	r5, r6
 8002988:	02bf      	lsls	r7, r7, #10
 800298a:	d401      	bmi.n	8002990 <HAL_GPIO_Init+0x11c>
 800298c:	0035      	movs	r5, r6
 800298e:	4015      	ands	r5, r2
 8002990:	4667      	mov	r7, ip
 8002992:	6065      	str	r5, [r4, #4]
 8002994:	4c0e      	ldr	r4, [pc, #56]	@ (80029d0 <HAL_GPIO_Init+0x15c>)
 8002996:	9d00      	ldr	r5, [sp, #0]
 8002998:	6fe6      	ldr	r6, [r4, #124]	@ 0x7c
 800299a:	4335      	orrs	r5, r6
 800299c:	03bf      	lsls	r7, r7, #14
 800299e:	d401      	bmi.n	80029a4 <HAL_GPIO_Init+0x130>
 80029a0:	0035      	movs	r5, r6
 80029a2:	4015      	ands	r5, r2
 80029a4:	4667      	mov	r7, ip
 80029a6:	67e5      	str	r5, [r4, #124]	@ 0x7c
 80029a8:	4c0a      	ldr	r4, [pc, #40]	@ (80029d4 <HAL_GPIO_Init+0x160>)
 80029aa:	9e00      	ldr	r6, [sp, #0]
 80029ac:	6fe5      	ldr	r5, [r4, #124]	@ 0x7c
 80029ae:	432e      	orrs	r6, r5
 80029b0:	03ff      	lsls	r7, r7, #15
 80029b2:	d401      	bmi.n	80029b8 <HAL_GPIO_Init+0x144>
 80029b4:	4015      	ands	r5, r2
 80029b6:	002e      	movs	r6, r5
 80029b8:	67e6      	str	r6, [r4, #124]	@ 0x7c
 80029ba:	3301      	adds	r3, #1
 80029bc:	e75d      	b.n	800287a <HAL_GPIO_Init+0x6>
 80029be:	46c0      	nop			@ (mov r8, r8)
 80029c0:	40021800 	.word	0x40021800
 80029c4:	50000400 	.word	0x50000400
 80029c8:	50000800 	.word	0x50000800
 80029cc:	50000c00 	.word	0x50000c00
 80029d0:	40021808 	.word	0x40021808
 80029d4:	40021804 	.word	0x40021804

080029d8 <HAL_GPIO_DeInit>:
 80029d8:	b5f0      	push	{r4, r5, r6, r7, lr}
 80029da:	2300      	movs	r3, #0
 80029dc:	000f      	movs	r7, r1
 80029de:	b085      	sub	sp, #20
 80029e0:	003a      	movs	r2, r7
 80029e2:	40da      	lsrs	r2, r3
 80029e4:	d101      	bne.n	80029ea <HAL_GPIO_DeInit+0x12>
 80029e6:	b005      	add	sp, #20
 80029e8:	bdf0      	pop	{r4, r5, r6, r7, pc}
 80029ea:	2201      	movs	r2, #1
 80029ec:	409a      	lsls	r2, r3
 80029ee:	0014      	movs	r4, r2
 80029f0:	9201      	str	r2, [sp, #4]
 80029f2:	403c      	ands	r4, r7
 80029f4:	4217      	tst	r7, r2
 80029f6:	d053      	beq.n	8002aa0 <HAL_GPIO_DeInit+0xc8>
 80029f8:	492a      	ldr	r1, [pc, #168]	@ (8002aa4 <HAL_GPIO_DeInit+0xcc>)
 80029fa:	2503      	movs	r5, #3
 80029fc:	089a      	lsrs	r2, r3, #2
 80029fe:	0092      	lsls	r2, r2, #2
 8002a00:	1852      	adds	r2, r2, r1
 8002a02:	210f      	movs	r1, #15
 8002a04:	401d      	ands	r5, r3
 8002a06:	00ed      	lsls	r5, r5, #3
 8002a08:	40a9      	lsls	r1, r5
 8002a0a:	6e16      	ldr	r6, [r2, #96]	@ 0x60
 8002a0c:	9102      	str	r1, [sp, #8]
 8002a0e:	400e      	ands	r6, r1
 8002a10:	9603      	str	r6, [sp, #12]
 8002a12:	26a0      	movs	r6, #160	@ 0xa0
 8002a14:	2100      	movs	r1, #0
 8002a16:	05f6      	lsls	r6, r6, #23
 8002a18:	42b0      	cmp	r0, r6
 8002a1a:	d00f      	beq.n	8002a3c <HAL_GPIO_DeInit+0x64>
 8002a1c:	4922      	ldr	r1, [pc, #136]	@ (8002aa8 <HAL_GPIO_DeInit+0xd0>)
 8002a1e:	468c      	mov	ip, r1
 8002a20:	2101      	movs	r1, #1
 8002a22:	4560      	cmp	r0, ip
 8002a24:	d00a      	beq.n	8002a3c <HAL_GPIO_DeInit+0x64>
 8002a26:	4921      	ldr	r1, [pc, #132]	@ (8002aac <HAL_GPIO_DeInit+0xd4>)
 8002a28:	468c      	mov	ip, r1
 8002a2a:	2102      	movs	r1, #2
 8002a2c:	4560      	cmp	r0, ip
 8002a2e:	d005      	beq.n	8002a3c <HAL_GPIO_DeInit+0x64>
 8002a30:	491f      	ldr	r1, [pc, #124]	@ (8002ab0 <HAL_GPIO_DeInit+0xd8>)
 8002a32:	468c      	mov	ip, r1
 8002a34:	2103      	movs	r1, #3
 8002a36:	4560      	cmp	r0, ip
 8002a38:	d000      	beq.n	8002a3c <HAL_GPIO_DeInit+0x64>
 8002a3a:	3102      	adds	r1, #2
 8002a3c:	40a9      	lsls	r1, r5
 8002a3e:	9d03      	ldr	r5, [sp, #12]
 8002a40:	42a9      	cmp	r1, r5
 8002a42:	d112      	bne.n	8002a6a <HAL_GPIO_DeInit+0x92>
 8002a44:	4e1b      	ldr	r6, [pc, #108]	@ (8002ab4 <HAL_GPIO_DeInit+0xdc>)
 8002a46:	4917      	ldr	r1, [pc, #92]	@ (8002aa4 <HAL_GPIO_DeInit+0xcc>)
 8002a48:	6ff5      	ldr	r5, [r6, #124]	@ 0x7c
 8002a4a:	43a5      	bics	r5, r4
 8002a4c:	67f5      	str	r5, [r6, #124]	@ 0x7c
 8002a4e:	4e1a      	ldr	r6, [pc, #104]	@ (8002ab8 <HAL_GPIO_DeInit+0xe0>)
 8002a50:	6ff5      	ldr	r5, [r6, #124]	@ 0x7c
 8002a52:	43a5      	bics	r5, r4
 8002a54:	67f5      	str	r5, [r6, #124]	@ 0x7c
 8002a56:	684d      	ldr	r5, [r1, #4]
 8002a58:	43a5      	bics	r5, r4
 8002a5a:	604d      	str	r5, [r1, #4]
 8002a5c:	680d      	ldr	r5, [r1, #0]
 8002a5e:	43a5      	bics	r5, r4
 8002a60:	600d      	str	r5, [r1, #0]
 8002a62:	6e11      	ldr	r1, [r2, #96]	@ 0x60
 8002a64:	9c02      	ldr	r4, [sp, #8]
 8002a66:	43a1      	bics	r1, r4
 8002a68:	6611      	str	r1, [r2, #96]	@ 0x60
 8002a6a:	2403      	movs	r4, #3
 8002a6c:	0059      	lsls	r1, r3, #1
 8002a6e:	408c      	lsls	r4, r1
 8002a70:	2107      	movs	r1, #7
 8002a72:	260f      	movs	r6, #15
 8002a74:	4019      	ands	r1, r3
 8002a76:	0089      	lsls	r1, r1, #2
 8002a78:	408e      	lsls	r6, r1
 8002a7a:	6802      	ldr	r2, [r0, #0]
 8002a7c:	9901      	ldr	r1, [sp, #4]
 8002a7e:	4322      	orrs	r2, r4
 8002a80:	6002      	str	r2, [r0, #0]
 8002a82:	08da      	lsrs	r2, r3, #3
 8002a84:	0092      	lsls	r2, r2, #2
 8002a86:	1882      	adds	r2, r0, r2
 8002a88:	6a15      	ldr	r5, [r2, #32]
 8002a8a:	43b5      	bics	r5, r6
 8002a8c:	6215      	str	r5, [r2, #32]
 8002a8e:	6882      	ldr	r2, [r0, #8]
 8002a90:	43a2      	bics	r2, r4
 8002a92:	6082      	str	r2, [r0, #8]
 8002a94:	6842      	ldr	r2, [r0, #4]
 8002a96:	438a      	bics	r2, r1
 8002a98:	6042      	str	r2, [r0, #4]
 8002a9a:	68c2      	ldr	r2, [r0, #12]
 8002a9c:	43a2      	bics	r2, r4
 8002a9e:	60c2      	str	r2, [r0, #12]
 8002aa0:	3301      	adds	r3, #1
 8002aa2:	e79d      	b.n	80029e0 <HAL_GPIO_DeInit+0x8>
 8002aa4:	40021800 	.word	0x40021800
 8002aa8:	50000400 	.word	0x50000400
 8002aac:	50000800 	.word	0x50000800
 8002ab0:	50000c00 	.word	0x50000c00
 8002ab4:	40021804 	.word	0x40021804
 8002ab8:	40021808 	.word	0x40021808

08002abc <HAL_GPIO_ReadPin>:
 8002abc:	6900      	ldr	r0, [r0, #16]
 8002abe:	4008      	ands	r0, r1
 8002ac0:	1e43      	subs	r3, r0, #1
 8002ac2:	4198      	sbcs	r0, r3
 8002ac4:	b2c0      	uxtb	r0, r0
 8002ac6:	4770      	bx	lr

08002ac8 <HAL_GPIO_WritePin>:
 8002ac8:	2a00      	cmp	r2, #0
 8002aca:	d001      	beq.n	8002ad0 <HAL_GPIO_WritePin+0x8>
 8002acc:	6181      	str	r1, [r0, #24]
 8002ace:	4770      	bx	lr
 8002ad0:	6281      	str	r1, [r0, #40]	@ 0x28
 8002ad2:	e7fc      	b.n	8002ace <HAL_GPIO_WritePin+0x6>

08002ad4 <I2C_Flush_TXDR>:
 8002ad4:	6803      	ldr	r3, [r0, #0]
 8002ad6:	699a      	ldr	r2, [r3, #24]
 8002ad8:	0792      	lsls	r2, r2, #30
 8002ada:	d501      	bpl.n	8002ae0 <I2C_Flush_TXDR+0xc>
 8002adc:	2200      	movs	r2, #0
 8002ade:	629a      	str	r2, [r3, #40]	@ 0x28
 8002ae0:	2201      	movs	r2, #1
 8002ae2:	6999      	ldr	r1, [r3, #24]
 8002ae4:	4211      	tst	r1, r2
 8002ae6:	d102      	bne.n	8002aee <I2C_Flush_TXDR+0x1a>
 8002ae8:	6999      	ldr	r1, [r3, #24]
 8002aea:	430a      	orrs	r2, r1
 8002aec:	619a      	str	r2, [r3, #24]
 8002aee:	4770      	bx	lr

08002af0 <I2C_TransferConfig>:
 8002af0:	b530      	push	{r4, r5, lr}
 8002af2:	9c03      	ldr	r4, [sp, #12]
 8002af4:	6800      	ldr	r0, [r0, #0]
 8002af6:	4323      	orrs	r3, r4
 8002af8:	0412      	lsls	r2, r2, #16
 8002afa:	0589      	lsls	r1, r1, #22
 8002afc:	431a      	orrs	r2, r3
 8002afe:	0d89      	lsrs	r1, r1, #22
 8002b00:	4b05      	ldr	r3, [pc, #20]	@ (8002b18 <I2C_TransferConfig+0x28>)
 8002b02:	6845      	ldr	r5, [r0, #4]
 8002b04:	430a      	orrs	r2, r1
 8002b06:	0d64      	lsrs	r4, r4, #21
 8002b08:	4323      	orrs	r3, r4
 8002b0a:	0052      	lsls	r2, r2, #1
 8002b0c:	439d      	bics	r5, r3
 8002b0e:	0852      	lsrs	r2, r2, #1
 8002b10:	432a      	orrs	r2, r5
 8002b12:	6042      	str	r2, [r0, #4]
 8002b14:	bd30      	pop	{r4, r5, pc}
 8002b16:	46c0      	nop			@ (mov r8, r8)
 8002b18:	03ff63ff 	.word	0x03ff63ff

08002b1c <I2C_IsErrorOccurred>:
 8002b1c:	b5f7      	push	{r0, r1, r2, r4, r5, r6, r7, lr}
 8002b1e:	0015      	movs	r5, r2
 8002b20:	6802      	ldr	r2, [r0, #0]
 8002b22:	000e      	movs	r6, r1
 8002b24:	6991      	ldr	r1, [r2, #24]
 8002b26:	2310      	movs	r3, #16
 8002b28:	000f      	movs	r7, r1
 8002b2a:	0004      	movs	r4, r0
 8002b2c:	401f      	ands	r7, r3
 8002b2e:	2000      	movs	r0, #0
 8002b30:	4219      	tst	r1, r3
 8002b32:	d00d      	beq.n	8002b50 <I2C_IsErrorOccurred+0x34>
 8002b34:	0007      	movs	r7, r0
 8002b36:	61d3      	str	r3, [r2, #28]
 8002b38:	9001      	str	r0, [sp, #4]
 8002b3a:	6823      	ldr	r3, [r4, #0]
 8002b3c:	2120      	movs	r1, #32
 8002b3e:	699a      	ldr	r2, [r3, #24]
 8002b40:	420a      	tst	r2, r1
 8002b42:	d15f      	bne.n	8002c04 <I2C_IsErrorOccurred+0xe8>
 8002b44:	2f00      	cmp	r7, #0
 8002b46:	d031      	beq.n	8002bac <I2C_IsErrorOccurred+0x90>
 8002b48:	2704      	movs	r7, #4
 8002b4a:	2001      	movs	r0, #1
 8002b4c:	9b01      	ldr	r3, [sp, #4]
 8002b4e:	431f      	orrs	r7, r3
 8002b50:	2280      	movs	r2, #128	@ 0x80
 8002b52:	6825      	ldr	r5, [r4, #0]
 8002b54:	0052      	lsls	r2, r2, #1
 8002b56:	69ab      	ldr	r3, [r5, #24]
 8002b58:	4213      	tst	r3, r2
 8002b5a:	d002      	beq.n	8002b62 <I2C_IsErrorOccurred+0x46>
 8002b5c:	2001      	movs	r0, #1
 8002b5e:	61ea      	str	r2, [r5, #28]
 8002b60:	4307      	orrs	r7, r0
 8002b62:	2280      	movs	r2, #128	@ 0x80
 8002b64:	00d2      	lsls	r2, r2, #3
 8002b66:	4213      	tst	r3, r2
 8002b68:	d003      	beq.n	8002b72 <I2C_IsErrorOccurred+0x56>
 8002b6a:	2108      	movs	r1, #8
 8002b6c:	2001      	movs	r0, #1
 8002b6e:	430f      	orrs	r7, r1
 8002b70:	61ea      	str	r2, [r5, #28]
 8002b72:	2280      	movs	r2, #128	@ 0x80
 8002b74:	0092      	lsls	r2, r2, #2
 8002b76:	4213      	tst	r3, r2
 8002b78:	d049      	beq.n	8002c0e <I2C_IsErrorOccurred+0xf2>
 8002b7a:	2302      	movs	r3, #2
 8002b7c:	61ea      	str	r2, [r5, #28]
 8002b7e:	431f      	orrs	r7, r3
 8002b80:	0020      	movs	r0, r4
 8002b82:	f7ff ffa7 	bl	8002ad4 <I2C_Flush_TXDR>
 8002b86:	686b      	ldr	r3, [r5, #4]
 8002b88:	4a22      	ldr	r2, [pc, #136]	@ (8002c14 <I2C_IsErrorOccurred+0xf8>)
 8002b8a:	2001      	movs	r0, #1
 8002b8c:	4013      	ands	r3, r2
 8002b8e:	606b      	str	r3, [r5, #4]
 8002b90:	6c63      	ldr	r3, [r4, #68]	@ 0x44
 8002b92:	2220      	movs	r2, #32
 8002b94:	433b      	orrs	r3, r7
 8002b96:	6463      	str	r3, [r4, #68]	@ 0x44
 8002b98:	0023      	movs	r3, r4
 8002b9a:	3341      	adds	r3, #65	@ 0x41
 8002b9c:	701a      	strb	r2, [r3, #0]
 8002b9e:	0022      	movs	r2, r4
 8002ba0:	2300      	movs	r3, #0
 8002ba2:	3242      	adds	r2, #66	@ 0x42
 8002ba4:	3440      	adds	r4, #64	@ 0x40
 8002ba6:	7013      	strb	r3, [r2, #0]
 8002ba8:	7023      	strb	r3, [r4, #0]
 8002baa:	e032      	b.n	8002c12 <I2C_IsErrorOccurred+0xf6>
 8002bac:	1c72      	adds	r2, r6, #1
 8002bae:	d0c5      	beq.n	8002b3c <I2C_IsErrorOccurred+0x20>
 8002bb0:	f7ff fe04 	bl	80027bc <HAL_GetTick>
 8002bb4:	1b40      	subs	r0, r0, r5
 8002bb6:	42b0      	cmp	r0, r6
 8002bb8:	d801      	bhi.n	8002bbe <I2C_IsErrorOccurred+0xa2>
 8002bba:	2e00      	cmp	r6, #0
 8002bbc:	d1bd      	bne.n	8002b3a <I2C_IsErrorOccurred+0x1e>
 8002bbe:	0022      	movs	r2, r4
 8002bc0:	6823      	ldr	r3, [r4, #0]
 8002bc2:	3242      	adds	r2, #66	@ 0x42
 8002bc4:	6858      	ldr	r0, [r3, #4]
 8002bc6:	7811      	ldrb	r1, [r2, #0]
 8002bc8:	699a      	ldr	r2, [r3, #24]
 8002bca:	b2c9      	uxtb	r1, r1
 8002bcc:	0412      	lsls	r2, r2, #16
 8002bce:	d50b      	bpl.n	8002be8 <I2C_IsErrorOccurred+0xcc>
 8002bd0:	2280      	movs	r2, #128	@ 0x80
 8002bd2:	01d2      	lsls	r2, r2, #7
 8002bd4:	4210      	tst	r0, r2
 8002bd6:	d107      	bne.n	8002be8 <I2C_IsErrorOccurred+0xcc>
 8002bd8:	2920      	cmp	r1, #32
 8002bda:	d005      	beq.n	8002be8 <I2C_IsErrorOccurred+0xcc>
 8002bdc:	6859      	ldr	r1, [r3, #4]
 8002bde:	430a      	orrs	r2, r1
 8002be0:	605a      	str	r2, [r3, #4]
 8002be2:	f7ff fdeb 	bl	80027bc <HAL_GetTick>
 8002be6:	0005      	movs	r5, r0
 8002be8:	2220      	movs	r2, #32
 8002bea:	6823      	ldr	r3, [r4, #0]
 8002bec:	699b      	ldr	r3, [r3, #24]
 8002bee:	4213      	tst	r3, r2
 8002bf0:	d1a3      	bne.n	8002b3a <I2C_IsErrorOccurred+0x1e>
 8002bf2:	f7ff fde3 	bl	80027bc <HAL_GetTick>
 8002bf6:	1b40      	subs	r0, r0, r5
 8002bf8:	2819      	cmp	r0, #25
 8002bfa:	d9f5      	bls.n	8002be8 <I2C_IsErrorOccurred+0xcc>
 8002bfc:	2320      	movs	r3, #32
 8002bfe:	2701      	movs	r7, #1
 8002c00:	9301      	str	r3, [sp, #4]
 8002c02:	e79a      	b.n	8002b3a <I2C_IsErrorOccurred+0x1e>
 8002c04:	2f00      	cmp	r7, #0
 8002c06:	d19f      	bne.n	8002b48 <I2C_IsErrorOccurred+0x2c>
 8002c08:	2220      	movs	r2, #32
 8002c0a:	61da      	str	r2, [r3, #28]
 8002c0c:	e79c      	b.n	8002b48 <I2C_IsErrorOccurred+0x2c>
 8002c0e:	2800      	cmp	r0, #0
 8002c10:	d1b6      	bne.n	8002b80 <I2C_IsErrorOccurred+0x64>
 8002c12:	bdfe      	pop	{r1, r2, r3, r4, r5, r6, r7, pc}
 8002c14:	fe00e800 	.word	0xfe00e800

08002c18 <I2C_WaitOnTXISFlagUntilTimeout>:
 8002c18:	b5f8      	push	{r3, r4, r5, r6, r7, lr}
 8002c1a:	0004      	movs	r4, r0
 8002c1c:	000d      	movs	r5, r1
 8002c1e:	0016      	movs	r6, r2
 8002c20:	2702      	movs	r7, #2
 8002c22:	6823      	ldr	r3, [r4, #0]
 8002c24:	699b      	ldr	r3, [r3, #24]
 8002c26:	423b      	tst	r3, r7
 8002c28:	d001      	beq.n	8002c2e <I2C_WaitOnTXISFlagUntilTimeout+0x16>
 8002c2a:	2000      	movs	r0, #0
 8002c2c:	e021      	b.n	8002c72 <I2C_WaitOnTXISFlagUntilTimeout+0x5a>
 8002c2e:	0032      	movs	r2, r6
 8002c30:	0029      	movs	r1, r5
 8002c32:	0020      	movs	r0, r4
 8002c34:	f7ff ff72 	bl	8002b1c <I2C_IsErrorOccurred>
 8002c38:	2800      	cmp	r0, #0
 8002c3a:	d119      	bne.n	8002c70 <I2C_WaitOnTXISFlagUntilTimeout+0x58>
 8002c3c:	1c6b      	adds	r3, r5, #1
 8002c3e:	d0f0      	beq.n	8002c22 <I2C_WaitOnTXISFlagUntilTimeout+0xa>
 8002c40:	f7ff fdbc 	bl	80027bc <HAL_GetTick>
 8002c44:	1b80      	subs	r0, r0, r6
 8002c46:	42a8      	cmp	r0, r5
 8002c48:	d801      	bhi.n	8002c4e <I2C_WaitOnTXISFlagUntilTimeout+0x36>
 8002c4a:	2d00      	cmp	r5, #0
 8002c4c:	d1e9      	bne.n	8002c22 <I2C_WaitOnTXISFlagUntilTimeout+0xa>
 8002c4e:	6823      	ldr	r3, [r4, #0]
 8002c50:	6999      	ldr	r1, [r3, #24]
 8002c52:	2302      	movs	r3, #2
 8002c54:	000a      	movs	r2, r1
 8002c56:	401a      	ands	r2, r3
 8002c58:	4219      	tst	r1, r3
 8002c5a:	d1e2      	bne.n	8002c22 <I2C_WaitOnTXISFlagUntilTimeout+0xa>
 8002c5c:	2120      	movs	r1, #32
 8002c5e:	6c63      	ldr	r3, [r4, #68]	@ 0x44
 8002c60:	430b      	orrs	r3, r1
 8002c62:	6463      	str	r3, [r4, #68]	@ 0x44
 8002c64:	0023      	movs	r3, r4
 8002c66:	3440      	adds	r4, #64	@ 0x40
 8002c68:	3341      	adds	r3, #65	@ 0x41
 8002c6a:	7019      	strb	r1, [r3, #0]
 8002c6c:	705a      	strb	r2, [r3, #1]
 8002c6e:	7022      	strb	r2, [r4, #0]
 8002c70:	2001      	movs	r0, #1
 8002c72:	bdf8      	pop	{r3, r4, r5, r6, r7, pc}

08002c74 <I2C_WaitOnFlagUntilTimeout>:
 8002c74:	b5f8      	push	{r3, r4, r5, r6, r7, lr}
 8002c76:	0004      	movs	r4, r0
 8002c78:	000d      	movs	r5, r1
 8002c7a:	0017      	movs	r7, r2
 8002c7c:	001e      	movs	r6, r3
 8002c7e:	6823      	ldr	r3, [r4, #0]
 8002c80:	699b      	ldr	r3, [r3, #24]
 8002c82:	402b      	ands	r3, r5
 8002c84:	1b5b      	subs	r3, r3, r5
 8002c86:	425a      	negs	r2, r3
 8002c88:	4153      	adcs	r3, r2
 8002c8a:	42bb      	cmp	r3, r7
 8002c8c:	d001      	beq.n	8002c92 <I2C_WaitOnFlagUntilTimeout+0x1e>
 8002c8e:	2000      	movs	r0, #0
 8002c90:	e026      	b.n	8002ce0 <I2C_WaitOnFlagUntilTimeout+0x6c>
 8002c92:	0031      	movs	r1, r6
 8002c94:	0020      	movs	r0, r4
 8002c96:	9a06      	ldr	r2, [sp, #24]
 8002c98:	f7ff ff40 	bl	8002b1c <I2C_IsErrorOccurred>
 8002c9c:	2800      	cmp	r0, #0
 8002c9e:	d11e      	bne.n	8002cde <I2C_WaitOnFlagUntilTimeout+0x6a>
 8002ca0:	1c73      	adds	r3, r6, #1
 8002ca2:	d0ec      	beq.n	8002c7e <I2C_WaitOnFlagUntilTimeout+0xa>
 8002ca4:	f7ff fd8a 	bl	80027bc <HAL_GetTick>
 8002ca8:	9b06      	ldr	r3, [sp, #24]
 8002caa:	1ac0      	subs	r0, r0, r3
 8002cac:	42b0      	cmp	r0, r6
 8002cae:	d801      	bhi.n	8002cb4 <I2C_WaitOnFlagUntilTimeout+0x40>
 8002cb0:	2e00      	cmp	r6, #0
 8002cb2:	d1e4      	bne.n	8002c7e <I2C_WaitOnFlagUntilTimeout+0xa>
 8002cb4:	6823      	ldr	r3, [r4, #0]
 8002cb6:	699b      	ldr	r3, [r3, #24]
 8002cb8:	402b      	ands	r3, r5
 8002cba:	1b5b      	subs	r3, r3, r5
 8002cbc:	425a      	negs	r2, r3
 8002cbe:	4153      	adcs	r3, r2
 8002cc0:	42bb      	cmp	r3, r7
 8002cc2:	d1dc      	bne.n	8002c7e <I2C_WaitOnFlagUntilTimeout+0xa>
 8002cc4:	2220      	movs	r2, #32
 8002cc6:	6c63      	ldr	r3, [r4, #68]	@ 0x44
 8002cc8:	4313      	orrs	r3, r2
 8002cca:	6463      	str	r3, [r4, #68]	@ 0x44
 8002ccc:	0023      	movs	r3, r4
 8002cce:	3341      	adds	r3, #65	@ 0x41
 8002cd0:	701a      	strb	r2, [r3, #0]
 8002cd2:	0022      	movs	r2, r4
 8002cd4:	2300      	movs	r3, #0
 8002cd6:	3242      	adds	r2, #66	@ 0x42
 8002cd8:	3440      	adds	r4, #64	@ 0x40
 8002cda:	7013      	strb	r3, [r2, #0]
 8002cdc:	7023      	strb	r3, [r4, #0]
 8002cde:	2001      	movs	r0, #1
 8002ce0:	bdf8      	pop	{r3, r4, r5, r6, r7, pc}

08002ce2 <I2C_WaitOnSTOPFlagUntilTimeout>:
 8002ce2:	b5f8      	push	{r3, r4, r5, r6, r7, lr}
 8002ce4:	0004      	movs	r4, r0
 8002ce6:	000e      	movs	r6, r1
 8002ce8:	0017      	movs	r7, r2
 8002cea:	2520      	movs	r5, #32
 8002cec:	6823      	ldr	r3, [r4, #0]
 8002cee:	699b      	ldr	r3, [r3, #24]
 8002cf0:	422b      	tst	r3, r5
 8002cf2:	d001      	beq.n	8002cf8 <I2C_WaitOnSTOPFlagUntilTimeout+0x16>
 8002cf4:	2000      	movs	r0, #0
 8002cf6:	e01d      	b.n	8002d34 <I2C_WaitOnSTOPFlagUntilTimeout+0x52>
 8002cf8:	003a      	movs	r2, r7
 8002cfa:	0031      	movs	r1, r6
 8002cfc:	0020      	movs	r0, r4
 8002cfe:	f7ff ff0d 	bl	8002b1c <I2C_IsErrorOccurred>
 8002d02:	2800      	cmp	r0, #0
 8002d04:	d115      	bne.n	8002d32 <I2C_WaitOnSTOPFlagUntilTimeout+0x50>
 8002d06:	f7ff fd59 	bl	80027bc <HAL_GetTick>
 8002d0a:	1bc0      	subs	r0, r0, r7
 8002d0c:	42b0      	cmp	r0, r6
 8002d0e:	d801      	bhi.n	8002d14 <I2C_WaitOnSTOPFlagUntilTimeout+0x32>
 8002d10:	2e00      	cmp	r6, #0
 8002d12:	d1eb      	bne.n	8002cec <I2C_WaitOnSTOPFlagUntilTimeout+0xa>
 8002d14:	6823      	ldr	r3, [r4, #0]
 8002d16:	699b      	ldr	r3, [r3, #24]
 8002d18:	001a      	movs	r2, r3
 8002d1a:	402a      	ands	r2, r5
 8002d1c:	422b      	tst	r3, r5
 8002d1e:	d1e5      	bne.n	8002cec <I2C_WaitOnSTOPFlagUntilTimeout+0xa>
 8002d20:	6c63      	ldr	r3, [r4, #68]	@ 0x44
 8002d22:	432b      	orrs	r3, r5
 8002d24:	6463      	str	r3, [r4, #68]	@ 0x44
 8002d26:	0023      	movs	r3, r4
 8002d28:	3440      	adds	r4, #64	@ 0x40
 8002d2a:	3341      	adds	r3, #65	@ 0x41
 8002d2c:	701d      	strb	r5, [r3, #0]
 8002d2e:	705a      	strb	r2, [r3, #1]
 8002d30:	7022      	strb	r2, [r4, #0]
 8002d32:	2001      	movs	r0, #1
 8002d34:	bdf8      	pop	{r3, r4, r5, r6, r7, pc}
	...

08002d38 <HAL_I2C_Init>:
 8002d38:	b570      	push	{r4, r5, r6, lr}
 8002d3a:	0004      	movs	r4, r0
 8002d3c:	2001      	movs	r0, #1
 8002d3e:	2c00      	cmp	r4, #0
 8002d40:	d04e      	beq.n	8002de0 <HAL_I2C_Init+0xa8>
 8002d42:	0025      	movs	r5, r4
 8002d44:	3541      	adds	r5, #65	@ 0x41
 8002d46:	782b      	ldrb	r3, [r5, #0]
 8002d48:	b2da      	uxtb	r2, r3
 8002d4a:	2b00      	cmp	r3, #0
 8002d4c:	d105      	bne.n	8002d5a <HAL_I2C_Init+0x22>
 8002d4e:	0023      	movs	r3, r4
 8002d50:	3340      	adds	r3, #64	@ 0x40
 8002d52:	0020      	movs	r0, r4
 8002d54:	701a      	strb	r2, [r3, #0]
 8002d56:	f001 fc03 	bl	8004560 <HAL_I2C_MspInit>
 8002d5a:	2324      	movs	r3, #36	@ 0x24
 8002d5c:	2101      	movs	r1, #1
 8002d5e:	702b      	strb	r3, [r5, #0]
 8002d60:	6823      	ldr	r3, [r4, #0]
 8002d62:	68e0      	ldr	r0, [r4, #12]
 8002d64:	681a      	ldr	r2, [r3, #0]
 8002d66:	68a6      	ldr	r6, [r4, #8]
 8002d68:	438a      	bics	r2, r1
 8002d6a:	601a      	str	r2, [r3, #0]
 8002d6c:	491d      	ldr	r1, [pc, #116]	@ (8002de4 <HAL_I2C_Init+0xac>)
 8002d6e:	6862      	ldr	r2, [r4, #4]
 8002d70:	400a      	ands	r2, r1
 8002d72:	611a      	str	r2, [r3, #16]
 8002d74:	689a      	ldr	r2, [r3, #8]
 8002d76:	491c      	ldr	r1, [pc, #112]	@ (8002de8 <HAL_I2C_Init+0xb0>)
 8002d78:	400a      	ands	r2, r1
 8002d7a:	609a      	str	r2, [r3, #8]
 8002d7c:	2801      	cmp	r0, #1
 8002d7e:	d107      	bne.n	8002d90 <HAL_I2C_Init+0x58>
 8002d80:	2280      	movs	r2, #128	@ 0x80
 8002d82:	0212      	lsls	r2, r2, #8
 8002d84:	4332      	orrs	r2, r6
 8002d86:	609a      	str	r2, [r3, #8]
 8002d88:	685a      	ldr	r2, [r3, #4]
 8002d8a:	4818      	ldr	r0, [pc, #96]	@ (8002dec <HAL_I2C_Init+0xb4>)
 8002d8c:	4002      	ands	r2, r0
 8002d8e:	e009      	b.n	8002da4 <HAL_I2C_Init+0x6c>
 8002d90:	2284      	movs	r2, #132	@ 0x84
 8002d92:	0212      	lsls	r2, r2, #8
 8002d94:	4332      	orrs	r2, r6
 8002d96:	609a      	str	r2, [r3, #8]
 8002d98:	2802      	cmp	r0, #2
 8002d9a:	d1f5      	bne.n	8002d88 <HAL_I2C_Init+0x50>
 8002d9c:	2280      	movs	r2, #128	@ 0x80
 8002d9e:	6858      	ldr	r0, [r3, #4]
 8002da0:	0112      	lsls	r2, r2, #4
 8002da2:	4302      	orrs	r2, r0
 8002da4:	605a      	str	r2, [r3, #4]
 8002da6:	6858      	ldr	r0, [r3, #4]
 8002da8:	4a11      	ldr	r2, [pc, #68]	@ (8002df0 <HAL_I2C_Init+0xb8>)
 8002daa:	4302      	orrs	r2, r0
 8002dac:	605a      	str	r2, [r3, #4]
 8002dae:	68da      	ldr	r2, [r3, #12]
 8002db0:	2000      	movs	r0, #0
 8002db2:	400a      	ands	r2, r1
 8002db4:	60da      	str	r2, [r3, #12]
 8002db6:	6961      	ldr	r1, [r4, #20]
 8002db8:	6922      	ldr	r2, [r4, #16]
 8002dba:	430a      	orrs	r2, r1
 8002dbc:	69a1      	ldr	r1, [r4, #24]
 8002dbe:	0209      	lsls	r1, r1, #8
 8002dc0:	430a      	orrs	r2, r1
 8002dc2:	60da      	str	r2, [r3, #12]
 8002dc4:	6a21      	ldr	r1, [r4, #32]
 8002dc6:	69e2      	ldr	r2, [r4, #28]
 8002dc8:	430a      	orrs	r2, r1
 8002dca:	601a      	str	r2, [r3, #0]
 8002dcc:	2201      	movs	r2, #1
 8002dce:	6819      	ldr	r1, [r3, #0]
 8002dd0:	430a      	orrs	r2, r1
 8002dd2:	601a      	str	r2, [r3, #0]
 8002dd4:	2320      	movs	r3, #32
 8002dd6:	6460      	str	r0, [r4, #68]	@ 0x44
 8002dd8:	702b      	strb	r3, [r5, #0]
 8002dda:	6320      	str	r0, [r4, #48]	@ 0x30
 8002ddc:	3442      	adds	r4, #66	@ 0x42
 8002dde:	7020      	strb	r0, [r4, #0]
 8002de0:	bd70      	pop	{r4, r5, r6, pc}
 8002de2:	46c0      	nop			@ (mov r8, r8)
 8002de4:	f0ffffff 	.word	0xf0ffffff
 8002de8:	ffff7fff 	.word	0xffff7fff
 8002dec:	fffff7ff 	.word	0xfffff7ff
 8002df0:	02008000 	.word	0x02008000

08002df4 <HAL_I2C_Mem_Write>:
 8002df4:	b5f0      	push	{r4, r5, r6, r7, lr}
 8002df6:	0007      	movs	r7, r0
 8002df8:	b087      	sub	sp, #28
 8002dfa:	9303      	str	r3, [sp, #12]
 8002dfc:	ab0c      	add	r3, sp, #48	@ 0x30
 8002dfe:	9202      	str	r2, [sp, #8]
 8002e00:	cb04      	ldmia	r3!, {r2}
 8002e02:	3741      	adds	r7, #65	@ 0x41
 8002e04:	881b      	ldrh	r3, [r3, #0]
 8002e06:	9204      	str	r2, [sp, #16]
 8002e08:	9305      	str	r3, [sp, #20]
 8002e0a:	783b      	ldrb	r3, [r7, #0]
 8002e0c:	0004      	movs	r4, r0
 8002e0e:	000e      	movs	r6, r1
 8002e10:	2002      	movs	r0, #2
 8002e12:	2b20      	cmp	r3, #32
 8002e14:	d108      	bne.n	8002e28 <HAL_I2C_Mem_Write+0x34>
 8002e16:	2a00      	cmp	r2, #0
 8002e18:	d002      	beq.n	8002e20 <HAL_I2C_Mem_Write+0x2c>
 8002e1a:	9b05      	ldr	r3, [sp, #20]
 8002e1c:	2b00      	cmp	r3, #0
 8002e1e:	d105      	bne.n	8002e2c <HAL_I2C_Mem_Write+0x38>
 8002e20:	2380      	movs	r3, #128	@ 0x80
 8002e22:	009b      	lsls	r3, r3, #2
 8002e24:	6463      	str	r3, [r4, #68]	@ 0x44
 8002e26:	2001      	movs	r0, #1
 8002e28:	b007      	add	sp, #28
 8002e2a:	bdf0      	pop	{r4, r5, r6, r7, pc}
 8002e2c:	0023      	movs	r3, r4
 8002e2e:	3340      	adds	r3, #64	@ 0x40
 8002e30:	781a      	ldrb	r2, [r3, #0]
 8002e32:	2002      	movs	r0, #2
 8002e34:	2a01      	cmp	r2, #1
 8002e36:	d0f7      	beq.n	8002e28 <HAL_I2C_Mem_Write+0x34>
 8002e38:	2201      	movs	r2, #1
 8002e3a:	701a      	strb	r2, [r3, #0]
 8002e3c:	f7ff fcbe 	bl	80027bc <HAL_GetTick>
 8002e40:	2180      	movs	r1, #128	@ 0x80
 8002e42:	0005      	movs	r5, r0
 8002e44:	9000      	str	r0, [sp, #0]
 8002e46:	2319      	movs	r3, #25
 8002e48:	2201      	movs	r2, #1
 8002e4a:	0020      	movs	r0, r4
 8002e4c:	0209      	lsls	r1, r1, #8
 8002e4e:	f7ff ff11 	bl	8002c74 <I2C_WaitOnFlagUntilTimeout>
 8002e52:	2800      	cmp	r0, #0
 8002e54:	d1e7      	bne.n	8002e26 <HAL_I2C_Mem_Write+0x32>
 8002e56:	2321      	movs	r3, #33	@ 0x21
 8002e58:	703b      	strb	r3, [r7, #0]
 8002e5a:	0027      	movs	r7, r4
 8002e5c:	331f      	adds	r3, #31
 8002e5e:	3742      	adds	r7, #66	@ 0x42
 8002e60:	703b      	strb	r3, [r7, #0]
 8002e62:	9b04      	ldr	r3, [sp, #16]
 8002e64:	6460      	str	r0, [r4, #68]	@ 0x44
 8002e66:	6263      	str	r3, [r4, #36]	@ 0x24
 8002e68:	9b05      	ldr	r3, [sp, #20]
 8002e6a:	6360      	str	r0, [r4, #52]	@ 0x34
 8002e6c:	8563      	strh	r3, [r4, #42]	@ 0x2a
 8002e6e:	466b      	mov	r3, sp
 8002e70:	7b1a      	ldrb	r2, [r3, #12]
 8002e72:	4b4b      	ldr	r3, [pc, #300]	@ (8002fa0 <HAL_I2C_Mem_Write+0x1ac>)
 8002e74:	0031      	movs	r1, r6
 8002e76:	9300      	str	r3, [sp, #0]
 8002e78:	2380      	movs	r3, #128	@ 0x80
 8002e7a:	0020      	movs	r0, r4
 8002e7c:	045b      	lsls	r3, r3, #17
 8002e7e:	f7ff fe37 	bl	8002af0 <I2C_TransferConfig>
 8002e82:	002a      	movs	r2, r5
 8002e84:	0020      	movs	r0, r4
 8002e86:	990e      	ldr	r1, [sp, #56]	@ 0x38
 8002e88:	f7ff fec6 	bl	8002c18 <I2C_WaitOnTXISFlagUntilTimeout>
 8002e8c:	2800      	cmp	r0, #0
 8002e8e:	d129      	bne.n	8002ee4 <HAL_I2C_Mem_Write+0xf0>
 8002e90:	9a03      	ldr	r2, [sp, #12]
 8002e92:	6823      	ldr	r3, [r4, #0]
 8002e94:	2a01      	cmp	r2, #1
 8002e96:	d116      	bne.n	8002ec6 <HAL_I2C_Mem_Write+0xd2>
 8002e98:	466a      	mov	r2, sp
 8002e9a:	7a12      	ldrb	r2, [r2, #8]
 8002e9c:	629a      	str	r2, [r3, #40]	@ 0x28
 8002e9e:	2200      	movs	r2, #0
 8002ea0:	2180      	movs	r1, #128	@ 0x80
 8002ea2:	0020      	movs	r0, r4
 8002ea4:	9b0e      	ldr	r3, [sp, #56]	@ 0x38
 8002ea6:	9500      	str	r5, [sp, #0]
 8002ea8:	f7ff fee4 	bl	8002c74 <I2C_WaitOnFlagUntilTimeout>
 8002eac:	2800      	cmp	r0, #0
 8002eae:	d119      	bne.n	8002ee4 <HAL_I2C_Mem_Write+0xf0>
 8002eb0:	8d63      	ldrh	r3, [r4, #42]	@ 0x2a
 8002eb2:	2bff      	cmp	r3, #255	@ 0xff
 8002eb4:	d81a      	bhi.n	8002eec <HAL_I2C_Mem_Write+0xf8>
 8002eb6:	2380      	movs	r3, #128	@ 0x80
 8002eb8:	8d62      	ldrh	r2, [r4, #42]	@ 0x2a
 8002eba:	049b      	lsls	r3, r3, #18
 8002ebc:	b292      	uxth	r2, r2
 8002ebe:	8522      	strh	r2, [r4, #40]	@ 0x28
 8002ec0:	b2d2      	uxtb	r2, r2
 8002ec2:	9000      	str	r0, [sp, #0]
 8002ec4:	e017      	b.n	8002ef6 <HAL_I2C_Mem_Write+0x102>
 8002ec6:	9a02      	ldr	r2, [sp, #8]
 8002ec8:	0020      	movs	r0, r4
 8002eca:	0a12      	lsrs	r2, r2, #8
 8002ecc:	629a      	str	r2, [r3, #40]	@ 0x28
 8002ece:	990e      	ldr	r1, [sp, #56]	@ 0x38
 8002ed0:	002a      	movs	r2, r5
 8002ed2:	f7ff fea1 	bl	8002c18 <I2C_WaitOnTXISFlagUntilTimeout>
 8002ed6:	2800      	cmp	r0, #0
 8002ed8:	d104      	bne.n	8002ee4 <HAL_I2C_Mem_Write+0xf0>
 8002eda:	466b      	mov	r3, sp
 8002edc:	6822      	ldr	r2, [r4, #0]
 8002ede:	7a1b      	ldrb	r3, [r3, #8]
 8002ee0:	6293      	str	r3, [r2, #40]	@ 0x28
 8002ee2:	e7dc      	b.n	8002e9e <HAL_I2C_Mem_Write+0xaa>
 8002ee4:	2300      	movs	r3, #0
 8002ee6:	3440      	adds	r4, #64	@ 0x40
 8002ee8:	7023      	strb	r3, [r4, #0]
 8002eea:	e79c      	b.n	8002e26 <HAL_I2C_Mem_Write+0x32>
 8002eec:	22ff      	movs	r2, #255	@ 0xff
 8002eee:	2380      	movs	r3, #128	@ 0x80
 8002ef0:	8522      	strh	r2, [r4, #40]	@ 0x28
 8002ef2:	045b      	lsls	r3, r3, #17
 8002ef4:	9000      	str	r0, [sp, #0]
 8002ef6:	0031      	movs	r1, r6
 8002ef8:	0020      	movs	r0, r4
 8002efa:	f7ff fdf9 	bl	8002af0 <I2C_TransferConfig>
 8002efe:	002a      	movs	r2, r5
 8002f00:	0020      	movs	r0, r4
 8002f02:	990e      	ldr	r1, [sp, #56]	@ 0x38
 8002f04:	f7ff fe88 	bl	8002c18 <I2C_WaitOnTXISFlagUntilTimeout>
 8002f08:	2800      	cmp	r0, #0
 8002f0a:	d000      	beq.n	8002f0e <HAL_I2C_Mem_Write+0x11a>
 8002f0c:	e78b      	b.n	8002e26 <HAL_I2C_Mem_Write+0x32>
 8002f0e:	6a63      	ldr	r3, [r4, #36]	@ 0x24
 8002f10:	6822      	ldr	r2, [r4, #0]
 8002f12:	7819      	ldrb	r1, [r3, #0]
 8002f14:	3301      	adds	r3, #1
 8002f16:	6291      	str	r1, [r2, #40]	@ 0x28
 8002f18:	6263      	str	r3, [r4, #36]	@ 0x24
 8002f1a:	8d63      	ldrh	r3, [r4, #42]	@ 0x2a
 8002f1c:	8d22      	ldrh	r2, [r4, #40]	@ 0x28
 8002f1e:	3b01      	subs	r3, #1
 8002f20:	b29b      	uxth	r3, r3
 8002f22:	8563      	strh	r3, [r4, #42]	@ 0x2a
 8002f24:	3a01      	subs	r2, #1
 8002f26:	8d63      	ldrh	r3, [r4, #42]	@ 0x2a
 8002f28:	b292      	uxth	r2, r2
 8002f2a:	8522      	strh	r2, [r4, #40]	@ 0x28
 8002f2c:	2b00      	cmp	r3, #0
 8002f2e:	d016      	beq.n	8002f5e <HAL_I2C_Mem_Write+0x16a>
 8002f30:	2a00      	cmp	r2, #0
 8002f32:	d114      	bne.n	8002f5e <HAL_I2C_Mem_Write+0x16a>
 8002f34:	2180      	movs	r1, #128	@ 0x80
 8002f36:	0020      	movs	r0, r4
 8002f38:	9b0e      	ldr	r3, [sp, #56]	@ 0x38
 8002f3a:	9500      	str	r5, [sp, #0]
 8002f3c:	f7ff fe9a 	bl	8002c74 <I2C_WaitOnFlagUntilTimeout>
 8002f40:	2800      	cmp	r0, #0
 8002f42:	d000      	beq.n	8002f46 <HAL_I2C_Mem_Write+0x152>
 8002f44:	e76f      	b.n	8002e26 <HAL_I2C_Mem_Write+0x32>
 8002f46:	8d63      	ldrh	r3, [r4, #42]	@ 0x2a
 8002f48:	2bff      	cmp	r3, #255	@ 0xff
 8002f4a:	d921      	bls.n	8002f90 <HAL_I2C_Mem_Write+0x19c>
 8002f4c:	22ff      	movs	r2, #255	@ 0xff
 8002f4e:	2380      	movs	r3, #128	@ 0x80
 8002f50:	8522      	strh	r2, [r4, #40]	@ 0x28
 8002f52:	045b      	lsls	r3, r3, #17
 8002f54:	9000      	str	r0, [sp, #0]
 8002f56:	0031      	movs	r1, r6
 8002f58:	0020      	movs	r0, r4
 8002f5a:	f7ff fdc9 	bl	8002af0 <I2C_TransferConfig>
 8002f5e:	8d63      	ldrh	r3, [r4, #42]	@ 0x2a
 8002f60:	2b00      	cmp	r3, #0
 8002f62:	d1cc      	bne.n	8002efe <HAL_I2C_Mem_Write+0x10a>
 8002f64:	002a      	movs	r2, r5
 8002f66:	0020      	movs	r0, r4
 8002f68:	990e      	ldr	r1, [sp, #56]	@ 0x38
 8002f6a:	f7ff feba 	bl	8002ce2 <I2C_WaitOnSTOPFlagUntilTimeout>
 8002f6e:	2800      	cmp	r0, #0
 8002f70:	d000      	beq.n	8002f74 <HAL_I2C_Mem_Write+0x180>
 8002f72:	e758      	b.n	8002e26 <HAL_I2C_Mem_Write+0x32>
 8002f74:	2120      	movs	r1, #32
 8002f76:	6823      	ldr	r3, [r4, #0]
 8002f78:	4d0a      	ldr	r5, [pc, #40]	@ (8002fa4 <HAL_I2C_Mem_Write+0x1b0>)
 8002f7a:	61d9      	str	r1, [r3, #28]
 8002f7c:	685a      	ldr	r2, [r3, #4]
 8002f7e:	402a      	ands	r2, r5
 8002f80:	605a      	str	r2, [r3, #4]
 8002f82:	0023      	movs	r3, r4
 8002f84:	3440      	adds	r4, #64	@ 0x40
 8002f86:	3341      	adds	r3, #65	@ 0x41
 8002f88:	7019      	strb	r1, [r3, #0]
 8002f8a:	7038      	strb	r0, [r7, #0]
 8002f8c:	7020      	strb	r0, [r4, #0]
 8002f8e:	e74b      	b.n	8002e28 <HAL_I2C_Mem_Write+0x34>
 8002f90:	2380      	movs	r3, #128	@ 0x80
 8002f92:	8d62      	ldrh	r2, [r4, #42]	@ 0x2a
 8002f94:	049b      	lsls	r3, r3, #18
 8002f96:	b292      	uxth	r2, r2
 8002f98:	8522      	strh	r2, [r4, #40]	@ 0x28
 8002f9a:	b2d2      	uxtb	r2, r2
 8002f9c:	9000      	str	r0, [sp, #0]
 8002f9e:	e7da      	b.n	8002f56 <HAL_I2C_Mem_Write+0x162>
 8002fa0:	80002000 	.word	0x80002000
 8002fa4:	fe00e800 	.word	0xfe00e800

08002fa8 <HAL_I2C_Mem_Read>:
 8002fa8:	b5f0      	push	{r4, r5, r6, r7, lr}
 8002faa:	0006      	movs	r6, r0
 8002fac:	b087      	sub	sp, #28
 8002fae:	9303      	str	r3, [sp, #12]
 8002fb0:	ab0c      	add	r3, sp, #48	@ 0x30
 8002fb2:	9202      	str	r2, [sp, #8]
 8002fb4:	cb04      	ldmia	r3!, {r2}
 8002fb6:	3641      	adds	r6, #65	@ 0x41
 8002fb8:	881b      	ldrh	r3, [r3, #0]
 8002fba:	9204      	str	r2, [sp, #16]
 8002fbc:	9305      	str	r3, [sp, #20]
 8002fbe:	7833      	ldrb	r3, [r6, #0]
 8002fc0:	0004      	movs	r4, r0
 8002fc2:	000f      	movs	r7, r1
 8002fc4:	2002      	movs	r0, #2
 8002fc6:	2b20      	cmp	r3, #32
 8002fc8:	d108      	bne.n	8002fdc <HAL_I2C_Mem_Read+0x34>
 8002fca:	2a00      	cmp	r2, #0
 8002fcc:	d002      	beq.n	8002fd4 <HAL_I2C_Mem_Read+0x2c>
 8002fce:	9b05      	ldr	r3, [sp, #20]
 8002fd0:	2b00      	cmp	r3, #0
 8002fd2:	d105      	bne.n	8002fe0 <HAL_I2C_Mem_Read+0x38>
 8002fd4:	2380      	movs	r3, #128	@ 0x80
 8002fd6:	009b      	lsls	r3, r3, #2
 8002fd8:	6463      	str	r3, [r4, #68]	@ 0x44
 8002fda:	2001      	movs	r0, #1
 8002fdc:	b007      	add	sp, #28
 8002fde:	bdf0      	pop	{r4, r5, r6, r7, pc}
 8002fe0:	0023      	movs	r3, r4
 8002fe2:	3340      	adds	r3, #64	@ 0x40
 8002fe4:	781a      	ldrb	r2, [r3, #0]
 8002fe6:	2002      	movs	r0, #2
 8002fe8:	2a01      	cmp	r2, #1
 8002fea:	d0f7      	beq.n	8002fdc <HAL_I2C_Mem_Read+0x34>
 8002fec:	2201      	movs	r2, #1
 8002fee:	701a      	strb	r2, [r3, #0]
 8002ff0:	f7ff fbe4 	bl	80027bc <HAL_GetTick>
 8002ff4:	2180      	movs	r1, #128	@ 0x80
 8002ff6:	2319      	movs	r3, #25
 8002ff8:	9000      	str	r0, [sp, #0]
 8002ffa:	0005      	movs	r5, r0
 8002ffc:	2201      	movs	r2, #1
 8002ffe:	0020      	movs	r0, r4
 8003000:	0209      	lsls	r1, r1, #8
 8003002:	f7ff fe37 	bl	8002c74 <I2C_WaitOnFlagUntilTimeout>
 8003006:	1e03      	subs	r3, r0, #0
 8003008:	d1e7      	bne.n	8002fda <HAL_I2C_Mem_Read+0x32>
 800300a:	2222      	movs	r2, #34	@ 0x22
 800300c:	7032      	strb	r2, [r6, #0]
 800300e:	0026      	movs	r6, r4
 8003010:	321e      	adds	r2, #30
 8003012:	3642      	adds	r6, #66	@ 0x42
 8003014:	7032      	strb	r2, [r6, #0]
 8003016:	9a04      	ldr	r2, [sp, #16]
 8003018:	6460      	str	r0, [r4, #68]	@ 0x44
 800301a:	6262      	str	r2, [r4, #36]	@ 0x24
 800301c:	9a05      	ldr	r2, [sp, #20]
 800301e:	494e      	ldr	r1, [pc, #312]	@ (8003158 <HAL_I2C_Mem_Read+0x1b0>)
 8003020:	8562      	strh	r2, [r4, #42]	@ 0x2a
 8003022:	466a      	mov	r2, sp
 8003024:	6360      	str	r0, [r4, #52]	@ 0x34
 8003026:	7b12      	ldrb	r2, [r2, #12]
 8003028:	0020      	movs	r0, r4
 800302a:	9100      	str	r1, [sp, #0]
 800302c:	0039      	movs	r1, r7
 800302e:	f7ff fd5f 	bl	8002af0 <I2C_TransferConfig>
 8003032:	002a      	movs	r2, r5
 8003034:	0020      	movs	r0, r4
 8003036:	990e      	ldr	r1, [sp, #56]	@ 0x38
 8003038:	f7ff fdee 	bl	8002c18 <I2C_WaitOnTXISFlagUntilTimeout>
 800303c:	2800      	cmp	r0, #0
 800303e:	d12a      	bne.n	8003096 <HAL_I2C_Mem_Read+0xee>
 8003040:	9a03      	ldr	r2, [sp, #12]
 8003042:	6823      	ldr	r3, [r4, #0]
 8003044:	2a01      	cmp	r2, #1
 8003046:	d117      	bne.n	8003078 <HAL_I2C_Mem_Read+0xd0>
 8003048:	466a      	mov	r2, sp
 800304a:	7a12      	ldrb	r2, [r2, #8]
 800304c:	629a      	str	r2, [r3, #40]	@ 0x28
 800304e:	2200      	movs	r2, #0
 8003050:	2140      	movs	r1, #64	@ 0x40
 8003052:	0020      	movs	r0, r4
 8003054:	9b0e      	ldr	r3, [sp, #56]	@ 0x38
 8003056:	9500      	str	r5, [sp, #0]
 8003058:	f7ff fe0c 	bl	8002c74 <I2C_WaitOnFlagUntilTimeout>
 800305c:	2800      	cmp	r0, #0
 800305e:	d11a      	bne.n	8003096 <HAL_I2C_Mem_Read+0xee>
 8003060:	8d62      	ldrh	r2, [r4, #42]	@ 0x2a
 8003062:	4b3e      	ldr	r3, [pc, #248]	@ (800315c <HAL_I2C_Mem_Read+0x1b4>)
 8003064:	2aff      	cmp	r2, #255	@ 0xff
 8003066:	d81a      	bhi.n	800309e <HAL_I2C_Mem_Read+0xf6>
 8003068:	8d62      	ldrh	r2, [r4, #42]	@ 0x2a
 800306a:	b292      	uxth	r2, r2
 800306c:	8522      	strh	r2, [r4, #40]	@ 0x28
 800306e:	9300      	str	r3, [sp, #0]
 8003070:	2380      	movs	r3, #128	@ 0x80
 8003072:	b2d2      	uxtb	r2, r2
 8003074:	049b      	lsls	r3, r3, #18
 8003076:	e017      	b.n	80030a8 <HAL_I2C_Mem_Read+0x100>
 8003078:	9a02      	ldr	r2, [sp, #8]
 800307a:	0020      	movs	r0, r4
 800307c:	0a12      	lsrs	r2, r2, #8
 800307e:	629a      	str	r2, [r3, #40]	@ 0x28
 8003080:	990e      	ldr	r1, [sp, #56]	@ 0x38
 8003082:	002a      	movs	r2, r5
 8003084:	f7ff fdc8 	bl	8002c18 <I2C_WaitOnTXISFlagUntilTimeout>
 8003088:	2800      	cmp	r0, #0
 800308a:	d104      	bne.n	8003096 <HAL_I2C_Mem_Read+0xee>
 800308c:	466b      	mov	r3, sp
 800308e:	6822      	ldr	r2, [r4, #0]
 8003090:	7a1b      	ldrb	r3, [r3, #8]
 8003092:	6293      	str	r3, [r2, #40]	@ 0x28
 8003094:	e7db      	b.n	800304e <HAL_I2C_Mem_Read+0xa6>
 8003096:	2300      	movs	r3, #0
 8003098:	3440      	adds	r4, #64	@ 0x40
 800309a:	7023      	strb	r3, [r4, #0]
 800309c:	e79d      	b.n	8002fda <HAL_I2C_Mem_Read+0x32>
 800309e:	22ff      	movs	r2, #255	@ 0xff
 80030a0:	8522      	strh	r2, [r4, #40]	@ 0x28
 80030a2:	9300      	str	r3, [sp, #0]
 80030a4:	2380      	movs	r3, #128	@ 0x80
 80030a6:	045b      	lsls	r3, r3, #17
 80030a8:	0039      	movs	r1, r7
 80030aa:	0020      	movs	r0, r4
 80030ac:	f7ff fd20 	bl	8002af0 <I2C_TransferConfig>
 80030b0:	2200      	movs	r2, #0
 80030b2:	2104      	movs	r1, #4
 80030b4:	0020      	movs	r0, r4
 80030b6:	9b0e      	ldr	r3, [sp, #56]	@ 0x38
 80030b8:	9500      	str	r5, [sp, #0]
 80030ba:	f7ff fddb 	bl	8002c74 <I2C_WaitOnFlagUntilTimeout>
 80030be:	2800      	cmp	r0, #0
 80030c0:	d000      	beq.n	80030c4 <HAL_I2C_Mem_Read+0x11c>
 80030c2:	e78a      	b.n	8002fda <HAL_I2C_Mem_Read+0x32>
 80030c4:	6823      	ldr	r3, [r4, #0]
 80030c6:	6a5a      	ldr	r2, [r3, #36]	@ 0x24
 80030c8:	6a63      	ldr	r3, [r4, #36]	@ 0x24
 80030ca:	701a      	strb	r2, [r3, #0]
 80030cc:	6a63      	ldr	r3, [r4, #36]	@ 0x24
 80030ce:	8d22      	ldrh	r2, [r4, #40]	@ 0x28
 80030d0:	3301      	adds	r3, #1
 80030d2:	6263      	str	r3, [r4, #36]	@ 0x24
 80030d4:	8d63      	ldrh	r3, [r4, #42]	@ 0x2a
 80030d6:	3a01      	subs	r2, #1
 80030d8:	3b01      	subs	r3, #1
 80030da:	b29b      	uxth	r3, r3
 80030dc:	8563      	strh	r3, [r4, #42]	@ 0x2a
 80030de:	8d63      	ldrh	r3, [r4, #42]	@ 0x2a
 80030e0:	b292      	uxth	r2, r2
 80030e2:	8522      	strh	r2, [r4, #40]	@ 0x28
 80030e4:	2b00      	cmp	r3, #0
 80030e6:	d016      	beq.n	8003116 <HAL_I2C_Mem_Read+0x16e>
 80030e8:	2a00      	cmp	r2, #0
 80030ea:	d114      	bne.n	8003116 <HAL_I2C_Mem_Read+0x16e>
 80030ec:	2180      	movs	r1, #128	@ 0x80
 80030ee:	0020      	movs	r0, r4
 80030f0:	9b0e      	ldr	r3, [sp, #56]	@ 0x38
 80030f2:	9500      	str	r5, [sp, #0]
 80030f4:	f7ff fdbe 	bl	8002c74 <I2C_WaitOnFlagUntilTimeout>
 80030f8:	2800      	cmp	r0, #0
 80030fa:	d000      	beq.n	80030fe <HAL_I2C_Mem_Read+0x156>
 80030fc:	e76d      	b.n	8002fda <HAL_I2C_Mem_Read+0x32>
 80030fe:	8d63      	ldrh	r3, [r4, #42]	@ 0x2a
 8003100:	2bff      	cmp	r3, #255	@ 0xff
 8003102:	d921      	bls.n	8003148 <HAL_I2C_Mem_Read+0x1a0>
 8003104:	22ff      	movs	r2, #255	@ 0xff
 8003106:	2380      	movs	r3, #128	@ 0x80
 8003108:	8522      	strh	r2, [r4, #40]	@ 0x28
 800310a:	045b      	lsls	r3, r3, #17
 800310c:	9000      	str	r0, [sp, #0]
 800310e:	0039      	movs	r1, r7
 8003110:	0020      	movs	r0, r4
 8003112:	f7ff fced 	bl	8002af0 <I2C_TransferConfig>
 8003116:	8d63      	ldrh	r3, [r4, #42]	@ 0x2a
 8003118:	2b00      	cmp	r3, #0
 800311a:	d1c9      	bne.n	80030b0 <HAL_I2C_Mem_Read+0x108>
 800311c:	002a      	movs	r2, r5
 800311e:	0020      	movs	r0, r4
 8003120:	990e      	ldr	r1, [sp, #56]	@ 0x38
 8003122:	f7ff fdde 	bl	8002ce2 <I2C_WaitOnSTOPFlagUntilTimeout>
 8003126:	2800      	cmp	r0, #0
 8003128:	d000      	beq.n	800312c <HAL_I2C_Mem_Read+0x184>
 800312a:	e756      	b.n	8002fda <HAL_I2C_Mem_Read+0x32>
 800312c:	2120      	movs	r1, #32
 800312e:	6823      	ldr	r3, [r4, #0]
 8003130:	4d0b      	ldr	r5, [pc, #44]	@ (8003160 <HAL_I2C_Mem_Read+0x1b8>)
 8003132:	61d9      	str	r1, [r3, #28]
 8003134:	685a      	ldr	r2, [r3, #4]
 8003136:	402a      	ands	r2, r5
 8003138:	605a      	str	r2, [r3, #4]
 800313a:	0023      	movs	r3, r4
 800313c:	3440      	adds	r4, #64	@ 0x40
 800313e:	3341      	adds	r3, #65	@ 0x41
 8003140:	7019      	strb	r1, [r3, #0]
 8003142:	7030      	strb	r0, [r6, #0]
 8003144:	7020      	strb	r0, [r4, #0]
 8003146:	e749      	b.n	8002fdc <HAL_I2C_Mem_Read+0x34>
 8003148:	2380      	movs	r3, #128	@ 0x80
 800314a:	8d62      	ldrh	r2, [r4, #42]	@ 0x2a
 800314c:	049b      	lsls	r3, r3, #18
 800314e:	b292      	uxth	r2, r2
 8003150:	8522      	strh	r2, [r4, #40]	@ 0x28
 8003152:	b2d2      	uxtb	r2, r2
 8003154:	9000      	str	r0, [sp, #0]
 8003156:	e7da      	b.n	800310e <HAL_I2C_Mem_Read+0x166>
 8003158:	80002000 	.word	0x80002000
 800315c:	80002400 	.word	0x80002400
 8003160:	fe00e800 	.word	0xfe00e800

08003164 <HAL_I2CEx_ConfigAnalogFilter>:
 8003164:	b5f0      	push	{r4, r5, r6, r7, lr}
 8003166:	0004      	movs	r4, r0
 8003168:	3441      	adds	r4, #65	@ 0x41
 800316a:	7822      	ldrb	r2, [r4, #0]
 800316c:	0003      	movs	r3, r0
 800316e:	000f      	movs	r7, r1
 8003170:	2002      	movs	r0, #2
 8003172:	b2d6      	uxtb	r6, r2
 8003174:	2a20      	cmp	r2, #32
 8003176:	d118      	bne.n	80031aa <HAL_I2CEx_ConfigAnalogFilter+0x46>
 8003178:	001d      	movs	r5, r3
 800317a:	3540      	adds	r5, #64	@ 0x40
 800317c:	782a      	ldrb	r2, [r5, #0]
 800317e:	2a01      	cmp	r2, #1
 8003180:	d013      	beq.n	80031aa <HAL_I2CEx_ConfigAnalogFilter+0x46>
 8003182:	2224      	movs	r2, #36	@ 0x24
 8003184:	7022      	strb	r2, [r4, #0]
 8003186:	681b      	ldr	r3, [r3, #0]
 8003188:	3a23      	subs	r2, #35	@ 0x23
 800318a:	6819      	ldr	r1, [r3, #0]
 800318c:	4807      	ldr	r0, [pc, #28]	@ (80031ac <HAL_I2CEx_ConfigAnalogFilter+0x48>)
 800318e:	4391      	bics	r1, r2
 8003190:	6019      	str	r1, [r3, #0]
 8003192:	6819      	ldr	r1, [r3, #0]
 8003194:	4001      	ands	r1, r0
 8003196:	2000      	movs	r0, #0
 8003198:	6019      	str	r1, [r3, #0]
 800319a:	6819      	ldr	r1, [r3, #0]
 800319c:	4339      	orrs	r1, r7
 800319e:	6019      	str	r1, [r3, #0]
 80031a0:	6819      	ldr	r1, [r3, #0]
 80031a2:	430a      	orrs	r2, r1
 80031a4:	601a      	str	r2, [r3, #0]
 80031a6:	7026      	strb	r6, [r4, #0]
 80031a8:	7028      	strb	r0, [r5, #0]
 80031aa:	bdf0      	pop	{r4, r5, r6, r7, pc}
 80031ac:	ffffefff 	.word	0xffffefff

080031b0 <HAL_I2CEx_ConfigDigitalFilter>:
 80031b0:	0002      	movs	r2, r0
 80031b2:	b5f0      	push	{r4, r5, r6, r7, lr}
 80031b4:	3241      	adds	r2, #65	@ 0x41
 80031b6:	7814      	ldrb	r4, [r2, #0]
 80031b8:	0003      	movs	r3, r0
 80031ba:	b2e5      	uxtb	r5, r4
 80031bc:	2002      	movs	r0, #2
 80031be:	2c20      	cmp	r4, #32
 80031c0:	d117      	bne.n	80031f2 <HAL_I2CEx_ConfigDigitalFilter+0x42>
 80031c2:	001c      	movs	r4, r3
 80031c4:	3440      	adds	r4, #64	@ 0x40
 80031c6:	7826      	ldrb	r6, [r4, #0]
 80031c8:	2e01      	cmp	r6, #1
 80031ca:	d012      	beq.n	80031f2 <HAL_I2CEx_ConfigDigitalFilter+0x42>
 80031cc:	3022      	adds	r0, #34	@ 0x22
 80031ce:	7010      	strb	r0, [r2, #0]
 80031d0:	681b      	ldr	r3, [r3, #0]
 80031d2:	3823      	subs	r0, #35	@ 0x23
 80031d4:	681e      	ldr	r6, [r3, #0]
 80031d6:	4f07      	ldr	r7, [pc, #28]	@ (80031f4 <HAL_I2CEx_ConfigDigitalFilter+0x44>)
 80031d8:	4386      	bics	r6, r0
 80031da:	601e      	str	r6, [r3, #0]
 80031dc:	681e      	ldr	r6, [r3, #0]
 80031de:	0209      	lsls	r1, r1, #8
 80031e0:	403e      	ands	r6, r7
 80031e2:	4331      	orrs	r1, r6
 80031e4:	6019      	str	r1, [r3, #0]
 80031e6:	6819      	ldr	r1, [r3, #0]
 80031e8:	4308      	orrs	r0, r1
 80031ea:	6018      	str	r0, [r3, #0]
 80031ec:	2000      	movs	r0, #0
 80031ee:	7015      	strb	r5, [r2, #0]
 80031f0:	7020      	strb	r0, [r4, #0]
 80031f2:	bdf0      	pop	{r4, r5, r6, r7, pc}
 80031f4:	fffff0ff 	.word	0xfffff0ff

080031f8 <HAL_PWREx_ControlVoltageScaling>:
 80031f8:	b510      	push	{r4, lr}
 80031fa:	4c11      	ldr	r4, [pc, #68]	@ (8003240 <HAL_PWREx_ControlVoltageScaling+0x48>)
 80031fc:	4911      	ldr	r1, [pc, #68]	@ (8003244 <HAL_PWREx_ControlVoltageScaling+0x4c>)
 80031fe:	6823      	ldr	r3, [r4, #0]
 8003200:	0002      	movs	r2, r0
 8003202:	400b      	ands	r3, r1
 8003204:	4303      	orrs	r3, r0
 8003206:	6023      	str	r3, [r4, #0]
 8003208:	2380      	movs	r3, #128	@ 0x80
 800320a:	2000      	movs	r0, #0
 800320c:	009b      	lsls	r3, r3, #2
 800320e:	429a      	cmp	r2, r3
 8003210:	d10e      	bne.n	8003230 <HAL_PWREx_ControlVoltageScaling+0x38>
 8003212:	4b0d      	ldr	r3, [pc, #52]	@ (8003248 <HAL_PWREx_ControlVoltageScaling+0x50>)
 8003214:	490d      	ldr	r1, [pc, #52]	@ (800324c <HAL_PWREx_ControlVoltageScaling+0x54>)
 8003216:	6818      	ldr	r0, [r3, #0]
 8003218:	2306      	movs	r3, #6
 800321a:	4358      	muls	r0, r3
 800321c:	f7fc ff7a 	bl	8000114 <__udivsi3>
 8003220:	2280      	movs	r2, #128	@ 0x80
 8003222:	1c43      	adds	r3, r0, #1
 8003224:	00d2      	lsls	r2, r2, #3
 8003226:	6961      	ldr	r1, [r4, #20]
 8003228:	0008      	movs	r0, r1
 800322a:	4010      	ands	r0, r2
 800322c:	4211      	tst	r1, r2
 800322e:	d100      	bne.n	8003232 <HAL_PWREx_ControlVoltageScaling+0x3a>
 8003230:	bd10      	pop	{r4, pc}
 8003232:	2b00      	cmp	r3, #0
 8003234:	d001      	beq.n	800323a <HAL_PWREx_ControlVoltageScaling+0x42>
 8003236:	3b01      	subs	r3, #1
 8003238:	e7f5      	b.n	8003226 <HAL_PWREx_ControlVoltageScaling+0x2e>
 800323a:	2003      	movs	r0, #3
 800323c:	e7f8      	b.n	8003230 <HAL_PWREx_ControlVoltageScaling+0x38>
 800323e:	46c0      	nop			@ (mov r8, r8)
 8003240:	40007000 	.word	0x40007000
 8003244:	fffff9ff 	.word	0xfffff9ff
 8003248:	20000008 	.word	0x20000008
 800324c:	000f4240 	.word	0x000f4240

08003250 <HAL_RCC_OscConfig>:
 8003250:	b5f0      	push	{r4, r5, r6, r7, lr}
 8003252:	0004      	movs	r4, r0
 8003254:	b085      	sub	sp, #20
 8003256:	2800      	cmp	r0, #0
 8003258:	d102      	bne.n	8003260 <HAL_RCC_OscConfig+0x10>
 800325a:	2001      	movs	r0, #1
 800325c:	b005      	add	sp, #20
 800325e:	bdf0      	pop	{r4, r5, r6, r7, pc}
 8003260:	6803      	ldr	r3, [r0, #0]
 8003262:	07db      	lsls	r3, r3, #31
 8003264:	d410      	bmi.n	8003288 <HAL_RCC_OscConfig+0x38>
 8003266:	6823      	ldr	r3, [r4, #0]
 8003268:	079b      	lsls	r3, r3, #30
 800326a:	d45c      	bmi.n	8003326 <HAL_RCC_OscConfig+0xd6>
 800326c:	6823      	ldr	r3, [r4, #0]
 800326e:	071b      	lsls	r3, r3, #28
 8003270:	d500      	bpl.n	8003274 <HAL_RCC_OscConfig+0x24>
 8003272:	e0c1      	b.n	80033f8 <HAL_RCC_OscConfig+0x1a8>
 8003274:	6823      	ldr	r3, [r4, #0]
 8003276:	075b      	lsls	r3, r3, #29
 8003278:	d500      	bpl.n	800327c <HAL_RCC_OscConfig+0x2c>
 800327a:	e0f2      	b.n	8003462 <HAL_RCC_OscConfig+0x212>
 800327c:	69e3      	ldr	r3, [r4, #28]
 800327e:	2b00      	cmp	r3, #0
 8003280:	d000      	beq.n	8003284 <HAL_RCC_OscConfig+0x34>
 8003282:	e179      	b.n	8003578 <HAL_RCC_OscConfig+0x328>
 8003284:	2000      	movs	r0, #0
 8003286:	e7e9      	b.n	800325c <HAL_RCC_OscConfig+0xc>
 8003288:	2238      	movs	r2, #56	@ 0x38
 800328a:	4daf      	ldr	r5, [pc, #700]	@ (8003548 <HAL_RCC_OscConfig+0x2f8>)
 800328c:	68ab      	ldr	r3, [r5, #8]
 800328e:	4013      	ands	r3, r2
 8003290:	68ea      	ldr	r2, [r5, #12]
 8003292:	2b10      	cmp	r3, #16
 8003294:	d109      	bne.n	80032aa <HAL_RCC_OscConfig+0x5a>
 8003296:	43d3      	mvns	r3, r2
 8003298:	079b      	lsls	r3, r3, #30
 800329a:	d108      	bne.n	80032ae <HAL_RCC_OscConfig+0x5e>
 800329c:	682b      	ldr	r3, [r5, #0]
 800329e:	039b      	lsls	r3, r3, #14
 80032a0:	d5e1      	bpl.n	8003266 <HAL_RCC_OscConfig+0x16>
 80032a2:	6863      	ldr	r3, [r4, #4]
 80032a4:	2b00      	cmp	r3, #0
 80032a6:	d1de      	bne.n	8003266 <HAL_RCC_OscConfig+0x16>
 80032a8:	e7d7      	b.n	800325a <HAL_RCC_OscConfig+0xa>
 80032aa:	2b08      	cmp	r3, #8
 80032ac:	d0f6      	beq.n	800329c <HAL_RCC_OscConfig+0x4c>
 80032ae:	2280      	movs	r2, #128	@ 0x80
 80032b0:	6863      	ldr	r3, [r4, #4]
 80032b2:	0252      	lsls	r2, r2, #9
 80032b4:	4293      	cmp	r3, r2
 80032b6:	d111      	bne.n	80032dc <HAL_RCC_OscConfig+0x8c>
 80032b8:	682a      	ldr	r2, [r5, #0]
 80032ba:	4313      	orrs	r3, r2
 80032bc:	602b      	str	r3, [r5, #0]
 80032be:	f7ff fa7d 	bl	80027bc <HAL_GetTick>
 80032c2:	2780      	movs	r7, #128	@ 0x80
 80032c4:	0006      	movs	r6, r0
 80032c6:	02bf      	lsls	r7, r7, #10
 80032c8:	682b      	ldr	r3, [r5, #0]
 80032ca:	423b      	tst	r3, r7
 80032cc:	d1cb      	bne.n	8003266 <HAL_RCC_OscConfig+0x16>
 80032ce:	f7ff fa75 	bl	80027bc <HAL_GetTick>
 80032d2:	1b80      	subs	r0, r0, r6
 80032d4:	2864      	cmp	r0, #100	@ 0x64
 80032d6:	d9f7      	bls.n	80032c8 <HAL_RCC_OscConfig+0x78>
 80032d8:	2003      	movs	r0, #3
 80032da:	e7bf      	b.n	800325c <HAL_RCC_OscConfig+0xc>
 80032dc:	21a0      	movs	r1, #160	@ 0xa0
 80032de:	02c9      	lsls	r1, r1, #11
 80032e0:	428b      	cmp	r3, r1
 80032e2:	d108      	bne.n	80032f6 <HAL_RCC_OscConfig+0xa6>
 80032e4:	2380      	movs	r3, #128	@ 0x80
 80032e6:	6829      	ldr	r1, [r5, #0]
 80032e8:	02db      	lsls	r3, r3, #11
 80032ea:	430b      	orrs	r3, r1
 80032ec:	602b      	str	r3, [r5, #0]
 80032ee:	682b      	ldr	r3, [r5, #0]
 80032f0:	431a      	orrs	r2, r3
 80032f2:	602a      	str	r2, [r5, #0]
 80032f4:	e7e3      	b.n	80032be <HAL_RCC_OscConfig+0x6e>
 80032f6:	682a      	ldr	r2, [r5, #0]
 80032f8:	4994      	ldr	r1, [pc, #592]	@ (800354c <HAL_RCC_OscConfig+0x2fc>)
 80032fa:	400a      	ands	r2, r1
 80032fc:	602a      	str	r2, [r5, #0]
 80032fe:	682a      	ldr	r2, [r5, #0]
 8003300:	4993      	ldr	r1, [pc, #588]	@ (8003550 <HAL_RCC_OscConfig+0x300>)
 8003302:	400a      	ands	r2, r1
 8003304:	602a      	str	r2, [r5, #0]
 8003306:	2b00      	cmp	r3, #0
 8003308:	d1d9      	bne.n	80032be <HAL_RCC_OscConfig+0x6e>
 800330a:	f7ff fa57 	bl	80027bc <HAL_GetTick>
 800330e:	2780      	movs	r7, #128	@ 0x80
 8003310:	0006      	movs	r6, r0
 8003312:	02bf      	lsls	r7, r7, #10
 8003314:	682b      	ldr	r3, [r5, #0]
 8003316:	423b      	tst	r3, r7
 8003318:	d0a5      	beq.n	8003266 <HAL_RCC_OscConfig+0x16>
 800331a:	f7ff fa4f 	bl	80027bc <HAL_GetTick>
 800331e:	1b80      	subs	r0, r0, r6
 8003320:	2864      	cmp	r0, #100	@ 0x64
 8003322:	d9f7      	bls.n	8003314 <HAL_RCC_OscConfig+0xc4>
 8003324:	e7d8      	b.n	80032d8 <HAL_RCC_OscConfig+0x88>
 8003326:	2238      	movs	r2, #56	@ 0x38
 8003328:	4d87      	ldr	r5, [pc, #540]	@ (8003548 <HAL_RCC_OscConfig+0x2f8>)
 800332a:	68ab      	ldr	r3, [r5, #8]
 800332c:	4013      	ands	r3, r2
 800332e:	68ea      	ldr	r2, [r5, #12]
 8003330:	2b10      	cmp	r3, #16
 8003332:	d128      	bne.n	8003386 <HAL_RCC_OscConfig+0x136>
 8003334:	2103      	movs	r1, #3
 8003336:	400a      	ands	r2, r1
 8003338:	2a02      	cmp	r2, #2
 800333a:	d126      	bne.n	800338a <HAL_RCC_OscConfig+0x13a>
 800333c:	682a      	ldr	r2, [r5, #0]
 800333e:	0552      	lsls	r2, r2, #21
 8003340:	d503      	bpl.n	800334a <HAL_RCC_OscConfig+0xfa>
 8003342:	68e2      	ldr	r2, [r4, #12]
 8003344:	2a00      	cmp	r2, #0
 8003346:	d100      	bne.n	800334a <HAL_RCC_OscConfig+0xfa>
 8003348:	e787      	b.n	800325a <HAL_RCC_OscConfig+0xa>
 800334a:	6869      	ldr	r1, [r5, #4]
 800334c:	6962      	ldr	r2, [r4, #20]
 800334e:	4881      	ldr	r0, [pc, #516]	@ (8003554 <HAL_RCC_OscConfig+0x304>)
 8003350:	0212      	lsls	r2, r2, #8
 8003352:	4001      	ands	r1, r0
 8003354:	430a      	orrs	r2, r1
 8003356:	606a      	str	r2, [r5, #4]
 8003358:	2b00      	cmp	r3, #0
 800335a:	d10c      	bne.n	8003376 <HAL_RCC_OscConfig+0x126>
 800335c:	682b      	ldr	r3, [r5, #0]
 800335e:	4a7e      	ldr	r2, [pc, #504]	@ (8003558 <HAL_RCC_OscConfig+0x308>)
 8003360:	497e      	ldr	r1, [pc, #504]	@ (800355c <HAL_RCC_OscConfig+0x30c>)
 8003362:	4013      	ands	r3, r2
 8003364:	6922      	ldr	r2, [r4, #16]
 8003366:	4313      	orrs	r3, r2
 8003368:	602b      	str	r3, [r5, #0]
 800336a:	682b      	ldr	r3, [r5, #0]
 800336c:	4a7c      	ldr	r2, [pc, #496]	@ (8003560 <HAL_RCC_OscConfig+0x310>)
 800336e:	049b      	lsls	r3, r3, #18
 8003370:	0f5b      	lsrs	r3, r3, #29
 8003372:	40da      	lsrs	r2, r3
 8003374:	600a      	str	r2, [r1, #0]
 8003376:	4b7b      	ldr	r3, [pc, #492]	@ (8003564 <HAL_RCC_OscConfig+0x314>)
 8003378:	6818      	ldr	r0, [r3, #0]
 800337a:	f7ff f9d7 	bl	800272c <HAL_InitTick>
 800337e:	2800      	cmp	r0, #0
 8003380:	d100      	bne.n	8003384 <HAL_RCC_OscConfig+0x134>
 8003382:	e773      	b.n	800326c <HAL_RCC_OscConfig+0x1c>
 8003384:	e769      	b.n	800325a <HAL_RCC_OscConfig+0xa>
 8003386:	2b00      	cmp	r3, #0
 8003388:	d0d8      	beq.n	800333c <HAL_RCC_OscConfig+0xec>
 800338a:	68e3      	ldr	r3, [r4, #12]
 800338c:	2b00      	cmp	r3, #0
 800338e:	d020      	beq.n	80033d2 <HAL_RCC_OscConfig+0x182>
 8003390:	682b      	ldr	r3, [r5, #0]
 8003392:	4a71      	ldr	r2, [pc, #452]	@ (8003558 <HAL_RCC_OscConfig+0x308>)
 8003394:	2780      	movs	r7, #128	@ 0x80
 8003396:	4013      	ands	r3, r2
 8003398:	6922      	ldr	r2, [r4, #16]
 800339a:	00ff      	lsls	r7, r7, #3
 800339c:	4313      	orrs	r3, r2
 800339e:	602b      	str	r3, [r5, #0]
 80033a0:	2380      	movs	r3, #128	@ 0x80
 80033a2:	682a      	ldr	r2, [r5, #0]
 80033a4:	005b      	lsls	r3, r3, #1
 80033a6:	4313      	orrs	r3, r2
 80033a8:	602b      	str	r3, [r5, #0]
 80033aa:	f7ff fa07 	bl	80027bc <HAL_GetTick>
 80033ae:	0006      	movs	r6, r0
 80033b0:	682b      	ldr	r3, [r5, #0]
 80033b2:	423b      	tst	r3, r7
 80033b4:	d007      	beq.n	80033c6 <HAL_RCC_OscConfig+0x176>
 80033b6:	686a      	ldr	r2, [r5, #4]
 80033b8:	6963      	ldr	r3, [r4, #20]
 80033ba:	4966      	ldr	r1, [pc, #408]	@ (8003554 <HAL_RCC_OscConfig+0x304>)
 80033bc:	021b      	lsls	r3, r3, #8
 80033be:	400a      	ands	r2, r1
 80033c0:	4313      	orrs	r3, r2
 80033c2:	606b      	str	r3, [r5, #4]
 80033c4:	e752      	b.n	800326c <HAL_RCC_OscConfig+0x1c>
 80033c6:	f7ff f9f9 	bl	80027bc <HAL_GetTick>
 80033ca:	1b80      	subs	r0, r0, r6
 80033cc:	2802      	cmp	r0, #2
 80033ce:	d9ef      	bls.n	80033b0 <HAL_RCC_OscConfig+0x160>
 80033d0:	e782      	b.n	80032d8 <HAL_RCC_OscConfig+0x88>
 80033d2:	682b      	ldr	r3, [r5, #0]
 80033d4:	4a64      	ldr	r2, [pc, #400]	@ (8003568 <HAL_RCC_OscConfig+0x318>)
 80033d6:	2780      	movs	r7, #128	@ 0x80
 80033d8:	4013      	ands	r3, r2
 80033da:	602b      	str	r3, [r5, #0]
 80033dc:	f7ff f9ee 	bl	80027bc <HAL_GetTick>
 80033e0:	0006      	movs	r6, r0
 80033e2:	00ff      	lsls	r7, r7, #3
 80033e4:	682b      	ldr	r3, [r5, #0]
 80033e6:	423b      	tst	r3, r7
 80033e8:	d100      	bne.n	80033ec <HAL_RCC_OscConfig+0x19c>
 80033ea:	e73f      	b.n	800326c <HAL_RCC_OscConfig+0x1c>
 80033ec:	f7ff f9e6 	bl	80027bc <HAL_GetTick>
 80033f0:	1b80      	subs	r0, r0, r6
 80033f2:	2802      	cmp	r0, #2
 80033f4:	d9f6      	bls.n	80033e4 <HAL_RCC_OscConfig+0x194>
 80033f6:	e76f      	b.n	80032d8 <HAL_RCC_OscConfig+0x88>
 80033f8:	2238      	movs	r2, #56	@ 0x38
 80033fa:	4d53      	ldr	r5, [pc, #332]	@ (8003548 <HAL_RCC_OscConfig+0x2f8>)
 80033fc:	68ab      	ldr	r3, [r5, #8]
 80033fe:	4013      	ands	r3, r2
 8003400:	2b18      	cmp	r3, #24
 8003402:	d108      	bne.n	8003416 <HAL_RCC_OscConfig+0x1c6>
 8003404:	6e2b      	ldr	r3, [r5, #96]	@ 0x60
 8003406:	079b      	lsls	r3, r3, #30
 8003408:	d400      	bmi.n	800340c <HAL_RCC_OscConfig+0x1bc>
 800340a:	e733      	b.n	8003274 <HAL_RCC_OscConfig+0x24>
 800340c:	69a3      	ldr	r3, [r4, #24]
 800340e:	2b00      	cmp	r3, #0
 8003410:	d000      	beq.n	8003414 <HAL_RCC_OscConfig+0x1c4>
 8003412:	e72f      	b.n	8003274 <HAL_RCC_OscConfig+0x24>
 8003414:	e721      	b.n	800325a <HAL_RCC_OscConfig+0xa>
 8003416:	69a2      	ldr	r2, [r4, #24]
 8003418:	2301      	movs	r3, #1
 800341a:	2a00      	cmp	r2, #0
 800341c:	d010      	beq.n	8003440 <HAL_RCC_OscConfig+0x1f0>
 800341e:	6e2a      	ldr	r2, [r5, #96]	@ 0x60
 8003420:	2702      	movs	r7, #2
 8003422:	4313      	orrs	r3, r2
 8003424:	662b      	str	r3, [r5, #96]	@ 0x60
 8003426:	f7ff f9c9 	bl	80027bc <HAL_GetTick>
 800342a:	0006      	movs	r6, r0
 800342c:	6e2b      	ldr	r3, [r5, #96]	@ 0x60
 800342e:	423b      	tst	r3, r7
 8003430:	d000      	beq.n	8003434 <HAL_RCC_OscConfig+0x1e4>
 8003432:	e71f      	b.n	8003274 <HAL_RCC_OscConfig+0x24>
 8003434:	f7ff f9c2 	bl	80027bc <HAL_GetTick>
 8003438:	1b80      	subs	r0, r0, r6
 800343a:	2802      	cmp	r0, #2
 800343c:	d9f6      	bls.n	800342c <HAL_RCC_OscConfig+0x1dc>
 800343e:	e74b      	b.n	80032d8 <HAL_RCC_OscConfig+0x88>
 8003440:	6e2a      	ldr	r2, [r5, #96]	@ 0x60
 8003442:	2702      	movs	r7, #2
 8003444:	439a      	bics	r2, r3
 8003446:	662a      	str	r2, [r5, #96]	@ 0x60
 8003448:	f7ff f9b8 	bl	80027bc <HAL_GetTick>
 800344c:	0006      	movs	r6, r0
 800344e:	6e2b      	ldr	r3, [r5, #96]	@ 0x60
 8003450:	423b      	tst	r3, r7
 8003452:	d100      	bne.n	8003456 <HAL_RCC_OscConfig+0x206>
 8003454:	e70e      	b.n	8003274 <HAL_RCC_OscConfig+0x24>
 8003456:	f7ff f9b1 	bl	80027bc <HAL_GetTick>
 800345a:	1b80      	subs	r0, r0, r6
 800345c:	2802      	cmp	r0, #2
 800345e:	d9f6      	bls.n	800344e <HAL_RCC_OscConfig+0x1fe>
 8003460:	e73a      	b.n	80032d8 <HAL_RCC_OscConfig+0x88>
 8003462:	2238      	movs	r2, #56	@ 0x38
 8003464:	4d38      	ldr	r5, [pc, #224]	@ (8003548 <HAL_RCC_OscConfig+0x2f8>)
 8003466:	68ab      	ldr	r3, [r5, #8]
 8003468:	4013      	ands	r3, r2
 800346a:	2b20      	cmp	r3, #32
 800346c:	d108      	bne.n	8003480 <HAL_RCC_OscConfig+0x230>
 800346e:	6deb      	ldr	r3, [r5, #92]	@ 0x5c
 8003470:	079b      	lsls	r3, r3, #30
 8003472:	d400      	bmi.n	8003476 <HAL_RCC_OscConfig+0x226>
 8003474:	e702      	b.n	800327c <HAL_RCC_OscConfig+0x2c>
 8003476:	68a3      	ldr	r3, [r4, #8]
 8003478:	2b00      	cmp	r3, #0
 800347a:	d000      	beq.n	800347e <HAL_RCC_OscConfig+0x22e>
 800347c:	e6fe      	b.n	800327c <HAL_RCC_OscConfig+0x2c>
 800347e:	e6ec      	b.n	800325a <HAL_RCC_OscConfig+0xa>
 8003480:	2280      	movs	r2, #128	@ 0x80
 8003482:	2100      	movs	r1, #0
 8003484:	6beb      	ldr	r3, [r5, #60]	@ 0x3c
 8003486:	0552      	lsls	r2, r2, #21
 8003488:	9100      	str	r1, [sp, #0]
 800348a:	4213      	tst	r3, r2
 800348c:	d108      	bne.n	80034a0 <HAL_RCC_OscConfig+0x250>
 800348e:	6beb      	ldr	r3, [r5, #60]	@ 0x3c
 8003490:	4313      	orrs	r3, r2
 8003492:	63eb      	str	r3, [r5, #60]	@ 0x3c
 8003494:	6beb      	ldr	r3, [r5, #60]	@ 0x3c
 8003496:	4013      	ands	r3, r2
 8003498:	9303      	str	r3, [sp, #12]
 800349a:	9b03      	ldr	r3, [sp, #12]
 800349c:	2301      	movs	r3, #1
 800349e:	9300      	str	r3, [sp, #0]
 80034a0:	2780      	movs	r7, #128	@ 0x80
 80034a2:	4e32      	ldr	r6, [pc, #200]	@ (800356c <HAL_RCC_OscConfig+0x31c>)
 80034a4:	007f      	lsls	r7, r7, #1
 80034a6:	6833      	ldr	r3, [r6, #0]
 80034a8:	423b      	tst	r3, r7
 80034aa:	d015      	beq.n	80034d8 <HAL_RCC_OscConfig+0x288>
 80034ac:	68a3      	ldr	r3, [r4, #8]
 80034ae:	2b01      	cmp	r3, #1
 80034b0:	d122      	bne.n	80034f8 <HAL_RCC_OscConfig+0x2a8>
 80034b2:	6dea      	ldr	r2, [r5, #92]	@ 0x5c
 80034b4:	4313      	orrs	r3, r2
 80034b6:	65eb      	str	r3, [r5, #92]	@ 0x5c
 80034b8:	f7ff f980 	bl	80027bc <HAL_GetTick>
 80034bc:	2702      	movs	r7, #2
 80034be:	0006      	movs	r6, r0
 80034c0:	6deb      	ldr	r3, [r5, #92]	@ 0x5c
 80034c2:	423b      	tst	r3, r7
 80034c4:	d038      	beq.n	8003538 <HAL_RCC_OscConfig+0x2e8>
 80034c6:	9b00      	ldr	r3, [sp, #0]
 80034c8:	2b01      	cmp	r3, #1
 80034ca:	d000      	beq.n	80034ce <HAL_RCC_OscConfig+0x27e>
 80034cc:	e6d6      	b.n	800327c <HAL_RCC_OscConfig+0x2c>
 80034ce:	6beb      	ldr	r3, [r5, #60]	@ 0x3c
 80034d0:	4a27      	ldr	r2, [pc, #156]	@ (8003570 <HAL_RCC_OscConfig+0x320>)
 80034d2:	4013      	ands	r3, r2
 80034d4:	63eb      	str	r3, [r5, #60]	@ 0x3c
 80034d6:	e6d1      	b.n	800327c <HAL_RCC_OscConfig+0x2c>
 80034d8:	6833      	ldr	r3, [r6, #0]
 80034da:	433b      	orrs	r3, r7
 80034dc:	6033      	str	r3, [r6, #0]
 80034de:	f7ff f96d 	bl	80027bc <HAL_GetTick>
 80034e2:	9001      	str	r0, [sp, #4]
 80034e4:	6833      	ldr	r3, [r6, #0]
 80034e6:	423b      	tst	r3, r7
 80034e8:	d1e0      	bne.n	80034ac <HAL_RCC_OscConfig+0x25c>
 80034ea:	f7ff f967 	bl	80027bc <HAL_GetTick>
 80034ee:	9b01      	ldr	r3, [sp, #4]
 80034f0:	1ac0      	subs	r0, r0, r3
 80034f2:	2802      	cmp	r0, #2
 80034f4:	d9f6      	bls.n	80034e4 <HAL_RCC_OscConfig+0x294>
 80034f6:	e6ef      	b.n	80032d8 <HAL_RCC_OscConfig+0x88>
 80034f8:	6dea      	ldr	r2, [r5, #92]	@ 0x5c
 80034fa:	2b05      	cmp	r3, #5
 80034fc:	d105      	bne.n	800350a <HAL_RCC_OscConfig+0x2ba>
 80034fe:	3b01      	subs	r3, #1
 8003500:	4313      	orrs	r3, r2
 8003502:	65eb      	str	r3, [r5, #92]	@ 0x5c
 8003504:	6dea      	ldr	r2, [r5, #92]	@ 0x5c
 8003506:	2301      	movs	r3, #1
 8003508:	e7d4      	b.n	80034b4 <HAL_RCC_OscConfig+0x264>
 800350a:	2101      	movs	r1, #1
 800350c:	438a      	bics	r2, r1
 800350e:	65ea      	str	r2, [r5, #92]	@ 0x5c
 8003510:	6dea      	ldr	r2, [r5, #92]	@ 0x5c
 8003512:	3103      	adds	r1, #3
 8003514:	438a      	bics	r2, r1
 8003516:	65ea      	str	r2, [r5, #92]	@ 0x5c
 8003518:	2b00      	cmp	r3, #0
 800351a:	d1cd      	bne.n	80034b8 <HAL_RCC_OscConfig+0x268>
 800351c:	f7ff f94e 	bl	80027bc <HAL_GetTick>
 8003520:	2702      	movs	r7, #2
 8003522:	0006      	movs	r6, r0
 8003524:	6deb      	ldr	r3, [r5, #92]	@ 0x5c
 8003526:	423b      	tst	r3, r7
 8003528:	d0cd      	beq.n	80034c6 <HAL_RCC_OscConfig+0x276>
 800352a:	f7ff f947 	bl	80027bc <HAL_GetTick>
 800352e:	4b11      	ldr	r3, [pc, #68]	@ (8003574 <HAL_RCC_OscConfig+0x324>)
 8003530:	1b80      	subs	r0, r0, r6
 8003532:	4298      	cmp	r0, r3
 8003534:	d9f6      	bls.n	8003524 <HAL_RCC_OscConfig+0x2d4>
 8003536:	e6cf      	b.n	80032d8 <HAL_RCC_OscConfig+0x88>
 8003538:	f7ff f940 	bl	80027bc <HAL_GetTick>
 800353c:	4b0d      	ldr	r3, [pc, #52]	@ (8003574 <HAL_RCC_OscConfig+0x324>)
 800353e:	1b80      	subs	r0, r0, r6
 8003540:	4298      	cmp	r0, r3
 8003542:	d9bd      	bls.n	80034c0 <HAL_RCC_OscConfig+0x270>
 8003544:	e6c8      	b.n	80032d8 <HAL_RCC_OscConfig+0x88>
 8003546:	46c0      	nop			@ (mov r8, r8)
 8003548:	40021000 	.word	0x40021000
 800354c:	fffeffff 	.word	0xfffeffff
 8003550:	fffbffff 	.word	0xfffbffff
 8003554:	ffff80ff 	.word	0xffff80ff
 8003558:	ffffc7ff 	.word	0xffffc7ff
 800355c:	20000008 	.word	0x20000008
 8003560:	00f42400 	.word	0x00f42400
 8003564:	20000004 	.word	0x20000004
 8003568:	fffffeff 	.word	0xfffffeff
 800356c:	40007000 	.word	0x40007000
 8003570:	efffffff 	.word	0xefffffff
 8003574:	00001388 	.word	0x00001388
 8003578:	2138      	movs	r1, #56	@ 0x38
 800357a:	4d43      	ldr	r5, [pc, #268]	@ (8003688 <HAL_RCC_OscConfig+0x438>)
 800357c:	68aa      	ldr	r2, [r5, #8]
 800357e:	400a      	ands	r2, r1
 8003580:	2a10      	cmp	r2, #16
 8003582:	d053      	beq.n	800362c <HAL_RCC_OscConfig+0x3dc>
 8003584:	4a41      	ldr	r2, [pc, #260]	@ (800368c <HAL_RCC_OscConfig+0x43c>)
 8003586:	2b02      	cmp	r3, #2
 8003588:	d13a      	bne.n	8003600 <HAL_RCC_OscConfig+0x3b0>
 800358a:	682b      	ldr	r3, [r5, #0]
 800358c:	2780      	movs	r7, #128	@ 0x80
 800358e:	4013      	ands	r3, r2
 8003590:	602b      	str	r3, [r5, #0]
 8003592:	f7ff f913 	bl	80027bc <HAL_GetTick>
 8003596:	0006      	movs	r6, r0
 8003598:	04bf      	lsls	r7, r7, #18
 800359a:	682b      	ldr	r3, [r5, #0]
 800359c:	423b      	tst	r3, r7
 800359e:	d129      	bne.n	80035f4 <HAL_RCC_OscConfig+0x3a4>
 80035a0:	6a61      	ldr	r1, [r4, #36]	@ 0x24
 80035a2:	6a23      	ldr	r3, [r4, #32]
 80035a4:	68ea      	ldr	r2, [r5, #12]
 80035a6:	430b      	orrs	r3, r1
 80035a8:	4939      	ldr	r1, [pc, #228]	@ (8003690 <HAL_RCC_OscConfig+0x440>)
 80035aa:	2680      	movs	r6, #128	@ 0x80
 80035ac:	400a      	ands	r2, r1
 80035ae:	4313      	orrs	r3, r2
 80035b0:	6ae2      	ldr	r2, [r4, #44]	@ 0x2c
 80035b2:	04b6      	lsls	r6, r6, #18
 80035b4:	4313      	orrs	r3, r2
 80035b6:	6b22      	ldr	r2, [r4, #48]	@ 0x30
 80035b8:	4313      	orrs	r3, r2
 80035ba:	6b62      	ldr	r2, [r4, #52]	@ 0x34
 80035bc:	4313      	orrs	r3, r2
 80035be:	6aa2      	ldr	r2, [r4, #40]	@ 0x28
 80035c0:	0212      	lsls	r2, r2, #8
 80035c2:	4313      	orrs	r3, r2
 80035c4:	60eb      	str	r3, [r5, #12]
 80035c6:	2380      	movs	r3, #128	@ 0x80
 80035c8:	682a      	ldr	r2, [r5, #0]
 80035ca:	045b      	lsls	r3, r3, #17
 80035cc:	4313      	orrs	r3, r2
 80035ce:	602b      	str	r3, [r5, #0]
 80035d0:	2380      	movs	r3, #128	@ 0x80
 80035d2:	68ea      	ldr	r2, [r5, #12]
 80035d4:	055b      	lsls	r3, r3, #21
 80035d6:	4313      	orrs	r3, r2
 80035d8:	60eb      	str	r3, [r5, #12]
 80035da:	f7ff f8ef 	bl	80027bc <HAL_GetTick>
 80035de:	0004      	movs	r4, r0
 80035e0:	682b      	ldr	r3, [r5, #0]
 80035e2:	4233      	tst	r3, r6
 80035e4:	d000      	beq.n	80035e8 <HAL_RCC_OscConfig+0x398>
 80035e6:	e64d      	b.n	8003284 <HAL_RCC_OscConfig+0x34>
 80035e8:	f7ff f8e8 	bl	80027bc <HAL_GetTick>
 80035ec:	1b00      	subs	r0, r0, r4
 80035ee:	2802      	cmp	r0, #2
 80035f0:	d9f6      	bls.n	80035e0 <HAL_RCC_OscConfig+0x390>
 80035f2:	e671      	b.n	80032d8 <HAL_RCC_OscConfig+0x88>
 80035f4:	f7ff f8e2 	bl	80027bc <HAL_GetTick>
 80035f8:	1b80      	subs	r0, r0, r6
 80035fa:	2802      	cmp	r0, #2
 80035fc:	d9cd      	bls.n	800359a <HAL_RCC_OscConfig+0x34a>
 80035fe:	e66b      	b.n	80032d8 <HAL_RCC_OscConfig+0x88>
 8003600:	682b      	ldr	r3, [r5, #0]
 8003602:	2680      	movs	r6, #128	@ 0x80
 8003604:	4013      	ands	r3, r2
 8003606:	602b      	str	r3, [r5, #0]
 8003608:	f7ff f8d8 	bl	80027bc <HAL_GetTick>
 800360c:	0004      	movs	r4, r0
 800360e:	04b6      	lsls	r6, r6, #18
 8003610:	682b      	ldr	r3, [r5, #0]
 8003612:	4233      	tst	r3, r6
 8003614:	d104      	bne.n	8003620 <HAL_RCC_OscConfig+0x3d0>
 8003616:	68eb      	ldr	r3, [r5, #12]
 8003618:	4a1e      	ldr	r2, [pc, #120]	@ (8003694 <HAL_RCC_OscConfig+0x444>)
 800361a:	4013      	ands	r3, r2
 800361c:	60eb      	str	r3, [r5, #12]
 800361e:	e631      	b.n	8003284 <HAL_RCC_OscConfig+0x34>
 8003620:	f7ff f8cc 	bl	80027bc <HAL_GetTick>
 8003624:	1b00      	subs	r0, r0, r4
 8003626:	2802      	cmp	r0, #2
 8003628:	d9f2      	bls.n	8003610 <HAL_RCC_OscConfig+0x3c0>
 800362a:	e655      	b.n	80032d8 <HAL_RCC_OscConfig+0x88>
 800362c:	2b01      	cmp	r3, #1
 800362e:	d100      	bne.n	8003632 <HAL_RCC_OscConfig+0x3e2>
 8003630:	e613      	b.n	800325a <HAL_RCC_OscConfig+0xa>
 8003632:	2203      	movs	r2, #3
 8003634:	68e8      	ldr	r0, [r5, #12]
 8003636:	6a21      	ldr	r1, [r4, #32]
 8003638:	4002      	ands	r2, r0
 800363a:	428a      	cmp	r2, r1
 800363c:	d000      	beq.n	8003640 <HAL_RCC_OscConfig+0x3f0>
 800363e:	e60c      	b.n	800325a <HAL_RCC_OscConfig+0xa>
 8003640:	2270      	movs	r2, #112	@ 0x70
 8003642:	6a61      	ldr	r1, [r4, #36]	@ 0x24
 8003644:	4002      	ands	r2, r0
 8003646:	428a      	cmp	r2, r1
 8003648:	d000      	beq.n	800364c <HAL_RCC_OscConfig+0x3fc>
 800364a:	e606      	b.n	800325a <HAL_RCC_OscConfig+0xa>
 800364c:	21fe      	movs	r1, #254	@ 0xfe
 800364e:	6aa2      	ldr	r2, [r4, #40]	@ 0x28
 8003650:	01c9      	lsls	r1, r1, #7
 8003652:	4001      	ands	r1, r0
 8003654:	0212      	lsls	r2, r2, #8
 8003656:	4291      	cmp	r1, r2
 8003658:	d000      	beq.n	800365c <HAL_RCC_OscConfig+0x40c>
 800365a:	e5fe      	b.n	800325a <HAL_RCC_OscConfig+0xa>
 800365c:	22f8      	movs	r2, #248	@ 0xf8
 800365e:	6ae1      	ldr	r1, [r4, #44]	@ 0x2c
 8003660:	0392      	lsls	r2, r2, #14
 8003662:	4002      	ands	r2, r0
 8003664:	428a      	cmp	r2, r1
 8003666:	d000      	beq.n	800366a <HAL_RCC_OscConfig+0x41a>
 8003668:	e5f7      	b.n	800325a <HAL_RCC_OscConfig+0xa>
 800366a:	22e0      	movs	r2, #224	@ 0xe0
 800366c:	6b21      	ldr	r1, [r4, #48]	@ 0x30
 800366e:	0512      	lsls	r2, r2, #20
 8003670:	4002      	ands	r2, r0
 8003672:	428a      	cmp	r2, r1
 8003674:	d000      	beq.n	8003678 <HAL_RCC_OscConfig+0x428>
 8003676:	e5f0      	b.n	800325a <HAL_RCC_OscConfig+0xa>
 8003678:	6b63      	ldr	r3, [r4, #52]	@ 0x34
 800367a:	0f40      	lsrs	r0, r0, #29
 800367c:	0740      	lsls	r0, r0, #29
 800367e:	1ac0      	subs	r0, r0, r3
 8003680:	1e43      	subs	r3, r0, #1
 8003682:	4198      	sbcs	r0, r3
 8003684:	b2c0      	uxtb	r0, r0
 8003686:	e5e9      	b.n	800325c <HAL_RCC_OscConfig+0xc>
 8003688:	40021000 	.word	0x40021000
 800368c:	feffffff 	.word	0xfeffffff
 8003690:	11c1808c 	.word	0x11c1808c
 8003694:	eefefffc 	.word	0xeefefffc

08003698 <HAL_RCC_GetSysClockFreq>:
 8003698:	2338      	movs	r3, #56	@ 0x38
 800369a:	b570      	push	{r4, r5, r6, lr}
 800369c:	4c1d      	ldr	r4, [pc, #116]	@ (8003714 <HAL_RCC_GetSysClockFreq+0x7c>)
 800369e:	68a2      	ldr	r2, [r4, #8]
 80036a0:	421a      	tst	r2, r3
 80036a2:	d105      	bne.n	80036b0 <HAL_RCC_GetSysClockFreq+0x18>
 80036a4:	6823      	ldr	r3, [r4, #0]
 80036a6:	481c      	ldr	r0, [pc, #112]	@ (8003718 <HAL_RCC_GetSysClockFreq+0x80>)
 80036a8:	049b      	lsls	r3, r3, #18
 80036aa:	0f5b      	lsrs	r3, r3, #29
 80036ac:	40d8      	lsrs	r0, r3
 80036ae:	bd70      	pop	{r4, r5, r6, pc}
 80036b0:	68a2      	ldr	r2, [r4, #8]
 80036b2:	401a      	ands	r2, r3
 80036b4:	2a08      	cmp	r2, #8
 80036b6:	d027      	beq.n	8003708 <HAL_RCC_GetSysClockFreq+0x70>
 80036b8:	68a2      	ldr	r2, [r4, #8]
 80036ba:	401a      	ands	r2, r3
 80036bc:	2a10      	cmp	r2, #16
 80036be:	d117      	bne.n	80036f0 <HAL_RCC_GetSysClockFreq+0x58>
 80036c0:	68e3      	ldr	r3, [r4, #12]
 80036c2:	68e1      	ldr	r1, [r4, #12]
 80036c4:	43db      	mvns	r3, r3
 80036c6:	68e5      	ldr	r5, [r4, #12]
 80036c8:	0649      	lsls	r1, r1, #25
 80036ca:	0f49      	lsrs	r1, r1, #29
 80036cc:	326f      	adds	r2, #111	@ 0x6f
 80036ce:	0a2d      	lsrs	r5, r5, #8
 80036d0:	3101      	adds	r1, #1
 80036d2:	4015      	ands	r5, r2
 80036d4:	079b      	lsls	r3, r3, #30
 80036d6:	d109      	bne.n	80036ec <HAL_RCC_GetSysClockFreq+0x54>
 80036d8:	4810      	ldr	r0, [pc, #64]	@ (800371c <HAL_RCC_GetSysClockFreq+0x84>)
 80036da:	f7fc fd1b 	bl	8000114 <__udivsi3>
 80036de:	68e1      	ldr	r1, [r4, #12]
 80036e0:	4368      	muls	r0, r5
 80036e2:	0f49      	lsrs	r1, r1, #29
 80036e4:	3101      	adds	r1, #1
 80036e6:	f7fc fd15 	bl	8000114 <__udivsi3>
 80036ea:	e7e0      	b.n	80036ae <HAL_RCC_GetSysClockFreq+0x16>
 80036ec:	480a      	ldr	r0, [pc, #40]	@ (8003718 <HAL_RCC_GetSysClockFreq+0x80>)
 80036ee:	e7f4      	b.n	80036da <HAL_RCC_GetSysClockFreq+0x42>
 80036f0:	68a2      	ldr	r2, [r4, #8]
 80036f2:	401a      	ands	r2, r3
 80036f4:	2a20      	cmp	r2, #32
 80036f6:	d009      	beq.n	800370c <HAL_RCC_GetSysClockFreq+0x74>
 80036f8:	68a2      	ldr	r2, [r4, #8]
 80036fa:	2000      	movs	r0, #0
 80036fc:	4013      	ands	r3, r2
 80036fe:	2b18      	cmp	r3, #24
 8003700:	d1d5      	bne.n	80036ae <HAL_RCC_GetSysClockFreq+0x16>
 8003702:	20fa      	movs	r0, #250	@ 0xfa
 8003704:	01c0      	lsls	r0, r0, #7
 8003706:	e7d2      	b.n	80036ae <HAL_RCC_GetSysClockFreq+0x16>
 8003708:	4804      	ldr	r0, [pc, #16]	@ (800371c <HAL_RCC_GetSysClockFreq+0x84>)
 800370a:	e7d0      	b.n	80036ae <HAL_RCC_GetSysClockFreq+0x16>
 800370c:	2080      	movs	r0, #128	@ 0x80
 800370e:	0200      	lsls	r0, r0, #8
 8003710:	e7cd      	b.n	80036ae <HAL_RCC_GetSysClockFreq+0x16>
 8003712:	46c0      	nop			@ (mov r8, r8)
 8003714:	40021000 	.word	0x40021000
 8003718:	00f42400 	.word	0x00f42400
 800371c:	007a1200 	.word	0x007a1200

08003720 <HAL_RCC_ClockConfig>:
 8003720:	b5f7      	push	{r0, r1, r2, r4, r5, r6, r7, lr}
 8003722:	0004      	movs	r4, r0
 8003724:	000d      	movs	r5, r1
 8003726:	2800      	cmp	r0, #0
 8003728:	d101      	bne.n	800372e <HAL_RCC_ClockConfig+0xe>
 800372a:	2001      	movs	r0, #1
 800372c:	bdfe      	pop	{r1, r2, r3, r4, r5, r6, r7, pc}
 800372e:	2707      	movs	r7, #7
 8003730:	4e4a      	ldr	r6, [pc, #296]	@ (800385c <HAL_RCC_ClockConfig+0x13c>)
 8003732:	6833      	ldr	r3, [r6, #0]
 8003734:	403b      	ands	r3, r7
 8003736:	428b      	cmp	r3, r1
 8003738:	d32a      	bcc.n	8003790 <HAL_RCC_ClockConfig+0x70>
 800373a:	6822      	ldr	r2, [r4, #0]
 800373c:	0793      	lsls	r3, r2, #30
 800373e:	d43b      	bmi.n	80037b8 <HAL_RCC_ClockConfig+0x98>
 8003740:	07d2      	lsls	r2, r2, #31
 8003742:	d448      	bmi.n	80037d6 <HAL_RCC_ClockConfig+0xb6>
 8003744:	2707      	movs	r7, #7
 8003746:	6833      	ldr	r3, [r6, #0]
 8003748:	403b      	ands	r3, r7
 800374a:	42ab      	cmp	r3, r5
 800374c:	d90a      	bls.n	8003764 <HAL_RCC_ClockConfig+0x44>
 800374e:	6833      	ldr	r3, [r6, #0]
 8003750:	43bb      	bics	r3, r7
 8003752:	432b      	orrs	r3, r5
 8003754:	6033      	str	r3, [r6, #0]
 8003756:	f7ff f831 	bl	80027bc <HAL_GetTick>
 800375a:	9001      	str	r0, [sp, #4]
 800375c:	6833      	ldr	r3, [r6, #0]
 800375e:	403b      	ands	r3, r7
 8003760:	42ab      	cmp	r3, r5
 8003762:	d16b      	bne.n	800383c <HAL_RCC_ClockConfig+0x11c>
 8003764:	6823      	ldr	r3, [r4, #0]
 8003766:	4d3e      	ldr	r5, [pc, #248]	@ (8003860 <HAL_RCC_ClockConfig+0x140>)
 8003768:	075b      	lsls	r3, r3, #29
 800376a:	d46f      	bmi.n	800384c <HAL_RCC_ClockConfig+0x12c>
 800376c:	f7ff ff94 	bl	8003698 <HAL_RCC_GetSysClockFreq>
 8003770:	68ab      	ldr	r3, [r5, #8]
 8003772:	493c      	ldr	r1, [pc, #240]	@ (8003864 <HAL_RCC_ClockConfig+0x144>)
 8003774:	051b      	lsls	r3, r3, #20
 8003776:	0f1b      	lsrs	r3, r3, #28
 8003778:	009b      	lsls	r3, r3, #2
 800377a:	585b      	ldr	r3, [r3, r1]
 800377c:	211f      	movs	r1, #31
 800377e:	400b      	ands	r3, r1
 8003780:	40d8      	lsrs	r0, r3
 8003782:	4a39      	ldr	r2, [pc, #228]	@ (8003868 <HAL_RCC_ClockConfig+0x148>)
 8003784:	4b39      	ldr	r3, [pc, #228]	@ (800386c <HAL_RCC_ClockConfig+0x14c>)
 8003786:	6010      	str	r0, [r2, #0]
 8003788:	6818      	ldr	r0, [r3, #0]
 800378a:	f7fe ffcf 	bl	800272c <HAL_InitTick>
 800378e:	e7cd      	b.n	800372c <HAL_RCC_ClockConfig+0xc>
 8003790:	6833      	ldr	r3, [r6, #0]
 8003792:	43bb      	bics	r3, r7
 8003794:	430b      	orrs	r3, r1
 8003796:	6033      	str	r3, [r6, #0]
 8003798:	f7ff f810 	bl	80027bc <HAL_GetTick>
 800379c:	9001      	str	r0, [sp, #4]
 800379e:	6833      	ldr	r3, [r6, #0]
 80037a0:	403b      	ands	r3, r7
 80037a2:	42ab      	cmp	r3, r5
 80037a4:	d0c9      	beq.n	800373a <HAL_RCC_ClockConfig+0x1a>
 80037a6:	f7ff f809 	bl	80027bc <HAL_GetTick>
 80037aa:	9b01      	ldr	r3, [sp, #4]
 80037ac:	1ac0      	subs	r0, r0, r3
 80037ae:	4b30      	ldr	r3, [pc, #192]	@ (8003870 <HAL_RCC_ClockConfig+0x150>)
 80037b0:	4298      	cmp	r0, r3
 80037b2:	d9f4      	bls.n	800379e <HAL_RCC_ClockConfig+0x7e>
 80037b4:	2003      	movs	r0, #3
 80037b6:	e7b9      	b.n	800372c <HAL_RCC_ClockConfig+0xc>
 80037b8:	4929      	ldr	r1, [pc, #164]	@ (8003860 <HAL_RCC_ClockConfig+0x140>)
 80037ba:	0753      	lsls	r3, r2, #29
 80037bc:	d504      	bpl.n	80037c8 <HAL_RCC_ClockConfig+0xa8>
 80037be:	23e0      	movs	r3, #224	@ 0xe0
 80037c0:	6888      	ldr	r0, [r1, #8]
 80037c2:	01db      	lsls	r3, r3, #7
 80037c4:	4303      	orrs	r3, r0
 80037c6:	608b      	str	r3, [r1, #8]
 80037c8:	688b      	ldr	r3, [r1, #8]
 80037ca:	482a      	ldr	r0, [pc, #168]	@ (8003874 <HAL_RCC_ClockConfig+0x154>)
 80037cc:	4003      	ands	r3, r0
 80037ce:	68a0      	ldr	r0, [r4, #8]
 80037d0:	4303      	orrs	r3, r0
 80037d2:	608b      	str	r3, [r1, #8]
 80037d4:	e7b4      	b.n	8003740 <HAL_RCC_ClockConfig+0x20>
 80037d6:	6862      	ldr	r2, [r4, #4]
 80037d8:	4f21      	ldr	r7, [pc, #132]	@ (8003860 <HAL_RCC_ClockConfig+0x140>)
 80037da:	2a01      	cmp	r2, #1
 80037dc:	d119      	bne.n	8003812 <HAL_RCC_ClockConfig+0xf2>
 80037de:	683b      	ldr	r3, [r7, #0]
 80037e0:	039b      	lsls	r3, r3, #14
 80037e2:	d5a2      	bpl.n	800372a <HAL_RCC_ClockConfig+0xa>
 80037e4:	2107      	movs	r1, #7
 80037e6:	68bb      	ldr	r3, [r7, #8]
 80037e8:	438b      	bics	r3, r1
 80037ea:	4313      	orrs	r3, r2
 80037ec:	60bb      	str	r3, [r7, #8]
 80037ee:	f7fe ffe5 	bl	80027bc <HAL_GetTick>
 80037f2:	9001      	str	r0, [sp, #4]
 80037f4:	2338      	movs	r3, #56	@ 0x38
 80037f6:	68ba      	ldr	r2, [r7, #8]
 80037f8:	401a      	ands	r2, r3
 80037fa:	6863      	ldr	r3, [r4, #4]
 80037fc:	00db      	lsls	r3, r3, #3
 80037fe:	429a      	cmp	r2, r3
 8003800:	d0a0      	beq.n	8003744 <HAL_RCC_ClockConfig+0x24>
 8003802:	f7fe ffdb 	bl	80027bc <HAL_GetTick>
 8003806:	9b01      	ldr	r3, [sp, #4]
 8003808:	1ac0      	subs	r0, r0, r3
 800380a:	4b19      	ldr	r3, [pc, #100]	@ (8003870 <HAL_RCC_ClockConfig+0x150>)
 800380c:	4298      	cmp	r0, r3
 800380e:	d9f1      	bls.n	80037f4 <HAL_RCC_ClockConfig+0xd4>
 8003810:	e7d0      	b.n	80037b4 <HAL_RCC_ClockConfig+0x94>
 8003812:	2a02      	cmp	r2, #2
 8003814:	d103      	bne.n	800381e <HAL_RCC_ClockConfig+0xfe>
 8003816:	683b      	ldr	r3, [r7, #0]
 8003818:	019b      	lsls	r3, r3, #6
 800381a:	d4e3      	bmi.n	80037e4 <HAL_RCC_ClockConfig+0xc4>
 800381c:	e785      	b.n	800372a <HAL_RCC_ClockConfig+0xa>
 800381e:	2a00      	cmp	r2, #0
 8003820:	d103      	bne.n	800382a <HAL_RCC_ClockConfig+0x10a>
 8003822:	683b      	ldr	r3, [r7, #0]
 8003824:	055b      	lsls	r3, r3, #21
 8003826:	d4dd      	bmi.n	80037e4 <HAL_RCC_ClockConfig+0xc4>
 8003828:	e77f      	b.n	800372a <HAL_RCC_ClockConfig+0xa>
 800382a:	2302      	movs	r3, #2
 800382c:	2a03      	cmp	r2, #3
 800382e:	d103      	bne.n	8003838 <HAL_RCC_ClockConfig+0x118>
 8003830:	6e39      	ldr	r1, [r7, #96]	@ 0x60
 8003832:	4219      	tst	r1, r3
 8003834:	d1d6      	bne.n	80037e4 <HAL_RCC_ClockConfig+0xc4>
 8003836:	e778      	b.n	800372a <HAL_RCC_ClockConfig+0xa>
 8003838:	6df9      	ldr	r1, [r7, #92]	@ 0x5c
 800383a:	e7fa      	b.n	8003832 <HAL_RCC_ClockConfig+0x112>
 800383c:	f7fe ffbe 	bl	80027bc <HAL_GetTick>
 8003840:	9b01      	ldr	r3, [sp, #4]
 8003842:	1ac0      	subs	r0, r0, r3
 8003844:	4b0a      	ldr	r3, [pc, #40]	@ (8003870 <HAL_RCC_ClockConfig+0x150>)
 8003846:	4298      	cmp	r0, r3
 8003848:	d988      	bls.n	800375c <HAL_RCC_ClockConfig+0x3c>
 800384a:	e7b3      	b.n	80037b4 <HAL_RCC_ClockConfig+0x94>
 800384c:	68ab      	ldr	r3, [r5, #8]
 800384e:	4a0a      	ldr	r2, [pc, #40]	@ (8003878 <HAL_RCC_ClockConfig+0x158>)
 8003850:	4013      	ands	r3, r2
 8003852:	68e2      	ldr	r2, [r4, #12]
 8003854:	4313      	orrs	r3, r2
 8003856:	60ab      	str	r3, [r5, #8]
 8003858:	e788      	b.n	800376c <HAL_RCC_ClockConfig+0x4c>
 800385a:	46c0      	nop			@ (mov r8, r8)
 800385c:	40022000 	.word	0x40022000
 8003860:	40021000 	.word	0x40021000
 8003864:	08005cf8 	.word	0x08005cf8
 8003868:	20000008 	.word	0x20000008
 800386c:	20000004 	.word	0x20000004
 8003870:	00001388 	.word	0x00001388
 8003874:	fffff0ff 	.word	0xfffff0ff
 8003878:	ffff8fff 	.word	0xffff8fff

0800387c <HAL_RCC_GetPCLK1Freq>:
 800387c:	4b06      	ldr	r3, [pc, #24]	@ (8003898 <HAL_RCC_GetPCLK1Freq+0x1c>)
 800387e:	4907      	ldr	r1, [pc, #28]	@ (800389c <HAL_RCC_GetPCLK1Freq+0x20>)
 8003880:	689b      	ldr	r3, [r3, #8]
 8003882:	4a07      	ldr	r2, [pc, #28]	@ (80038a0 <HAL_RCC_GetPCLK1Freq+0x24>)
 8003884:	045b      	lsls	r3, r3, #17
 8003886:	0f5b      	lsrs	r3, r3, #29
 8003888:	009b      	lsls	r3, r3, #2
 800388a:	585b      	ldr	r3, [r3, r1]
 800388c:	211f      	movs	r1, #31
 800388e:	6810      	ldr	r0, [r2, #0]
 8003890:	400b      	ands	r3, r1
 8003892:	40d8      	lsrs	r0, r3
 8003894:	4770      	bx	lr
 8003896:	46c0      	nop			@ (mov r8, r8)
 8003898:	40021000 	.word	0x40021000
 800389c:	08005cd8 	.word	0x08005cd8
 80038a0:	20000008 	.word	0x20000008

080038a4 <HAL_RCCEx_PeriphCLKConfig>:
 80038a4:	b5f0      	push	{r4, r5, r6, r7, lr}
 80038a6:	6803      	ldr	r3, [r0, #0]
 80038a8:	0004      	movs	r4, r0
 80038aa:	b085      	sub	sp, #20
 80038ac:	2000      	movs	r0, #0
 80038ae:	039b      	lsls	r3, r3, #14
 80038b0:	d552      	bpl.n	8003958 <HAL_RCCEx_PeriphCLKConfig+0xb4>
 80038b2:	2280      	movs	r2, #128	@ 0x80
 80038b4:	4d70      	ldr	r5, [pc, #448]	@ (8003a78 <HAL_RCCEx_PeriphCLKConfig+0x1d4>)
 80038b6:	0552      	lsls	r2, r2, #21
 80038b8:	6beb      	ldr	r3, [r5, #60]	@ 0x3c
 80038ba:	9000      	str	r0, [sp, #0]
 80038bc:	4213      	tst	r3, r2
 80038be:	d108      	bne.n	80038d2 <HAL_RCCEx_PeriphCLKConfig+0x2e>
 80038c0:	6beb      	ldr	r3, [r5, #60]	@ 0x3c
 80038c2:	4313      	orrs	r3, r2
 80038c4:	63eb      	str	r3, [r5, #60]	@ 0x3c
 80038c6:	6beb      	ldr	r3, [r5, #60]	@ 0x3c
 80038c8:	4013      	ands	r3, r2
 80038ca:	9303      	str	r3, [sp, #12]
 80038cc:	9b03      	ldr	r3, [sp, #12]
 80038ce:	2301      	movs	r3, #1
 80038d0:	9300      	str	r3, [sp, #0]
 80038d2:	2780      	movs	r7, #128	@ 0x80
 80038d4:	4e69      	ldr	r6, [pc, #420]	@ (8003a7c <HAL_RCCEx_PeriphCLKConfig+0x1d8>)
 80038d6:	007f      	lsls	r7, r7, #1
 80038d8:	6833      	ldr	r3, [r6, #0]
 80038da:	433b      	orrs	r3, r7
 80038dc:	6033      	str	r3, [r6, #0]
 80038de:	f7fe ff6d 	bl	80027bc <HAL_GetTick>
 80038e2:	9001      	str	r0, [sp, #4]
 80038e4:	6833      	ldr	r3, [r6, #0]
 80038e6:	423b      	tst	r3, r7
 80038e8:	d028      	beq.n	800393c <HAL_RCCEx_PeriphCLKConfig+0x98>
 80038ea:	6de9      	ldr	r1, [r5, #92]	@ 0x5c
 80038ec:	22c0      	movs	r2, #192	@ 0xc0
 80038ee:	0008      	movs	r0, r1
 80038f0:	0092      	lsls	r2, r2, #2
 80038f2:	6b23      	ldr	r3, [r4, #48]	@ 0x30
 80038f4:	4010      	ands	r0, r2
 80038f6:	4211      	tst	r1, r2
 80038f8:	d018      	beq.n	800392c <HAL_RCCEx_PeriphCLKConfig+0x88>
 80038fa:	4298      	cmp	r0, r3
 80038fc:	d00c      	beq.n	8003918 <HAL_RCCEx_PeriphCLKConfig+0x74>
 80038fe:	6deb      	ldr	r3, [r5, #92]	@ 0x5c
 8003900:	4a5f      	ldr	r2, [pc, #380]	@ (8003a80 <HAL_RCCEx_PeriphCLKConfig+0x1dc>)
 8003902:	6de9      	ldr	r1, [r5, #92]	@ 0x5c
 8003904:	4013      	ands	r3, r2
 8003906:	2280      	movs	r2, #128	@ 0x80
 8003908:	0252      	lsls	r2, r2, #9
 800390a:	430a      	orrs	r2, r1
 800390c:	65ea      	str	r2, [r5, #92]	@ 0x5c
 800390e:	6dea      	ldr	r2, [r5, #92]	@ 0x5c
 8003910:	495c      	ldr	r1, [pc, #368]	@ (8003a84 <HAL_RCCEx_PeriphCLKConfig+0x1e0>)
 8003912:	400a      	ands	r2, r1
 8003914:	65ea      	str	r2, [r5, #92]	@ 0x5c
 8003916:	65eb      	str	r3, [r5, #92]	@ 0x5c
 8003918:	07db      	lsls	r3, r3, #31
 800391a:	d507      	bpl.n	800392c <HAL_RCCEx_PeriphCLKConfig+0x88>
 800391c:	f7fe ff4e 	bl	80027bc <HAL_GetTick>
 8003920:	2702      	movs	r7, #2
 8003922:	0006      	movs	r6, r0
 8003924:	6deb      	ldr	r3, [r5, #92]	@ 0x5c
 8003926:	423b      	tst	r3, r7
 8003928:	d100      	bne.n	800392c <HAL_RCCEx_PeriphCLKConfig+0x88>
 800392a:	e09d      	b.n	8003a68 <HAL_RCCEx_PeriphCLKConfig+0x1c4>
 800392c:	6deb      	ldr	r3, [r5, #92]	@ 0x5c
 800392e:	4a54      	ldr	r2, [pc, #336]	@ (8003a80 <HAL_RCCEx_PeriphCLKConfig+0x1dc>)
 8003930:	2000      	movs	r0, #0
 8003932:	4013      	ands	r3, r2
 8003934:	6b22      	ldr	r2, [r4, #48]	@ 0x30
 8003936:	4313      	orrs	r3, r2
 8003938:	65eb      	str	r3, [r5, #92]	@ 0x5c
 800393a:	e006      	b.n	800394a <HAL_RCCEx_PeriphCLKConfig+0xa6>
 800393c:	f7fe ff3e 	bl	80027bc <HAL_GetTick>
 8003940:	9b01      	ldr	r3, [sp, #4]
 8003942:	1ac0      	subs	r0, r0, r3
 8003944:	2802      	cmp	r0, #2
 8003946:	d9cd      	bls.n	80038e4 <HAL_RCCEx_PeriphCLKConfig+0x40>
 8003948:	2003      	movs	r0, #3
 800394a:	9b00      	ldr	r3, [sp, #0]
 800394c:	2b01      	cmp	r3, #1
 800394e:	d103      	bne.n	8003958 <HAL_RCCEx_PeriphCLKConfig+0xb4>
 8003950:	6beb      	ldr	r3, [r5, #60]	@ 0x3c
 8003952:	4a4d      	ldr	r2, [pc, #308]	@ (8003a88 <HAL_RCCEx_PeriphCLKConfig+0x1e4>)
 8003954:	4013      	ands	r3, r2
 8003956:	63eb      	str	r3, [r5, #60]	@ 0x3c
 8003958:	6823      	ldr	r3, [r4, #0]
 800395a:	07da      	lsls	r2, r3, #31
 800395c:	d506      	bpl.n	800396c <HAL_RCCEx_PeriphCLKConfig+0xc8>
 800395e:	2503      	movs	r5, #3
 8003960:	4945      	ldr	r1, [pc, #276]	@ (8003a78 <HAL_RCCEx_PeriphCLKConfig+0x1d4>)
 8003962:	6d4a      	ldr	r2, [r1, #84]	@ 0x54
 8003964:	43aa      	bics	r2, r5
 8003966:	6865      	ldr	r5, [r4, #4]
 8003968:	432a      	orrs	r2, r5
 800396a:	654a      	str	r2, [r1, #84]	@ 0x54
 800396c:	079a      	lsls	r2, r3, #30
 800396e:	d506      	bpl.n	800397e <HAL_RCCEx_PeriphCLKConfig+0xda>
 8003970:	250c      	movs	r5, #12
 8003972:	4941      	ldr	r1, [pc, #260]	@ (8003a78 <HAL_RCCEx_PeriphCLKConfig+0x1d4>)
 8003974:	6d4a      	ldr	r2, [r1, #84]	@ 0x54
 8003976:	43aa      	bics	r2, r5
 8003978:	68a5      	ldr	r5, [r4, #8]
 800397a:	432a      	orrs	r2, r5
 800397c:	654a      	str	r2, [r1, #84]	@ 0x54
 800397e:	06da      	lsls	r2, r3, #27
 8003980:	d506      	bpl.n	8003990 <HAL_RCCEx_PeriphCLKConfig+0xec>
 8003982:	493d      	ldr	r1, [pc, #244]	@ (8003a78 <HAL_RCCEx_PeriphCLKConfig+0x1d4>)
 8003984:	4d41      	ldr	r5, [pc, #260]	@ (8003a8c <HAL_RCCEx_PeriphCLKConfig+0x1e8>)
 8003986:	6d4a      	ldr	r2, [r1, #84]	@ 0x54
 8003988:	402a      	ands	r2, r5
 800398a:	68e5      	ldr	r5, [r4, #12]
 800398c:	432a      	orrs	r2, r5
 800398e:	654a      	str	r2, [r1, #84]	@ 0x54
 8003990:	059a      	lsls	r2, r3, #22
 8003992:	d506      	bpl.n	80039a2 <HAL_RCCEx_PeriphCLKConfig+0xfe>
 8003994:	4938      	ldr	r1, [pc, #224]	@ (8003a78 <HAL_RCCEx_PeriphCLKConfig+0x1d4>)
 8003996:	4d3e      	ldr	r5, [pc, #248]	@ (8003a90 <HAL_RCCEx_PeriphCLKConfig+0x1ec>)
 8003998:	6d4a      	ldr	r2, [r1, #84]	@ 0x54
 800399a:	402a      	ands	r2, r5
 800399c:	69a5      	ldr	r5, [r4, #24]
 800399e:	432a      	orrs	r2, r5
 80039a0:	654a      	str	r2, [r1, #84]	@ 0x54
 80039a2:	055a      	lsls	r2, r3, #21
 80039a4:	d506      	bpl.n	80039b4 <HAL_RCCEx_PeriphCLKConfig+0x110>
 80039a6:	4934      	ldr	r1, [pc, #208]	@ (8003a78 <HAL_RCCEx_PeriphCLKConfig+0x1d4>)
 80039a8:	4d3a      	ldr	r5, [pc, #232]	@ (8003a94 <HAL_RCCEx_PeriphCLKConfig+0x1f0>)
 80039aa:	6d4a      	ldr	r2, [r1, #84]	@ 0x54
 80039ac:	402a      	ands	r2, r5
 80039ae:	69e5      	ldr	r5, [r4, #28]
 80039b0:	432a      	orrs	r2, r5
 80039b2:	654a      	str	r2, [r1, #84]	@ 0x54
 80039b4:	069a      	lsls	r2, r3, #26
 80039b6:	d506      	bpl.n	80039c6 <HAL_RCCEx_PeriphCLKConfig+0x122>
 80039b8:	492f      	ldr	r1, [pc, #188]	@ (8003a78 <HAL_RCCEx_PeriphCLKConfig+0x1d4>)
 80039ba:	4d37      	ldr	r5, [pc, #220]	@ (8003a98 <HAL_RCCEx_PeriphCLKConfig+0x1f4>)
 80039bc:	6d4a      	ldr	r2, [r1, #84]	@ 0x54
 80039be:	402a      	ands	r2, r5
 80039c0:	6925      	ldr	r5, [r4, #16]
 80039c2:	432a      	orrs	r2, r5
 80039c4:	654a      	str	r2, [r1, #84]	@ 0x54
 80039c6:	045a      	lsls	r2, r3, #17
 80039c8:	d50f      	bpl.n	80039ea <HAL_RCCEx_PeriphCLKConfig+0x146>
 80039ca:	492b      	ldr	r1, [pc, #172]	@ (8003a78 <HAL_RCCEx_PeriphCLKConfig+0x1d4>)
 80039cc:	6a25      	ldr	r5, [r4, #32]
 80039ce:	6d4a      	ldr	r2, [r1, #84]	@ 0x54
 80039d0:	0092      	lsls	r2, r2, #2
 80039d2:	0892      	lsrs	r2, r2, #2
 80039d4:	432a      	orrs	r2, r5
 80039d6:	654a      	str	r2, [r1, #84]	@ 0x54
 80039d8:	2280      	movs	r2, #128	@ 0x80
 80039da:	05d2      	lsls	r2, r2, #23
 80039dc:	4295      	cmp	r5, r2
 80039de:	d104      	bne.n	80039ea <HAL_RCCEx_PeriphCLKConfig+0x146>
 80039e0:	2280      	movs	r2, #128	@ 0x80
 80039e2:	68cd      	ldr	r5, [r1, #12]
 80039e4:	0252      	lsls	r2, r2, #9
 80039e6:	432a      	orrs	r2, r5
 80039e8:	60ca      	str	r2, [r1, #12]
 80039ea:	031a      	lsls	r2, r3, #12
 80039ec:	d506      	bpl.n	80039fc <HAL_RCCEx_PeriphCLKConfig+0x158>
 80039ee:	2540      	movs	r5, #64	@ 0x40
 80039f0:	4921      	ldr	r1, [pc, #132]	@ (8003a78 <HAL_RCCEx_PeriphCLKConfig+0x1d4>)
 80039f2:	6d4a      	ldr	r2, [r1, #84]	@ 0x54
 80039f4:	43aa      	bics	r2, r5
 80039f6:	6a65      	ldr	r5, [r4, #36]	@ 0x24
 80039f8:	432a      	orrs	r2, r5
 80039fa:	654a      	str	r2, [r1, #84]	@ 0x54
 80039fc:	029a      	lsls	r2, r3, #10
 80039fe:	d50f      	bpl.n	8003a20 <HAL_RCCEx_PeriphCLKConfig+0x17c>
 8003a00:	491d      	ldr	r1, [pc, #116]	@ (8003a78 <HAL_RCCEx_PeriphCLKConfig+0x1d4>)
 8003a02:	4e26      	ldr	r6, [pc, #152]	@ (8003a9c <HAL_RCCEx_PeriphCLKConfig+0x1f8>)
 8003a04:	6d4a      	ldr	r2, [r1, #84]	@ 0x54
 8003a06:	6aa5      	ldr	r5, [r4, #40]	@ 0x28
 8003a08:	4032      	ands	r2, r6
 8003a0a:	432a      	orrs	r2, r5
 8003a0c:	654a      	str	r2, [r1, #84]	@ 0x54
 8003a0e:	2280      	movs	r2, #128	@ 0x80
 8003a10:	03d2      	lsls	r2, r2, #15
 8003a12:	4295      	cmp	r5, r2
 8003a14:	d104      	bne.n	8003a20 <HAL_RCCEx_PeriphCLKConfig+0x17c>
 8003a16:	2280      	movs	r2, #128	@ 0x80
 8003a18:	68cd      	ldr	r5, [r1, #12]
 8003a1a:	0452      	lsls	r2, r2, #17
 8003a1c:	432a      	orrs	r2, r5
 8003a1e:	60ca      	str	r2, [r1, #12]
 8003a20:	025a      	lsls	r2, r3, #9
 8003a22:	d50d      	bpl.n	8003a40 <HAL_RCCEx_PeriphCLKConfig+0x19c>
 8003a24:	4d14      	ldr	r5, [pc, #80]	@ (8003a78 <HAL_RCCEx_PeriphCLKConfig+0x1d4>)
 8003a26:	4e1e      	ldr	r6, [pc, #120]	@ (8003aa0 <HAL_RCCEx_PeriphCLKConfig+0x1fc>)
 8003a28:	6d69      	ldr	r1, [r5, #84]	@ 0x54
 8003a2a:	6ae2      	ldr	r2, [r4, #44]	@ 0x2c
 8003a2c:	4031      	ands	r1, r6
 8003a2e:	4311      	orrs	r1, r2
 8003a30:	6569      	str	r1, [r5, #84]	@ 0x54
 8003a32:	2180      	movs	r1, #128	@ 0x80
 8003a34:	0449      	lsls	r1, r1, #17
 8003a36:	428a      	cmp	r2, r1
 8003a38:	d102      	bne.n	8003a40 <HAL_RCCEx_PeriphCLKConfig+0x19c>
 8003a3a:	68e9      	ldr	r1, [r5, #12]
 8003a3c:	430a      	orrs	r2, r1
 8003a3e:	60ea      	str	r2, [r5, #12]
 8003a40:	051b      	lsls	r3, r3, #20
 8003a42:	d50f      	bpl.n	8003a64 <HAL_RCCEx_PeriphCLKConfig+0x1c0>
 8003a44:	4a0c      	ldr	r2, [pc, #48]	@ (8003a78 <HAL_RCCEx_PeriphCLKConfig+0x1d4>)
 8003a46:	6961      	ldr	r1, [r4, #20]
 8003a48:	6d53      	ldr	r3, [r2, #84]	@ 0x54
 8003a4a:	4c16      	ldr	r4, [pc, #88]	@ (8003aa4 <HAL_RCCEx_PeriphCLKConfig+0x200>)
 8003a4c:	4023      	ands	r3, r4
 8003a4e:	430b      	orrs	r3, r1
 8003a50:	6553      	str	r3, [r2, #84]	@ 0x54
 8003a52:	2380      	movs	r3, #128	@ 0x80
 8003a54:	01db      	lsls	r3, r3, #7
 8003a56:	4299      	cmp	r1, r3
 8003a58:	d104      	bne.n	8003a64 <HAL_RCCEx_PeriphCLKConfig+0x1c0>
 8003a5a:	2380      	movs	r3, #128	@ 0x80
 8003a5c:	68d1      	ldr	r1, [r2, #12]
 8003a5e:	025b      	lsls	r3, r3, #9
 8003a60:	430b      	orrs	r3, r1
 8003a62:	60d3      	str	r3, [r2, #12]
 8003a64:	b005      	add	sp, #20
 8003a66:	bdf0      	pop	{r4, r5, r6, r7, pc}
 8003a68:	f7fe fea8 	bl	80027bc <HAL_GetTick>
 8003a6c:	4b0e      	ldr	r3, [pc, #56]	@ (8003aa8 <HAL_RCCEx_PeriphCLKConfig+0x204>)
 8003a6e:	1b80      	subs	r0, r0, r6
 8003a70:	4298      	cmp	r0, r3
 8003a72:	d800      	bhi.n	8003a76 <HAL_RCCEx_PeriphCLKConfig+0x1d2>
 8003a74:	e756      	b.n	8003924 <HAL_RCCEx_PeriphCLKConfig+0x80>
 8003a76:	e767      	b.n	8003948 <HAL_RCCEx_PeriphCLKConfig+0xa4>
 8003a78:	40021000 	.word	0x40021000
 8003a7c:	40007000 	.word	0x40007000
 8003a80:	fffffcff 	.word	0xfffffcff
 8003a84:	fffeffff 	.word	0xfffeffff
 8003a88:	efffffff 	.word	0xefffffff
 8003a8c:	fffff3ff 	.word	0xfffff3ff
 8003a90:	fff3ffff 	.word	0xfff3ffff
 8003a94:	ffcfffff 	.word	0xffcfffff
 8003a98:	ffffcfff 	.word	0xffffcfff
 8003a9c:	ffbfffff 	.word	0xffbfffff
 8003aa0:	feffffff 	.word	0xfeffffff
 8003aa4:	ffff3fff 	.word	0xffff3fff
 8003aa8:	00001388 	.word	0x00001388

08003aac <UART_EndRxTransfer>:
 8003aac:	b530      	push	{r4, r5, lr}
 8003aae:	f3ef 8410 	mrs	r4, PRIMASK
 8003ab2:	2201      	movs	r2, #1
 8003ab4:	f382 8810 	msr	PRIMASK, r2
 8003ab8:	6801      	ldr	r1, [r0, #0]
 8003aba:	4d13      	ldr	r5, [pc, #76]	@ (8003b08 <UART_EndRxTransfer+0x5c>)
 8003abc:	680b      	ldr	r3, [r1, #0]
 8003abe:	402b      	ands	r3, r5
 8003ac0:	600b      	str	r3, [r1, #0]
 8003ac2:	f384 8810 	msr	PRIMASK, r4
 8003ac6:	f3ef 8110 	mrs	r1, PRIMASK
 8003aca:	f382 8810 	msr	PRIMASK, r2
 8003ace:	6802      	ldr	r2, [r0, #0]
 8003ad0:	4c0e      	ldr	r4, [pc, #56]	@ (8003b0c <UART_EndRxTransfer+0x60>)
 8003ad2:	6893      	ldr	r3, [r2, #8]
 8003ad4:	4023      	ands	r3, r4
 8003ad6:	6093      	str	r3, [r2, #8]
 8003ad8:	f381 8810 	msr	PRIMASK, r1
 8003adc:	6ec3      	ldr	r3, [r0, #108]	@ 0x6c
 8003ade:	2b01      	cmp	r3, #1
 8003ae0:	d10a      	bne.n	8003af8 <UART_EndRxTransfer+0x4c>
 8003ae2:	f3ef 8110 	mrs	r1, PRIMASK
 8003ae6:	f383 8810 	msr	PRIMASK, r3
 8003aea:	2410      	movs	r4, #16
 8003aec:	6802      	ldr	r2, [r0, #0]
 8003aee:	6813      	ldr	r3, [r2, #0]
 8003af0:	43a3      	bics	r3, r4
 8003af2:	6013      	str	r3, [r2, #0]
 8003af4:	f381 8810 	msr	PRIMASK, r1
 8003af8:	0003      	movs	r3, r0
 8003afa:	2220      	movs	r2, #32
 8003afc:	338c      	adds	r3, #140	@ 0x8c
 8003afe:	601a      	str	r2, [r3, #0]
 8003b00:	2300      	movs	r3, #0
 8003b02:	66c3      	str	r3, [r0, #108]	@ 0x6c
 8003b04:	6743      	str	r3, [r0, #116]	@ 0x74
 8003b06:	bd30      	pop	{r4, r5, pc}
 8003b08:	fffffedf 	.word	0xfffffedf
 8003b0c:	effffffe 	.word	0xeffffffe

08003b10 <HAL_UART_DeInit>:
 8003b10:	b570      	push	{r4, r5, r6, lr}
 8003b12:	0005      	movs	r5, r0
 8003b14:	2001      	movs	r0, #1
 8003b16:	2d00      	cmp	r5, #0
 8003b18:	d019      	beq.n	8003b4e <HAL_UART_DeInit+0x3e>
 8003b1a:	002e      	movs	r6, r5
 8003b1c:	2324      	movs	r3, #36	@ 0x24
 8003b1e:	2400      	movs	r4, #0
 8003b20:	3688      	adds	r6, #136	@ 0x88
 8003b22:	6033      	str	r3, [r6, #0]
 8003b24:	682b      	ldr	r3, [r5, #0]
 8003b26:	681a      	ldr	r2, [r3, #0]
 8003b28:	4382      	bics	r2, r0
 8003b2a:	601a      	str	r2, [r3, #0]
 8003b2c:	0028      	movs	r0, r5
 8003b2e:	601c      	str	r4, [r3, #0]
 8003b30:	605c      	str	r4, [r3, #4]
 8003b32:	609c      	str	r4, [r3, #8]
 8003b34:	f001 f85a 	bl	8004bec <HAL_UART_MspDeInit>
 8003b38:	002b      	movs	r3, r5
 8003b3a:	0020      	movs	r0, r4
 8003b3c:	3390      	adds	r3, #144	@ 0x90
 8003b3e:	601c      	str	r4, [r3, #0]
 8003b40:	3b04      	subs	r3, #4
 8003b42:	6034      	str	r4, [r6, #0]
 8003b44:	601c      	str	r4, [r3, #0]
 8003b46:	66ec      	str	r4, [r5, #108]	@ 0x6c
 8003b48:	672c      	str	r4, [r5, #112]	@ 0x70
 8003b4a:	3584      	adds	r5, #132	@ 0x84
 8003b4c:	702c      	strb	r4, [r5, #0]
 8003b4e:	bd70      	pop	{r4, r5, r6, pc}

08003b50 <UART_SetConfig>:
 8003b50:	b5f8      	push	{r3, r4, r5, r6, r7, lr}
 8003b52:	0004      	movs	r4, r0
 8003b54:	6925      	ldr	r5, [r4, #16]
 8003b56:	68a2      	ldr	r2, [r4, #8]
 8003b58:	6803      	ldr	r3, [r0, #0]
 8003b5a:	432a      	orrs	r2, r5
 8003b5c:	6965      	ldr	r5, [r4, #20]
 8003b5e:	6819      	ldr	r1, [r3, #0]
 8003b60:	69c0      	ldr	r0, [r0, #28]
 8003b62:	432a      	orrs	r2, r5
 8003b64:	4d77      	ldr	r5, [pc, #476]	@ (8003d44 <UART_SetConfig+0x1f4>)
 8003b66:	4302      	orrs	r2, r0
 8003b68:	4029      	ands	r1, r5
 8003b6a:	430a      	orrs	r2, r1
 8003b6c:	601a      	str	r2, [r3, #0]
 8003b6e:	685a      	ldr	r2, [r3, #4]
 8003b70:	4975      	ldr	r1, [pc, #468]	@ (8003d48 <UART_SetConfig+0x1f8>)
 8003b72:	69a5      	ldr	r5, [r4, #24]
 8003b74:	400a      	ands	r2, r1
 8003b76:	68e1      	ldr	r1, [r4, #12]
 8003b78:	430a      	orrs	r2, r1
 8003b7a:	4974      	ldr	r1, [pc, #464]	@ (8003d4c <UART_SetConfig+0x1fc>)
 8003b7c:	605a      	str	r2, [r3, #4]
 8003b7e:	428b      	cmp	r3, r1
 8003b80:	d001      	beq.n	8003b86 <UART_SetConfig+0x36>
 8003b82:	6a22      	ldr	r2, [r4, #32]
 8003b84:	4315      	orrs	r5, r2
 8003b86:	689a      	ldr	r2, [r3, #8]
 8003b88:	4e71      	ldr	r6, [pc, #452]	@ (8003d50 <UART_SetConfig+0x200>)
 8003b8a:	4032      	ands	r2, r6
 8003b8c:	432a      	orrs	r2, r5
 8003b8e:	250f      	movs	r5, #15
 8003b90:	609a      	str	r2, [r3, #8]
 8003b92:	6ada      	ldr	r2, [r3, #44]	@ 0x2c
 8003b94:	43aa      	bics	r2, r5
 8003b96:	6a65      	ldr	r5, [r4, #36]	@ 0x24
 8003b98:	432a      	orrs	r2, r5
 8003b9a:	62da      	str	r2, [r3, #44]	@ 0x2c
 8003b9c:	4a6d      	ldr	r2, [pc, #436]	@ (8003d54 <UART_SetConfig+0x204>)
 8003b9e:	4293      	cmp	r3, r2
 8003ba0:	d113      	bne.n	8003bca <UART_SetConfig+0x7a>
 8003ba2:	4b6d      	ldr	r3, [pc, #436]	@ (8003d58 <UART_SetConfig+0x208>)
 8003ba4:	6d5a      	ldr	r2, [r3, #84]	@ 0x54
 8003ba6:	2303      	movs	r3, #3
 8003ba8:	401a      	ands	r2, r3
 8003baa:	2380      	movs	r3, #128	@ 0x80
 8003bac:	021b      	lsls	r3, r3, #8
 8003bae:	2a02      	cmp	r2, #2
 8003bb0:	d100      	bne.n	8003bb4 <UART_SetConfig+0x64>
 8003bb2:	e0c3      	b.n	8003d3c <UART_SetConfig+0x1ec>
 8003bb4:	2a03      	cmp	r2, #3
 8003bb6:	d01f      	beq.n	8003bf8 <UART_SetConfig+0xa8>
 8003bb8:	2a01      	cmp	r2, #1
 8003bba:	d000      	beq.n	8003bbe <UART_SetConfig+0x6e>
 8003bbc:	e0a2      	b.n	8003d04 <UART_SetConfig+0x1b4>
 8003bbe:	4298      	cmp	r0, r3
 8003bc0:	d000      	beq.n	8003bc4 <UART_SetConfig+0x74>
 8003bc2:	e09a      	b.n	8003cfa <UART_SetConfig+0x1aa>
 8003bc4:	f7ff fd68 	bl	8003698 <HAL_RCC_GetSysClockFreq>
 8003bc8:	e076      	b.n	8003cb8 <UART_SetConfig+0x168>
 8003bca:	4a64      	ldr	r2, [pc, #400]	@ (8003d5c <UART_SetConfig+0x20c>)
 8003bcc:	4293      	cmp	r3, r2
 8003bce:	d117      	bne.n	8003c00 <UART_SetConfig+0xb0>
 8003bd0:	220c      	movs	r2, #12
 8003bd2:	4b61      	ldr	r3, [pc, #388]	@ (8003d58 <UART_SetConfig+0x208>)
 8003bd4:	6d5b      	ldr	r3, [r3, #84]	@ 0x54
 8003bd6:	4013      	ands	r3, r2
 8003bd8:	2b08      	cmp	r3, #8
 8003bda:	d100      	bne.n	8003bde <UART_SetConfig+0x8e>
 8003bdc:	e0ac      	b.n	8003d38 <UART_SetConfig+0x1e8>
 8003bde:	d807      	bhi.n	8003bf0 <UART_SetConfig+0xa0>
 8003be0:	2b00      	cmp	r3, #0
 8003be2:	d100      	bne.n	8003be6 <UART_SetConfig+0x96>
 8003be4:	e08c      	b.n	8003d00 <UART_SetConfig+0x1b0>
 8003be6:	2b04      	cmp	r3, #4
 8003be8:	d100      	bne.n	8003bec <UART_SetConfig+0x9c>
 8003bea:	e0a2      	b.n	8003d32 <UART_SetConfig+0x1e2>
 8003bec:	2001      	movs	r0, #1
 8003bee:	e026      	b.n	8003c3e <UART_SetConfig+0xee>
 8003bf0:	2b0c      	cmp	r3, #12
 8003bf2:	d1fb      	bne.n	8003bec <UART_SetConfig+0x9c>
 8003bf4:	2380      	movs	r3, #128	@ 0x80
 8003bf6:	021b      	lsls	r3, r3, #8
 8003bf8:	4298      	cmp	r0, r3
 8003bfa:	d05f      	beq.n	8003cbc <UART_SetConfig+0x16c>
 8003bfc:	0018      	movs	r0, r3
 8003bfe:	e088      	b.n	8003d12 <UART_SetConfig+0x1c2>
 8003c00:	4a57      	ldr	r2, [pc, #348]	@ (8003d60 <UART_SetConfig+0x210>)
 8003c02:	4293      	cmp	r3, r2
 8003c04:	d100      	bne.n	8003c08 <UART_SetConfig+0xb8>
 8003c06:	e07b      	b.n	8003d00 <UART_SetConfig+0x1b0>
 8003c08:	4a56      	ldr	r2, [pc, #344]	@ (8003d64 <UART_SetConfig+0x214>)
 8003c0a:	4293      	cmp	r3, r2
 8003c0c:	d100      	bne.n	8003c10 <UART_SetConfig+0xc0>
 8003c0e:	e077      	b.n	8003d00 <UART_SetConfig+0x1b0>
 8003c10:	428b      	cmp	r3, r1
 8003c12:	d1eb      	bne.n	8003bec <UART_SetConfig+0x9c>
 8003c14:	22c0      	movs	r2, #192	@ 0xc0
 8003c16:	2180      	movs	r1, #128	@ 0x80
 8003c18:	4b4f      	ldr	r3, [pc, #316]	@ (8003d58 <UART_SetConfig+0x208>)
 8003c1a:	0112      	lsls	r2, r2, #4
 8003c1c:	6d5b      	ldr	r3, [r3, #84]	@ 0x54
 8003c1e:	0109      	lsls	r1, r1, #4
 8003c20:	4013      	ands	r3, r2
 8003c22:	428b      	cmp	r3, r1
 8003c24:	d019      	beq.n	8003c5a <UART_SetConfig+0x10a>
 8003c26:	d810      	bhi.n	8003c4a <UART_SetConfig+0xfa>
 8003c28:	2b00      	cmp	r3, #0
 8003c2a:	d013      	beq.n	8003c54 <UART_SetConfig+0x104>
 8003c2c:	2280      	movs	r2, #128	@ 0x80
 8003c2e:	00d2      	lsls	r2, r2, #3
 8003c30:	4293      	cmp	r3, r2
 8003c32:	d1db      	bne.n	8003bec <UART_SetConfig+0x9c>
 8003c34:	f7ff fd30 	bl	8003698 <HAL_RCC_GetSysClockFreq>
 8003c38:	1e06      	subs	r6, r0, #0
 8003c3a:	d10f      	bne.n	8003c5c <UART_SetConfig+0x10c>
 8003c3c:	2000      	movs	r0, #0
 8003c3e:	4b4a      	ldr	r3, [pc, #296]	@ (8003d68 <UART_SetConfig+0x218>)
 8003c40:	66a3      	str	r3, [r4, #104]	@ 0x68
 8003c42:	2300      	movs	r3, #0
 8003c44:	6763      	str	r3, [r4, #116]	@ 0x74
 8003c46:	67a3      	str	r3, [r4, #120]	@ 0x78
 8003c48:	bdf8      	pop	{r3, r4, r5, r6, r7, pc}
 8003c4a:	4293      	cmp	r3, r2
 8003c4c:	d1ce      	bne.n	8003bec <UART_SetConfig+0x9c>
 8003c4e:	2680      	movs	r6, #128	@ 0x80
 8003c50:	0236      	lsls	r6, r6, #8
 8003c52:	e003      	b.n	8003c5c <UART_SetConfig+0x10c>
 8003c54:	f7ff fe12 	bl	800387c <HAL_RCC_GetPCLK1Freq>
 8003c58:	e7ee      	b.n	8003c38 <UART_SetConfig+0xe8>
 8003c5a:	4e44      	ldr	r6, [pc, #272]	@ (8003d6c <UART_SetConfig+0x21c>)
 8003c5c:	6a62      	ldr	r2, [r4, #36]	@ 0x24
 8003c5e:	4b44      	ldr	r3, [pc, #272]	@ (8003d70 <UART_SetConfig+0x220>)
 8003c60:	0052      	lsls	r2, r2, #1
 8003c62:	5ad7      	ldrh	r7, [r2, r3]
 8003c64:	0030      	movs	r0, r6
 8003c66:	0039      	movs	r1, r7
 8003c68:	f7fc fa54 	bl	8000114 <__udivsi3>
 8003c6c:	2303      	movs	r3, #3
 8003c6e:	6865      	ldr	r5, [r4, #4]
 8003c70:	436b      	muls	r3, r5
 8003c72:	4283      	cmp	r3, r0
 8003c74:	d8ba      	bhi.n	8003bec <UART_SetConfig+0x9c>
 8003c76:	032b      	lsls	r3, r5, #12
 8003c78:	4283      	cmp	r3, r0
 8003c7a:	d3b7      	bcc.n	8003bec <UART_SetConfig+0x9c>
 8003c7c:	2300      	movs	r3, #0
 8003c7e:	003a      	movs	r2, r7
 8003c80:	0030      	movs	r0, r6
 8003c82:	0019      	movs	r1, r3
 8003c84:	f7fc fbfa 	bl	800047c <__aeabi_uldivmod>
 8003c88:	2700      	movs	r7, #0
 8003c8a:	0e06      	lsrs	r6, r0, #24
 8003c8c:	020b      	lsls	r3, r1, #8
 8003c8e:	4333      	orrs	r3, r6
 8003c90:	0202      	lsls	r2, r0, #8
 8003c92:	086e      	lsrs	r6, r5, #1
 8003c94:	1992      	adds	r2, r2, r6
 8003c96:	417b      	adcs	r3, r7
 8003c98:	0010      	movs	r0, r2
 8003c9a:	0019      	movs	r1, r3
 8003c9c:	002a      	movs	r2, r5
 8003c9e:	003b      	movs	r3, r7
 8003ca0:	f7fc fbec 	bl	800047c <__aeabi_uldivmod>
 8003ca4:	4b33      	ldr	r3, [pc, #204]	@ (8003d74 <UART_SetConfig+0x224>)
 8003ca6:	18c2      	adds	r2, r0, r3
 8003ca8:	4b33      	ldr	r3, [pc, #204]	@ (8003d78 <UART_SetConfig+0x228>)
 8003caa:	429a      	cmp	r2, r3
 8003cac:	d89e      	bhi.n	8003bec <UART_SetConfig+0x9c>
 8003cae:	6823      	ldr	r3, [r4, #0]
 8003cb0:	60d8      	str	r0, [r3, #12]
 8003cb2:	e7c3      	b.n	8003c3c <UART_SetConfig+0xec>
 8003cb4:	f7ff fde2 	bl	800387c <HAL_RCC_GetPCLK1Freq>
 8003cb8:	2800      	cmp	r0, #0
 8003cba:	d0bf      	beq.n	8003c3c <UART_SetConfig+0xec>
 8003cbc:	6a62      	ldr	r2, [r4, #36]	@ 0x24
 8003cbe:	4b2c      	ldr	r3, [pc, #176]	@ (8003d70 <UART_SetConfig+0x220>)
 8003cc0:	0052      	lsls	r2, r2, #1
 8003cc2:	5ad1      	ldrh	r1, [r2, r3]
 8003cc4:	f7fc fa26 	bl	8000114 <__udivsi3>
 8003cc8:	6865      	ldr	r5, [r4, #4]
 8003cca:	0040      	lsls	r0, r0, #1
 8003ccc:	086b      	lsrs	r3, r5, #1
 8003cce:	18c0      	adds	r0, r0, r3
 8003cd0:	0029      	movs	r1, r5
 8003cd2:	f7fc fa1f 	bl	8000114 <__udivsi3>
 8003cd6:	0002      	movs	r2, r0
 8003cd8:	4b28      	ldr	r3, [pc, #160]	@ (8003d7c <UART_SetConfig+0x22c>)
 8003cda:	3a10      	subs	r2, #16
 8003cdc:	429a      	cmp	r2, r3
 8003cde:	d900      	bls.n	8003ce2 <UART_SetConfig+0x192>
 8003ce0:	e784      	b.n	8003bec <UART_SetConfig+0x9c>
 8003ce2:	230f      	movs	r3, #15
 8003ce4:	0002      	movs	r2, r0
 8003ce6:	0700      	lsls	r0, r0, #28
 8003ce8:	439a      	bics	r2, r3
 8003cea:	b293      	uxth	r3, r2
 8003cec:	0f40      	lsrs	r0, r0, #29
 8003cee:	6822      	ldr	r2, [r4, #0]
 8003cf0:	4303      	orrs	r3, r0
 8003cf2:	60d3      	str	r3, [r2, #12]
 8003cf4:	e7a2      	b.n	8003c3c <UART_SetConfig+0xec>
 8003cf6:	481d      	ldr	r0, [pc, #116]	@ (8003d6c <UART_SetConfig+0x21c>)
 8003cf8:	e7e0      	b.n	8003cbc <UART_SetConfig+0x16c>
 8003cfa:	f7ff fccd 	bl	8003698 <HAL_RCC_GetSysClockFreq>
 8003cfe:	e005      	b.n	8003d0c <UART_SetConfig+0x1bc>
 8003d00:	2380      	movs	r3, #128	@ 0x80
 8003d02:	021b      	lsls	r3, r3, #8
 8003d04:	4298      	cmp	r0, r3
 8003d06:	d0d5      	beq.n	8003cb4 <UART_SetConfig+0x164>
 8003d08:	f7ff fdb8 	bl	800387c <HAL_RCC_GetPCLK1Freq>
 8003d0c:	2800      	cmp	r0, #0
 8003d0e:	d100      	bne.n	8003d12 <UART_SetConfig+0x1c2>
 8003d10:	e794      	b.n	8003c3c <UART_SetConfig+0xec>
 8003d12:	6a62      	ldr	r2, [r4, #36]	@ 0x24
 8003d14:	4b16      	ldr	r3, [pc, #88]	@ (8003d70 <UART_SetConfig+0x220>)
 8003d16:	0052      	lsls	r2, r2, #1
 8003d18:	5ad1      	ldrh	r1, [r2, r3]
 8003d1a:	f7fc f9fb 	bl	8000114 <__udivsi3>
 8003d1e:	6865      	ldr	r5, [r4, #4]
 8003d20:	086b      	lsrs	r3, r5, #1
 8003d22:	18c0      	adds	r0, r0, r3
 8003d24:	0029      	movs	r1, r5
 8003d26:	f7fc f9f5 	bl	8000114 <__udivsi3>
 8003d2a:	0002      	movs	r2, r0
 8003d2c:	4b13      	ldr	r3, [pc, #76]	@ (8003d7c <UART_SetConfig+0x22c>)
 8003d2e:	3a10      	subs	r2, #16
 8003d30:	e7bb      	b.n	8003caa <UART_SetConfig+0x15a>
 8003d32:	2380      	movs	r3, #128	@ 0x80
 8003d34:	021b      	lsls	r3, r3, #8
 8003d36:	e742      	b.n	8003bbe <UART_SetConfig+0x6e>
 8003d38:	2380      	movs	r3, #128	@ 0x80
 8003d3a:	021b      	lsls	r3, r3, #8
 8003d3c:	4298      	cmp	r0, r3
 8003d3e:	d0da      	beq.n	8003cf6 <UART_SetConfig+0x1a6>
 8003d40:	480a      	ldr	r0, [pc, #40]	@ (8003d6c <UART_SetConfig+0x21c>)
 8003d42:	e7e6      	b.n	8003d12 <UART_SetConfig+0x1c2>
 8003d44:	cfff69f3 	.word	0xcfff69f3
 8003d48:	ffffcfff 	.word	0xffffcfff
 8003d4c:	40008000 	.word	0x40008000
 8003d50:	11fff4ff 	.word	0x11fff4ff
 8003d54:	40013800 	.word	0x40013800
 8003d58:	40021000 	.word	0x40021000
 8003d5c:	40004400 	.word	0x40004400
 8003d60:	40004800 	.word	0x40004800
 8003d64:	40004c00 	.word	0x40004c00
 8003d68:	00010001 	.word	0x00010001
 8003d6c:	00f42400 	.word	0x00f42400
 8003d70:	08005c70 	.word	0x08005c70
 8003d74:	fffffd00 	.word	0xfffffd00
 8003d78:	000ffcff 	.word	0x000ffcff
 8003d7c:	0000ffef 	.word	0x0000ffef

08003d80 <UART_AdvFeatureConfig>:
 8003d80:	6a83      	ldr	r3, [r0, #40]	@ 0x28
 8003d82:	b530      	push	{r4, r5, lr}
 8003d84:	071a      	lsls	r2, r3, #28
 8003d86:	d506      	bpl.n	8003d96 <UART_AdvFeatureConfig+0x16>
 8003d88:	6801      	ldr	r1, [r0, #0]
 8003d8a:	4c28      	ldr	r4, [pc, #160]	@ (8003e2c <UART_AdvFeatureConfig+0xac>)
 8003d8c:	684a      	ldr	r2, [r1, #4]
 8003d8e:	4022      	ands	r2, r4
 8003d90:	6b84      	ldr	r4, [r0, #56]	@ 0x38
 8003d92:	4322      	orrs	r2, r4
 8003d94:	604a      	str	r2, [r1, #4]
 8003d96:	07da      	lsls	r2, r3, #31
 8003d98:	d506      	bpl.n	8003da8 <UART_AdvFeatureConfig+0x28>
 8003d9a:	6801      	ldr	r1, [r0, #0]
 8003d9c:	4c24      	ldr	r4, [pc, #144]	@ (8003e30 <UART_AdvFeatureConfig+0xb0>)
 8003d9e:	684a      	ldr	r2, [r1, #4]
 8003da0:	4022      	ands	r2, r4
 8003da2:	6ac4      	ldr	r4, [r0, #44]	@ 0x2c
 8003da4:	4322      	orrs	r2, r4
 8003da6:	604a      	str	r2, [r1, #4]
 8003da8:	079a      	lsls	r2, r3, #30
 8003daa:	d506      	bpl.n	8003dba <UART_AdvFeatureConfig+0x3a>
 8003dac:	6801      	ldr	r1, [r0, #0]
 8003dae:	4c21      	ldr	r4, [pc, #132]	@ (8003e34 <UART_AdvFeatureConfig+0xb4>)
 8003db0:	684a      	ldr	r2, [r1, #4]
 8003db2:	4022      	ands	r2, r4
 8003db4:	6b04      	ldr	r4, [r0, #48]	@ 0x30
 8003db6:	4322      	orrs	r2, r4
 8003db8:	604a      	str	r2, [r1, #4]
 8003dba:	075a      	lsls	r2, r3, #29
 8003dbc:	d506      	bpl.n	8003dcc <UART_AdvFeatureConfig+0x4c>
 8003dbe:	6801      	ldr	r1, [r0, #0]
 8003dc0:	4c1d      	ldr	r4, [pc, #116]	@ (8003e38 <UART_AdvFeatureConfig+0xb8>)
 8003dc2:	684a      	ldr	r2, [r1, #4]
 8003dc4:	4022      	ands	r2, r4
 8003dc6:	6b44      	ldr	r4, [r0, #52]	@ 0x34
 8003dc8:	4322      	orrs	r2, r4
 8003dca:	604a      	str	r2, [r1, #4]
 8003dcc:	06da      	lsls	r2, r3, #27
 8003dce:	d506      	bpl.n	8003dde <UART_AdvFeatureConfig+0x5e>
 8003dd0:	6801      	ldr	r1, [r0, #0]
 8003dd2:	4c1a      	ldr	r4, [pc, #104]	@ (8003e3c <UART_AdvFeatureConfig+0xbc>)
 8003dd4:	688a      	ldr	r2, [r1, #8]
 8003dd6:	4022      	ands	r2, r4
 8003dd8:	6bc4      	ldr	r4, [r0, #60]	@ 0x3c
 8003dda:	4322      	orrs	r2, r4
 8003ddc:	608a      	str	r2, [r1, #8]
 8003dde:	069a      	lsls	r2, r3, #26
 8003de0:	d506      	bpl.n	8003df0 <UART_AdvFeatureConfig+0x70>
 8003de2:	6801      	ldr	r1, [r0, #0]
 8003de4:	4c16      	ldr	r4, [pc, #88]	@ (8003e40 <UART_AdvFeatureConfig+0xc0>)
 8003de6:	688a      	ldr	r2, [r1, #8]
 8003de8:	4022      	ands	r2, r4
 8003dea:	6c04      	ldr	r4, [r0, #64]	@ 0x40
 8003dec:	4322      	orrs	r2, r4
 8003dee:	608a      	str	r2, [r1, #8]
 8003df0:	065a      	lsls	r2, r3, #25
 8003df2:	d510      	bpl.n	8003e16 <UART_AdvFeatureConfig+0x96>
 8003df4:	6801      	ldr	r1, [r0, #0]
 8003df6:	4d13      	ldr	r5, [pc, #76]	@ (8003e44 <UART_AdvFeatureConfig+0xc4>)
 8003df8:	684a      	ldr	r2, [r1, #4]
 8003dfa:	6c44      	ldr	r4, [r0, #68]	@ 0x44
 8003dfc:	402a      	ands	r2, r5
 8003dfe:	4322      	orrs	r2, r4
 8003e00:	604a      	str	r2, [r1, #4]
 8003e02:	2280      	movs	r2, #128	@ 0x80
 8003e04:	0352      	lsls	r2, r2, #13
 8003e06:	4294      	cmp	r4, r2
 8003e08:	d105      	bne.n	8003e16 <UART_AdvFeatureConfig+0x96>
 8003e0a:	684a      	ldr	r2, [r1, #4]
 8003e0c:	4c0e      	ldr	r4, [pc, #56]	@ (8003e48 <UART_AdvFeatureConfig+0xc8>)
 8003e0e:	4022      	ands	r2, r4
 8003e10:	6c84      	ldr	r4, [r0, #72]	@ 0x48
 8003e12:	4322      	orrs	r2, r4
 8003e14:	604a      	str	r2, [r1, #4]
 8003e16:	061b      	lsls	r3, r3, #24
 8003e18:	d506      	bpl.n	8003e28 <UART_AdvFeatureConfig+0xa8>
 8003e1a:	6802      	ldr	r2, [r0, #0]
 8003e1c:	490b      	ldr	r1, [pc, #44]	@ (8003e4c <UART_AdvFeatureConfig+0xcc>)
 8003e1e:	6853      	ldr	r3, [r2, #4]
 8003e20:	400b      	ands	r3, r1
 8003e22:	6cc1      	ldr	r1, [r0, #76]	@ 0x4c
 8003e24:	430b      	orrs	r3, r1
 8003e26:	6053      	str	r3, [r2, #4]
 8003e28:	bd30      	pop	{r4, r5, pc}
 8003e2a:	46c0      	nop			@ (mov r8, r8)
 8003e2c:	ffff7fff 	.word	0xffff7fff
 8003e30:	fffdffff 	.word	0xfffdffff
 8003e34:	fffeffff 	.word	0xfffeffff
 8003e38:	fffbffff 	.word	0xfffbffff
 8003e3c:	ffffefff 	.word	0xffffefff
 8003e40:	ffffdfff 	.word	0xffffdfff
 8003e44:	ffefffff 	.word	0xffefffff
 8003e48:	ff9fffff 	.word	0xff9fffff
 8003e4c:	fff7ffff 	.word	0xfff7ffff

08003e50 <UART_WaitOnFlagUntilTimeout>:
 8003e50:	b5f7      	push	{r0, r1, r2, r4, r5, r6, r7, lr}
 8003e52:	0004      	movs	r4, r0
 8003e54:	000d      	movs	r5, r1
 8003e56:	0017      	movs	r7, r2
 8003e58:	9300      	str	r3, [sp, #0]
 8003e5a:	6822      	ldr	r2, [r4, #0]
 8003e5c:	69d3      	ldr	r3, [r2, #28]
 8003e5e:	402b      	ands	r3, r5
 8003e60:	1b5b      	subs	r3, r3, r5
 8003e62:	4259      	negs	r1, r3
 8003e64:	414b      	adcs	r3, r1
 8003e66:	42bb      	cmp	r3, r7
 8003e68:	d001      	beq.n	8003e6e <UART_WaitOnFlagUntilTimeout+0x1e>
 8003e6a:	2000      	movs	r0, #0
 8003e6c:	e026      	b.n	8003ebc <UART_WaitOnFlagUntilTimeout+0x6c>
 8003e6e:	9b08      	ldr	r3, [sp, #32]
 8003e70:	3301      	adds	r3, #1
 8003e72:	d0f3      	beq.n	8003e5c <UART_WaitOnFlagUntilTimeout+0xc>
 8003e74:	f7fe fca2 	bl	80027bc <HAL_GetTick>
 8003e78:	9b00      	ldr	r3, [sp, #0]
 8003e7a:	1ac0      	subs	r0, r0, r3
 8003e7c:	9b08      	ldr	r3, [sp, #32]
 8003e7e:	4298      	cmp	r0, r3
 8003e80:	d82d      	bhi.n	8003ede <UART_WaitOnFlagUntilTimeout+0x8e>
 8003e82:	2b00      	cmp	r3, #0
 8003e84:	d02b      	beq.n	8003ede <UART_WaitOnFlagUntilTimeout+0x8e>
 8003e86:	6823      	ldr	r3, [r4, #0]
 8003e88:	681a      	ldr	r2, [r3, #0]
 8003e8a:	0752      	lsls	r2, r2, #29
 8003e8c:	d5e5      	bpl.n	8003e5a <UART_WaitOnFlagUntilTimeout+0xa>
 8003e8e:	002a      	movs	r2, r5
 8003e90:	2140      	movs	r1, #64	@ 0x40
 8003e92:	3a40      	subs	r2, #64	@ 0x40
 8003e94:	438a      	bics	r2, r1
 8003e96:	d0e0      	beq.n	8003e5a <UART_WaitOnFlagUntilTimeout+0xa>
 8003e98:	69da      	ldr	r2, [r3, #28]
 8003e9a:	2608      	movs	r6, #8
 8003e9c:	0011      	movs	r1, r2
 8003e9e:	4031      	ands	r1, r6
 8003ea0:	9101      	str	r1, [sp, #4]
 8003ea2:	4232      	tst	r2, r6
 8003ea4:	d00b      	beq.n	8003ebe <UART_WaitOnFlagUntilTimeout+0x6e>
 8003ea6:	0020      	movs	r0, r4
 8003ea8:	621e      	str	r6, [r3, #32]
 8003eaa:	f7ff fdff 	bl	8003aac <UART_EndRxTransfer>
 8003eae:	0023      	movs	r3, r4
 8003eb0:	3390      	adds	r3, #144	@ 0x90
 8003eb2:	601e      	str	r6, [r3, #0]
 8003eb4:	2300      	movs	r3, #0
 8003eb6:	2001      	movs	r0, #1
 8003eb8:	3484      	adds	r4, #132	@ 0x84
 8003eba:	7023      	strb	r3, [r4, #0]
 8003ebc:	bdfe      	pop	{r1, r2, r3, r4, r5, r6, r7, pc}
 8003ebe:	2280      	movs	r2, #128	@ 0x80
 8003ec0:	69d9      	ldr	r1, [r3, #28]
 8003ec2:	0112      	lsls	r2, r2, #4
 8003ec4:	4211      	tst	r1, r2
 8003ec6:	d0c8      	beq.n	8003e5a <UART_WaitOnFlagUntilTimeout+0xa>
 8003ec8:	621a      	str	r2, [r3, #32]
 8003eca:	0020      	movs	r0, r4
 8003ecc:	f7ff fdee 	bl	8003aac <UART_EndRxTransfer>
 8003ed0:	0023      	movs	r3, r4
 8003ed2:	2220      	movs	r2, #32
 8003ed4:	3390      	adds	r3, #144	@ 0x90
 8003ed6:	601a      	str	r2, [r3, #0]
 8003ed8:	9b01      	ldr	r3, [sp, #4]
 8003eda:	3484      	adds	r4, #132	@ 0x84
 8003edc:	7023      	strb	r3, [r4, #0]
 8003ede:	2003      	movs	r0, #3
 8003ee0:	e7ec      	b.n	8003ebc <UART_WaitOnFlagUntilTimeout+0x6c>

08003ee2 <HAL_UART_Transmit>:
 8003ee2:	b5f0      	push	{r4, r5, r6, r7, lr}
 8003ee4:	0017      	movs	r7, r2
 8003ee6:	0002      	movs	r2, r0
 8003ee8:	b087      	sub	sp, #28
 8003eea:	3288      	adds	r2, #136	@ 0x88
 8003eec:	9305      	str	r3, [sp, #20]
 8003eee:	6813      	ldr	r3, [r2, #0]
 8003ef0:	0004      	movs	r4, r0
 8003ef2:	000d      	movs	r5, r1
 8003ef4:	2002      	movs	r0, #2
 8003ef6:	2b20      	cmp	r3, #32
 8003ef8:	d139      	bne.n	8003f6e <HAL_UART_Transmit+0x8c>
 8003efa:	3801      	subs	r0, #1
 8003efc:	2900      	cmp	r1, #0
 8003efe:	d036      	beq.n	8003f6e <HAL_UART_Transmit+0x8c>
 8003f00:	2f00      	cmp	r7, #0
 8003f02:	d034      	beq.n	8003f6e <HAL_UART_Transmit+0x8c>
 8003f04:	2380      	movs	r3, #128	@ 0x80
 8003f06:	68a1      	ldr	r1, [r4, #8]
 8003f08:	015b      	lsls	r3, r3, #5
 8003f0a:	4299      	cmp	r1, r3
 8003f0c:	d104      	bne.n	8003f18 <HAL_UART_Transmit+0x36>
 8003f0e:	6923      	ldr	r3, [r4, #16]
 8003f10:	2b00      	cmp	r3, #0
 8003f12:	d101      	bne.n	8003f18 <HAL_UART_Transmit+0x36>
 8003f14:	4205      	tst	r5, r0
 8003f16:	d12a      	bne.n	8003f6e <HAL_UART_Transmit+0x8c>
 8003f18:	0023      	movs	r3, r4
 8003f1a:	2600      	movs	r6, #0
 8003f1c:	3390      	adds	r3, #144	@ 0x90
 8003f1e:	601e      	str	r6, [r3, #0]
 8003f20:	2321      	movs	r3, #33	@ 0x21
 8003f22:	6013      	str	r3, [r2, #0]
 8003f24:	f7fe fc4a 	bl	80027bc <HAL_GetTick>
 8003f28:	0023      	movs	r3, r4
 8003f2a:	3354      	adds	r3, #84	@ 0x54
 8003f2c:	801f      	strh	r7, [r3, #0]
 8003f2e:	3302      	adds	r3, #2
 8003f30:	9303      	str	r3, [sp, #12]
 8003f32:	801f      	strh	r7, [r3, #0]
 8003f34:	2380      	movs	r3, #128	@ 0x80
 8003f36:	68a2      	ldr	r2, [r4, #8]
 8003f38:	9004      	str	r0, [sp, #16]
 8003f3a:	015b      	lsls	r3, r3, #5
 8003f3c:	429a      	cmp	r2, r3
 8003f3e:	d104      	bne.n	8003f4a <HAL_UART_Transmit+0x68>
 8003f40:	6923      	ldr	r3, [r4, #16]
 8003f42:	42b3      	cmp	r3, r6
 8003f44:	d101      	bne.n	8003f4a <HAL_UART_Transmit+0x68>
 8003f46:	002e      	movs	r6, r5
 8003f48:	001d      	movs	r5, r3
 8003f4a:	0023      	movs	r3, r4
 8003f4c:	3356      	adds	r3, #86	@ 0x56
 8003f4e:	881b      	ldrh	r3, [r3, #0]
 8003f50:	b29a      	uxth	r2, r3
 8003f52:	2b00      	cmp	r3, #0
 8003f54:	d10d      	bne.n	8003f72 <HAL_UART_Transmit+0x90>
 8003f56:	9b05      	ldr	r3, [sp, #20]
 8003f58:	0020      	movs	r0, r4
 8003f5a:	9300      	str	r3, [sp, #0]
 8003f5c:	2140      	movs	r1, #64	@ 0x40
 8003f5e:	9b04      	ldr	r3, [sp, #16]
 8003f60:	f7ff ff76 	bl	8003e50 <UART_WaitOnFlagUntilTimeout>
 8003f64:	2320      	movs	r3, #32
 8003f66:	3488      	adds	r4, #136	@ 0x88
 8003f68:	6023      	str	r3, [r4, #0]
 8003f6a:	2800      	cmp	r0, #0
 8003f6c:	d10e      	bne.n	8003f8c <HAL_UART_Transmit+0xaa>
 8003f6e:	b007      	add	sp, #28
 8003f70:	bdf0      	pop	{r4, r5, r6, r7, pc}
 8003f72:	9b05      	ldr	r3, [sp, #20]
 8003f74:	2200      	movs	r2, #0
 8003f76:	9300      	str	r3, [sp, #0]
 8003f78:	2180      	movs	r1, #128	@ 0x80
 8003f7a:	0020      	movs	r0, r4
 8003f7c:	9b04      	ldr	r3, [sp, #16]
 8003f7e:	f7ff ff67 	bl	8003e50 <UART_WaitOnFlagUntilTimeout>
 8003f82:	2800      	cmp	r0, #0
 8003f84:	d004      	beq.n	8003f90 <HAL_UART_Transmit+0xae>
 8003f86:	2320      	movs	r3, #32
 8003f88:	3488      	adds	r4, #136	@ 0x88
 8003f8a:	6023      	str	r3, [r4, #0]
 8003f8c:	2003      	movs	r0, #3
 8003f8e:	e7ee      	b.n	8003f6e <HAL_UART_Transmit+0x8c>
 8003f90:	6822      	ldr	r2, [r4, #0]
 8003f92:	2d00      	cmp	r5, #0
 8003f94:	d10b      	bne.n	8003fae <HAL_UART_Transmit+0xcc>
 8003f96:	8833      	ldrh	r3, [r6, #0]
 8003f98:	3602      	adds	r6, #2
 8003f9a:	05db      	lsls	r3, r3, #23
 8003f9c:	0ddb      	lsrs	r3, r3, #23
 8003f9e:	6293      	str	r3, [r2, #40]	@ 0x28
 8003fa0:	9b03      	ldr	r3, [sp, #12]
 8003fa2:	9a03      	ldr	r2, [sp, #12]
 8003fa4:	881b      	ldrh	r3, [r3, #0]
 8003fa6:	3b01      	subs	r3, #1
 8003fa8:	b29b      	uxth	r3, r3
 8003faa:	8013      	strh	r3, [r2, #0]
 8003fac:	e7cd      	b.n	8003f4a <HAL_UART_Transmit+0x68>
 8003fae:	782b      	ldrb	r3, [r5, #0]
 8003fb0:	3501      	adds	r5, #1
 8003fb2:	6293      	str	r3, [r2, #40]	@ 0x28
 8003fb4:	e7f4      	b.n	8003fa0 <HAL_UART_Transmit+0xbe>
	...

08003fb8 <UART_CheckIdleState>:
 8003fb8:	0003      	movs	r3, r0
 8003fba:	b573      	push	{r0, r1, r4, r5, r6, lr}
 8003fbc:	2600      	movs	r6, #0
 8003fbe:	0004      	movs	r4, r0
 8003fc0:	3390      	adds	r3, #144	@ 0x90
 8003fc2:	601e      	str	r6, [r3, #0]
 8003fc4:	f7fe fbfa 	bl	80027bc <HAL_GetTick>
 8003fc8:	6823      	ldr	r3, [r4, #0]
 8003fca:	0005      	movs	r5, r0
 8003fcc:	681b      	ldr	r3, [r3, #0]
 8003fce:	071b      	lsls	r3, r3, #28
 8003fd0:	d51f      	bpl.n	8004012 <UART_CheckIdleState+0x5a>
 8003fd2:	2180      	movs	r1, #128	@ 0x80
 8003fd4:	4b28      	ldr	r3, [pc, #160]	@ (8004078 <UART_CheckIdleState+0xc0>)
 8003fd6:	0032      	movs	r2, r6
 8003fd8:	9300      	str	r3, [sp, #0]
 8003fda:	0389      	lsls	r1, r1, #14
 8003fdc:	0003      	movs	r3, r0
 8003fde:	0020      	movs	r0, r4
 8003fe0:	f7ff ff36 	bl	8003e50 <UART_WaitOnFlagUntilTimeout>
 8003fe4:	42b0      	cmp	r0, r6
 8003fe6:	d014      	beq.n	8004012 <UART_CheckIdleState+0x5a>
 8003fe8:	f3ef 8110 	mrs	r1, PRIMASK
 8003fec:	2301      	movs	r3, #1
 8003fee:	f383 8810 	msr	PRIMASK, r3
 8003ff2:	2080      	movs	r0, #128	@ 0x80
 8003ff4:	6822      	ldr	r2, [r4, #0]
 8003ff6:	6813      	ldr	r3, [r2, #0]
 8003ff8:	4383      	bics	r3, r0
 8003ffa:	6013      	str	r3, [r2, #0]
 8003ffc:	f381 8810 	msr	PRIMASK, r1
 8004000:	0023      	movs	r3, r4
 8004002:	2220      	movs	r2, #32
 8004004:	3388      	adds	r3, #136	@ 0x88
 8004006:	601a      	str	r2, [r3, #0]
 8004008:	2003      	movs	r0, #3
 800400a:	2300      	movs	r3, #0
 800400c:	3484      	adds	r4, #132	@ 0x84
 800400e:	7023      	strb	r3, [r4, #0]
 8004010:	bd76      	pop	{r1, r2, r4, r5, r6, pc}
 8004012:	0026      	movs	r6, r4
 8004014:	6823      	ldr	r3, [r4, #0]
 8004016:	368c      	adds	r6, #140	@ 0x8c
 8004018:	681b      	ldr	r3, [r3, #0]
 800401a:	075b      	lsls	r3, r3, #29
 800401c:	d523      	bpl.n	8004066 <UART_CheckIdleState+0xae>
 800401e:	2180      	movs	r1, #128	@ 0x80
 8004020:	4b15      	ldr	r3, [pc, #84]	@ (8004078 <UART_CheckIdleState+0xc0>)
 8004022:	2200      	movs	r2, #0
 8004024:	9300      	str	r3, [sp, #0]
 8004026:	0020      	movs	r0, r4
 8004028:	002b      	movs	r3, r5
 800402a:	03c9      	lsls	r1, r1, #15
 800402c:	f7ff ff10 	bl	8003e50 <UART_WaitOnFlagUntilTimeout>
 8004030:	2800      	cmp	r0, #0
 8004032:	d018      	beq.n	8004066 <UART_CheckIdleState+0xae>
 8004034:	f3ef 8010 	mrs	r0, PRIMASK
 8004038:	2201      	movs	r2, #1
 800403a:	f382 8810 	msr	PRIMASK, r2
 800403e:	6821      	ldr	r1, [r4, #0]
 8004040:	4d0e      	ldr	r5, [pc, #56]	@ (800407c <UART_CheckIdleState+0xc4>)
 8004042:	680b      	ldr	r3, [r1, #0]
 8004044:	402b      	ands	r3, r5
 8004046:	600b      	str	r3, [r1, #0]
 8004048:	f380 8810 	msr	PRIMASK, r0
 800404c:	f3ef 8010 	mrs	r0, PRIMASK
 8004050:	f382 8810 	msr	PRIMASK, r2
 8004054:	6821      	ldr	r1, [r4, #0]
 8004056:	688b      	ldr	r3, [r1, #8]
 8004058:	4393      	bics	r3, r2
 800405a:	608b      	str	r3, [r1, #8]
 800405c:	f380 8810 	msr	PRIMASK, r0
 8004060:	2320      	movs	r3, #32
 8004062:	6033      	str	r3, [r6, #0]
 8004064:	e7d0      	b.n	8004008 <UART_CheckIdleState+0x50>
 8004066:	0023      	movs	r3, r4
 8004068:	2220      	movs	r2, #32
 800406a:	2000      	movs	r0, #0
 800406c:	3388      	adds	r3, #136	@ 0x88
 800406e:	601a      	str	r2, [r3, #0]
 8004070:	6032      	str	r2, [r6, #0]
 8004072:	66e0      	str	r0, [r4, #108]	@ 0x6c
 8004074:	6720      	str	r0, [r4, #112]	@ 0x70
 8004076:	e7c8      	b.n	800400a <UART_CheckIdleState+0x52>
 8004078:	01ffffff 	.word	0x01ffffff
 800407c:	fffffedf 	.word	0xfffffedf

08004080 <HAL_UART_Init>:
 8004080:	b570      	push	{r4, r5, r6, lr}
 8004082:	1e04      	subs	r4, r0, #0
 8004084:	d101      	bne.n	800408a <HAL_UART_Init+0xa>
 8004086:	2001      	movs	r0, #1
 8004088:	bd70      	pop	{r4, r5, r6, pc}
 800408a:	0005      	movs	r5, r0
 800408c:	3588      	adds	r5, #136	@ 0x88
 800408e:	682b      	ldr	r3, [r5, #0]
 8004090:	2b00      	cmp	r3, #0
 8004092:	d104      	bne.n	800409e <HAL_UART_Init+0x1e>
 8004094:	0002      	movs	r2, r0
 8004096:	3284      	adds	r2, #132	@ 0x84
 8004098:	7013      	strb	r3, [r2, #0]
 800409a:	f000 fd39 	bl	8004b10 <HAL_UART_MspInit>
 800409e:	2324      	movs	r3, #36	@ 0x24
 80040a0:	2101      	movs	r1, #1
 80040a2:	6822      	ldr	r2, [r4, #0]
 80040a4:	602b      	str	r3, [r5, #0]
 80040a6:	6813      	ldr	r3, [r2, #0]
 80040a8:	438b      	bics	r3, r1
 80040aa:	6013      	str	r3, [r2, #0]
 80040ac:	6aa3      	ldr	r3, [r4, #40]	@ 0x28
 80040ae:	2b00      	cmp	r3, #0
 80040b0:	d002      	beq.n	80040b8 <HAL_UART_Init+0x38>
 80040b2:	0020      	movs	r0, r4
 80040b4:	f7ff fe64 	bl	8003d80 <UART_AdvFeatureConfig>
 80040b8:	0020      	movs	r0, r4
 80040ba:	f7ff fd49 	bl	8003b50 <UART_SetConfig>
 80040be:	2801      	cmp	r0, #1
 80040c0:	d0e1      	beq.n	8004086 <HAL_UART_Init+0x6>
 80040c2:	6823      	ldr	r3, [r4, #0]
 80040c4:	4907      	ldr	r1, [pc, #28]	@ (80040e4 <HAL_UART_Init+0x64>)
 80040c6:	685a      	ldr	r2, [r3, #4]
 80040c8:	0020      	movs	r0, r4
 80040ca:	400a      	ands	r2, r1
 80040cc:	212a      	movs	r1, #42	@ 0x2a
 80040ce:	605a      	str	r2, [r3, #4]
 80040d0:	689a      	ldr	r2, [r3, #8]
 80040d2:	438a      	bics	r2, r1
 80040d4:	609a      	str	r2, [r3, #8]
 80040d6:	2201      	movs	r2, #1
 80040d8:	6819      	ldr	r1, [r3, #0]
 80040da:	430a      	orrs	r2, r1
 80040dc:	601a      	str	r2, [r3, #0]
 80040de:	f7ff ff6b 	bl	8003fb8 <UART_CheckIdleState>
 80040e2:	e7d1      	b.n	8004088 <HAL_UART_Init+0x8>
 80040e4:	ffffb7ff 	.word	0xffffb7ff

080040e8 <UARTEx_SetNbDataToProcess>:
 80040e8:	b5f7      	push	{r0, r1, r2, r4, r5, r6, r7, lr}
 80040ea:	0007      	movs	r7, r0
 80040ec:	6e43      	ldr	r3, [r0, #100]	@ 0x64
 80040ee:	0004      	movs	r4, r0
 80040f0:	376a      	adds	r7, #106	@ 0x6a
 80040f2:	2b00      	cmp	r3, #0
 80040f4:	d104      	bne.n	8004100 <UARTEx_SetNbDataToProcess+0x18>
 80040f6:	2001      	movs	r0, #1
 80040f8:	8038      	strh	r0, [r7, #0]
 80040fa:	3468      	adds	r4, #104	@ 0x68
 80040fc:	8020      	strh	r0, [r4, #0]
 80040fe:	bdf7      	pop	{r0, r1, r2, r4, r5, r6, r7, pc}
 8004100:	6803      	ldr	r3, [r0, #0]
 8004102:	4e0b      	ldr	r6, [pc, #44]	@ (8004130 <UARTEx_SetNbDataToProcess+0x48>)
 8004104:	689a      	ldr	r2, [r3, #8]
 8004106:	689b      	ldr	r3, [r3, #8]
 8004108:	4d0a      	ldr	r5, [pc, #40]	@ (8004134 <UARTEx_SetNbDataToProcess+0x4c>)
 800410a:	0f5b      	lsrs	r3, r3, #29
 800410c:	5cf0      	ldrb	r0, [r6, r3]
 800410e:	5ce9      	ldrb	r1, [r5, r3]
 8004110:	00c0      	lsls	r0, r0, #3
 8004112:	9201      	str	r2, [sp, #4]
 8004114:	f7fc f888 	bl	8000228 <__divsi3>
 8004118:	9b01      	ldr	r3, [sp, #4]
 800411a:	8038      	strh	r0, [r7, #0]
 800411c:	011b      	lsls	r3, r3, #4
 800411e:	0f5b      	lsrs	r3, r3, #29
 8004120:	5cf0      	ldrb	r0, [r6, r3]
 8004122:	5ce9      	ldrb	r1, [r5, r3]
 8004124:	00c0      	lsls	r0, r0, #3
 8004126:	f7fc f87f 	bl	8000228 <__divsi3>
 800412a:	b280      	uxth	r0, r0
 800412c:	e7e5      	b.n	80040fa <UARTEx_SetNbDataToProcess+0x12>
 800412e:	46c0      	nop			@ (mov r8, r8)
 8004130:	08005c90 	.word	0x08005c90
 8004134:	08005c88 	.word	0x08005c88

08004138 <HAL_UARTEx_DisableFifoMode>:
 8004138:	b570      	push	{r4, r5, r6, lr}
 800413a:	0004      	movs	r4, r0
 800413c:	3484      	adds	r4, #132	@ 0x84
 800413e:	7822      	ldrb	r2, [r4, #0]
 8004140:	0003      	movs	r3, r0
 8004142:	2002      	movs	r0, #2
 8004144:	2a01      	cmp	r2, #1
 8004146:	d011      	beq.n	800416c <HAL_UARTEx_DisableFifoMode+0x34>
 8004148:	001d      	movs	r5, r3
 800414a:	2224      	movs	r2, #36	@ 0x24
 800414c:	2601      	movs	r6, #1
 800414e:	3588      	adds	r5, #136	@ 0x88
 8004150:	602a      	str	r2, [r5, #0]
 8004152:	681a      	ldr	r2, [r3, #0]
 8004154:	6811      	ldr	r1, [r2, #0]
 8004156:	6810      	ldr	r0, [r2, #0]
 8004158:	43b0      	bics	r0, r6
 800415a:	6010      	str	r0, [r2, #0]
 800415c:	4804      	ldr	r0, [pc, #16]	@ (8004170 <HAL_UARTEx_DisableFifoMode+0x38>)
 800415e:	4001      	ands	r1, r0
 8004160:	2000      	movs	r0, #0
 8004162:	6658      	str	r0, [r3, #100]	@ 0x64
 8004164:	2320      	movs	r3, #32
 8004166:	6011      	str	r1, [r2, #0]
 8004168:	602b      	str	r3, [r5, #0]
 800416a:	7020      	strb	r0, [r4, #0]
 800416c:	bd70      	pop	{r4, r5, r6, pc}
 800416e:	46c0      	nop			@ (mov r8, r8)
 8004170:	dfffffff 	.word	0xdfffffff

08004174 <HAL_UARTEx_SetTxFifoThreshold>:
 8004174:	b5f8      	push	{r3, r4, r5, r6, r7, lr}
 8004176:	0005      	movs	r5, r0
 8004178:	3584      	adds	r5, #132	@ 0x84
 800417a:	000b      	movs	r3, r1
 800417c:	7829      	ldrb	r1, [r5, #0]
 800417e:	2202      	movs	r2, #2
 8004180:	2901      	cmp	r1, #1
 8004182:	d015      	beq.n	80041b0 <HAL_UARTEx_SetTxFifoThreshold+0x3c>
 8004184:	0006      	movs	r6, r0
 8004186:	2101      	movs	r1, #1
 8004188:	6804      	ldr	r4, [r0, #0]
 800418a:	3688      	adds	r6, #136	@ 0x88
 800418c:	3222      	adds	r2, #34	@ 0x22
 800418e:	6032      	str	r2, [r6, #0]
 8004190:	6827      	ldr	r7, [r4, #0]
 8004192:	6822      	ldr	r2, [r4, #0]
 8004194:	438a      	bics	r2, r1
 8004196:	6022      	str	r2, [r4, #0]
 8004198:	68a1      	ldr	r1, [r4, #8]
 800419a:	00c9      	lsls	r1, r1, #3
 800419c:	08c9      	lsrs	r1, r1, #3
 800419e:	4319      	orrs	r1, r3
 80041a0:	60a1      	str	r1, [r4, #8]
 80041a2:	f7ff ffa1 	bl	80040e8 <UARTEx_SetNbDataToProcess>
 80041a6:	2320      	movs	r3, #32
 80041a8:	2200      	movs	r2, #0
 80041aa:	6027      	str	r7, [r4, #0]
 80041ac:	6033      	str	r3, [r6, #0]
 80041ae:	702a      	strb	r2, [r5, #0]
 80041b0:	0010      	movs	r0, r2
 80041b2:	bdf8      	pop	{r3, r4, r5, r6, r7, pc}

080041b4 <HAL_UARTEx_SetRxFifoThreshold>:
 80041b4:	b5f8      	push	{r3, r4, r5, r6, r7, lr}
 80041b6:	0005      	movs	r5, r0
 80041b8:	3584      	adds	r5, #132	@ 0x84
 80041ba:	000a      	movs	r2, r1
 80041bc:	7829      	ldrb	r1, [r5, #0]
 80041be:	2302      	movs	r3, #2
 80041c0:	2901      	cmp	r1, #1
 80041c2:	d015      	beq.n	80041f0 <HAL_UARTEx_SetRxFifoThreshold+0x3c>
 80041c4:	0006      	movs	r6, r0
 80041c6:	2101      	movs	r1, #1
 80041c8:	6804      	ldr	r4, [r0, #0]
 80041ca:	3688      	adds	r6, #136	@ 0x88
 80041cc:	3322      	adds	r3, #34	@ 0x22
 80041ce:	6033      	str	r3, [r6, #0]
 80041d0:	6827      	ldr	r7, [r4, #0]
 80041d2:	6823      	ldr	r3, [r4, #0]
 80041d4:	438b      	bics	r3, r1
 80041d6:	6023      	str	r3, [r4, #0]
 80041d8:	68a1      	ldr	r1, [r4, #8]
 80041da:	4b06      	ldr	r3, [pc, #24]	@ (80041f4 <HAL_UARTEx_SetRxFifoThreshold+0x40>)
 80041dc:	4019      	ands	r1, r3
 80041de:	4311      	orrs	r1, r2
 80041e0:	60a1      	str	r1, [r4, #8]
 80041e2:	f7ff ff81 	bl	80040e8 <UARTEx_SetNbDataToProcess>
 80041e6:	2320      	movs	r3, #32
 80041e8:	6027      	str	r7, [r4, #0]
 80041ea:	6033      	str	r3, [r6, #0]
 80041ec:	2300      	movs	r3, #0
 80041ee:	702b      	strb	r3, [r5, #0]
 80041f0:	0018      	movs	r0, r3
 80041f2:	bdf8      	pop	{r3, r4, r5, r6, r7, pc}
 80041f4:	f1ffffff 	.word	0xf1ffffff

080041f8 <uartSend>:
 80041f8:	b510      	push	{r4, lr}
 80041fa:	c809      	ldmia	r0, {r0, r3}
 80041fc:	b292      	uxth	r2, r2
 80041fe:	f7ff fe70 	bl	8003ee2 <HAL_UART_Transmit>
 8004202:	2800      	cmp	r0, #0
 8004204:	d003      	beq.n	800420e <uartSend+0x16>
 8004206:	3803      	subs	r0, #3
 8004208:	4243      	negs	r3, r0
 800420a:	4158      	adcs	r0, r3
 800420c:	3001      	adds	r0, #1
 800420e:	bd10      	pop	{r4, pc}

08004210 <espAt_init>:
 8004210:	c00e      	stmia	r0!, {r1, r2, r3}
 8004212:	2000      	movs	r0, #0
 8004214:	4770      	bx	lr
	...

08004218 <espAt_sendCommand>:
 8004218:	b5f7      	push	{r0, r1, r2, r4, r5, r6, r7, lr}
 800421a:	af00      	add	r7, sp, #0
 800421c:	6078      	str	r0, [r7, #4]
 800421e:	000e      	movs	r6, r1
 8004220:	2001      	movs	r0, #1
 8004222:	2900      	cmp	r1, #0
 8004224:	d028      	beq.n	8004278 <espAt_sendCommand+0x60>
 8004226:	0008      	movs	r0, r1
 8004228:	f7fb ff6c 	bl	8000104 <strlen>
 800422c:	466a      	mov	r2, sp
 800422e:	1d45      	adds	r5, r0, #5
 8004230:	b2ad      	uxth	r5, r5
 8004232:	1deb      	adds	r3, r5, #7
 8004234:	08db      	lsrs	r3, r3, #3
 8004236:	00db      	lsls	r3, r3, #3
 8004238:	1ad3      	subs	r3, r2, r3
 800423a:	469d      	mov	sp, r3
 800423c:	0004      	movs	r4, r0
 800423e:	002a      	movs	r2, r5
 8004240:	2120      	movs	r1, #32
 8004242:	4668      	mov	r0, sp
 8004244:	f000 fd82 	bl	8004d4c <memset>
 8004248:	2203      	movs	r2, #3
 800424a:	490c      	ldr	r1, [pc, #48]	@ (800427c <espAt_sendCommand+0x64>)
 800424c:	4668      	mov	r0, sp
 800424e:	f000 fdaf 	bl	8004db0 <memcpy>
 8004252:	466b      	mov	r3, sp
 8004254:	b2a4      	uxth	r4, r4
 8004256:	0022      	movs	r2, r4
 8004258:	0031      	movs	r1, r6
 800425a:	1cd8      	adds	r0, r3, #3
 800425c:	3403      	adds	r4, #3
 800425e:	f000 fda7 	bl	8004db0 <memcpy>
 8004262:	0020      	movs	r0, r4
 8004264:	2202      	movs	r2, #2
 8004266:	4906      	ldr	r1, [pc, #24]	@ (8004280 <espAt_sendCommand+0x68>)
 8004268:	4468      	add	r0, sp
 800426a:	f000 fda1 	bl	8004db0 <memcpy>
 800426e:	002a      	movs	r2, r5
 8004270:	4669      	mov	r1, sp
 8004272:	6878      	ldr	r0, [r7, #4]
 8004274:	f7ff ffc0 	bl	80041f8 <uartSend>
 8004278:	46bd      	mov	sp, r7
 800427a:	bdfe      	pop	{r1, r2, r3, r4, r5, r6, r7, pc}
 800427c:	08005c98 	.word	0x08005c98
 8004280:	08005c9c 	.word	0x08005c9c

08004284 <espAt_sendParams>:
 8004284:	b40c      	push	{r2, r3}
 8004286:	2340      	movs	r3, #64	@ 0x40
 8004288:	2218      	movs	r2, #24
 800428a:	b5f0      	push	{r4, r5, r6, r7, lr}
 800428c:	b091      	sub	sp, #68	@ 0x44
 800428e:	af00      	add	r7, sp, #0
 8004290:	189b      	adds	r3, r3, r2
 8004292:	19db      	adds	r3, r3, r7
 8004294:	6078      	str	r0, [r7, #4]
 8004296:	881e      	ldrh	r6, [r3, #0]
 8004298:	2001      	movs	r0, #1
 800429a:	6179      	str	r1, [r7, #20]
 800429c:	2900      	cmp	r1, #0
 800429e:	d05d      	beq.n	800435c <espAt_sendParams+0xd8>
 80042a0:	2344      	movs	r3, #68	@ 0x44
 80042a2:	4668      	mov	r0, sp
 80042a4:	189b      	adds	r3, r3, r2
 80042a6:	00b1      	lsls	r1, r6, #2
 80042a8:	1e72      	subs	r2, r6, #1
 80042aa:	60ba      	str	r2, [r7, #8]
 80042ac:	1dca      	adds	r2, r1, #7
 80042ae:	08d2      	lsrs	r2, r2, #3
 80042b0:	00d2      	lsls	r2, r2, #3
 80042b2:	1a82      	subs	r2, r0, r2
 80042b4:	4695      	mov	sp, r2
 80042b6:	2401      	movs	r4, #1
 80042b8:	60fa      	str	r2, [r7, #12]
 80042ba:	2200      	movs	r2, #0
 80042bc:	46a4      	mov	ip, r4
 80042be:	0010      	movs	r0, r2
 80042c0:	19db      	adds	r3, r3, r7
 80042c2:	61fb      	str	r3, [r7, #28]
 80042c4:	b295      	uxth	r5, r2
 80042c6:	42ae      	cmp	r6, r5
 80042c8:	d84e      	bhi.n	8004368 <espAt_sendParams+0xe4>
 80042ca:	2800      	cmp	r0, #0
 80042cc:	d001      	beq.n	80042d2 <espAt_sendParams+0x4e>
 80042ce:	185b      	adds	r3, r3, r1
 80042d0:	61fb      	str	r3, [r7, #28]
 80042d2:	2018      	movs	r0, #24
 80042d4:	2308      	movs	r3, #8
 80042d6:	2500      	movs	r5, #0
 80042d8:	181b      	adds	r3, r3, r0
 80042da:	221e      	movs	r2, #30
 80042dc:	2100      	movs	r1, #0
 80042de:	19d8      	adds	r0, r3, r7
 80042e0:	f000 fd34 	bl	8004d4c <memset>
 80042e4:	002c      	movs	r4, r5
 80042e6:	42ae      	cmp	r6, r5
 80042e8:	d145      	bne.n	8004376 <espAt_sendParams+0xf2>
 80042ea:	6978      	ldr	r0, [r7, #20]
 80042ec:	f7fb ff0a 	bl	8000104 <strlen>
 80042f0:	466a      	mov	r2, sp
 80042f2:	1e66      	subs	r6, r4, #1
 80042f4:	3405      	adds	r4, #5
 80042f6:	1824      	adds	r4, r4, r0
 80042f8:	b2a4      	uxth	r4, r4
 80042fa:	1de3      	adds	r3, r4, #7
 80042fc:	08db      	lsrs	r3, r3, #3
 80042fe:	00db      	lsls	r3, r3, #3
 8004300:	1ad3      	subs	r3, r2, r3
 8004302:	469d      	mov	sp, r3
 8004304:	0005      	movs	r5, r0
 8004306:	0022      	movs	r2, r4
 8004308:	2120      	movs	r1, #32
 800430a:	4668      	mov	r0, sp
 800430c:	f000 fd1e 	bl	8004d4c <memset>
 8004310:	2203      	movs	r2, #3
 8004312:	4929      	ldr	r1, [pc, #164]	@ (80043b8 <espAt_sendParams+0x134>)
 8004314:	4668      	mov	r0, sp
 8004316:	f000 fd4b 	bl	8004db0 <memcpy>
 800431a:	466b      	mov	r3, sp
 800431c:	b2ad      	uxth	r5, r5
 800431e:	002a      	movs	r2, r5
 8004320:	6979      	ldr	r1, [r7, #20]
 8004322:	1cd8      	adds	r0, r3, #3
 8004324:	f000 fd44 	bl	8004db0 <memcpy>
 8004328:	002b      	movs	r3, r5
 800432a:	223d      	movs	r2, #61	@ 0x3d
 800432c:	446b      	add	r3, sp
 800432e:	70da      	strb	r2, [r3, #3]
 8004330:	2118      	movs	r1, #24
 8004332:	3504      	adds	r5, #4
 8004334:	2308      	movs	r3, #8
 8004336:	0028      	movs	r0, r5
 8004338:	185b      	adds	r3, r3, r1
 800433a:	b2b6      	uxth	r6, r6
 800433c:	19d9      	adds	r1, r3, r7
 800433e:	0032      	movs	r2, r6
 8004340:	4468      	add	r0, sp
 8004342:	f000 fd35 	bl	8004db0 <memcpy>
 8004346:	1970      	adds	r0, r6, r5
 8004348:	2202      	movs	r2, #2
 800434a:	491c      	ldr	r1, [pc, #112]	@ (80043bc <espAt_sendParams+0x138>)
 800434c:	4468      	add	r0, sp
 800434e:	f000 fd2f 	bl	8004db0 <memcpy>
 8004352:	0022      	movs	r2, r4
 8004354:	4669      	mov	r1, sp
 8004356:	6878      	ldr	r0, [r7, #4]
 8004358:	f7ff ff4e 	bl	80041f8 <uartSend>
 800435c:	46bd      	mov	sp, r7
 800435e:	b011      	add	sp, #68	@ 0x44
 8004360:	bcf0      	pop	{r4, r5, r6, r7}
 8004362:	bc08      	pop	{r3}
 8004364:	b002      	add	sp, #8
 8004366:	4718      	bx	r3
 8004368:	0090      	lsls	r0, r2, #2
 800436a:	581d      	ldr	r5, [r3, r0]
 800436c:	68fc      	ldr	r4, [r7, #12]
 800436e:	3201      	adds	r2, #1
 8004370:	5025      	str	r5, [r4, r0]
 8004372:	4660      	mov	r0, ip
 8004374:	e7a6      	b.n	80042c4 <espAt_sendParams+0x40>
 8004376:	2218      	movs	r2, #24
 8004378:	2308      	movs	r3, #8
 800437a:	189b      	adds	r3, r3, r2
 800437c:	19da      	adds	r2, r3, r7
 800437e:	1912      	adds	r2, r2, r4
 8004380:	68f8      	ldr	r0, [r7, #12]
 8004382:	613a      	str	r2, [r7, #16]
 8004384:	00ab      	lsls	r3, r5, #2
 8004386:	220a      	movs	r2, #10
 8004388:	6939      	ldr	r1, [r7, #16]
 800438a:	58c0      	ldr	r0, [r0, r3]
 800438c:	f000 fca5 	bl	8004cda <itoa>
 8004390:	6938      	ldr	r0, [r7, #16]
 8004392:	f7fb feb7 	bl	8000104 <strlen>
 8004396:	3401      	adds	r4, #1
 8004398:	68ba      	ldr	r2, [r7, #8]
 800439a:	1824      	adds	r4, r4, r0
 800439c:	b2a4      	uxth	r4, r4
 800439e:	42aa      	cmp	r2, r5
 80043a0:	dd07      	ble.n	80043b2 <espAt_sendParams+0x12e>
 80043a2:	2218      	movs	r2, #24
 80043a4:	2308      	movs	r3, #8
 80043a6:	189b      	adds	r3, r3, r2
 80043a8:	19db      	adds	r3, r3, r7
 80043aa:	191b      	adds	r3, r3, r4
 80043ac:	3b01      	subs	r3, #1
 80043ae:	3214      	adds	r2, #20
 80043b0:	701a      	strb	r2, [r3, #0]
 80043b2:	3501      	adds	r5, #1
 80043b4:	e797      	b.n	80042e6 <espAt_sendParams+0x62>
 80043b6:	46c0      	nop			@ (mov r8, r8)
 80043b8:	08005c98 	.word	0x08005c98
 80043bc:	08005c9c 	.word	0x08005c9c

080043c0 <espAt_sendString>:
 80043c0:	b5f0      	push	{r4, r5, r6, r7, lr}
 80043c2:	b085      	sub	sp, #20
 80043c4:	af00      	add	r7, sp, #0
 80043c6:	6078      	str	r0, [r7, #4]
 80043c8:	000d      	movs	r5, r1
 80043ca:	2001      	movs	r0, #1
 80043cc:	60fa      	str	r2, [r7, #12]
 80043ce:	2900      	cmp	r1, #0
 80043d0:	d045      	beq.n	800445e <espAt_sendString+0x9e>
 80043d2:	2a00      	cmp	r2, #0
 80043d4:	d043      	beq.n	800445e <espAt_sendString+0x9e>
 80043d6:	0008      	movs	r0, r1
 80043d8:	f7fb fe94 	bl	8000104 <strlen>
 80043dc:	0004      	movs	r4, r0
 80043de:	68f8      	ldr	r0, [r7, #12]
 80043e0:	f7fb fe90 	bl	8000104 <strlen>
 80043e4:	466a      	mov	r2, sp
 80043e6:	1823      	adds	r3, r4, r0
 80043e8:	3308      	adds	r3, #8
 80043ea:	b29e      	uxth	r6, r3
 80043ec:	1df3      	adds	r3, r6, #7
 80043ee:	08db      	lsrs	r3, r3, #3
 80043f0:	00db      	lsls	r3, r3, #3
 80043f2:	1ad3      	subs	r3, r2, r3
 80043f4:	469d      	mov	sp, r3
 80043f6:	0032      	movs	r2, r6
 80043f8:	2120      	movs	r1, #32
 80043fa:	60b8      	str	r0, [r7, #8]
 80043fc:	4668      	mov	r0, sp
 80043fe:	f000 fca5 	bl	8004d4c <memset>
 8004402:	2203      	movs	r2, #3
 8004404:	4917      	ldr	r1, [pc, #92]	@ (8004464 <espAt_sendString+0xa4>)
 8004406:	4668      	mov	r0, sp
 8004408:	f000 fcd2 	bl	8004db0 <memcpy>
 800440c:	466b      	mov	r3, sp
 800440e:	b2a4      	uxth	r4, r4
 8004410:	0022      	movs	r2, r4
 8004412:	0029      	movs	r1, r5
 8004414:	1cd8      	adds	r0, r3, #3
 8004416:	f000 fccb 	bl	8004db0 <memcpy>
 800441a:	0023      	movs	r3, r4
 800441c:	223d      	movs	r2, #61	@ 0x3d
 800441e:	446b      	add	r3, sp
 8004420:	70da      	strb	r2, [r3, #3]
 8004422:	0023      	movs	r3, r4
 8004424:	893d      	ldrh	r5, [r7, #8]
 8004426:	446b      	add	r3, sp
 8004428:	3a1b      	subs	r2, #27
 800442a:	1d60      	adds	r0, r4, #5
 800442c:	711a      	strb	r2, [r3, #4]
 800442e:	68f9      	ldr	r1, [r7, #12]
 8004430:	002a      	movs	r2, r5
 8004432:	4468      	add	r0, sp
 8004434:	f000 fcbc 	bl	8004db0 <memcpy>
 8004438:	1d63      	adds	r3, r4, #5
 800443a:	1958      	adds	r0, r3, r5
 800443c:	002a      	movs	r2, r5
 800443e:	490a      	ldr	r1, [pc, #40]	@ (8004468 <espAt_sendString+0xa8>)
 8004440:	4468      	add	r0, sp
 8004442:	3406      	adds	r4, #6
 8004444:	f000 fcb4 	bl	8004db0 <memcpy>
 8004448:	1960      	adds	r0, r4, r5
 800444a:	2202      	movs	r2, #2
 800444c:	4907      	ldr	r1, [pc, #28]	@ (800446c <espAt_sendString+0xac>)
 800444e:	4468      	add	r0, sp
 8004450:	f000 fcae 	bl	8004db0 <memcpy>
 8004454:	0032      	movs	r2, r6
 8004456:	4669      	mov	r1, sp
 8004458:	6878      	ldr	r0, [r7, #4]
 800445a:	f7ff fecd 	bl	80041f8 <uartSend>
 800445e:	46bd      	mov	sp, r7
 8004460:	b005      	add	sp, #20
 8004462:	bdf0      	pop	{r4, r5, r6, r7, pc}
 8004464:	08005c98 	.word	0x08005c98
 8004468:	08005c9f 	.word	0x08005c9f
 800446c:	08005c9c 	.word	0x08005c9c

08004470 <MX_GPIO_Init>:
 8004470:	b570      	push	{r4, r5, r6, lr}
 8004472:	b088      	sub	sp, #32
 8004474:	2214      	movs	r2, #20
 8004476:	2100      	movs	r1, #0
 8004478:	a803      	add	r0, sp, #12
 800447a:	f000 fc67 	bl	8004d4c <memset>
 800447e:	2104      	movs	r1, #4
 8004480:	2501      	movs	r5, #1
 8004482:	26a0      	movs	r6, #160	@ 0xa0
 8004484:	4b1d      	ldr	r3, [pc, #116]	@ (80044fc <MX_GPIO_Init+0x8c>)
 8004486:	05f6      	lsls	r6, r6, #23
 8004488:	6b5a      	ldr	r2, [r3, #52]	@ 0x34
 800448a:	0030      	movs	r0, r6
 800448c:	430a      	orrs	r2, r1
 800448e:	635a      	str	r2, [r3, #52]	@ 0x34
 8004490:	6b5a      	ldr	r2, [r3, #52]	@ 0x34
 8004492:	2400      	movs	r4, #0
 8004494:	400a      	ands	r2, r1
 8004496:	9200      	str	r2, [sp, #0]
 8004498:	9a00      	ldr	r2, [sp, #0]
 800449a:	6b5a      	ldr	r2, [r3, #52]	@ 0x34
 800449c:	3902      	subs	r1, #2
 800449e:	432a      	orrs	r2, r5
 80044a0:	635a      	str	r2, [r3, #52]	@ 0x34
 80044a2:	6b5a      	ldr	r2, [r3, #52]	@ 0x34
 80044a4:	402a      	ands	r2, r5
 80044a6:	9201      	str	r2, [sp, #4]
 80044a8:	9a01      	ldr	r2, [sp, #4]
 80044aa:	6b5a      	ldr	r2, [r3, #52]	@ 0x34
 80044ac:	430a      	orrs	r2, r1
 80044ae:	635a      	str	r2, [r3, #52]	@ 0x34
 80044b0:	6b5b      	ldr	r3, [r3, #52]	@ 0x34
 80044b2:	2200      	movs	r2, #0
 80044b4:	400b      	ands	r3, r1
 80044b6:	9302      	str	r3, [sp, #8]
 80044b8:	311e      	adds	r1, #30
 80044ba:	9b02      	ldr	r3, [sp, #8]
 80044bc:	f7fe fb04 	bl	8002ac8 <HAL_GPIO_WritePin>
 80044c0:	2380      	movs	r3, #128	@ 0x80
 80044c2:	a903      	add	r1, sp, #12
 80044c4:	019b      	lsls	r3, r3, #6
 80044c6:	480e      	ldr	r0, [pc, #56]	@ (8004500 <MX_GPIO_Init+0x90>)
 80044c8:	9303      	str	r3, [sp, #12]
 80044ca:	9404      	str	r4, [sp, #16]
 80044cc:	9405      	str	r4, [sp, #20]
 80044ce:	f7fe f9d1 	bl	8002874 <HAL_GPIO_Init>
 80044d2:	2388      	movs	r3, #136	@ 0x88
 80044d4:	0030      	movs	r0, r6
 80044d6:	035b      	lsls	r3, r3, #13
 80044d8:	a903      	add	r1, sp, #12
 80044da:	9304      	str	r3, [sp, #16]
 80044dc:	9503      	str	r5, [sp, #12]
 80044de:	9405      	str	r4, [sp, #20]
 80044e0:	f7fe f9c8 	bl	8002874 <HAL_GPIO_Init>
 80044e4:	2320      	movs	r3, #32
 80044e6:	0030      	movs	r0, r6
 80044e8:	a903      	add	r1, sp, #12
 80044ea:	9303      	str	r3, [sp, #12]
 80044ec:	9504      	str	r5, [sp, #16]
 80044ee:	9405      	str	r4, [sp, #20]
 80044f0:	9406      	str	r4, [sp, #24]
 80044f2:	f7fe f9bf 	bl	8002874 <HAL_GPIO_Init>
 80044f6:	b008      	add	sp, #32
 80044f8:	bd70      	pop	{r4, r5, r6, pc}
 80044fa:	46c0      	nop			@ (mov r8, r8)
 80044fc:	40021000 	.word	0x40021000
 8004500:	50000800 	.word	0x50000800

08004504 <MX_I2C1_Init>:
 8004504:	b510      	push	{r4, lr}
 8004506:	4b13      	ldr	r3, [pc, #76]	@ (8004554 <MX_I2C1_Init+0x50>)
 8004508:	4c13      	ldr	r4, [pc, #76]	@ (8004558 <MX_I2C1_Init+0x54>)
 800450a:	2201      	movs	r2, #1
 800450c:	6023      	str	r3, [r4, #0]
 800450e:	4b13      	ldr	r3, [pc, #76]	@ (800455c <MX_I2C1_Init+0x58>)
 8004510:	0020      	movs	r0, r4
 8004512:	6063      	str	r3, [r4, #4]
 8004514:	2300      	movs	r3, #0
 8004516:	60e2      	str	r2, [r4, #12]
 8004518:	60a3      	str	r3, [r4, #8]
 800451a:	6123      	str	r3, [r4, #16]
 800451c:	6163      	str	r3, [r4, #20]
 800451e:	61a3      	str	r3, [r4, #24]
 8004520:	61e3      	str	r3, [r4, #28]
 8004522:	6223      	str	r3, [r4, #32]
 8004524:	f7fe fc08 	bl	8002d38 <HAL_I2C_Init>
 8004528:	2800      	cmp	r0, #0
 800452a:	d001      	beq.n	8004530 <MX_I2C1_Init+0x2c>
 800452c:	f000 fa60 	bl	80049f0 <Error_Handler>
 8004530:	2100      	movs	r1, #0
 8004532:	0020      	movs	r0, r4
 8004534:	f7fe fe16 	bl	8003164 <HAL_I2CEx_ConfigAnalogFilter>
 8004538:	2800      	cmp	r0, #0
 800453a:	d001      	beq.n	8004540 <MX_I2C1_Init+0x3c>
 800453c:	f000 fa58 	bl	80049f0 <Error_Handler>
 8004540:	2100      	movs	r1, #0
 8004542:	0020      	movs	r0, r4
 8004544:	f7fe fe34 	bl	80031b0 <HAL_I2CEx_ConfigDigitalFilter>
 8004548:	2800      	cmp	r0, #0
 800454a:	d001      	beq.n	8004550 <MX_I2C1_Init+0x4c>
 800454c:	f000 fa50 	bl	80049f0 <Error_Handler>
 8004550:	bd10      	pop	{r4, pc}
 8004552:	46c0      	nop			@ (mov r8, r8)
 8004554:	40005400 	.word	0x40005400
 8004558:	20000090 	.word	0x20000090
 800455c:	00c12166 	.word	0x00c12166

08004560 <HAL_I2C_MspInit>:
 8004560:	b510      	push	{r4, lr}
 8004562:	0004      	movs	r4, r0
 8004564:	b094      	sub	sp, #80	@ 0x50
 8004566:	2214      	movs	r2, #20
 8004568:	2100      	movs	r1, #0
 800456a:	a802      	add	r0, sp, #8
 800456c:	f000 fbee 	bl	8004d4c <memset>
 8004570:	2234      	movs	r2, #52	@ 0x34
 8004572:	2100      	movs	r1, #0
 8004574:	a807      	add	r0, sp, #28
 8004576:	f000 fbe9 	bl	8004d4c <memset>
 800457a:	4b17      	ldr	r3, [pc, #92]	@ (80045d8 <HAL_I2C_MspInit+0x78>)
 800457c:	6822      	ldr	r2, [r4, #0]
 800457e:	429a      	cmp	r2, r3
 8004580:	d128      	bne.n	80045d4 <HAL_I2C_MspInit+0x74>
 8004582:	2320      	movs	r3, #32
 8004584:	a807      	add	r0, sp, #28
 8004586:	9307      	str	r3, [sp, #28]
 8004588:	f7ff f98c 	bl	80038a4 <HAL_RCCEx_PeriphCLKConfig>
 800458c:	2800      	cmp	r0, #0
 800458e:	d001      	beq.n	8004594 <HAL_I2C_MspInit+0x34>
 8004590:	f000 fa2e 	bl	80049f0 <Error_Handler>
 8004594:	2202      	movs	r2, #2
 8004596:	4c11      	ldr	r4, [pc, #68]	@ (80045dc <HAL_I2C_MspInit+0x7c>)
 8004598:	4811      	ldr	r0, [pc, #68]	@ (80045e0 <HAL_I2C_MspInit+0x80>)
 800459a:	6b63      	ldr	r3, [r4, #52]	@ 0x34
 800459c:	a902      	add	r1, sp, #8
 800459e:	4313      	orrs	r3, r2
 80045a0:	6363      	str	r3, [r4, #52]	@ 0x34
 80045a2:	6b63      	ldr	r3, [r4, #52]	@ 0x34
 80045a4:	4013      	ands	r3, r2
 80045a6:	9300      	str	r3, [sp, #0]
 80045a8:	9b00      	ldr	r3, [sp, #0]
 80045aa:	23c0      	movs	r3, #192	@ 0xc0
 80045ac:	009b      	lsls	r3, r3, #2
 80045ae:	9302      	str	r3, [sp, #8]
 80045b0:	2312      	movs	r3, #18
 80045b2:	9303      	str	r3, [sp, #12]
 80045b4:	2300      	movs	r3, #0
 80045b6:	9304      	str	r3, [sp, #16]
 80045b8:	9305      	str	r3, [sp, #20]
 80045ba:	3306      	adds	r3, #6
 80045bc:	9306      	str	r3, [sp, #24]
 80045be:	f7fe f959 	bl	8002874 <HAL_GPIO_Init>
 80045c2:	2280      	movs	r2, #128	@ 0x80
 80045c4:	6be3      	ldr	r3, [r4, #60]	@ 0x3c
 80045c6:	0392      	lsls	r2, r2, #14
 80045c8:	4313      	orrs	r3, r2
 80045ca:	63e3      	str	r3, [r4, #60]	@ 0x3c
 80045cc:	6be3      	ldr	r3, [r4, #60]	@ 0x3c
 80045ce:	4013      	ands	r3, r2
 80045d0:	9301      	str	r3, [sp, #4]
 80045d2:	9b01      	ldr	r3, [sp, #4]
 80045d4:	b014      	add	sp, #80	@ 0x50
 80045d6:	bd10      	pop	{r4, pc}
 80045d8:	40005400 	.word	0x40005400
 80045dc:	40021000 	.word	0x40021000
 80045e0:	50000400 	.word	0x50000400

080045e4 <i2cSend>:
 80045e4:	b51f      	push	{r0, r1, r2, r3, r4, lr}
 80045e6:	6844      	ldr	r4, [r0, #4]
 80045e8:	9300      	str	r3, [sp, #0]
 80045ea:	9402      	str	r4, [sp, #8]
 80045ec:	9c06      	ldr	r4, [sp, #24]
 80045ee:	2301      	movs	r3, #1
 80045f0:	b2a4      	uxth	r4, r4
 80045f2:	9401      	str	r4, [sp, #4]
 80045f4:	6800      	ldr	r0, [r0, #0]
 80045f6:	f7fe fbfd 	bl	8002df4 <HAL_I2C_Mem_Write>
 80045fa:	2800      	cmp	r0, #0
 80045fc:	d003      	beq.n	8004606 <i2cSend+0x22>
 80045fe:	3803      	subs	r0, #3
 8004600:	4243      	negs	r3, r0
 8004602:	4158      	adcs	r0, r3
 8004604:	3001      	adds	r0, #1
 8004606:	b004      	add	sp, #16
 8004608:	bd10      	pop	{r4, pc}

0800460a <i2cReceive>:
 800460a:	b51f      	push	{r0, r1, r2, r3, r4, lr}
 800460c:	6884      	ldr	r4, [r0, #8]
 800460e:	9300      	str	r3, [sp, #0]
 8004610:	9402      	str	r4, [sp, #8]
 8004612:	9c06      	ldr	r4, [sp, #24]
 8004614:	2301      	movs	r3, #1
 8004616:	b2a4      	uxth	r4, r4
 8004618:	9401      	str	r4, [sp, #4]
 800461a:	6800      	ldr	r0, [r0, #0]
 800461c:	f7fe fcc4 	bl	8002fa8 <HAL_I2C_Mem_Read>
 8004620:	2800      	cmp	r0, #0
 8004622:	d003      	beq.n	800462c <i2cReceive+0x22>
 8004624:	3803      	subs	r0, #3
 8004626:	4243      	negs	r3, r0
 8004628:	4158      	adcs	r0, r3
 800462a:	3001      	adds	r0, #1
 800462c:	b004      	add	sp, #16
 800462e:	bd10      	pop	{r4, pc}

08004630 <modifyReg>:
 8004630:	b5f0      	push	{r4, r5, r6, r7, lr}
 8004632:	270e      	movs	r7, #14
 8004634:	b087      	sub	sp, #28
 8004636:	9303      	str	r3, [sp, #12]
 8004638:	ab02      	add	r3, sp, #8
 800463a:	18ff      	adds	r7, r7, r3
 800463c:	2300      	movs	r3, #0
 800463e:	2501      	movs	r5, #1
 8004640:	703b      	strb	r3, [r7, #0]
 8004642:	9102      	str	r1, [sp, #8]
 8004644:	0016      	movs	r6, r2
 8004646:	8981      	ldrh	r1, [r0, #12]
 8004648:	003b      	movs	r3, r7
 800464a:	9a02      	ldr	r2, [sp, #8]
 800464c:	9500      	str	r5, [sp, #0]
 800464e:	0004      	movs	r4, r0
 8004650:	f7ff ffdb 	bl	800460a <i2cReceive>
 8004654:	2800      	cmp	r0, #0
 8004656:	d10f      	bne.n	8004678 <modifyReg+0x48>
 8004658:	230f      	movs	r3, #15
 800465a:	a902      	add	r1, sp, #8
 800465c:	783a      	ldrb	r2, [r7, #0]
 800465e:	185b      	adds	r3, r3, r1
 8004660:	9903      	ldr	r1, [sp, #12]
 8004662:	43b2      	bics	r2, r6
 8004664:	4031      	ands	r1, r6
 8004666:	703a      	strb	r2, [r7, #0]
 8004668:	430a      	orrs	r2, r1
 800466a:	701a      	strb	r2, [r3, #0]
 800466c:	89a1      	ldrh	r1, [r4, #12]
 800466e:	0020      	movs	r0, r4
 8004670:	9a02      	ldr	r2, [sp, #8]
 8004672:	9500      	str	r5, [sp, #0]
 8004674:	f7ff ffb6 	bl	80045e4 <i2cSend>
 8004678:	b007      	add	sp, #28
 800467a:	bdf0      	pop	{r4, r5, r6, r7, pc}

0800467c <lsm6ds_init>:
 800467c:	b530      	push	{r4, r5, lr}
 800467e:	0004      	movs	r4, r0
 8004680:	b085      	sub	sp, #20
 8004682:	6002      	str	r2, [r0, #0]
 8004684:	9a08      	ldr	r2, [sp, #32]
 8004686:	6043      	str	r3, [r0, #4]
 8004688:	8181      	strh	r1, [r0, #12]
 800468a:	6082      	str	r2, [r0, #8]
 800468c:	000d      	movs	r5, r1
 800468e:	2206      	movs	r2, #6
 8004690:	2100      	movs	r1, #0
 8004692:	3014      	adds	r0, #20
 8004694:	f000 fb5a 	bl	8004d4c <memset>
 8004698:	0020      	movs	r0, r4
 800469a:	2206      	movs	r2, #6
 800469c:	2100      	movs	r1, #0
 800469e:	300e      	adds	r0, #14
 80046a0:	f000 fb54 	bl	8004d4c <memset>
 80046a4:	2300      	movs	r3, #0
 80046a6:	466a      	mov	r2, sp
 80046a8:	8363      	strh	r3, [r4, #26]
 80046aa:	73d3      	strb	r3, [r2, #15]
 80046ac:	3301      	adds	r3, #1
 80046ae:	9300      	str	r3, [sp, #0]
 80046b0:	330e      	adds	r3, #14
 80046b2:	220f      	movs	r2, #15
 80046b4:	0029      	movs	r1, r5
 80046b6:	0020      	movs	r0, r4
 80046b8:	446b      	add	r3, sp
 80046ba:	f7ff ffa6 	bl	800460a <i2cReceive>
 80046be:	2801      	cmp	r0, #1
 80046c0:	d009      	beq.n	80046d6 <lsm6ds_init+0x5a>
 80046c2:	2802      	cmp	r0, #2
 80046c4:	d005      	beq.n	80046d2 <lsm6ds_init+0x56>
 80046c6:	466b      	mov	r3, sp
 80046c8:	7bd8      	ldrb	r0, [r3, #15]
 80046ca:	386a      	subs	r0, #106	@ 0x6a
 80046cc:	1e43      	subs	r3, r0, #1
 80046ce:	4198      	sbcs	r0, r3
 80046d0:	0080      	lsls	r0, r0, #2
 80046d2:	b005      	add	sp, #20
 80046d4:	bd30      	pop	{r4, r5, pc}
 80046d6:	2003      	movs	r0, #3
 80046d8:	e7fb      	b.n	80046d2 <lsm6ds_init+0x56>

080046da <lsm6ds_setXLOutputDataRate>:
 80046da:	b510      	push	{r4, lr}
 80046dc:	000b      	movs	r3, r1
 80046de:	22f0      	movs	r2, #240	@ 0xf0
 80046e0:	2110      	movs	r1, #16
 80046e2:	f7ff ffa5 	bl	8004630 <modifyReg>
 80046e6:	bd10      	pop	{r4, pc}

080046e8 <lsm6ds_setXLFullScale>:
 80046e8:	b510      	push	{r4, lr}
 80046ea:	000b      	movs	r3, r1
 80046ec:	220c      	movs	r2, #12
 80046ee:	2110      	movs	r1, #16
 80046f0:	f7ff ff9e 	bl	8004630 <modifyReg>
 80046f4:	bd10      	pop	{r4, pc}

080046f6 <lsm6ds_setGROutputDataRate>:
 80046f6:	b510      	push	{r4, lr}
 80046f8:	000b      	movs	r3, r1
 80046fa:	22f0      	movs	r2, #240	@ 0xf0
 80046fc:	2111      	movs	r1, #17
 80046fe:	f7ff ff97 	bl	8004630 <modifyReg>
 8004702:	bd10      	pop	{r4, pc}

08004704 <lsm6ds_setGRFullScale>:
 8004704:	b570      	push	{r4, r5, r6, lr}
 8004706:	2300      	movs	r3, #0
 8004708:	0004      	movs	r4, r0
 800470a:	000d      	movs	r5, r1
 800470c:	2902      	cmp	r1, #2
 800470e:	d10c      	bne.n	800472a <lsm6ds_setGRFullScale+0x26>
 8004710:	220c      	movs	r2, #12
 8004712:	2111      	movs	r1, #17
 8004714:	f7ff ff8c 	bl	8004630 <modifyReg>
 8004718:	2800      	cmp	r0, #0
 800471a:	d105      	bne.n	8004728 <lsm6ds_setGRFullScale+0x24>
 800471c:	002b      	movs	r3, r5
 800471e:	002a      	movs	r2, r5
 8004720:	2111      	movs	r1, #17
 8004722:	0020      	movs	r0, r4
 8004724:	f7ff ff84 	bl	8004630 <modifyReg>
 8004728:	bd70      	pop	{r4, r5, r6, pc}
 800472a:	2202      	movs	r2, #2
 800472c:	2111      	movs	r1, #17
 800472e:	f7ff ff7f 	bl	8004630 <modifyReg>
 8004732:	2800      	cmp	r0, #0
 8004734:	d1f8      	bne.n	8004728 <lsm6ds_setGRFullScale+0x24>
 8004736:	002b      	movs	r3, r5
 8004738:	220c      	movs	r2, #12
 800473a:	e7f1      	b.n	8004720 <lsm6ds_setGRFullScale+0x1c>

0800473c <lsm6ds_reset>:
 800473c:	2301      	movs	r3, #1
 800473e:	b510      	push	{r4, lr}
 8004740:	001a      	movs	r2, r3
 8004742:	2112      	movs	r1, #18
 8004744:	f7ff ff74 	bl	8004630 <modifyReg>
 8004748:	bd10      	pop	{r4, pc}

0800474a <lsm6ds_newDataAvailableCheck>:
 800474a:	b507      	push	{r0, r1, r2, lr}
 800474c:	2201      	movs	r2, #1
 800474e:	000b      	movs	r3, r1
 8004750:	8981      	ldrh	r1, [r0, #12]
 8004752:	9200      	str	r2, [sp, #0]
 8004754:	321d      	adds	r2, #29
 8004756:	f7ff ff58 	bl	800460a <i2cReceive>
 800475a:	bd0e      	pop	{r1, r2, r3, pc}

0800475c <lsm6ds_updateGR>:
 800475c:	b57f      	push	{r0, r1, r2, r3, r4, r5, r6, lr}
 800475e:	2606      	movs	r6, #6
 8004760:	0004      	movs	r4, r0
 8004762:	ad02      	add	r5, sp, #8
 8004764:	0032      	movs	r2, r6
 8004766:	2100      	movs	r1, #0
 8004768:	0028      	movs	r0, r5
 800476a:	f000 faef 	bl	8004d4c <memset>
 800476e:	89a1      	ldrh	r1, [r4, #12]
 8004770:	002b      	movs	r3, r5
 8004772:	2222      	movs	r2, #34	@ 0x22
 8004774:	0020      	movs	r0, r4
 8004776:	9600      	str	r6, [sp, #0]
 8004778:	f7ff ff47 	bl	800460a <i2cReceive>
 800477c:	2800      	cmp	r0, #0
 800477e:	d104      	bne.n	800478a <lsm6ds_updateGR+0x2e>
 8004780:	2204      	movs	r2, #4
 8004782:	5eab      	ldrsh	r3, [r5, r2]
 8004784:	9a02      	ldr	r2, [sp, #8]
 8004786:	8323      	strh	r3, [r4, #24]
 8004788:	6162      	str	r2, [r4, #20]
 800478a:	b004      	add	sp, #16
 800478c:	bd70      	pop	{r4, r5, r6, pc}

0800478e <SystemClock_Config>:
 800478e:	b510      	push	{r4, lr}
 8004790:	b092      	sub	sp, #72	@ 0x48
 8004792:	2238      	movs	r2, #56	@ 0x38
 8004794:	2100      	movs	r1, #0
 8004796:	a804      	add	r0, sp, #16
 8004798:	f000 fad8 	bl	8004d4c <memset>
 800479c:	2210      	movs	r2, #16
 800479e:	2100      	movs	r1, #0
 80047a0:	4668      	mov	r0, sp
 80047a2:	f000 fad3 	bl	8004d4c <memset>
 80047a6:	2080      	movs	r0, #128	@ 0x80
 80047a8:	0080      	lsls	r0, r0, #2
 80047aa:	f7fe fd25 	bl	80031f8 <HAL_PWREx_ControlVoltageScaling>
 80047ae:	2380      	movs	r3, #128	@ 0x80
 80047b0:	005b      	lsls	r3, r3, #1
 80047b2:	9307      	str	r3, [sp, #28]
 80047b4:	2300      	movs	r3, #0
 80047b6:	9308      	str	r3, [sp, #32]
 80047b8:	930d      	str	r3, [sp, #52]	@ 0x34
 80047ba:	3308      	adds	r3, #8
 80047bc:	930e      	str	r3, [sp, #56]	@ 0x38
 80047be:	2380      	movs	r3, #128	@ 0x80
 80047c0:	029b      	lsls	r3, r3, #10
 80047c2:	930f      	str	r3, [sp, #60]	@ 0x3c
 80047c4:	2380      	movs	r3, #128	@ 0x80
 80047c6:	049b      	lsls	r3, r3, #18
 80047c8:	9310      	str	r3, [sp, #64]	@ 0x40
 80047ca:	2380      	movs	r3, #128	@ 0x80
 80047cc:	2402      	movs	r4, #2
 80047ce:	2240      	movs	r2, #64	@ 0x40
 80047d0:	059b      	lsls	r3, r3, #22
 80047d2:	a804      	add	r0, sp, #16
 80047d4:	9404      	str	r4, [sp, #16]
 80047d6:	9209      	str	r2, [sp, #36]	@ 0x24
 80047d8:	940b      	str	r4, [sp, #44]	@ 0x2c
 80047da:	940c      	str	r4, [sp, #48]	@ 0x30
 80047dc:	9311      	str	r3, [sp, #68]	@ 0x44
 80047de:	f7fe fd37 	bl	8003250 <HAL_RCC_OscConfig>
 80047e2:	2800      	cmp	r0, #0
 80047e4:	d001      	beq.n	80047ea <SystemClock_Config+0x5c>
 80047e6:	b672      	cpsid	i
 80047e8:	e7fe      	b.n	80047e8 <SystemClock_Config+0x5a>
 80047ea:	2307      	movs	r3, #7
 80047ec:	9002      	str	r0, [sp, #8]
 80047ee:	9003      	str	r0, [sp, #12]
 80047f0:	0021      	movs	r1, r4
 80047f2:	4668      	mov	r0, sp
 80047f4:	9300      	str	r3, [sp, #0]
 80047f6:	9401      	str	r4, [sp, #4]
 80047f8:	f7fe ff92 	bl	8003720 <HAL_RCC_ClockConfig>
 80047fc:	2800      	cmp	r0, #0
 80047fe:	d001      	beq.n	8004804 <SystemClock_Config+0x76>
 8004800:	b672      	cpsid	i
 8004802:	e7fe      	b.n	8004802 <SystemClock_Config+0x74>
 8004804:	b012      	add	sp, #72	@ 0x48
 8004806:	bd10      	pop	{r4, pc}

08004808 <main>:
 8004808:	b570      	push	{r4, r5, r6, lr}
 800480a:	b08e      	sub	sp, #56	@ 0x38
 800480c:	f7fd ffb6 	bl	800277c <HAL_Init>
 8004810:	f7ff ffbd 	bl	800478e <SystemClock_Config>
 8004814:	f7ff fe2c 	bl	8004470 <MX_GPIO_Init>
 8004818:	f000 f90e 	bl	8004a38 <MX_USART1_UART_Init>
 800481c:	f000 f942 	bl	8004aa4 <MX_USART2_UART_Init>
 8004820:	f7ff fe70 	bl	8004504 <MX_I2C1_Init>
 8004824:	2364      	movs	r3, #100	@ 0x64
 8004826:	4c64      	ldr	r4, [pc, #400]	@ (80049b8 <main+0x1b0>)
 8004828:	21d4      	movs	r1, #212	@ 0xd4
 800482a:	4a64      	ldr	r2, [pc, #400]	@ (80049bc <main+0x1b4>)
 800482c:	9300      	str	r3, [sp, #0]
 800482e:	0020      	movs	r0, r4
 8004830:	f7ff ff24 	bl	800467c <lsm6ds_init>
 8004834:	23fa      	movs	r3, #250	@ 0xfa
 8004836:	4d62      	ldr	r5, [pc, #392]	@ (80049c0 <main+0x1b8>)
 8004838:	4e62      	ldr	r6, [pc, #392]	@ (80049c4 <main+0x1bc>)
 800483a:	00db      	lsls	r3, r3, #3
 800483c:	2232      	movs	r2, #50	@ 0x32
 800483e:	0031      	movs	r1, r6
 8004840:	0028      	movs	r0, r5
 8004842:	f7ff fce5 	bl	8004210 <espAt_init>
 8004846:	4960      	ldr	r1, [pc, #384]	@ (80049c8 <main+0x1c0>)
 8004848:	0028      	movs	r0, r5
 800484a:	f7ff fce5 	bl	8004218 <espAt_sendCommand>
 800484e:	20fa      	movs	r0, #250	@ 0xfa
 8004850:	0080      	lsls	r0, r0, #2
 8004852:	f7fd ffb9 	bl	80027c8 <HAL_Delay>
 8004856:	4a5d      	ldr	r2, [pc, #372]	@ (80049cc <main+0x1c4>)
 8004858:	495d      	ldr	r1, [pc, #372]	@ (80049d0 <main+0x1c8>)
 800485a:	0028      	movs	r0, r5
 800485c:	f7ff fdb0 	bl	80043c0 <espAt_sendString>
 8004860:	20c8      	movs	r0, #200	@ 0xc8
 8004862:	f7fd ffb1 	bl	80027c8 <HAL_Delay>
 8004866:	2301      	movs	r3, #1
 8004868:	495a      	ldr	r1, [pc, #360]	@ (80049d4 <main+0x1cc>)
 800486a:	001a      	movs	r2, r3
 800486c:	0028      	movs	r0, r5
 800486e:	f7ff fd09 	bl	8004284 <espAt_sendParams>
 8004872:	20c8      	movs	r0, #200	@ 0xc8
 8004874:	f7fd ffa8 	bl	80027c8 <HAL_Delay>
 8004878:	2300      	movs	r3, #0
 800487a:	9303      	str	r3, [sp, #12]
 800487c:	9302      	str	r3, [sp, #8]
 800487e:	3301      	adds	r3, #1
 8004880:	9301      	str	r3, [sp, #4]
 8004882:	3307      	adds	r3, #7
 8004884:	2205      	movs	r2, #5
 8004886:	4954      	ldr	r1, [pc, #336]	@ (80049d8 <main+0x1d0>)
 8004888:	9300      	str	r3, [sp, #0]
 800488a:	0028      	movs	r0, r5
 800488c:	4b53      	ldr	r3, [pc, #332]	@ (80049dc <main+0x1d4>)
 800488e:	f7ff fcf9 	bl	8004284 <espAt_sendParams>
 8004892:	20c8      	movs	r0, #200	@ 0xc8
 8004894:	f7fd ff98 	bl	80027c8 <HAL_Delay>
 8004898:	4950      	ldr	r1, [pc, #320]	@ (80049dc <main+0x1d4>)
 800489a:	0030      	movs	r0, r6
 800489c:	f000 f9ce 	bl	8004c3c <HAL_UART_ChangeSpeed>
 80048a0:	0020      	movs	r0, r4
 80048a2:	f7ff ff4b 	bl	800473c <lsm6ds_reset>
 80048a6:	2110      	movs	r1, #16
 80048a8:	0020      	movs	r0, r4
 80048aa:	f7ff ff16 	bl	80046da <lsm6ds_setXLOutputDataRate>
 80048ae:	2150      	movs	r1, #80	@ 0x50
 80048b0:	0020      	movs	r0, r4
 80048b2:	f7ff ff20 	bl	80046f6 <lsm6ds_setGROutputDataRate>
 80048b6:	2104      	movs	r1, #4
 80048b8:	0020      	movs	r0, r4
 80048ba:	f7ff ff15 	bl	80046e8 <lsm6ds_setXLFullScale>
 80048be:	210c      	movs	r1, #12
 80048c0:	0020      	movs	r0, r4
 80048c2:	f7ff ff1f 	bl	8004704 <lsm6ds_setGRFullScale>
 80048c6:	2300      	movs	r3, #0
 80048c8:	aa08      	add	r2, sp, #32
 80048ca:	4d3b      	ldr	r5, [pc, #236]	@ (80049b8 <main+0x1b0>)
 80048cc:	75d3      	strb	r3, [r2, #23]
 80048ce:	3317      	adds	r3, #23
 80048d0:	189b      	adds	r3, r3, r2
 80048d2:	0019      	movs	r1, r3
 80048d4:	0028      	movs	r0, r5
 80048d6:	f7ff ff38 	bl	800474a <lsm6ds_newDataAvailableCheck>
 80048da:	ab08      	add	r3, sp, #32
 80048dc:	7ddb      	ldrb	r3, [r3, #23]
 80048de:	079b      	lsls	r3, r3, #30
 80048e0:	d5f1      	bpl.n	80048c6 <main+0xbe>
 80048e2:	0028      	movs	r0, r5
 80048e4:	f7ff ff3a 	bl	800475c <lsm6ds_updateGR>
 80048e8:	2314      	movs	r3, #20
 80048ea:	5ee8      	ldrsh	r0, [r5, r3]
 80048ec:	f7fc f810 	bl	8000910 <__aeabi_i2f>
 80048f0:	493b      	ldr	r1, [pc, #236]	@ (80049e0 <main+0x1d8>)
 80048f2:	f7fb feaf 	bl	8000654 <__aeabi_fmul>
 80048f6:	f7fb ffeb 	bl	80008d0 <__aeabi_f2iz>
 80048fa:	b204      	sxth	r4, r0
 80048fc:	82ac      	strh	r4, [r5, #20]
 80048fe:	2318      	movs	r3, #24
 8004900:	5ee8      	ldrsh	r0, [r5, r3]
 8004902:	f7fc f805 	bl	8000910 <__aeabi_i2f>
 8004906:	4936      	ldr	r1, [pc, #216]	@ (80049e0 <main+0x1d8>)
 8004908:	f7fb fea4 	bl	8000654 <__aeabi_fmul>
 800490c:	f7fb ffe0 	bl	80008d0 <__aeabi_f2iz>
 8004910:	b206      	sxth	r6, r0
 8004912:	832e      	strh	r6, [r5, #24]
 8004914:	1e20      	subs	r0, r4, #0
 8004916:	da41      	bge.n	800499c <main+0x194>
 8004918:	2480      	movs	r4, #128	@ 0x80
 800491a:	f7fd feaf 	bl	800267c <__aeabi_i2d>
 800491e:	22c0      	movs	r2, #192	@ 0xc0
 8004920:	0624      	lsls	r4, r4, #24
 8004922:	190b      	adds	r3, r1, r4
 8004924:	9305      	str	r3, [sp, #20]
 8004926:	9004      	str	r0, [sp, #16]
 8004928:	4b2e      	ldr	r3, [pc, #184]	@ (80049e4 <main+0x1dc>)
 800492a:	0612      	lsls	r2, r2, #24
 800492c:	9804      	ldr	r0, [sp, #16]
 800492e:	9905      	ldr	r1, [sp, #20]
 8004930:	f000 fa48 	bl	8004dc4 <pow>
 8004934:	190b      	adds	r3, r1, r4
 8004936:	9006      	str	r0, [sp, #24]
 8004938:	9307      	str	r3, [sp, #28]
 800493a:	9806      	ldr	r0, [sp, #24]
 800493c:	9907      	ldr	r1, [sp, #28]
 800493e:	f7fd fe61 	bl	8002604 <__aeabi_d2iz>
 8004942:	0004      	movs	r4, r0
 8004944:	0030      	movs	r0, r6
 8004946:	f7fd fe99 	bl	800267c <__aeabi_i2d>
 800494a:	2e00      	cmp	r6, #0
 800494c:	da2e      	bge.n	80049ac <main+0x1a4>
 800494e:	2580      	movs	r5, #128	@ 0x80
 8004950:	22c0      	movs	r2, #192	@ 0xc0
 8004952:	062d      	lsls	r5, r5, #24
 8004954:	194b      	adds	r3, r1, r5
 8004956:	9309      	str	r3, [sp, #36]	@ 0x24
 8004958:	9008      	str	r0, [sp, #32]
 800495a:	4b22      	ldr	r3, [pc, #136]	@ (80049e4 <main+0x1dc>)
 800495c:	0612      	lsls	r2, r2, #24
 800495e:	9808      	ldr	r0, [sp, #32]
 8004960:	9909      	ldr	r1, [sp, #36]	@ 0x24
 8004962:	f000 fa2f 	bl	8004dc4 <pow>
 8004966:	194b      	adds	r3, r1, r5
 8004968:	900a      	str	r0, [sp, #40]	@ 0x28
 800496a:	930b      	str	r3, [sp, #44]	@ 0x2c
 800496c:	980a      	ldr	r0, [sp, #40]	@ 0x28
 800496e:	990b      	ldr	r1, [sp, #44]	@ 0x2c
 8004970:	f7fd fe48 	bl	8002604 <__aeabi_d2iz>
 8004974:	2180      	movs	r1, #128	@ 0x80
 8004976:	0005      	movs	r5, r0
 8004978:	0189      	lsls	r1, r1, #6
 800497a:	481b      	ldr	r0, [pc, #108]	@ (80049e8 <main+0x1e0>)
 800497c:	f7fe f89e 	bl	8002abc <HAL_GPIO_ReadPin>
 8004980:	1e03      	subs	r3, r0, #0
 8004982:	d1a0      	bne.n	80048c6 <main+0xbe>
 8004984:	4e0e      	ldr	r6, [pc, #56]	@ (80049c0 <main+0x1b8>)
 8004986:	4264      	negs	r4, r4
 8004988:	426d      	negs	r5, r5
 800498a:	9002      	str	r0, [sp, #8]
 800498c:	2204      	movs	r2, #4
 800498e:	0030      	movs	r0, r6
 8004990:	4916      	ldr	r1, [pc, #88]	@ (80049ec <main+0x1e4>)
 8004992:	9401      	str	r4, [sp, #4]
 8004994:	9500      	str	r5, [sp, #0]
 8004996:	f7ff fc75 	bl	8004284 <espAt_sendParams>
 800499a:	e794      	b.n	80048c6 <main+0xbe>
 800499c:	f7fd fe6e 	bl	800267c <__aeabi_i2d>
 80049a0:	22c0      	movs	r2, #192	@ 0xc0
 80049a2:	4b10      	ldr	r3, [pc, #64]	@ (80049e4 <main+0x1dc>)
 80049a4:	0612      	lsls	r2, r2, #24
 80049a6:	f000 fa0d 	bl	8004dc4 <pow>
 80049aa:	e7c8      	b.n	800493e <main+0x136>
 80049ac:	22c0      	movs	r2, #192	@ 0xc0
 80049ae:	4b0d      	ldr	r3, [pc, #52]	@ (80049e4 <main+0x1dc>)
 80049b0:	0612      	lsls	r2, r2, #24
 80049b2:	f000 fa07 	bl	8004dc4 <pow>
 80049b6:	e7db      	b.n	8004970 <main+0x168>
 80049b8:	200000e4 	.word	0x200000e4
 80049bc:	20000090 	.word	0x20000090
 80049c0:	20000100 	.word	0x20000100
 80049c4:	200001a0 	.word	0x200001a0
 80049c8:	08005ca1 	.word	0x08005ca1
 80049cc:	08005ca5 	.word	0x08005ca5
 80049d0:	08005caf 	.word	0x08005caf
 80049d4:	08005cba 	.word	0x08005cba
 80049d8:	08005cc5 	.word	0x08005cc5
 80049dc:	00465000 	.word	0x00465000
 80049e0:	3ba3d70a 	.word	0x3ba3d70a
 80049e4:	3ffccccc 	.word	0x3ffccccc
 80049e8:	50000800 	.word	0x50000800
 80049ec:	08005cce 	.word	0x08005cce

080049f0 <Error_Handler>:
 80049f0:	b672      	cpsid	i
 80049f2:	e7fe      	b.n	80049f2 <Error_Handler+0x2>

080049f4 <HAL_MspInit>:
 80049f4:	2101      	movs	r1, #1
 80049f6:	4b0a      	ldr	r3, [pc, #40]	@ (8004a20 <HAL_MspInit+0x2c>)
 80049f8:	b082      	sub	sp, #8
 80049fa:	6c1a      	ldr	r2, [r3, #64]	@ 0x40
 80049fc:	430a      	orrs	r2, r1
 80049fe:	641a      	str	r2, [r3, #64]	@ 0x40
 8004a00:	6c1a      	ldr	r2, [r3, #64]	@ 0x40
 8004a02:	400a      	ands	r2, r1
 8004a04:	2180      	movs	r1, #128	@ 0x80
 8004a06:	9200      	str	r2, [sp, #0]
 8004a08:	9a00      	ldr	r2, [sp, #0]
 8004a0a:	6bda      	ldr	r2, [r3, #60]	@ 0x3c
 8004a0c:	0549      	lsls	r1, r1, #21
 8004a0e:	430a      	orrs	r2, r1
 8004a10:	63da      	str	r2, [r3, #60]	@ 0x3c
 8004a12:	6bdb      	ldr	r3, [r3, #60]	@ 0x3c
 8004a14:	400b      	ands	r3, r1
 8004a16:	9301      	str	r3, [sp, #4]
 8004a18:	9b01      	ldr	r3, [sp, #4]
 8004a1a:	b002      	add	sp, #8
 8004a1c:	4770      	bx	lr
 8004a1e:	46c0      	nop			@ (mov r8, r8)
 8004a20:	40021000 	.word	0x40021000

08004a24 <NMI_Handler>:
 8004a24:	e7fe      	b.n	8004a24 <NMI_Handler>

08004a26 <HardFault_Handler>:
 8004a26:	e7fe      	b.n	8004a26 <HardFault_Handler>

08004a28 <SVC_Handler>:
 8004a28:	4770      	bx	lr

08004a2a <PendSV_Handler>:
 8004a2a:	4770      	bx	lr

08004a2c <SysTick_Handler>:
 8004a2c:	b510      	push	{r4, lr}
 8004a2e:	f7fd feb9 	bl	80027a4 <HAL_IncTick>
 8004a32:	bd10      	pop	{r4, pc}

08004a34 <SystemInit>:
 8004a34:	4770      	bx	lr
	...

08004a38 <MX_USART1_UART_Init>:
 8004a38:	b510      	push	{r4, lr}
 8004a3a:	4b18      	ldr	r3, [pc, #96]	@ (8004a9c <MX_USART1_UART_Init+0x64>)
 8004a3c:	4c18      	ldr	r4, [pc, #96]	@ (8004aa0 <MX_USART1_UART_Init+0x68>)
 8004a3e:	220c      	movs	r2, #12
 8004a40:	6023      	str	r3, [r4, #0]
 8004a42:	23e1      	movs	r3, #225	@ 0xe1
 8004a44:	025b      	lsls	r3, r3, #9
 8004a46:	6063      	str	r3, [r4, #4]
 8004a48:	2300      	movs	r3, #0
 8004a4a:	0020      	movs	r0, r4
 8004a4c:	60a3      	str	r3, [r4, #8]
 8004a4e:	60e3      	str	r3, [r4, #12]
 8004a50:	6123      	str	r3, [r4, #16]
 8004a52:	6162      	str	r2, [r4, #20]
 8004a54:	61a3      	str	r3, [r4, #24]
 8004a56:	61e3      	str	r3, [r4, #28]
 8004a58:	6223      	str	r3, [r4, #32]
 8004a5a:	6263      	str	r3, [r4, #36]	@ 0x24
 8004a5c:	62a3      	str	r3, [r4, #40]	@ 0x28
 8004a5e:	f7ff fb0f 	bl	8004080 <HAL_UART_Init>
 8004a62:	2800      	cmp	r0, #0
 8004a64:	d001      	beq.n	8004a6a <MX_USART1_UART_Init+0x32>
 8004a66:	f7ff ffc3 	bl	80049f0 <Error_Handler>
 8004a6a:	2100      	movs	r1, #0
 8004a6c:	0020      	movs	r0, r4
 8004a6e:	f7ff fb81 	bl	8004174 <HAL_UARTEx_SetTxFifoThreshold>
 8004a72:	2800      	cmp	r0, #0
 8004a74:	d001      	beq.n	8004a7a <MX_USART1_UART_Init+0x42>
 8004a76:	f7ff ffbb 	bl	80049f0 <Error_Handler>
 8004a7a:	2100      	movs	r1, #0
 8004a7c:	0020      	movs	r0, r4
 8004a7e:	f7ff fb99 	bl	80041b4 <HAL_UARTEx_SetRxFifoThreshold>
 8004a82:	2800      	cmp	r0, #0
 8004a84:	d001      	beq.n	8004a8a <MX_USART1_UART_Init+0x52>
 8004a86:	f7ff ffb3 	bl	80049f0 <Error_Handler>
 8004a8a:	0020      	movs	r0, r4
 8004a8c:	f7ff fb54 	bl	8004138 <HAL_UARTEx_DisableFifoMode>
 8004a90:	2800      	cmp	r0, #0
 8004a92:	d001      	beq.n	8004a98 <MX_USART1_UART_Init+0x60>
 8004a94:	f7ff ffac 	bl	80049f0 <Error_Handler>
 8004a98:	bd10      	pop	{r4, pc}
 8004a9a:	46c0      	nop			@ (mov r8, r8)
 8004a9c:	40013800 	.word	0x40013800
 8004aa0:	200001a0 	.word	0x200001a0

08004aa4 <MX_USART2_UART_Init>:
 8004aa4:	b510      	push	{r4, lr}
 8004aa6:	4b18      	ldr	r3, [pc, #96]	@ (8004b08 <MX_USART2_UART_Init+0x64>)
 8004aa8:	4c18      	ldr	r4, [pc, #96]	@ (8004b0c <MX_USART2_UART_Init+0x68>)
 8004aaa:	220c      	movs	r2, #12
 8004aac:	6023      	str	r3, [r4, #0]
 8004aae:	23e1      	movs	r3, #225	@ 0xe1
 8004ab0:	025b      	lsls	r3, r3, #9
 8004ab2:	6063      	str	r3, [r4, #4]
 8004ab4:	2300      	movs	r3, #0
 8004ab6:	0020      	movs	r0, r4
 8004ab8:	60a3      	str	r3, [r4, #8]
 8004aba:	60e3      	str	r3, [r4, #12]
 8004abc:	6123      	str	r3, [r4, #16]
 8004abe:	6162      	str	r2, [r4, #20]
 8004ac0:	61a3      	str	r3, [r4, #24]
 8004ac2:	61e3      	str	r3, [r4, #28]
 8004ac4:	6223      	str	r3, [r4, #32]
 8004ac6:	6263      	str	r3, [r4, #36]	@ 0x24
 8004ac8:	62a3      	str	r3, [r4, #40]	@ 0x28
 8004aca:	f7ff fad9 	bl	8004080 <HAL_UART_Init>
 8004ace:	2800      	cmp	r0, #0
 8004ad0:	d001      	beq.n	8004ad6 <MX_USART2_UART_Init+0x32>
 8004ad2:	f7ff ff8d 	bl	80049f0 <Error_Handler>
 8004ad6:	2100      	movs	r1, #0
 8004ad8:	0020      	movs	r0, r4
 8004ada:	f7ff fb4b 	bl	8004174 <HAL_UARTEx_SetTxFifoThreshold>
 8004ade:	2800      	cmp	r0, #0
 8004ae0:	d001      	beq.n	8004ae6 <MX_USART2_UART_Init+0x42>
 8004ae2:	f7ff ff85 	bl	80049f0 <Error_Handler>
 8004ae6:	2100      	movs	r1, #0
 8004ae8:	0020      	movs	r0, r4
 8004aea:	f7ff fb63 	bl	80041b4 <HAL_UARTEx_SetRxFifoThreshold>
 8004aee:	2800      	cmp	r0, #0
 8004af0:	d001      	beq.n	8004af6 <MX_USART2_UART_Init+0x52>
 8004af2:	f7ff ff7d 	bl	80049f0 <Error_Handler>
 8004af6:	0020      	movs	r0, r4
 8004af8:	f7ff fb1e 	bl	8004138 <HAL_UARTEx_DisableFifoMode>
 8004afc:	2800      	cmp	r0, #0
 8004afe:	d001      	beq.n	8004b04 <MX_USART2_UART_Init+0x60>
 8004b00:	f7ff ff76 	bl	80049f0 <Error_Handler>
 8004b04:	bd10      	pop	{r4, pc}
 8004b06:	46c0      	nop			@ (mov r8, r8)
 8004b08:	40004400 	.word	0x40004400
 8004b0c:	2000010c 	.word	0x2000010c

08004b10 <HAL_UART_MspInit>:
 8004b10:	b510      	push	{r4, lr}
 8004b12:	0004      	movs	r4, r0
 8004b14:	b096      	sub	sp, #88	@ 0x58
 8004b16:	2214      	movs	r2, #20
 8004b18:	2100      	movs	r1, #0
 8004b1a:	a804      	add	r0, sp, #16
 8004b1c:	f000 f916 	bl	8004d4c <memset>
 8004b20:	2234      	movs	r2, #52	@ 0x34
 8004b22:	2100      	movs	r1, #0
 8004b24:	a809      	add	r0, sp, #36	@ 0x24
 8004b26:	f000 f911 	bl	8004d4c <memset>
 8004b2a:	6823      	ldr	r3, [r4, #0]
 8004b2c:	4a2b      	ldr	r2, [pc, #172]	@ (8004bdc <HAL_UART_MspInit+0xcc>)
 8004b2e:	4293      	cmp	r3, r2
 8004b30:	d129      	bne.n	8004b86 <HAL_UART_MspInit+0x76>
 8004b32:	2301      	movs	r3, #1
 8004b34:	a809      	add	r0, sp, #36	@ 0x24
 8004b36:	9309      	str	r3, [sp, #36]	@ 0x24
 8004b38:	f7fe feb4 	bl	80038a4 <HAL_RCCEx_PeriphCLKConfig>
 8004b3c:	2800      	cmp	r0, #0
 8004b3e:	d001      	beq.n	8004b44 <HAL_UART_MspInit+0x34>
 8004b40:	f7ff ff56 	bl	80049f0 <Error_Handler>
 8004b44:	2180      	movs	r1, #128	@ 0x80
 8004b46:	4b26      	ldr	r3, [pc, #152]	@ (8004be0 <HAL_UART_MspInit+0xd0>)
 8004b48:	01c9      	lsls	r1, r1, #7
 8004b4a:	6c1a      	ldr	r2, [r3, #64]	@ 0x40
 8004b4c:	4825      	ldr	r0, [pc, #148]	@ (8004be4 <HAL_UART_MspInit+0xd4>)
 8004b4e:	430a      	orrs	r2, r1
 8004b50:	641a      	str	r2, [r3, #64]	@ 0x40
 8004b52:	6c1a      	ldr	r2, [r3, #64]	@ 0x40
 8004b54:	400a      	ands	r2, r1
 8004b56:	2104      	movs	r1, #4
 8004b58:	9200      	str	r2, [sp, #0]
 8004b5a:	9a00      	ldr	r2, [sp, #0]
 8004b5c:	6b5a      	ldr	r2, [r3, #52]	@ 0x34
 8004b5e:	430a      	orrs	r2, r1
 8004b60:	635a      	str	r2, [r3, #52]	@ 0x34
 8004b62:	6b5b      	ldr	r3, [r3, #52]	@ 0x34
 8004b64:	400b      	ands	r3, r1
 8004b66:	9301      	str	r3, [sp, #4]
 8004b68:	9b01      	ldr	r3, [sp, #4]
 8004b6a:	2330      	movs	r3, #48	@ 0x30
 8004b6c:	9304      	str	r3, [sp, #16]
 8004b6e:	3b2e      	subs	r3, #46	@ 0x2e
 8004b70:	9305      	str	r3, [sp, #20]
 8004b72:	2300      	movs	r3, #0
 8004b74:	9306      	str	r3, [sp, #24]
 8004b76:	9307      	str	r3, [sp, #28]
 8004b78:	3301      	adds	r3, #1
 8004b7a:	9308      	str	r3, [sp, #32]
 8004b7c:	a904      	add	r1, sp, #16
 8004b7e:	f7fd fe79 	bl	8002874 <HAL_GPIO_Init>
 8004b82:	b016      	add	sp, #88	@ 0x58
 8004b84:	bd10      	pop	{r4, pc}
 8004b86:	4a18      	ldr	r2, [pc, #96]	@ (8004be8 <HAL_UART_MspInit+0xd8>)
 8004b88:	4293      	cmp	r3, r2
 8004b8a:	d1fa      	bne.n	8004b82 <HAL_UART_MspInit+0x72>
 8004b8c:	2302      	movs	r3, #2
 8004b8e:	a809      	add	r0, sp, #36	@ 0x24
 8004b90:	9309      	str	r3, [sp, #36]	@ 0x24
 8004b92:	f7fe fe87 	bl	80038a4 <HAL_RCCEx_PeriphCLKConfig>
 8004b96:	2800      	cmp	r0, #0
 8004b98:	d001      	beq.n	8004b9e <HAL_UART_MspInit+0x8e>
 8004b9a:	f7ff ff29 	bl	80049f0 <Error_Handler>
 8004b9e:	2180      	movs	r1, #128	@ 0x80
 8004ba0:	4b0f      	ldr	r3, [pc, #60]	@ (8004be0 <HAL_UART_MspInit+0xd0>)
 8004ba2:	0289      	lsls	r1, r1, #10
 8004ba4:	6bda      	ldr	r2, [r3, #60]	@ 0x3c
 8004ba6:	20a0      	movs	r0, #160	@ 0xa0
 8004ba8:	430a      	orrs	r2, r1
 8004baa:	63da      	str	r2, [r3, #60]	@ 0x3c
 8004bac:	6bda      	ldr	r2, [r3, #60]	@ 0x3c
 8004bae:	05c0      	lsls	r0, r0, #23
 8004bb0:	400a      	ands	r2, r1
 8004bb2:	9202      	str	r2, [sp, #8]
 8004bb4:	9a02      	ldr	r2, [sp, #8]
 8004bb6:	2201      	movs	r2, #1
 8004bb8:	6b59      	ldr	r1, [r3, #52]	@ 0x34
 8004bba:	4311      	orrs	r1, r2
 8004bbc:	6359      	str	r1, [r3, #52]	@ 0x34
 8004bbe:	6b5b      	ldr	r3, [r3, #52]	@ 0x34
 8004bc0:	a904      	add	r1, sp, #16
 8004bc2:	4013      	ands	r3, r2
 8004bc4:	9303      	str	r3, [sp, #12]
 8004bc6:	9b03      	ldr	r3, [sp, #12]
 8004bc8:	230c      	movs	r3, #12
 8004bca:	9304      	str	r3, [sp, #16]
 8004bcc:	3b0a      	subs	r3, #10
 8004bce:	9305      	str	r3, [sp, #20]
 8004bd0:	2300      	movs	r3, #0
 8004bd2:	9208      	str	r2, [sp, #32]
 8004bd4:	9306      	str	r3, [sp, #24]
 8004bd6:	9307      	str	r3, [sp, #28]
 8004bd8:	e7d1      	b.n	8004b7e <HAL_UART_MspInit+0x6e>
 8004bda:	46c0      	nop			@ (mov r8, r8)
 8004bdc:	40013800 	.word	0x40013800
 8004be0:	40021000 	.word	0x40021000
 8004be4:	50000800 	.word	0x50000800
 8004be8:	40004400 	.word	0x40004400

08004bec <HAL_UART_MspDeInit>:
 8004bec:	6803      	ldr	r3, [r0, #0]
 8004bee:	4a0d      	ldr	r2, [pc, #52]	@ (8004c24 <HAL_UART_MspDeInit+0x38>)
 8004bf0:	b510      	push	{r4, lr}
 8004bf2:	4293      	cmp	r3, r2
 8004bf4:	d109      	bne.n	8004c0a <HAL_UART_MspDeInit+0x1e>
 8004bf6:	4a0c      	ldr	r2, [pc, #48]	@ (8004c28 <HAL_UART_MspDeInit+0x3c>)
 8004bf8:	490c      	ldr	r1, [pc, #48]	@ (8004c2c <HAL_UART_MspDeInit+0x40>)
 8004bfa:	6c13      	ldr	r3, [r2, #64]	@ 0x40
 8004bfc:	480c      	ldr	r0, [pc, #48]	@ (8004c30 <HAL_UART_MspDeInit+0x44>)
 8004bfe:	400b      	ands	r3, r1
 8004c00:	2130      	movs	r1, #48	@ 0x30
 8004c02:	6413      	str	r3, [r2, #64]	@ 0x40
 8004c04:	f7fd fee8 	bl	80029d8 <HAL_GPIO_DeInit>
 8004c08:	bd10      	pop	{r4, pc}
 8004c0a:	4a0a      	ldr	r2, [pc, #40]	@ (8004c34 <HAL_UART_MspDeInit+0x48>)
 8004c0c:	4293      	cmp	r3, r2
 8004c0e:	d1fb      	bne.n	8004c08 <HAL_UART_MspDeInit+0x1c>
 8004c10:	20a0      	movs	r0, #160	@ 0xa0
 8004c12:	4a05      	ldr	r2, [pc, #20]	@ (8004c28 <HAL_UART_MspDeInit+0x3c>)
 8004c14:	4908      	ldr	r1, [pc, #32]	@ (8004c38 <HAL_UART_MspDeInit+0x4c>)
 8004c16:	6bd3      	ldr	r3, [r2, #60]	@ 0x3c
 8004c18:	05c0      	lsls	r0, r0, #23
 8004c1a:	400b      	ands	r3, r1
 8004c1c:	63d3      	str	r3, [r2, #60]	@ 0x3c
 8004c1e:	210c      	movs	r1, #12
 8004c20:	e7f0      	b.n	8004c04 <HAL_UART_MspDeInit+0x18>
 8004c22:	46c0      	nop			@ (mov r8, r8)
 8004c24:	40013800 	.word	0x40013800
 8004c28:	40021000 	.word	0x40021000
 8004c2c:	ffffbfff 	.word	0xffffbfff
 8004c30:	50000800 	.word	0x50000800
 8004c34:	40004400 	.word	0x40004400
 8004c38:	fffdffff 	.word	0xfffdffff

08004c3c <HAL_UART_ChangeSpeed>:
 8004c3c:	b570      	push	{r4, r5, r6, lr}
 8004c3e:	0004      	movs	r4, r0
 8004c40:	000d      	movs	r5, r1
 8004c42:	f7fe ff65 	bl	8003b10 <HAL_UART_DeInit>
 8004c46:	0020      	movs	r0, r4
 8004c48:	6065      	str	r5, [r4, #4]
 8004c4a:	f7ff fa19 	bl	8004080 <HAL_UART_Init>
 8004c4e:	2800      	cmp	r0, #0
 8004c50:	d001      	beq.n	8004c56 <HAL_UART_ChangeSpeed+0x1a>
 8004c52:	f7ff fecd 	bl	80049f0 <Error_Handler>
 8004c56:	bd70      	pop	{r4, r5, r6, pc}

08004c58 <Reset_Handler>:
 8004c58:	480d      	ldr	r0, [pc, #52]	@ (8004c90 <LoopForever+0x2>)
 8004c5a:	4685      	mov	sp, r0
 8004c5c:	f7ff feea 	bl	8004a34 <SystemInit>
 8004c60:	480c      	ldr	r0, [pc, #48]	@ (8004c94 <LoopForever+0x6>)
 8004c62:	490d      	ldr	r1, [pc, #52]	@ (8004c98 <LoopForever+0xa>)
 8004c64:	4a0d      	ldr	r2, [pc, #52]	@ (8004c9c <LoopForever+0xe>)
 8004c66:	2300      	movs	r3, #0
 8004c68:	e002      	b.n	8004c70 <LoopCopyDataInit>

08004c6a <CopyDataInit>:
 8004c6a:	58d4      	ldr	r4, [r2, r3]
 8004c6c:	50c4      	str	r4, [r0, r3]
 8004c6e:	3304      	adds	r3, #4

08004c70 <LoopCopyDataInit>:
 8004c70:	18c4      	adds	r4, r0, r3
 8004c72:	428c      	cmp	r4, r1
 8004c74:	d3f9      	bcc.n	8004c6a <CopyDataInit>
 8004c76:	4a0a      	ldr	r2, [pc, #40]	@ (8004ca0 <LoopForever+0x12>)
 8004c78:	4c0a      	ldr	r4, [pc, #40]	@ (8004ca4 <LoopForever+0x16>)
 8004c7a:	2300      	movs	r3, #0
 8004c7c:	e001      	b.n	8004c82 <LoopFillZerobss>

08004c7e <FillZerobss>:
 8004c7e:	6013      	str	r3, [r2, #0]
 8004c80:	3204      	adds	r2, #4

08004c82 <LoopFillZerobss>:
 8004c82:	42a2      	cmp	r2, r4
 8004c84:	d3fb      	bcc.n	8004c7e <FillZerobss>
 8004c86:	f000 f86f 	bl	8004d68 <__libc_init_array>
 8004c8a:	f7ff fdbd 	bl	8004808 <main>

08004c8e <LoopForever>:
 8004c8e:	e7fe      	b.n	8004c8e <LoopForever>
 8004c90:	20009000 	.word	0x20009000
 8004c94:	20000000 	.word	0x20000000
 8004c98:	20000070 	.word	0x20000070
 8004c9c:	08005da0 	.word	0x08005da0
 8004ca0:	20000070 	.word	0x20000070
 8004ca4:	2000036c 	.word	0x2000036c

08004ca8 <ADC1_COMP_IRQHandler>:
 8004ca8:	e7fe      	b.n	8004ca8 <ADC1_COMP_IRQHandler>

08004caa <__itoa>:
 8004caa:	1e93      	subs	r3, r2, #2
 8004cac:	b510      	push	{r4, lr}
 8004cae:	000c      	movs	r4, r1
 8004cb0:	2b22      	cmp	r3, #34	@ 0x22
 8004cb2:	d904      	bls.n	8004cbe <__itoa+0x14>
 8004cb4:	2300      	movs	r3, #0
 8004cb6:	001c      	movs	r4, r3
 8004cb8:	700b      	strb	r3, [r1, #0]
 8004cba:	0020      	movs	r0, r4
 8004cbc:	bd10      	pop	{r4, pc}
 8004cbe:	2a0a      	cmp	r2, #10
 8004cc0:	d109      	bne.n	8004cd6 <__itoa+0x2c>
 8004cc2:	2800      	cmp	r0, #0
 8004cc4:	da07      	bge.n	8004cd6 <__itoa+0x2c>
 8004cc6:	232d      	movs	r3, #45	@ 0x2d
 8004cc8:	700b      	strb	r3, [r1, #0]
 8004cca:	2101      	movs	r1, #1
 8004ccc:	4240      	negs	r0, r0
 8004cce:	1861      	adds	r1, r4, r1
 8004cd0:	f000 f808 	bl	8004ce4 <__utoa>
 8004cd4:	e7f1      	b.n	8004cba <__itoa+0x10>
 8004cd6:	2100      	movs	r1, #0
 8004cd8:	e7f9      	b.n	8004cce <__itoa+0x24>

08004cda <itoa>:
 8004cda:	b510      	push	{r4, lr}
 8004cdc:	f7ff ffe5 	bl	8004caa <__itoa>
 8004ce0:	bd10      	pop	{r4, pc}
	...

08004ce4 <__utoa>:
 8004ce4:	b5f0      	push	{r4, r5, r6, r7, lr}
 8004ce6:	000c      	movs	r4, r1
 8004ce8:	0016      	movs	r6, r2
 8004cea:	b08d      	sub	sp, #52	@ 0x34
 8004cec:	2225      	movs	r2, #37	@ 0x25
 8004cee:	0007      	movs	r7, r0
 8004cf0:	4915      	ldr	r1, [pc, #84]	@ (8004d48 <__utoa+0x64>)
 8004cf2:	a802      	add	r0, sp, #8
 8004cf4:	f000 f85c 	bl	8004db0 <memcpy>
 8004cf8:	1e62      	subs	r2, r4, #1
 8004cfa:	1eb3      	subs	r3, r6, #2
 8004cfc:	2500      	movs	r5, #0
 8004cfe:	9201      	str	r2, [sp, #4]
 8004d00:	2b22      	cmp	r3, #34	@ 0x22
 8004d02:	d904      	bls.n	8004d0e <__utoa+0x2a>
 8004d04:	7025      	strb	r5, [r4, #0]
 8004d06:	002c      	movs	r4, r5
 8004d08:	0020      	movs	r0, r4
 8004d0a:	b00d      	add	sp, #52	@ 0x34
 8004d0c:	bdf0      	pop	{r4, r5, r6, r7, pc}
 8004d0e:	0038      	movs	r0, r7
 8004d10:	0031      	movs	r1, r6
 8004d12:	f7fb fa85 	bl	8000220 <__aeabi_uidivmod>
 8004d16:	000b      	movs	r3, r1
 8004d18:	aa02      	add	r2, sp, #8
 8004d1a:	5cd3      	ldrb	r3, [r2, r3]
 8004d1c:	9a01      	ldr	r2, [sp, #4]
 8004d1e:	0029      	movs	r1, r5
 8004d20:	3501      	adds	r5, #1
 8004d22:	5553      	strb	r3, [r2, r5]
 8004d24:	003b      	movs	r3, r7
 8004d26:	0007      	movs	r7, r0
 8004d28:	429e      	cmp	r6, r3
 8004d2a:	d9f0      	bls.n	8004d0e <__utoa+0x2a>
 8004d2c:	2300      	movs	r3, #0
 8004d2e:	0022      	movs	r2, r4
 8004d30:	5563      	strb	r3, [r4, r5]
 8004d32:	000b      	movs	r3, r1
 8004d34:	1ac8      	subs	r0, r1, r3
 8004d36:	4283      	cmp	r3, r0
 8004d38:	dde6      	ble.n	8004d08 <__utoa+0x24>
 8004d3a:	7810      	ldrb	r0, [r2, #0]
 8004d3c:	5ce5      	ldrb	r5, [r4, r3]
 8004d3e:	7015      	strb	r5, [r2, #0]
 8004d40:	54e0      	strb	r0, [r4, r3]
 8004d42:	3201      	adds	r2, #1
 8004d44:	3b01      	subs	r3, #1
 8004d46:	e7f5      	b.n	8004d34 <__utoa+0x50>
 8004d48:	08005d38 	.word	0x08005d38

08004d4c <memset>:
 8004d4c:	0003      	movs	r3, r0
 8004d4e:	1882      	adds	r2, r0, r2
 8004d50:	4293      	cmp	r3, r2
 8004d52:	d100      	bne.n	8004d56 <memset+0xa>
 8004d54:	4770      	bx	lr
 8004d56:	7019      	strb	r1, [r3, #0]
 8004d58:	3301      	adds	r3, #1
 8004d5a:	e7f9      	b.n	8004d50 <memset+0x4>

08004d5c <__errno>:
 8004d5c:	4b01      	ldr	r3, [pc, #4]	@ (8004d64 <__errno+0x8>)
 8004d5e:	6818      	ldr	r0, [r3, #0]
 8004d60:	4770      	bx	lr
 8004d62:	46c0      	nop			@ (mov r8, r8)
 8004d64:	2000000c 	.word	0x2000000c

08004d68 <__libc_init_array>:
 8004d68:	b570      	push	{r4, r5, r6, lr}
 8004d6a:	2600      	movs	r6, #0
 8004d6c:	4c0c      	ldr	r4, [pc, #48]	@ (8004da0 <__libc_init_array+0x38>)
 8004d6e:	4d0d      	ldr	r5, [pc, #52]	@ (8004da4 <__libc_init_array+0x3c>)
 8004d70:	1b64      	subs	r4, r4, r5
 8004d72:	10a4      	asrs	r4, r4, #2
 8004d74:	42a6      	cmp	r6, r4
 8004d76:	d109      	bne.n	8004d8c <__libc_init_array+0x24>
 8004d78:	2600      	movs	r6, #0
 8004d7a:	f000 ff4b 	bl	8005c14 <_init>
 8004d7e:	4c0a      	ldr	r4, [pc, #40]	@ (8004da8 <__libc_init_array+0x40>)
 8004d80:	4d0a      	ldr	r5, [pc, #40]	@ (8004dac <__libc_init_array+0x44>)
 8004d82:	1b64      	subs	r4, r4, r5
 8004d84:	10a4      	asrs	r4, r4, #2
 8004d86:	42a6      	cmp	r6, r4
 8004d88:	d105      	bne.n	8004d96 <__libc_init_array+0x2e>
 8004d8a:	bd70      	pop	{r4, r5, r6, pc}
 8004d8c:	00b3      	lsls	r3, r6, #2
 8004d8e:	58eb      	ldr	r3, [r5, r3]
 8004d90:	4798      	blx	r3
 8004d92:	3601      	adds	r6, #1
 8004d94:	e7ee      	b.n	8004d74 <__libc_init_array+0xc>
 8004d96:	00b3      	lsls	r3, r6, #2
 8004d98:	58eb      	ldr	r3, [r5, r3]
 8004d9a:	4798      	blx	r3
 8004d9c:	3601      	adds	r6, #1
 8004d9e:	e7f2      	b.n	8004d86 <__libc_init_array+0x1e>
 8004da0:	08005d98 	.word	0x08005d98
 8004da4:	08005d98 	.word	0x08005d98
 8004da8:	08005d9c 	.word	0x08005d9c
 8004dac:	08005d98 	.word	0x08005d98

08004db0 <memcpy>:
 8004db0:	2300      	movs	r3, #0
 8004db2:	b510      	push	{r4, lr}
 8004db4:	429a      	cmp	r2, r3
 8004db6:	d100      	bne.n	8004dba <memcpy+0xa>
 8004db8:	bd10      	pop	{r4, pc}
 8004dba:	5ccc      	ldrb	r4, [r1, r3]
 8004dbc:	54c4      	strb	r4, [r0, r3]
 8004dbe:	3301      	adds	r3, #1
 8004dc0:	e7f8      	b.n	8004db4 <memcpy+0x4>
	...

08004dc4 <pow>:
 8004dc4:	b5f7      	push	{r0, r1, r2, r4, r5, r6, r7, lr}
 8004dc6:	0014      	movs	r4, r2
 8004dc8:	001d      	movs	r5, r3
 8004dca:	9000      	str	r0, [sp, #0]
 8004dcc:	9101      	str	r1, [sp, #4]
 8004dce:	f000 f86f 	bl	8004eb0 <__ieee754_pow>
 8004dd2:	0022      	movs	r2, r4
 8004dd4:	0006      	movs	r6, r0
 8004dd6:	000f      	movs	r7, r1
 8004dd8:	002b      	movs	r3, r5
 8004dda:	0020      	movs	r0, r4
 8004ddc:	0029      	movs	r1, r5
 8004dde:	f7fd fbef 	bl	80025c0 <__aeabi_dcmpun>
 8004de2:	2800      	cmp	r0, #0
 8004de4:	d13f      	bne.n	8004e66 <pow+0xa2>
 8004de6:	9800      	ldr	r0, [sp, #0]
 8004de8:	9901      	ldr	r1, [sp, #4]
 8004dea:	2200      	movs	r2, #0
 8004dec:	2300      	movs	r3, #0
 8004dee:	f7fb fb17 	bl	8000420 <__aeabi_dcmpeq>
 8004df2:	2800      	cmp	r0, #0
 8004df4:	d019      	beq.n	8004e2a <pow+0x66>
 8004df6:	2200      	movs	r2, #0
 8004df8:	2300      	movs	r3, #0
 8004dfa:	0020      	movs	r0, r4
 8004dfc:	0029      	movs	r1, r5
 8004dfe:	f7fb fb0f 	bl	8000420 <__aeabi_dcmpeq>
 8004e02:	2800      	cmp	r0, #0
 8004e04:	d146      	bne.n	8004e94 <pow+0xd0>
 8004e06:	0020      	movs	r0, r4
 8004e08:	0029      	movs	r1, r5
 8004e0a:	f000 f849 	bl	8004ea0 <finite>
 8004e0e:	2800      	cmp	r0, #0
 8004e10:	d029      	beq.n	8004e66 <pow+0xa2>
 8004e12:	2200      	movs	r2, #0
 8004e14:	2300      	movs	r3, #0
 8004e16:	0020      	movs	r0, r4
 8004e18:	0029      	movs	r1, r5
 8004e1a:	f7fb fb07 	bl	800042c <__aeabi_dcmplt>
 8004e1e:	2800      	cmp	r0, #0
 8004e20:	d021      	beq.n	8004e66 <pow+0xa2>
 8004e22:	f7ff ff9b 	bl	8004d5c <__errno>
 8004e26:	2322      	movs	r3, #34	@ 0x22
 8004e28:	e01c      	b.n	8004e64 <pow+0xa0>
 8004e2a:	0030      	movs	r0, r6
 8004e2c:	0039      	movs	r1, r7
 8004e2e:	f000 f837 	bl	8004ea0 <finite>
 8004e32:	2800      	cmp	r0, #0
 8004e34:	d11b      	bne.n	8004e6e <pow+0xaa>
 8004e36:	9800      	ldr	r0, [sp, #0]
 8004e38:	9901      	ldr	r1, [sp, #4]
 8004e3a:	f000 f831 	bl	8004ea0 <finite>
 8004e3e:	2800      	cmp	r0, #0
 8004e40:	d015      	beq.n	8004e6e <pow+0xaa>
 8004e42:	0020      	movs	r0, r4
 8004e44:	0029      	movs	r1, r5
 8004e46:	f000 f82b 	bl	8004ea0 <finite>
 8004e4a:	2800      	cmp	r0, #0
 8004e4c:	d00f      	beq.n	8004e6e <pow+0xaa>
 8004e4e:	0032      	movs	r2, r6
 8004e50:	003b      	movs	r3, r7
 8004e52:	0030      	movs	r0, r6
 8004e54:	0039      	movs	r1, r7
 8004e56:	f7fd fbb3 	bl	80025c0 <__aeabi_dcmpun>
 8004e5a:	2800      	cmp	r0, #0
 8004e5c:	d0e1      	beq.n	8004e22 <pow+0x5e>
 8004e5e:	f7ff ff7d 	bl	8004d5c <__errno>
 8004e62:	2321      	movs	r3, #33	@ 0x21
 8004e64:	6003      	str	r3, [r0, #0]
 8004e66:	0030      	movs	r0, r6
 8004e68:	0039      	movs	r1, r7
 8004e6a:	b003      	add	sp, #12
 8004e6c:	bdf0      	pop	{r4, r5, r6, r7, pc}
 8004e6e:	2200      	movs	r2, #0
 8004e70:	2300      	movs	r3, #0
 8004e72:	0030      	movs	r0, r6
 8004e74:	0039      	movs	r1, r7
 8004e76:	f7fb fad3 	bl	8000420 <__aeabi_dcmpeq>
 8004e7a:	2800      	cmp	r0, #0
 8004e7c:	d0f3      	beq.n	8004e66 <pow+0xa2>
 8004e7e:	9800      	ldr	r0, [sp, #0]
 8004e80:	9901      	ldr	r1, [sp, #4]
 8004e82:	f000 f80d 	bl	8004ea0 <finite>
 8004e86:	2800      	cmp	r0, #0
 8004e88:	d0ed      	beq.n	8004e66 <pow+0xa2>
 8004e8a:	0020      	movs	r0, r4
 8004e8c:	0029      	movs	r1, r5
 8004e8e:	f000 f807 	bl	8004ea0 <finite>
 8004e92:	e7c4      	b.n	8004e1e <pow+0x5a>
 8004e94:	2600      	movs	r6, #0
 8004e96:	4f01      	ldr	r7, [pc, #4]	@ (8004e9c <pow+0xd8>)
 8004e98:	e7e5      	b.n	8004e66 <pow+0xa2>
 8004e9a:	46c0      	nop			@ (mov r8, r8)
 8004e9c:	3ff00000 	.word	0x3ff00000

08004ea0 <finite>:
 8004ea0:	4b02      	ldr	r3, [pc, #8]	@ (8004eac <finite+0xc>)
 8004ea2:	0048      	lsls	r0, r1, #1
 8004ea4:	0840      	lsrs	r0, r0, #1
 8004ea6:	18c0      	adds	r0, r0, r3
 8004ea8:	0fc0      	lsrs	r0, r0, #31
 8004eaa:	4770      	bx	lr
 8004eac:	80100000 	.word	0x80100000

08004eb0 <__ieee754_pow>:
 8004eb0:	b5f0      	push	{r4, r5, r6, r7, lr}
 8004eb2:	b095      	sub	sp, #84	@ 0x54
 8004eb4:	9202      	str	r2, [sp, #8]
 8004eb6:	9303      	str	r3, [sp, #12]
 8004eb8:	9b03      	ldr	r3, [sp, #12]
 8004eba:	9a03      	ldr	r2, [sp, #12]
 8004ebc:	9306      	str	r3, [sp, #24]
 8004ebe:	0052      	lsls	r2, r2, #1
 8004ec0:	9b02      	ldr	r3, [sp, #8]
 8004ec2:	0852      	lsrs	r2, r2, #1
 8004ec4:	9204      	str	r2, [sp, #16]
 8004ec6:	001a      	movs	r2, r3
 8004ec8:	000f      	movs	r7, r1
 8004eca:	9904      	ldr	r1, [sp, #16]
 8004ecc:	0006      	movs	r6, r0
 8004ece:	430a      	orrs	r2, r1
 8004ed0:	d119      	bne.n	8004f06 <__ieee754_pow+0x56>
 8004ed2:	2180      	movs	r1, #128	@ 0x80
 8004ed4:	0309      	lsls	r1, r1, #12
 8004ed6:	4079      	eors	r1, r7
 8004ed8:	0002      	movs	r2, r0
 8004eda:	000b      	movs	r3, r1
 8004edc:	1892      	adds	r2, r2, r2
 8004ede:	415b      	adcs	r3, r3
 8004ee0:	499b      	ldr	r1, [pc, #620]	@ (8005150 <__ieee754_pow+0x2a0>)
 8004ee2:	428b      	cmp	r3, r1
 8004ee4:	d806      	bhi.n	8004ef4 <__ieee754_pow+0x44>
 8004ee6:	d001      	beq.n	8004eec <__ieee754_pow+0x3c>
 8004ee8:	f000 fcde 	bl	80058a8 <__ieee754_pow+0x9f8>
 8004eec:	2a00      	cmp	r2, #0
 8004eee:	d101      	bne.n	8004ef4 <__ieee754_pow+0x44>
 8004ef0:	f000 fcda 	bl	80058a8 <__ieee754_pow+0x9f8>
 8004ef4:	9a02      	ldr	r2, [sp, #8]
 8004ef6:	9b03      	ldr	r3, [sp, #12]
 8004ef8:	0030      	movs	r0, r6
 8004efa:	0039      	movs	r1, r7
 8004efc:	f7fb fd54 	bl	80009a8 <__aeabi_dadd>
 8004f00:	9000      	str	r0, [sp, #0]
 8004f02:	9101      	str	r1, [sp, #4]
 8004f04:	e0af      	b.n	8005066 <__ieee754_pow+0x1b6>
 8004f06:	4a93      	ldr	r2, [pc, #588]	@ (8005154 <__ieee754_pow+0x2a4>)
 8004f08:	007c      	lsls	r4, r7, #1
 8004f0a:	9708      	str	r7, [sp, #32]
 8004f0c:	900e      	str	r0, [sp, #56]	@ 0x38
 8004f0e:	0864      	lsrs	r4, r4, #1
 8004f10:	4294      	cmp	r4, r2
 8004f12:	d809      	bhi.n	8004f28 <__ieee754_pow+0x78>
 8004f14:	d101      	bne.n	8004f1a <__ieee754_pow+0x6a>
 8004f16:	2800      	cmp	r0, #0
 8004f18:	d1ec      	bne.n	8004ef4 <__ieee754_pow+0x44>
 8004f1a:	9904      	ldr	r1, [sp, #16]
 8004f1c:	4a8d      	ldr	r2, [pc, #564]	@ (8005154 <__ieee754_pow+0x2a4>)
 8004f1e:	4291      	cmp	r1, r2
 8004f20:	d802      	bhi.n	8004f28 <__ieee754_pow+0x78>
 8004f22:	d10c      	bne.n	8004f3e <__ieee754_pow+0x8e>
 8004f24:	2b00      	cmp	r3, #0
 8004f26:	d00a      	beq.n	8004f3e <__ieee754_pow+0x8e>
 8004f28:	4b8b      	ldr	r3, [pc, #556]	@ (8005158 <__ieee754_pow+0x2a8>)
 8004f2a:	18fb      	adds	r3, r7, r3
 8004f2c:	4333      	orrs	r3, r6
 8004f2e:	d1e1      	bne.n	8004ef4 <__ieee754_pow+0x44>
 8004f30:	2180      	movs	r1, #128	@ 0x80
 8004f32:	9803      	ldr	r0, [sp, #12]
 8004f34:	0309      	lsls	r1, r1, #12
 8004f36:	4048      	eors	r0, r1
 8004f38:	0003      	movs	r3, r0
 8004f3a:	9a02      	ldr	r2, [sp, #8]
 8004f3c:	e7ce      	b.n	8004edc <__ieee754_pow+0x2c>
 8004f3e:	2500      	movs	r5, #0
 8004f40:	9a08      	ldr	r2, [sp, #32]
 8004f42:	940a      	str	r4, [sp, #40]	@ 0x28
 8004f44:	42aa      	cmp	r2, r5
 8004f46:	da68      	bge.n	800501a <__ieee754_pow+0x16a>
 8004f48:	4a84      	ldr	r2, [pc, #528]	@ (800515c <__ieee754_pow+0x2ac>)
 8004f4a:	9904      	ldr	r1, [sp, #16]
 8004f4c:	4291      	cmp	r1, r2
 8004f4e:	d863      	bhi.n	8005018 <__ieee754_pow+0x168>
 8004f50:	4a83      	ldr	r2, [pc, #524]	@ (8005160 <__ieee754_pow+0x2b0>)
 8004f52:	4291      	cmp	r1, r2
 8004f54:	d910      	bls.n	8004f78 <__ieee754_pow+0xc8>
 8004f56:	150a      	asrs	r2, r1, #20
 8004f58:	4982      	ldr	r1, [pc, #520]	@ (8005164 <__ieee754_pow+0x2b4>)
 8004f5a:	1852      	adds	r2, r2, r1
 8004f5c:	2a14      	cmp	r2, #20
 8004f5e:	dd3b      	ble.n	8004fd8 <__ieee754_pow+0x128>
 8004f60:	2134      	movs	r1, #52	@ 0x34
 8004f62:	1a89      	subs	r1, r1, r2
 8004f64:	9a02      	ldr	r2, [sp, #8]
 8004f66:	40ca      	lsrs	r2, r1
 8004f68:	0010      	movs	r0, r2
 8004f6a:	4088      	lsls	r0, r1
 8004f6c:	4298      	cmp	r0, r3
 8004f6e:	d103      	bne.n	8004f78 <__ieee754_pow+0xc8>
 8004f70:	2101      	movs	r1, #1
 8004f72:	3502      	adds	r5, #2
 8004f74:	400a      	ands	r2, r1
 8004f76:	1aad      	subs	r5, r5, r2
 8004f78:	2b00      	cmp	r3, #0
 8004f7a:	d03d      	beq.n	8004ff8 <__ieee754_pow+0x148>
 8004f7c:	0030      	movs	r0, r6
 8004f7e:	0039      	movs	r1, r7
 8004f80:	f000 fcc2 	bl	8005908 <fabs>
 8004f84:	9b0e      	ldr	r3, [sp, #56]	@ 0x38
 8004f86:	9000      	str	r0, [sp, #0]
 8004f88:	9101      	str	r1, [sp, #4]
 8004f8a:	2b00      	cmp	r3, #0
 8004f8c:	d000      	beq.n	8004f90 <__ieee754_pow+0xe0>
 8004f8e:	e093      	b.n	80050b8 <__ieee754_pow+0x208>
 8004f90:	4a75      	ldr	r2, [pc, #468]	@ (8005168 <__ieee754_pow+0x2b8>)
 8004f92:	00bb      	lsls	r3, r7, #2
 8004f94:	089b      	lsrs	r3, r3, #2
 8004f96:	4293      	cmp	r3, r2
 8004f98:	d002      	beq.n	8004fa0 <__ieee754_pow+0xf0>
 8004f9a:	2c00      	cmp	r4, #0
 8004f9c:	d000      	beq.n	8004fa0 <__ieee754_pow+0xf0>
 8004f9e:	e08b      	b.n	80050b8 <__ieee754_pow+0x208>
 8004fa0:	9b06      	ldr	r3, [sp, #24]
 8004fa2:	2b00      	cmp	r3, #0
 8004fa4:	da07      	bge.n	8004fb6 <__ieee754_pow+0x106>
 8004fa6:	9a00      	ldr	r2, [sp, #0]
 8004fa8:	9b01      	ldr	r3, [sp, #4]
 8004faa:	2000      	movs	r0, #0
 8004fac:	496e      	ldr	r1, [pc, #440]	@ (8005168 <__ieee754_pow+0x2b8>)
 8004fae:	f7fc f85f 	bl	8001070 <__aeabi_ddiv>
 8004fb2:	9000      	str	r0, [sp, #0]
 8004fb4:	9101      	str	r1, [sp, #4]
 8004fb6:	9b08      	ldr	r3, [sp, #32]
 8004fb8:	2b00      	cmp	r3, #0
 8004fba:	da54      	bge.n	8005066 <__ieee754_pow+0x1b6>
 8004fbc:	4b66      	ldr	r3, [pc, #408]	@ (8005158 <__ieee754_pow+0x2a8>)
 8004fbe:	18e4      	adds	r4, r4, r3
 8004fc0:	432c      	orrs	r4, r5
 8004fc2:	d000      	beq.n	8004fc6 <__ieee754_pow+0x116>
 8004fc4:	e06d      	b.n	80050a2 <__ieee754_pow+0x1f2>
 8004fc6:	9a00      	ldr	r2, [sp, #0]
 8004fc8:	9b01      	ldr	r3, [sp, #4]
 8004fca:	0010      	movs	r0, r2
 8004fcc:	0019      	movs	r1, r3
 8004fce:	f7fc ff5b 	bl	8001e88 <__aeabi_dsub>
 8004fd2:	0002      	movs	r2, r0
 8004fd4:	000b      	movs	r3, r1
 8004fd6:	e01c      	b.n	8005012 <__ieee754_pow+0x162>
 8004fd8:	2b00      	cmp	r3, #0
 8004fda:	d1cf      	bne.n	8004f7c <__ieee754_pow+0xcc>
 8004fdc:	3314      	adds	r3, #20
 8004fde:	1a9a      	subs	r2, r3, r2
 8004fe0:	9b04      	ldr	r3, [sp, #16]
 8004fe2:	4113      	asrs	r3, r2
 8004fe4:	0019      	movs	r1, r3
 8004fe6:	4091      	lsls	r1, r2
 8004fe8:	000a      	movs	r2, r1
 8004fea:	9904      	ldr	r1, [sp, #16]
 8004fec:	428a      	cmp	r2, r1
 8004fee:	d103      	bne.n	8004ff8 <__ieee754_pow+0x148>
 8004ff0:	2201      	movs	r2, #1
 8004ff2:	2502      	movs	r5, #2
 8004ff4:	4013      	ands	r3, r2
 8004ff6:	1aed      	subs	r5, r5, r3
 8004ff8:	4b5b      	ldr	r3, [pc, #364]	@ (8005168 <__ieee754_pow+0x2b8>)
 8004ffa:	9a04      	ldr	r2, [sp, #16]
 8004ffc:	429a      	cmp	r2, r3
 8004ffe:	d136      	bne.n	800506e <__ieee754_pow+0x1be>
 8005000:	9b06      	ldr	r3, [sp, #24]
 8005002:	9600      	str	r6, [sp, #0]
 8005004:	9701      	str	r7, [sp, #4]
 8005006:	2b00      	cmp	r3, #0
 8005008:	da2d      	bge.n	8005066 <__ieee754_pow+0x1b6>
 800500a:	0032      	movs	r2, r6
 800500c:	003b      	movs	r3, r7
 800500e:	2000      	movs	r0, #0
 8005010:	4955      	ldr	r1, [pc, #340]	@ (8005168 <__ieee754_pow+0x2b8>)
 8005012:	f7fc f82d 	bl	8001070 <__aeabi_ddiv>
 8005016:	e773      	b.n	8004f00 <__ieee754_pow+0x50>
 8005018:	2502      	movs	r5, #2
 800501a:	2b00      	cmp	r3, #0
 800501c:	d1ae      	bne.n	8004f7c <__ieee754_pow+0xcc>
 800501e:	9b04      	ldr	r3, [sp, #16]
 8005020:	4a4c      	ldr	r2, [pc, #304]	@ (8005154 <__ieee754_pow+0x2a4>)
 8005022:	4293      	cmp	r3, r2
 8005024:	d1e8      	bne.n	8004ff8 <__ieee754_pow+0x148>
 8005026:	4b4c      	ldr	r3, [pc, #304]	@ (8005158 <__ieee754_pow+0x2a8>)
 8005028:	18e3      	adds	r3, r4, r3
 800502a:	4333      	orrs	r3, r6
 800502c:	d101      	bne.n	8005032 <__ieee754_pow+0x182>
 800502e:	f000 fc3b 	bl	80058a8 <__ieee754_pow+0x9f8>
 8005032:	4b4b      	ldr	r3, [pc, #300]	@ (8005160 <__ieee754_pow+0x2b0>)
 8005034:	429c      	cmp	r4, r3
 8005036:	d909      	bls.n	800504c <__ieee754_pow+0x19c>
 8005038:	9b06      	ldr	r3, [sp, #24]
 800503a:	2b00      	cmp	r3, #0
 800503c:	da01      	bge.n	8005042 <__ieee754_pow+0x192>
 800503e:	f000 fc37 	bl	80058b0 <__ieee754_pow+0xa00>
 8005042:	9b02      	ldr	r3, [sp, #8]
 8005044:	9c03      	ldr	r4, [sp, #12]
 8005046:	9300      	str	r3, [sp, #0]
 8005048:	9401      	str	r4, [sp, #4]
 800504a:	e00c      	b.n	8005066 <__ieee754_pow+0x1b6>
 800504c:	9b06      	ldr	r3, [sp, #24]
 800504e:	2b00      	cmp	r3, #0
 8005050:	db01      	blt.n	8005056 <__ieee754_pow+0x1a6>
 8005052:	f000 fc2d 	bl	80058b0 <__ieee754_pow+0xa00>
 8005056:	2280      	movs	r2, #128	@ 0x80
 8005058:	0612      	lsls	r2, r2, #24
 800505a:	4694      	mov	ip, r2
 800505c:	9b02      	ldr	r3, [sp, #8]
 800505e:	9300      	str	r3, [sp, #0]
 8005060:	9b03      	ldr	r3, [sp, #12]
 8005062:	4463      	add	r3, ip
 8005064:	9301      	str	r3, [sp, #4]
 8005066:	9800      	ldr	r0, [sp, #0]
 8005068:	9901      	ldr	r1, [sp, #4]
 800506a:	b015      	add	sp, #84	@ 0x54
 800506c:	bdf0      	pop	{r4, r5, r6, r7, pc}
 800506e:	2380      	movs	r3, #128	@ 0x80
 8005070:	9a06      	ldr	r2, [sp, #24]
 8005072:	05db      	lsls	r3, r3, #23
 8005074:	429a      	cmp	r2, r3
 8005076:	d106      	bne.n	8005086 <__ieee754_pow+0x1d6>
 8005078:	0032      	movs	r2, r6
 800507a:	003b      	movs	r3, r7
 800507c:	0030      	movs	r0, r6
 800507e:	0039      	movs	r1, r7
 8005080:	f7fc fc3a 	bl	80018f8 <__aeabi_dmul>
 8005084:	e73c      	b.n	8004f00 <__ieee754_pow+0x50>
 8005086:	4b39      	ldr	r3, [pc, #228]	@ (800516c <__ieee754_pow+0x2bc>)
 8005088:	9a06      	ldr	r2, [sp, #24]
 800508a:	429a      	cmp	r2, r3
 800508c:	d000      	beq.n	8005090 <__ieee754_pow+0x1e0>
 800508e:	e775      	b.n	8004f7c <__ieee754_pow+0xcc>
 8005090:	9b08      	ldr	r3, [sp, #32]
 8005092:	2b00      	cmp	r3, #0
 8005094:	da00      	bge.n	8005098 <__ieee754_pow+0x1e8>
 8005096:	e771      	b.n	8004f7c <__ieee754_pow+0xcc>
 8005098:	0030      	movs	r0, r6
 800509a:	0039      	movs	r1, r7
 800509c:	f000 fcd2 	bl	8005a44 <__ieee754_sqrt>
 80050a0:	e72e      	b.n	8004f00 <__ieee754_pow+0x50>
 80050a2:	2d01      	cmp	r5, #1
 80050a4:	d1df      	bne.n	8005066 <__ieee754_pow+0x1b6>
 80050a6:	9800      	ldr	r0, [sp, #0]
 80050a8:	2180      	movs	r1, #128	@ 0x80
 80050aa:	0002      	movs	r2, r0
 80050ac:	9801      	ldr	r0, [sp, #4]
 80050ae:	0609      	lsls	r1, r1, #24
 80050b0:	1843      	adds	r3, r0, r1
 80050b2:	9200      	str	r2, [sp, #0]
 80050b4:	9301      	str	r3, [sp, #4]
 80050b6:	e7d6      	b.n	8005066 <__ieee754_pow+0x1b6>
 80050b8:	0ffb      	lsrs	r3, r7, #31
 80050ba:	3b01      	subs	r3, #1
 80050bc:	001a      	movs	r2, r3
 80050be:	432a      	orrs	r2, r5
 80050c0:	d104      	bne.n	80050cc <__ieee754_pow+0x21c>
 80050c2:	0032      	movs	r2, r6
 80050c4:	003b      	movs	r3, r7
 80050c6:	0030      	movs	r0, r6
 80050c8:	0039      	movs	r1, r7
 80050ca:	e780      	b.n	8004fce <__ieee754_pow+0x11e>
 80050cc:	3d01      	subs	r5, #1
 80050ce:	2200      	movs	r2, #0
 80050d0:	431d      	orrs	r5, r3
 80050d2:	d015      	beq.n	8005100 <__ieee754_pow+0x250>
 80050d4:	4b24      	ldr	r3, [pc, #144]	@ (8005168 <__ieee754_pow+0x2b8>)
 80050d6:	9208      	str	r2, [sp, #32]
 80050d8:	9309      	str	r3, [sp, #36]	@ 0x24
 80050da:	2384      	movs	r3, #132	@ 0x84
 80050dc:	9a04      	ldr	r2, [sp, #16]
 80050de:	05db      	lsls	r3, r3, #23
 80050e0:	429a      	cmp	r2, r3
 80050e2:	d800      	bhi.n	80050e6 <__ieee754_pow+0x236>
 80050e4:	e102      	b.n	80052ec <__ieee754_pow+0x43c>
 80050e6:	4b22      	ldr	r3, [pc, #136]	@ (8005170 <__ieee754_pow+0x2c0>)
 80050e8:	429a      	cmp	r2, r3
 80050ea:	d912      	bls.n	8005112 <__ieee754_pow+0x262>
 80050ec:	4b1c      	ldr	r3, [pc, #112]	@ (8005160 <__ieee754_pow+0x2b0>)
 80050ee:	429c      	cmp	r4, r3
 80050f0:	d808      	bhi.n	8005104 <__ieee754_pow+0x254>
 80050f2:	9b06      	ldr	r3, [sp, #24]
 80050f4:	2b00      	cmp	r3, #0
 80050f6:	da08      	bge.n	800510a <__ieee754_pow+0x25a>
 80050f8:	2000      	movs	r0, #0
 80050fa:	f000 fc9b 	bl	8005a34 <__math_oflow>
 80050fe:	e6ff      	b.n	8004f00 <__ieee754_pow+0x50>
 8005100:	4b1c      	ldr	r3, [pc, #112]	@ (8005174 <__ieee754_pow+0x2c4>)
 8005102:	e7e8      	b.n	80050d6 <__ieee754_pow+0x226>
 8005104:	9b06      	ldr	r3, [sp, #24]
 8005106:	2b00      	cmp	r3, #0
 8005108:	dcf6      	bgt.n	80050f8 <__ieee754_pow+0x248>
 800510a:	2000      	movs	r0, #0
 800510c:	f000 fc8b 	bl	8005a26 <__math_uflow>
 8005110:	e6f6      	b.n	8004f00 <__ieee754_pow+0x50>
 8005112:	4b19      	ldr	r3, [pc, #100]	@ (8005178 <__ieee754_pow+0x2c8>)
 8005114:	429c      	cmp	r4, r3
 8005116:	d80b      	bhi.n	8005130 <__ieee754_pow+0x280>
 8005118:	9808      	ldr	r0, [sp, #32]
 800511a:	9909      	ldr	r1, [sp, #36]	@ 0x24
 800511c:	2300      	movs	r3, #0
 800511e:	2200      	movs	r2, #0
 8005120:	f7fb f984 	bl	800042c <__aeabi_dcmplt>
 8005124:	1e43      	subs	r3, r0, #1
 8005126:	4198      	sbcs	r0, r3
 8005128:	9b06      	ldr	r3, [sp, #24]
 800512a:	2b00      	cmp	r3, #0
 800512c:	daee      	bge.n	800510c <__ieee754_pow+0x25c>
 800512e:	e7e4      	b.n	80050fa <__ieee754_pow+0x24a>
 8005130:	4b0d      	ldr	r3, [pc, #52]	@ (8005168 <__ieee754_pow+0x2b8>)
 8005132:	2200      	movs	r2, #0
 8005134:	429c      	cmp	r4, r3
 8005136:	d921      	bls.n	800517c <__ieee754_pow+0x2cc>
 8005138:	9808      	ldr	r0, [sp, #32]
 800513a:	9909      	ldr	r1, [sp, #36]	@ 0x24
 800513c:	2300      	movs	r3, #0
 800513e:	f7fb f975 	bl	800042c <__aeabi_dcmplt>
 8005142:	1e43      	subs	r3, r0, #1
 8005144:	4198      	sbcs	r0, r3
 8005146:	9b06      	ldr	r3, [sp, #24]
 8005148:	2b00      	cmp	r3, #0
 800514a:	dcd6      	bgt.n	80050fa <__ieee754_pow+0x24a>
 800514c:	e7de      	b.n	800510c <__ieee754_pow+0x25c>
 800514e:	46c0      	nop			@ (mov r8, r8)
 8005150:	fff00000 	.word	0xfff00000
 8005154:	7ff00000 	.word	0x7ff00000
 8005158:	c0100000 	.word	0xc0100000
 800515c:	433fffff 	.word	0x433fffff
 8005160:	3fefffff 	.word	0x3fefffff
 8005164:	fffffc01 	.word	0xfffffc01
 8005168:	3ff00000 	.word	0x3ff00000
 800516c:	3fe00000 	.word	0x3fe00000
 8005170:	43f00000 	.word	0x43f00000
 8005174:	bff00000 	.word	0xbff00000
 8005178:	3feffffe 	.word	0x3feffffe
 800517c:	9800      	ldr	r0, [sp, #0]
 800517e:	9901      	ldr	r1, [sp, #4]
 8005180:	4b4f      	ldr	r3, [pc, #316]	@ (80052c0 <__ieee754_pow+0x410>)
 8005182:	f7fc fe81 	bl	8001e88 <__aeabi_dsub>
 8005186:	22c0      	movs	r2, #192	@ 0xc0
 8005188:	4b4e      	ldr	r3, [pc, #312]	@ (80052c4 <__ieee754_pow+0x414>)
 800518a:	05d2      	lsls	r2, r2, #23
 800518c:	0006      	movs	r6, r0
 800518e:	000f      	movs	r7, r1
 8005190:	f7fc fbb2 	bl	80018f8 <__aeabi_dmul>
 8005194:	4a4c      	ldr	r2, [pc, #304]	@ (80052c8 <__ieee754_pow+0x418>)
 8005196:	9004      	str	r0, [sp, #16]
 8005198:	9105      	str	r1, [sp, #20]
 800519a:	4b4c      	ldr	r3, [pc, #304]	@ (80052cc <__ieee754_pow+0x41c>)
 800519c:	0030      	movs	r0, r6
 800519e:	0039      	movs	r1, r7
 80051a0:	f7fc fbaa 	bl	80018f8 <__aeabi_dmul>
 80051a4:	2200      	movs	r2, #0
 80051a6:	9000      	str	r0, [sp, #0]
 80051a8:	9101      	str	r1, [sp, #4]
 80051aa:	4b49      	ldr	r3, [pc, #292]	@ (80052d0 <__ieee754_pow+0x420>)
 80051ac:	0030      	movs	r0, r6
 80051ae:	0039      	movs	r1, r7
 80051b0:	f7fc fba2 	bl	80018f8 <__aeabi_dmul>
 80051b4:	0002      	movs	r2, r0
 80051b6:	000b      	movs	r3, r1
 80051b8:	4846      	ldr	r0, [pc, #280]	@ (80052d4 <__ieee754_pow+0x424>)
 80051ba:	4947      	ldr	r1, [pc, #284]	@ (80052d8 <__ieee754_pow+0x428>)
 80051bc:	f7fc fe64 	bl	8001e88 <__aeabi_dsub>
 80051c0:	0032      	movs	r2, r6
 80051c2:	003b      	movs	r3, r7
 80051c4:	f7fc fb98 	bl	80018f8 <__aeabi_dmul>
 80051c8:	0002      	movs	r2, r0
 80051ca:	000b      	movs	r3, r1
 80051cc:	2000      	movs	r0, #0
 80051ce:	4943      	ldr	r1, [pc, #268]	@ (80052dc <__ieee754_pow+0x42c>)
 80051d0:	f7fc fe5a 	bl	8001e88 <__aeabi_dsub>
 80051d4:	0032      	movs	r2, r6
 80051d6:	0004      	movs	r4, r0
 80051d8:	000d      	movs	r5, r1
 80051da:	003b      	movs	r3, r7
 80051dc:	0030      	movs	r0, r6
 80051de:	0039      	movs	r1, r7
 80051e0:	f7fc fb8a 	bl	80018f8 <__aeabi_dmul>
 80051e4:	0002      	movs	r2, r0
 80051e6:	000b      	movs	r3, r1
 80051e8:	0020      	movs	r0, r4
 80051ea:	0029      	movs	r1, r5
 80051ec:	f7fc fb84 	bl	80018f8 <__aeabi_dmul>
 80051f0:	4a3b      	ldr	r2, [pc, #236]	@ (80052e0 <__ieee754_pow+0x430>)
 80051f2:	4b34      	ldr	r3, [pc, #208]	@ (80052c4 <__ieee754_pow+0x414>)
 80051f4:	f7fc fb80 	bl	80018f8 <__aeabi_dmul>
 80051f8:	0002      	movs	r2, r0
 80051fa:	000b      	movs	r3, r1
 80051fc:	9800      	ldr	r0, [sp, #0]
 80051fe:	9901      	ldr	r1, [sp, #4]
 8005200:	f7fc fe42 	bl	8001e88 <__aeabi_dsub>
 8005204:	0002      	movs	r2, r0
 8005206:	000b      	movs	r3, r1
 8005208:	0004      	movs	r4, r0
 800520a:	000d      	movs	r5, r1
 800520c:	9804      	ldr	r0, [sp, #16]
 800520e:	9905      	ldr	r1, [sp, #20]
 8005210:	f7fb fbca 	bl	80009a8 <__aeabi_dadd>
 8005214:	9a04      	ldr	r2, [sp, #16]
 8005216:	9b05      	ldr	r3, [sp, #20]
 8005218:	2000      	movs	r0, #0
 800521a:	9000      	str	r0, [sp, #0]
 800521c:	9101      	str	r1, [sp, #4]
 800521e:	f7fc fe33 	bl	8001e88 <__aeabi_dsub>
 8005222:	0002      	movs	r2, r0
 8005224:	000b      	movs	r3, r1
 8005226:	0020      	movs	r0, r4
 8005228:	0029      	movs	r1, r5
 800522a:	f7fc fe2d 	bl	8001e88 <__aeabi_dsub>
 800522e:	9b02      	ldr	r3, [sp, #8]
 8005230:	9c03      	ldr	r4, [sp, #12]
 8005232:	9304      	str	r3, [sp, #16]
 8005234:	9405      	str	r4, [sp, #20]
 8005236:	2300      	movs	r3, #0
 8005238:	9304      	str	r3, [sp, #16]
 800523a:	9c04      	ldr	r4, [sp, #16]
 800523c:	9d05      	ldr	r5, [sp, #20]
 800523e:	0006      	movs	r6, r0
 8005240:	000f      	movs	r7, r1
 8005242:	9802      	ldr	r0, [sp, #8]
 8005244:	9903      	ldr	r1, [sp, #12]
 8005246:	0022      	movs	r2, r4
 8005248:	002b      	movs	r3, r5
 800524a:	f7fc fe1d 	bl	8001e88 <__aeabi_dsub>
 800524e:	9a00      	ldr	r2, [sp, #0]
 8005250:	9b01      	ldr	r3, [sp, #4]
 8005252:	f7fc fb51 	bl	80018f8 <__aeabi_dmul>
 8005256:	9a02      	ldr	r2, [sp, #8]
 8005258:	9b03      	ldr	r3, [sp, #12]
 800525a:	9006      	str	r0, [sp, #24]
 800525c:	9107      	str	r1, [sp, #28]
 800525e:	0030      	movs	r0, r6
 8005260:	0039      	movs	r1, r7
 8005262:	f7fc fb49 	bl	80018f8 <__aeabi_dmul>
 8005266:	0002      	movs	r2, r0
 8005268:	000b      	movs	r3, r1
 800526a:	9806      	ldr	r0, [sp, #24]
 800526c:	9907      	ldr	r1, [sp, #28]
 800526e:	f7fb fb9b 	bl	80009a8 <__aeabi_dadd>
 8005272:	0022      	movs	r2, r4
 8005274:	002b      	movs	r3, r5
 8005276:	9002      	str	r0, [sp, #8]
 8005278:	9103      	str	r1, [sp, #12]
 800527a:	9800      	ldr	r0, [sp, #0]
 800527c:	9901      	ldr	r1, [sp, #4]
 800527e:	f7fc fb3b 	bl	80018f8 <__aeabi_dmul>
 8005282:	000b      	movs	r3, r1
 8005284:	0002      	movs	r2, r0
 8005286:	0006      	movs	r6, r0
 8005288:	000f      	movs	r7, r1
 800528a:	9802      	ldr	r0, [sp, #8]
 800528c:	9903      	ldr	r1, [sp, #12]
 800528e:	f7fb fb8b 	bl	80009a8 <__aeabi_dadd>
 8005292:	9000      	str	r0, [sp, #0]
 8005294:	9101      	str	r1, [sp, #4]
 8005296:	9c01      	ldr	r4, [sp, #4]
 8005298:	4b12      	ldr	r3, [pc, #72]	@ (80052e4 <__ieee754_pow+0x434>)
 800529a:	9406      	str	r4, [sp, #24]
 800529c:	429c      	cmp	r4, r3
 800529e:	dc00      	bgt.n	80052a2 <__ieee754_pow+0x3f2>
 80052a0:	e222      	b.n	80056e8 <__ieee754_pow+0x838>
 80052a2:	4a11      	ldr	r2, [pc, #68]	@ (80052e8 <__ieee754_pow+0x438>)
 80052a4:	18a3      	adds	r3, r4, r2
 80052a6:	9a00      	ldr	r2, [sp, #0]
 80052a8:	4313      	orrs	r3, r2
 80052aa:	d100      	bne.n	80052ae <__ieee754_pow+0x3fe>
 80052ac:	e1a0      	b.n	80055f0 <__ieee754_pow+0x740>
 80052ae:	9808      	ldr	r0, [sp, #32]
 80052b0:	9909      	ldr	r1, [sp, #36]	@ 0x24
 80052b2:	2300      	movs	r3, #0
 80052b4:	2200      	movs	r2, #0
 80052b6:	f7fb f8b9 	bl	800042c <__aeabi_dcmplt>
 80052ba:	1e43      	subs	r3, r0, #1
 80052bc:	4198      	sbcs	r0, r3
 80052be:	e71c      	b.n	80050fa <__ieee754_pow+0x24a>
 80052c0:	3ff00000 	.word	0x3ff00000
 80052c4:	3ff71547 	.word	0x3ff71547
 80052c8:	f85ddf44 	.word	0xf85ddf44
 80052cc:	3e54ae0b 	.word	0x3e54ae0b
 80052d0:	3fd00000 	.word	0x3fd00000
 80052d4:	55555555 	.word	0x55555555
 80052d8:	3fd55555 	.word	0x3fd55555
 80052dc:	3fe00000 	.word	0x3fe00000
 80052e0:	652b82fe 	.word	0x652b82fe
 80052e4:	408fffff 	.word	0x408fffff
 80052e8:	bf700000 	.word	0xbf700000
 80052ec:	4be0      	ldr	r3, [pc, #896]	@ (8005670 <__ieee754_pow+0x7c0>)
 80052ee:	2200      	movs	r2, #0
 80052f0:	423b      	tst	r3, r7
 80052f2:	d10b      	bne.n	800530c <__ieee754_pow+0x45c>
 80052f4:	9800      	ldr	r0, [sp, #0]
 80052f6:	9901      	ldr	r1, [sp, #4]
 80052f8:	2200      	movs	r2, #0
 80052fa:	4bde      	ldr	r3, [pc, #888]	@ (8005674 <__ieee754_pow+0x7c4>)
 80052fc:	f7fc fafc 	bl	80018f8 <__aeabi_dmul>
 8005300:	2235      	movs	r2, #53	@ 0x35
 8005302:	9000      	str	r0, [sp, #0]
 8005304:	9101      	str	r1, [sp, #4]
 8005306:	9b01      	ldr	r3, [sp, #4]
 8005308:	4252      	negs	r2, r2
 800530a:	930a      	str	r3, [sp, #40]	@ 0x28
 800530c:	9b0a      	ldr	r3, [sp, #40]	@ 0x28
 800530e:	49da      	ldr	r1, [pc, #872]	@ (8005678 <__ieee754_pow+0x7c8>)
 8005310:	151b      	asrs	r3, r3, #20
 8005312:	185b      	adds	r3, r3, r1
 8005314:	189b      	adds	r3, r3, r2
 8005316:	930e      	str	r3, [sp, #56]	@ 0x38
 8005318:	9b0a      	ldr	r3, [sp, #40]	@ 0x28
 800531a:	4dd8      	ldr	r5, [pc, #864]	@ (800567c <__ieee754_pow+0x7cc>)
 800531c:	031b      	lsls	r3, r3, #12
 800531e:	4ad8      	ldr	r2, [pc, #864]	@ (8005680 <__ieee754_pow+0x7d0>)
 8005320:	0b1b      	lsrs	r3, r3, #12
 8005322:	2600      	movs	r6, #0
 8005324:	431d      	orrs	r5, r3
 8005326:	4293      	cmp	r3, r2
 8005328:	dd09      	ble.n	800533e <__ieee754_pow+0x48e>
 800532a:	4ad6      	ldr	r2, [pc, #856]	@ (8005684 <__ieee754_pow+0x7d4>)
 800532c:	3601      	adds	r6, #1
 800532e:	4293      	cmp	r3, r2
 8005330:	dd05      	ble.n	800533e <__ieee754_pow+0x48e>
 8005332:	9b0e      	ldr	r3, [sp, #56]	@ 0x38
 8005334:	199b      	adds	r3, r3, r6
 8005336:	2600      	movs	r6, #0
 8005338:	930e      	str	r3, [sp, #56]	@ 0x38
 800533a:	4bd3      	ldr	r3, [pc, #844]	@ (8005688 <__ieee754_pow+0x7d8>)
 800533c:	18ed      	adds	r5, r5, r3
 800533e:	9800      	ldr	r0, [sp, #0]
 8005340:	9901      	ldr	r1, [sp, #4]
 8005342:	0029      	movs	r1, r5
 8005344:	4bd1      	ldr	r3, [pc, #836]	@ (800568c <__ieee754_pow+0x7dc>)
 8005346:	00f2      	lsls	r2, r6, #3
 8005348:	189b      	adds	r3, r3, r2
 800534a:	685c      	ldr	r4, [r3, #4]
 800534c:	681b      	ldr	r3, [r3, #0]
 800534e:	920f      	str	r2, [sp, #60]	@ 0x3c
 8005350:	930a      	str	r3, [sp, #40]	@ 0x28
 8005352:	940b      	str	r4, [sp, #44]	@ 0x2c
 8005354:	001a      	movs	r2, r3
 8005356:	0023      	movs	r3, r4
 8005358:	900c      	str	r0, [sp, #48]	@ 0x30
 800535a:	910d      	str	r1, [sp, #52]	@ 0x34
 800535c:	f7fc fd94 	bl	8001e88 <__aeabi_dsub>
 8005360:	9a0c      	ldr	r2, [sp, #48]	@ 0x30
 8005362:	9b0d      	ldr	r3, [sp, #52]	@ 0x34
 8005364:	9010      	str	r0, [sp, #64]	@ 0x40
 8005366:	9111      	str	r1, [sp, #68]	@ 0x44
 8005368:	980a      	ldr	r0, [sp, #40]	@ 0x28
 800536a:	990b      	ldr	r1, [sp, #44]	@ 0x2c
 800536c:	f7fb fb1c 	bl	80009a8 <__aeabi_dadd>
 8005370:	0002      	movs	r2, r0
 8005372:	000b      	movs	r3, r1
 8005374:	2000      	movs	r0, #0
 8005376:	49c1      	ldr	r1, [pc, #772]	@ (800567c <__ieee754_pow+0x7cc>)
 8005378:	f7fb fe7a 	bl	8001070 <__aeabi_ddiv>
 800537c:	0002      	movs	r2, r0
 800537e:	000b      	movs	r3, r1
 8005380:	9012      	str	r0, [sp, #72]	@ 0x48
 8005382:	9113      	str	r1, [sp, #76]	@ 0x4c
 8005384:	9810      	ldr	r0, [sp, #64]	@ 0x40
 8005386:	9911      	ldr	r1, [sp, #68]	@ 0x44
 8005388:	f7fc fab6 	bl	80018f8 <__aeabi_dmul>
 800538c:	9006      	str	r0, [sp, #24]
 800538e:	9107      	str	r1, [sp, #28]
 8005390:	9b06      	ldr	r3, [sp, #24]
 8005392:	9c07      	ldr	r4, [sp, #28]
 8005394:	2180      	movs	r1, #128	@ 0x80
 8005396:	9304      	str	r3, [sp, #16]
 8005398:	9405      	str	r4, [sp, #20]
 800539a:	2080      	movs	r0, #128	@ 0x80
 800539c:	2300      	movs	r3, #0
 800539e:	2200      	movs	r2, #0
 80053a0:	106d      	asrs	r5, r5, #1
 80053a2:	0589      	lsls	r1, r1, #22
 80053a4:	9304      	str	r3, [sp, #16]
 80053a6:	4329      	orrs	r1, r5
 80053a8:	0300      	lsls	r0, r0, #12
 80053aa:	9b04      	ldr	r3, [sp, #16]
 80053ac:	9c05      	ldr	r4, [sp, #20]
 80053ae:	1809      	adds	r1, r1, r0
 80053b0:	9300      	str	r3, [sp, #0]
 80053b2:	9401      	str	r4, [sp, #4]
 80053b4:	04b6      	lsls	r6, r6, #18
 80053b6:	198b      	adds	r3, r1, r6
 80053b8:	9800      	ldr	r0, [sp, #0]
 80053ba:	9901      	ldr	r1, [sp, #4]
 80053bc:	0014      	movs	r4, r2
 80053be:	001d      	movs	r5, r3
 80053c0:	f7fc fa9a 	bl	80018f8 <__aeabi_dmul>
 80053c4:	0002      	movs	r2, r0
 80053c6:	000b      	movs	r3, r1
 80053c8:	9810      	ldr	r0, [sp, #64]	@ 0x40
 80053ca:	9911      	ldr	r1, [sp, #68]	@ 0x44
 80053cc:	f7fc fd5c 	bl	8001e88 <__aeabi_dsub>
 80053d0:	9a0a      	ldr	r2, [sp, #40]	@ 0x28
 80053d2:	9b0b      	ldr	r3, [sp, #44]	@ 0x2c
 80053d4:	0006      	movs	r6, r0
 80053d6:	000f      	movs	r7, r1
 80053d8:	0020      	movs	r0, r4
 80053da:	0029      	movs	r1, r5
 80053dc:	f7fc fd54 	bl	8001e88 <__aeabi_dsub>
 80053e0:	0002      	movs	r2, r0
 80053e2:	000b      	movs	r3, r1
 80053e4:	980c      	ldr	r0, [sp, #48]	@ 0x30
 80053e6:	990d      	ldr	r1, [sp, #52]	@ 0x34
 80053e8:	f7fc fd4e 	bl	8001e88 <__aeabi_dsub>
 80053ec:	9a00      	ldr	r2, [sp, #0]
 80053ee:	9b01      	ldr	r3, [sp, #4]
 80053f0:	f7fc fa82 	bl	80018f8 <__aeabi_dmul>
 80053f4:	0002      	movs	r2, r0
 80053f6:	000b      	movs	r3, r1
 80053f8:	0030      	movs	r0, r6
 80053fa:	0039      	movs	r1, r7
 80053fc:	f7fc fd44 	bl	8001e88 <__aeabi_dsub>
 8005400:	9a12      	ldr	r2, [sp, #72]	@ 0x48
 8005402:	9b13      	ldr	r3, [sp, #76]	@ 0x4c
 8005404:	f7fc fa78 	bl	80018f8 <__aeabi_dmul>
 8005408:	9a06      	ldr	r2, [sp, #24]
 800540a:	9b07      	ldr	r3, [sp, #28]
 800540c:	900a      	str	r0, [sp, #40]	@ 0x28
 800540e:	910b      	str	r1, [sp, #44]	@ 0x2c
 8005410:	0010      	movs	r0, r2
 8005412:	0019      	movs	r1, r3
 8005414:	f7fc fa70 	bl	80018f8 <__aeabi_dmul>
 8005418:	0006      	movs	r6, r0
 800541a:	000f      	movs	r7, r1
 800541c:	4a9c      	ldr	r2, [pc, #624]	@ (8005690 <__ieee754_pow+0x7e0>)
 800541e:	4b9d      	ldr	r3, [pc, #628]	@ (8005694 <__ieee754_pow+0x7e4>)
 8005420:	f7fc fa6a 	bl	80018f8 <__aeabi_dmul>
 8005424:	4a9c      	ldr	r2, [pc, #624]	@ (8005698 <__ieee754_pow+0x7e8>)
 8005426:	4b9d      	ldr	r3, [pc, #628]	@ (800569c <__ieee754_pow+0x7ec>)
 8005428:	f7fb fabe 	bl	80009a8 <__aeabi_dadd>
 800542c:	0032      	movs	r2, r6
 800542e:	003b      	movs	r3, r7
 8005430:	f7fc fa62 	bl	80018f8 <__aeabi_dmul>
 8005434:	4a9a      	ldr	r2, [pc, #616]	@ (80056a0 <__ieee754_pow+0x7f0>)
 8005436:	4b9b      	ldr	r3, [pc, #620]	@ (80056a4 <__ieee754_pow+0x7f4>)
 8005438:	f7fb fab6 	bl	80009a8 <__aeabi_dadd>
 800543c:	0032      	movs	r2, r6
 800543e:	003b      	movs	r3, r7
 8005440:	f7fc fa5a 	bl	80018f8 <__aeabi_dmul>
 8005444:	4a98      	ldr	r2, [pc, #608]	@ (80056a8 <__ieee754_pow+0x7f8>)
 8005446:	4b99      	ldr	r3, [pc, #612]	@ (80056ac <__ieee754_pow+0x7fc>)
 8005448:	f7fb faae 	bl	80009a8 <__aeabi_dadd>
 800544c:	0032      	movs	r2, r6
 800544e:	003b      	movs	r3, r7
 8005450:	f7fc fa52 	bl	80018f8 <__aeabi_dmul>
 8005454:	4a96      	ldr	r2, [pc, #600]	@ (80056b0 <__ieee754_pow+0x800>)
 8005456:	4b97      	ldr	r3, [pc, #604]	@ (80056b4 <__ieee754_pow+0x804>)
 8005458:	f7fb faa6 	bl	80009a8 <__aeabi_dadd>
 800545c:	0032      	movs	r2, r6
 800545e:	003b      	movs	r3, r7
 8005460:	f7fc fa4a 	bl	80018f8 <__aeabi_dmul>
 8005464:	4a94      	ldr	r2, [pc, #592]	@ (80056b8 <__ieee754_pow+0x808>)
 8005466:	4b95      	ldr	r3, [pc, #596]	@ (80056bc <__ieee754_pow+0x80c>)
 8005468:	f7fb fa9e 	bl	80009a8 <__aeabi_dadd>
 800546c:	0032      	movs	r2, r6
 800546e:	0004      	movs	r4, r0
 8005470:	000d      	movs	r5, r1
 8005472:	003b      	movs	r3, r7
 8005474:	0030      	movs	r0, r6
 8005476:	0039      	movs	r1, r7
 8005478:	f7fc fa3e 	bl	80018f8 <__aeabi_dmul>
 800547c:	0002      	movs	r2, r0
 800547e:	000b      	movs	r3, r1
 8005480:	0020      	movs	r0, r4
 8005482:	0029      	movs	r1, r5
 8005484:	f7fc fa38 	bl	80018f8 <__aeabi_dmul>
 8005488:	9a00      	ldr	r2, [sp, #0]
 800548a:	9b01      	ldr	r3, [sp, #4]
 800548c:	0004      	movs	r4, r0
 800548e:	000d      	movs	r5, r1
 8005490:	9806      	ldr	r0, [sp, #24]
 8005492:	9907      	ldr	r1, [sp, #28]
 8005494:	f7fb fa88 	bl	80009a8 <__aeabi_dadd>
 8005498:	9a0a      	ldr	r2, [sp, #40]	@ 0x28
 800549a:	9b0b      	ldr	r3, [sp, #44]	@ 0x2c
 800549c:	f7fc fa2c 	bl	80018f8 <__aeabi_dmul>
 80054a0:	0022      	movs	r2, r4
 80054a2:	002b      	movs	r3, r5
 80054a4:	f7fb fa80 	bl	80009a8 <__aeabi_dadd>
 80054a8:	9a00      	ldr	r2, [sp, #0]
 80054aa:	9b01      	ldr	r3, [sp, #4]
 80054ac:	900c      	str	r0, [sp, #48]	@ 0x30
 80054ae:	910d      	str	r1, [sp, #52]	@ 0x34
 80054b0:	0010      	movs	r0, r2
 80054b2:	0019      	movs	r1, r3
 80054b4:	f7fc fa20 	bl	80018f8 <__aeabi_dmul>
 80054b8:	2200      	movs	r2, #0
 80054ba:	4b81      	ldr	r3, [pc, #516]	@ (80056c0 <__ieee754_pow+0x810>)
 80054bc:	0004      	movs	r4, r0
 80054be:	000d      	movs	r5, r1
 80054c0:	f7fb fa72 	bl	80009a8 <__aeabi_dadd>
 80054c4:	9a0c      	ldr	r2, [sp, #48]	@ 0x30
 80054c6:	9b0d      	ldr	r3, [sp, #52]	@ 0x34
 80054c8:	f7fb fa6e 	bl	80009a8 <__aeabi_dadd>
 80054cc:	2000      	movs	r0, #0
 80054ce:	000f      	movs	r7, r1
 80054d0:	0006      	movs	r6, r0
 80054d2:	0002      	movs	r2, r0
 80054d4:	000b      	movs	r3, r1
 80054d6:	9800      	ldr	r0, [sp, #0]
 80054d8:	9901      	ldr	r1, [sp, #4]
 80054da:	f7fc fa0d 	bl	80018f8 <__aeabi_dmul>
 80054de:	2200      	movs	r2, #0
 80054e0:	9000      	str	r0, [sp, #0]
 80054e2:	9101      	str	r1, [sp, #4]
 80054e4:	4b76      	ldr	r3, [pc, #472]	@ (80056c0 <__ieee754_pow+0x810>)
 80054e6:	0030      	movs	r0, r6
 80054e8:	0039      	movs	r1, r7
 80054ea:	f7fc fccd 	bl	8001e88 <__aeabi_dsub>
 80054ee:	0022      	movs	r2, r4
 80054f0:	002b      	movs	r3, r5
 80054f2:	f7fc fcc9 	bl	8001e88 <__aeabi_dsub>
 80054f6:	0002      	movs	r2, r0
 80054f8:	000b      	movs	r3, r1
 80054fa:	980c      	ldr	r0, [sp, #48]	@ 0x30
 80054fc:	990d      	ldr	r1, [sp, #52]	@ 0x34
 80054fe:	f7fc fcc3 	bl	8001e88 <__aeabi_dsub>
 8005502:	9a06      	ldr	r2, [sp, #24]
 8005504:	9b07      	ldr	r3, [sp, #28]
 8005506:	f7fc f9f7 	bl	80018f8 <__aeabi_dmul>
 800550a:	0032      	movs	r2, r6
 800550c:	0004      	movs	r4, r0
 800550e:	000d      	movs	r5, r1
 8005510:	980a      	ldr	r0, [sp, #40]	@ 0x28
 8005512:	990b      	ldr	r1, [sp, #44]	@ 0x2c
 8005514:	003b      	movs	r3, r7
 8005516:	f7fc f9ef 	bl	80018f8 <__aeabi_dmul>
 800551a:	0002      	movs	r2, r0
 800551c:	000b      	movs	r3, r1
 800551e:	0020      	movs	r0, r4
 8005520:	0029      	movs	r1, r5
 8005522:	f7fb fa41 	bl	80009a8 <__aeabi_dadd>
 8005526:	0004      	movs	r4, r0
 8005528:	000d      	movs	r5, r1
 800552a:	0002      	movs	r2, r0
 800552c:	000b      	movs	r3, r1
 800552e:	9800      	ldr	r0, [sp, #0]
 8005530:	9901      	ldr	r1, [sp, #4]
 8005532:	f7fb fa39 	bl	80009a8 <__aeabi_dadd>
 8005536:	22e0      	movs	r2, #224	@ 0xe0
 8005538:	2000      	movs	r0, #0
 800553a:	4b62      	ldr	r3, [pc, #392]	@ (80056c4 <__ieee754_pow+0x814>)
 800553c:	0612      	lsls	r2, r2, #24
 800553e:	0006      	movs	r6, r0
 8005540:	000f      	movs	r7, r1
 8005542:	f7fc f9d9 	bl	80018f8 <__aeabi_dmul>
 8005546:	9006      	str	r0, [sp, #24]
 8005548:	9107      	str	r1, [sp, #28]
 800554a:	9a00      	ldr	r2, [sp, #0]
 800554c:	9b01      	ldr	r3, [sp, #4]
 800554e:	0030      	movs	r0, r6
 8005550:	0039      	movs	r1, r7
 8005552:	f7fc fc99 	bl	8001e88 <__aeabi_dsub>
 8005556:	0002      	movs	r2, r0
 8005558:	000b      	movs	r3, r1
 800555a:	0020      	movs	r0, r4
 800555c:	0029      	movs	r1, r5
 800555e:	f7fc fc93 	bl	8001e88 <__aeabi_dsub>
 8005562:	4a59      	ldr	r2, [pc, #356]	@ (80056c8 <__ieee754_pow+0x818>)
 8005564:	4b57      	ldr	r3, [pc, #348]	@ (80056c4 <__ieee754_pow+0x814>)
 8005566:	f7fc f9c7 	bl	80018f8 <__aeabi_dmul>
 800556a:	4a58      	ldr	r2, [pc, #352]	@ (80056cc <__ieee754_pow+0x81c>)
 800556c:	0004      	movs	r4, r0
 800556e:	000d      	movs	r5, r1
 8005570:	0030      	movs	r0, r6
 8005572:	0039      	movs	r1, r7
 8005574:	4b56      	ldr	r3, [pc, #344]	@ (80056d0 <__ieee754_pow+0x820>)
 8005576:	f7fc f9bf 	bl	80018f8 <__aeabi_dmul>
 800557a:	0002      	movs	r2, r0
 800557c:	000b      	movs	r3, r1
 800557e:	0020      	movs	r0, r4
 8005580:	0029      	movs	r1, r5
 8005582:	f7fb fa11 	bl	80009a8 <__aeabi_dadd>
 8005586:	9a0f      	ldr	r2, [sp, #60]	@ 0x3c
 8005588:	4b52      	ldr	r3, [pc, #328]	@ (80056d4 <__ieee754_pow+0x824>)
 800558a:	189b      	adds	r3, r3, r2
 800558c:	681a      	ldr	r2, [r3, #0]
 800558e:	685b      	ldr	r3, [r3, #4]
 8005590:	f7fb fa0a 	bl	80009a8 <__aeabi_dadd>
 8005594:	900a      	str	r0, [sp, #40]	@ 0x28
 8005596:	910b      	str	r1, [sp, #44]	@ 0x2c
 8005598:	980e      	ldr	r0, [sp, #56]	@ 0x38
 800559a:	f7fd f86f 	bl	800267c <__aeabi_i2d>
 800559e:	0004      	movs	r4, r0
 80055a0:	000d      	movs	r5, r1
 80055a2:	9806      	ldr	r0, [sp, #24]
 80055a4:	9907      	ldr	r1, [sp, #28]
 80055a6:	9a0f      	ldr	r2, [sp, #60]	@ 0x3c
 80055a8:	4b4b      	ldr	r3, [pc, #300]	@ (80056d8 <__ieee754_pow+0x828>)
 80055aa:	189b      	adds	r3, r3, r2
 80055ac:	681e      	ldr	r6, [r3, #0]
 80055ae:	685f      	ldr	r7, [r3, #4]
 80055b0:	9a0a      	ldr	r2, [sp, #40]	@ 0x28
 80055b2:	9b0b      	ldr	r3, [sp, #44]	@ 0x2c
 80055b4:	f7fb f9f8 	bl	80009a8 <__aeabi_dadd>
 80055b8:	0032      	movs	r2, r6
 80055ba:	003b      	movs	r3, r7
 80055bc:	f7fb f9f4 	bl	80009a8 <__aeabi_dadd>
 80055c0:	0022      	movs	r2, r4
 80055c2:	002b      	movs	r3, r5
 80055c4:	f7fb f9f0 	bl	80009a8 <__aeabi_dadd>
 80055c8:	2000      	movs	r0, #0
 80055ca:	0022      	movs	r2, r4
 80055cc:	002b      	movs	r3, r5
 80055ce:	9000      	str	r0, [sp, #0]
 80055d0:	9101      	str	r1, [sp, #4]
 80055d2:	f7fc fc59 	bl	8001e88 <__aeabi_dsub>
 80055d6:	0032      	movs	r2, r6
 80055d8:	003b      	movs	r3, r7
 80055da:	f7fc fc55 	bl	8001e88 <__aeabi_dsub>
 80055de:	9a06      	ldr	r2, [sp, #24]
 80055e0:	9b07      	ldr	r3, [sp, #28]
 80055e2:	f7fc fc51 	bl	8001e88 <__aeabi_dsub>
 80055e6:	0002      	movs	r2, r0
 80055e8:	000b      	movs	r3, r1
 80055ea:	980a      	ldr	r0, [sp, #40]	@ 0x28
 80055ec:	990b      	ldr	r1, [sp, #44]	@ 0x2c
 80055ee:	e61c      	b.n	800522a <__ieee754_pow+0x37a>
 80055f0:	4a3a      	ldr	r2, [pc, #232]	@ (80056dc <__ieee754_pow+0x82c>)
 80055f2:	4b3b      	ldr	r3, [pc, #236]	@ (80056e0 <__ieee754_pow+0x830>)
 80055f4:	9802      	ldr	r0, [sp, #8]
 80055f6:	9903      	ldr	r1, [sp, #12]
 80055f8:	f7fb f9d6 	bl	80009a8 <__aeabi_dadd>
 80055fc:	0032      	movs	r2, r6
 80055fe:	003b      	movs	r3, r7
 8005600:	9004      	str	r0, [sp, #16]
 8005602:	9105      	str	r1, [sp, #20]
 8005604:	9800      	ldr	r0, [sp, #0]
 8005606:	9901      	ldr	r1, [sp, #4]
 8005608:	f7fc fc3e 	bl	8001e88 <__aeabi_dsub>
 800560c:	0002      	movs	r2, r0
 800560e:	000b      	movs	r3, r1
 8005610:	9804      	ldr	r0, [sp, #16]
 8005612:	9905      	ldr	r1, [sp, #20]
 8005614:	f7fa ff1e 	bl	8000454 <__aeabi_dcmpgt>
 8005618:	2800      	cmp	r0, #0
 800561a:	d000      	beq.n	800561e <__ieee754_pow+0x76e>
 800561c:	e647      	b.n	80052ae <__ieee754_pow+0x3fe>
 800561e:	2580      	movs	r5, #128	@ 0x80
 8005620:	4b30      	ldr	r3, [pc, #192]	@ (80056e4 <__ieee754_pow+0x834>)
 8005622:	036d      	lsls	r5, r5, #13
 8005624:	1524      	asrs	r4, r4, #20
 8005626:	18e4      	adds	r4, r4, r3
 8005628:	002b      	movs	r3, r5
 800562a:	4123      	asrs	r3, r4
 800562c:	9a06      	ldr	r2, [sp, #24]
 800562e:	4912      	ldr	r1, [pc, #72]	@ (8005678 <__ieee754_pow+0x7c8>)
 8005630:	189b      	adds	r3, r3, r2
 8005632:	005a      	lsls	r2, r3, #1
 8005634:	4c14      	ldr	r4, [pc, #80]	@ (8005688 <__ieee754_pow+0x7d8>)
 8005636:	0d52      	lsrs	r2, r2, #21
 8005638:	1852      	adds	r2, r2, r1
 800563a:	4114      	asrs	r4, r2
 800563c:	401c      	ands	r4, r3
 800563e:	0021      	movs	r1, r4
 8005640:	2414      	movs	r4, #20
 8005642:	031b      	lsls	r3, r3, #12
 8005644:	0b1b      	lsrs	r3, r3, #12
 8005646:	432b      	orrs	r3, r5
 8005648:	1aa2      	subs	r2, r4, r2
 800564a:	4113      	asrs	r3, r2
 800564c:	9300      	str	r3, [sp, #0]
 800564e:	9b06      	ldr	r3, [sp, #24]
 8005650:	2000      	movs	r0, #0
 8005652:	2b00      	cmp	r3, #0
 8005654:	da02      	bge.n	800565c <__ieee754_pow+0x7ac>
 8005656:	9b00      	ldr	r3, [sp, #0]
 8005658:	425b      	negs	r3, r3
 800565a:	9300      	str	r3, [sp, #0]
 800565c:	0002      	movs	r2, r0
 800565e:	000b      	movs	r3, r1
 8005660:	0030      	movs	r0, r6
 8005662:	0039      	movs	r1, r7
 8005664:	f7fc fc10 	bl	8001e88 <__aeabi_dsub>
 8005668:	0006      	movs	r6, r0
 800566a:	000f      	movs	r7, r1
 800566c:	e065      	b.n	800573a <__ieee754_pow+0x88a>
 800566e:	46c0      	nop			@ (mov r8, r8)
 8005670:	7ff00000 	.word	0x7ff00000
 8005674:	43400000 	.word	0x43400000
 8005678:	fffffc01 	.word	0xfffffc01
 800567c:	3ff00000 	.word	0x3ff00000
 8005680:	0003988e 	.word	0x0003988e
 8005684:	000bb679 	.word	0x000bb679
 8005688:	fff00000 	.word	0xfff00000
 800568c:	08005d80 	.word	0x08005d80
 8005690:	4a454eef 	.word	0x4a454eef
 8005694:	3fca7e28 	.word	0x3fca7e28
 8005698:	93c9db65 	.word	0x93c9db65
 800569c:	3fcd864a 	.word	0x3fcd864a
 80056a0:	a91d4101 	.word	0xa91d4101
 80056a4:	3fd17460 	.word	0x3fd17460
 80056a8:	518f264d 	.word	0x518f264d
 80056ac:	3fd55555 	.word	0x3fd55555
 80056b0:	db6fabff 	.word	0xdb6fabff
 80056b4:	3fdb6db6 	.word	0x3fdb6db6
 80056b8:	33333303 	.word	0x33333303
 80056bc:	3fe33333 	.word	0x3fe33333
 80056c0:	40080000 	.word	0x40080000
 80056c4:	3feec709 	.word	0x3feec709
 80056c8:	dc3a03fd 	.word	0xdc3a03fd
 80056cc:	145b01f5 	.word	0x145b01f5
 80056d0:	be3e2fe0 	.word	0xbe3e2fe0
 80056d4:	08005d60 	.word	0x08005d60
 80056d8:	08005d70 	.word	0x08005d70
 80056dc:	652b82fe 	.word	0x652b82fe
 80056e0:	3c971547 	.word	0x3c971547
 80056e4:	fffffc02 	.word	0xfffffc02
 80056e8:	9b01      	ldr	r3, [sp, #4]
 80056ea:	005c      	lsls	r4, r3, #1
 80056ec:	4b72      	ldr	r3, [pc, #456]	@ (80058b8 <__ieee754_pow+0xa08>)
 80056ee:	0864      	lsrs	r4, r4, #1
 80056f0:	429c      	cmp	r4, r3
 80056f2:	d91c      	bls.n	800572e <__ieee754_pow+0x87e>
 80056f4:	4a71      	ldr	r2, [pc, #452]	@ (80058bc <__ieee754_pow+0xa0c>)
 80056f6:	9b01      	ldr	r3, [sp, #4]
 80056f8:	189b      	adds	r3, r3, r2
 80056fa:	9a00      	ldr	r2, [sp, #0]
 80056fc:	4313      	orrs	r3, r2
 80056fe:	d008      	beq.n	8005712 <__ieee754_pow+0x862>
 8005700:	9808      	ldr	r0, [sp, #32]
 8005702:	9909      	ldr	r1, [sp, #36]	@ 0x24
 8005704:	2300      	movs	r3, #0
 8005706:	2200      	movs	r2, #0
 8005708:	f7fa fe90 	bl	800042c <__aeabi_dcmplt>
 800570c:	1e43      	subs	r3, r0, #1
 800570e:	4198      	sbcs	r0, r3
 8005710:	e4fc      	b.n	800510c <__ieee754_pow+0x25c>
 8005712:	0032      	movs	r2, r6
 8005714:	9800      	ldr	r0, [sp, #0]
 8005716:	9901      	ldr	r1, [sp, #4]
 8005718:	003b      	movs	r3, r7
 800571a:	f7fc fbb5 	bl	8001e88 <__aeabi_dsub>
 800571e:	9a02      	ldr	r2, [sp, #8]
 8005720:	9b03      	ldr	r3, [sp, #12]
 8005722:	f7fa fea1 	bl	8000468 <__aeabi_dcmpge>
 8005726:	2800      	cmp	r0, #0
 8005728:	d1ea      	bne.n	8005700 <__ieee754_pow+0x850>
 800572a:	4c65      	ldr	r4, [pc, #404]	@ (80058c0 <__ieee754_pow+0xa10>)
 800572c:	e777      	b.n	800561e <__ieee754_pow+0x76e>
 800572e:	9a04      	ldr	r2, [sp, #16]
 8005730:	4b64      	ldr	r3, [pc, #400]	@ (80058c4 <__ieee754_pow+0xa14>)
 8005732:	9200      	str	r2, [sp, #0]
 8005734:	429c      	cmp	r4, r3
 8005736:	d900      	bls.n	800573a <__ieee754_pow+0x88a>
 8005738:	e771      	b.n	800561e <__ieee754_pow+0x76e>
 800573a:	9a02      	ldr	r2, [sp, #8]
 800573c:	9b03      	ldr	r3, [sp, #12]
 800573e:	0030      	movs	r0, r6
 8005740:	0039      	movs	r1, r7
 8005742:	f7fb f931 	bl	80009a8 <__aeabi_dadd>
 8005746:	2000      	movs	r0, #0
 8005748:	2200      	movs	r2, #0
 800574a:	4b5f      	ldr	r3, [pc, #380]	@ (80058c8 <__ieee754_pow+0xa18>)
 800574c:	9004      	str	r0, [sp, #16]
 800574e:	9105      	str	r1, [sp, #20]
 8005750:	f7fc f8d2 	bl	80018f8 <__aeabi_dmul>
 8005754:	0032      	movs	r2, r6
 8005756:	003b      	movs	r3, r7
 8005758:	9006      	str	r0, [sp, #24]
 800575a:	9107      	str	r1, [sp, #28]
 800575c:	9804      	ldr	r0, [sp, #16]
 800575e:	9905      	ldr	r1, [sp, #20]
 8005760:	f7fc fb92 	bl	8001e88 <__aeabi_dsub>
 8005764:	0002      	movs	r2, r0
 8005766:	000b      	movs	r3, r1
 8005768:	9802      	ldr	r0, [sp, #8]
 800576a:	9903      	ldr	r1, [sp, #12]
 800576c:	f7fc fb8c 	bl	8001e88 <__aeabi_dsub>
 8005770:	4a56      	ldr	r2, [pc, #344]	@ (80058cc <__ieee754_pow+0xa1c>)
 8005772:	4b57      	ldr	r3, [pc, #348]	@ (80058d0 <__ieee754_pow+0xa20>)
 8005774:	f7fc f8c0 	bl	80018f8 <__aeabi_dmul>
 8005778:	4a56      	ldr	r2, [pc, #344]	@ (80058d4 <__ieee754_pow+0xa24>)
 800577a:	0004      	movs	r4, r0
 800577c:	000d      	movs	r5, r1
 800577e:	9804      	ldr	r0, [sp, #16]
 8005780:	9905      	ldr	r1, [sp, #20]
 8005782:	4b55      	ldr	r3, [pc, #340]	@ (80058d8 <__ieee754_pow+0xa28>)
 8005784:	f7fc f8b8 	bl	80018f8 <__aeabi_dmul>
 8005788:	0002      	movs	r2, r0
 800578a:	000b      	movs	r3, r1
 800578c:	0020      	movs	r0, r4
 800578e:	0029      	movs	r1, r5
 8005790:	f7fb f90a 	bl	80009a8 <__aeabi_dadd>
 8005794:	0004      	movs	r4, r0
 8005796:	000d      	movs	r5, r1
 8005798:	0002      	movs	r2, r0
 800579a:	000b      	movs	r3, r1
 800579c:	9806      	ldr	r0, [sp, #24]
 800579e:	9907      	ldr	r1, [sp, #28]
 80057a0:	f7fb f902 	bl	80009a8 <__aeabi_dadd>
 80057a4:	9a06      	ldr	r2, [sp, #24]
 80057a6:	9b07      	ldr	r3, [sp, #28]
 80057a8:	0006      	movs	r6, r0
 80057aa:	000f      	movs	r7, r1
 80057ac:	f7fc fb6c 	bl	8001e88 <__aeabi_dsub>
 80057b0:	0002      	movs	r2, r0
 80057b2:	000b      	movs	r3, r1
 80057b4:	0020      	movs	r0, r4
 80057b6:	0029      	movs	r1, r5
 80057b8:	f7fc fb66 	bl	8001e88 <__aeabi_dsub>
 80057bc:	0032      	movs	r2, r6
 80057be:	9002      	str	r0, [sp, #8]
 80057c0:	9103      	str	r1, [sp, #12]
 80057c2:	003b      	movs	r3, r7
 80057c4:	0030      	movs	r0, r6
 80057c6:	0039      	movs	r1, r7
 80057c8:	f7fc f896 	bl	80018f8 <__aeabi_dmul>
 80057cc:	0004      	movs	r4, r0
 80057ce:	000d      	movs	r5, r1
 80057d0:	4a42      	ldr	r2, [pc, #264]	@ (80058dc <__ieee754_pow+0xa2c>)
 80057d2:	4b43      	ldr	r3, [pc, #268]	@ (80058e0 <__ieee754_pow+0xa30>)
 80057d4:	f7fc f890 	bl	80018f8 <__aeabi_dmul>
 80057d8:	4a42      	ldr	r2, [pc, #264]	@ (80058e4 <__ieee754_pow+0xa34>)
 80057da:	4b43      	ldr	r3, [pc, #268]	@ (80058e8 <__ieee754_pow+0xa38>)
 80057dc:	f7fc fb54 	bl	8001e88 <__aeabi_dsub>
 80057e0:	0022      	movs	r2, r4
 80057e2:	002b      	movs	r3, r5
 80057e4:	f7fc f888 	bl	80018f8 <__aeabi_dmul>
 80057e8:	4a40      	ldr	r2, [pc, #256]	@ (80058ec <__ieee754_pow+0xa3c>)
 80057ea:	4b41      	ldr	r3, [pc, #260]	@ (80058f0 <__ieee754_pow+0xa40>)
 80057ec:	f7fb f8dc 	bl	80009a8 <__aeabi_dadd>
 80057f0:	0022      	movs	r2, r4
 80057f2:	002b      	movs	r3, r5
 80057f4:	f7fc f880 	bl	80018f8 <__aeabi_dmul>
 80057f8:	4a3e      	ldr	r2, [pc, #248]	@ (80058f4 <__ieee754_pow+0xa44>)
 80057fa:	4b3f      	ldr	r3, [pc, #252]	@ (80058f8 <__ieee754_pow+0xa48>)
 80057fc:	f7fc fb44 	bl	8001e88 <__aeabi_dsub>
 8005800:	0022      	movs	r2, r4
 8005802:	002b      	movs	r3, r5
 8005804:	f7fc f878 	bl	80018f8 <__aeabi_dmul>
 8005808:	4a3c      	ldr	r2, [pc, #240]	@ (80058fc <__ieee754_pow+0xa4c>)
 800580a:	4b3d      	ldr	r3, [pc, #244]	@ (8005900 <__ieee754_pow+0xa50>)
 800580c:	f7fb f8cc 	bl	80009a8 <__aeabi_dadd>
 8005810:	0022      	movs	r2, r4
 8005812:	002b      	movs	r3, r5
 8005814:	f7fc f870 	bl	80018f8 <__aeabi_dmul>
 8005818:	0002      	movs	r2, r0
 800581a:	000b      	movs	r3, r1
 800581c:	0030      	movs	r0, r6
 800581e:	0039      	movs	r1, r7
 8005820:	f7fc fb32 	bl	8001e88 <__aeabi_dsub>
 8005824:	0004      	movs	r4, r0
 8005826:	000d      	movs	r5, r1
 8005828:	0002      	movs	r2, r0
 800582a:	000b      	movs	r3, r1
 800582c:	0030      	movs	r0, r6
 800582e:	0039      	movs	r1, r7
 8005830:	f7fc f862 	bl	80018f8 <__aeabi_dmul>
 8005834:	2380      	movs	r3, #128	@ 0x80
 8005836:	9004      	str	r0, [sp, #16]
 8005838:	9105      	str	r1, [sp, #20]
 800583a:	2200      	movs	r2, #0
 800583c:	0020      	movs	r0, r4
 800583e:	0029      	movs	r1, r5
 8005840:	05db      	lsls	r3, r3, #23
 8005842:	f7fc fb21 	bl	8001e88 <__aeabi_dsub>
 8005846:	0002      	movs	r2, r0
 8005848:	000b      	movs	r3, r1
 800584a:	9804      	ldr	r0, [sp, #16]
 800584c:	9905      	ldr	r1, [sp, #20]
 800584e:	f7fb fc0f 	bl	8001070 <__aeabi_ddiv>
 8005852:	9a02      	ldr	r2, [sp, #8]
 8005854:	9b03      	ldr	r3, [sp, #12]
 8005856:	0004      	movs	r4, r0
 8005858:	000d      	movs	r5, r1
 800585a:	0030      	movs	r0, r6
 800585c:	0039      	movs	r1, r7
 800585e:	f7fc f84b 	bl	80018f8 <__aeabi_dmul>
 8005862:	9a02      	ldr	r2, [sp, #8]
 8005864:	9b03      	ldr	r3, [sp, #12]
 8005866:	f7fb f89f 	bl	80009a8 <__aeabi_dadd>
 800586a:	0002      	movs	r2, r0
 800586c:	000b      	movs	r3, r1
 800586e:	0020      	movs	r0, r4
 8005870:	0029      	movs	r1, r5
 8005872:	f7fc fb09 	bl	8001e88 <__aeabi_dsub>
 8005876:	0032      	movs	r2, r6
 8005878:	003b      	movs	r3, r7
 800587a:	f7fc fb05 	bl	8001e88 <__aeabi_dsub>
 800587e:	0002      	movs	r2, r0
 8005880:	000b      	movs	r3, r1
 8005882:	2000      	movs	r0, #0
 8005884:	491f      	ldr	r1, [pc, #124]	@ (8005904 <__ieee754_pow+0xa54>)
 8005886:	f7fc faff 	bl	8001e88 <__aeabi_dsub>
 800588a:	9b00      	ldr	r3, [sp, #0]
 800588c:	051b      	lsls	r3, r3, #20
 800588e:	185b      	adds	r3, r3, r1
 8005890:	151a      	asrs	r2, r3, #20
 8005892:	2a00      	cmp	r2, #0
 8005894:	dc06      	bgt.n	80058a4 <__ieee754_pow+0x9f4>
 8005896:	9a00      	ldr	r2, [sp, #0]
 8005898:	f000 f83a 	bl	8005910 <scalbn>
 800589c:	9a08      	ldr	r2, [sp, #32]
 800589e:	9b09      	ldr	r3, [sp, #36]	@ 0x24
 80058a0:	f7ff fbee 	bl	8005080 <__ieee754_pow+0x1d0>
 80058a4:	0019      	movs	r1, r3
 80058a6:	e7f9      	b.n	800589c <__ieee754_pow+0x9ec>
 80058a8:	2300      	movs	r3, #0
 80058aa:	4c16      	ldr	r4, [pc, #88]	@ (8005904 <__ieee754_pow+0xa54>)
 80058ac:	f7ff fbcb 	bl	8005046 <__ieee754_pow+0x196>
 80058b0:	2300      	movs	r3, #0
 80058b2:	2400      	movs	r4, #0
 80058b4:	f7ff fbc7 	bl	8005046 <__ieee754_pow+0x196>
 80058b8:	4090cbff 	.word	0x4090cbff
 80058bc:	3f6f3400 	.word	0x3f6f3400
 80058c0:	4090cc00 	.word	0x4090cc00
 80058c4:	3fe00000 	.word	0x3fe00000
 80058c8:	3fe62e43 	.word	0x3fe62e43
 80058cc:	fefa39ef 	.word	0xfefa39ef
 80058d0:	3fe62e42 	.word	0x3fe62e42
 80058d4:	0ca86c39 	.word	0x0ca86c39
 80058d8:	be205c61 	.word	0xbe205c61
 80058dc:	72bea4d0 	.word	0x72bea4d0
 80058e0:	3e663769 	.word	0x3e663769
 80058e4:	c5d26bf1 	.word	0xc5d26bf1
 80058e8:	3ebbbd41 	.word	0x3ebbbd41
 80058ec:	af25de2c 	.word	0xaf25de2c
 80058f0:	3f11566a 	.word	0x3f11566a
 80058f4:	16bebd93 	.word	0x16bebd93
 80058f8:	3f66c16c 	.word	0x3f66c16c
 80058fc:	5555553e 	.word	0x5555553e
 8005900:	3fc55555 	.word	0x3fc55555
 8005904:	3ff00000 	.word	0x3ff00000

08005908 <fabs>:
 8005908:	0049      	lsls	r1, r1, #1
 800590a:	084b      	lsrs	r3, r1, #1
 800590c:	0019      	movs	r1, r3
 800590e:	4770      	bx	lr

08005910 <scalbn>:
 8005910:	004b      	lsls	r3, r1, #1
 8005912:	b570      	push	{r4, r5, r6, lr}
 8005914:	0d5b      	lsrs	r3, r3, #21
 8005916:	0014      	movs	r4, r2
 8005918:	000d      	movs	r5, r1
 800591a:	2b00      	cmp	r3, #0
 800591c:	d10f      	bne.n	800593e <scalbn+0x2e>
 800591e:	004b      	lsls	r3, r1, #1
 8005920:	085b      	lsrs	r3, r3, #1
 8005922:	4303      	orrs	r3, r0
 8005924:	d012      	beq.n	800594c <scalbn+0x3c>
 8005926:	4b23      	ldr	r3, [pc, #140]	@ (80059b4 <scalbn+0xa4>)
 8005928:	2200      	movs	r2, #0
 800592a:	f7fb ffe5 	bl	80018f8 <__aeabi_dmul>
 800592e:	4b22      	ldr	r3, [pc, #136]	@ (80059b8 <scalbn+0xa8>)
 8005930:	429c      	cmp	r4, r3
 8005932:	da0c      	bge.n	800594e <scalbn+0x3e>
 8005934:	4a21      	ldr	r2, [pc, #132]	@ (80059bc <scalbn+0xac>)
 8005936:	4b22      	ldr	r3, [pc, #136]	@ (80059c0 <scalbn+0xb0>)
 8005938:	f7fb ffde 	bl	80018f8 <__aeabi_dmul>
 800593c:	e006      	b.n	800594c <scalbn+0x3c>
 800593e:	4a21      	ldr	r2, [pc, #132]	@ (80059c4 <scalbn+0xb4>)
 8005940:	4293      	cmp	r3, r2
 8005942:	d108      	bne.n	8005956 <scalbn+0x46>
 8005944:	0002      	movs	r2, r0
 8005946:	000b      	movs	r3, r1
 8005948:	f7fb f82e 	bl	80009a8 <__aeabi_dadd>
 800594c:	bd70      	pop	{r4, r5, r6, pc}
 800594e:	000d      	movs	r5, r1
 8005950:	004b      	lsls	r3, r1, #1
 8005952:	0d5b      	lsrs	r3, r3, #21
 8005954:	3b36      	subs	r3, #54	@ 0x36
 8005956:	4a1c      	ldr	r2, [pc, #112]	@ (80059c8 <scalbn+0xb8>)
 8005958:	4294      	cmp	r4, r2
 800595a:	dd0a      	ble.n	8005972 <scalbn+0x62>
 800595c:	4c1b      	ldr	r4, [pc, #108]	@ (80059cc <scalbn+0xbc>)
 800595e:	4d1c      	ldr	r5, [pc, #112]	@ (80059d0 <scalbn+0xc0>)
 8005960:	2900      	cmp	r1, #0
 8005962:	da01      	bge.n	8005968 <scalbn+0x58>
 8005964:	4c19      	ldr	r4, [pc, #100]	@ (80059cc <scalbn+0xbc>)
 8005966:	4d1b      	ldr	r5, [pc, #108]	@ (80059d4 <scalbn+0xc4>)
 8005968:	4a18      	ldr	r2, [pc, #96]	@ (80059cc <scalbn+0xbc>)
 800596a:	4b19      	ldr	r3, [pc, #100]	@ (80059d0 <scalbn+0xc0>)
 800596c:	0020      	movs	r0, r4
 800596e:	0029      	movs	r1, r5
 8005970:	e7e2      	b.n	8005938 <scalbn+0x28>
 8005972:	18e2      	adds	r2, r4, r3
 8005974:	4b18      	ldr	r3, [pc, #96]	@ (80059d8 <scalbn+0xc8>)
 8005976:	429a      	cmp	r2, r3
 8005978:	dcf0      	bgt.n	800595c <scalbn+0x4c>
 800597a:	2a00      	cmp	r2, #0
 800597c:	dd05      	ble.n	800598a <scalbn+0x7a>
 800597e:	4b17      	ldr	r3, [pc, #92]	@ (80059dc <scalbn+0xcc>)
 8005980:	0512      	lsls	r2, r2, #20
 8005982:	402b      	ands	r3, r5
 8005984:	431a      	orrs	r2, r3
 8005986:	0011      	movs	r1, r2
 8005988:	e7e0      	b.n	800594c <scalbn+0x3c>
 800598a:	0013      	movs	r3, r2
 800598c:	3335      	adds	r3, #53	@ 0x35
 800598e:	da08      	bge.n	80059a2 <scalbn+0x92>
 8005990:	4c0a      	ldr	r4, [pc, #40]	@ (80059bc <scalbn+0xac>)
 8005992:	4d0b      	ldr	r5, [pc, #44]	@ (80059c0 <scalbn+0xb0>)
 8005994:	2900      	cmp	r1, #0
 8005996:	da01      	bge.n	800599c <scalbn+0x8c>
 8005998:	4c08      	ldr	r4, [pc, #32]	@ (80059bc <scalbn+0xac>)
 800599a:	4d11      	ldr	r5, [pc, #68]	@ (80059e0 <scalbn+0xd0>)
 800599c:	4a07      	ldr	r2, [pc, #28]	@ (80059bc <scalbn+0xac>)
 800599e:	4b08      	ldr	r3, [pc, #32]	@ (80059c0 <scalbn+0xb0>)
 80059a0:	e7e4      	b.n	800596c <scalbn+0x5c>
 80059a2:	4b0e      	ldr	r3, [pc, #56]	@ (80059dc <scalbn+0xcc>)
 80059a4:	3236      	adds	r2, #54	@ 0x36
 80059a6:	401d      	ands	r5, r3
 80059a8:	0512      	lsls	r2, r2, #20
 80059aa:	432a      	orrs	r2, r5
 80059ac:	0011      	movs	r1, r2
 80059ae:	4b0d      	ldr	r3, [pc, #52]	@ (80059e4 <scalbn+0xd4>)
 80059b0:	2200      	movs	r2, #0
 80059b2:	e7c1      	b.n	8005938 <scalbn+0x28>
 80059b4:	43500000 	.word	0x43500000
 80059b8:	ffff3cb0 	.word	0xffff3cb0
 80059bc:	c2f8f359 	.word	0xc2f8f359
 80059c0:	01a56e1f 	.word	0x01a56e1f
 80059c4:	000007ff 	.word	0x000007ff
 80059c8:	0000c350 	.word	0x0000c350
 80059cc:	8800759c 	.word	0x8800759c
 80059d0:	7e37e43c 	.word	0x7e37e43c
 80059d4:	fe37e43c 	.word	0xfe37e43c
 80059d8:	000007fe 	.word	0x000007fe
 80059dc:	800fffff 	.word	0x800fffff
 80059e0:	81a56e1f 	.word	0x81a56e1f
 80059e4:	3c900000 	.word	0x3c900000

080059e8 <with_errno>:
 80059e8:	b570      	push	{r4, r5, r6, lr}
 80059ea:	000d      	movs	r5, r1
 80059ec:	0016      	movs	r6, r2
 80059ee:	0004      	movs	r4, r0
 80059f0:	f7ff f9b4 	bl	8004d5c <__errno>
 80059f4:	0029      	movs	r1, r5
 80059f6:	6006      	str	r6, [r0, #0]
 80059f8:	0020      	movs	r0, r4
 80059fa:	bd70      	pop	{r4, r5, r6, pc}

080059fc <xflow>:
 80059fc:	b537      	push	{r0, r1, r2, r4, r5, lr}
 80059fe:	0014      	movs	r4, r2
 8005a00:	001d      	movs	r5, r3
 8005a02:	2800      	cmp	r0, #0
 8005a04:	d002      	beq.n	8005a0c <xflow+0x10>
 8005a06:	2180      	movs	r1, #128	@ 0x80
 8005a08:	0609      	lsls	r1, r1, #24
 8005a0a:	185b      	adds	r3, r3, r1
 8005a0c:	9200      	str	r2, [sp, #0]
 8005a0e:	9301      	str	r3, [sp, #4]
 8005a10:	9a00      	ldr	r2, [sp, #0]
 8005a12:	9b01      	ldr	r3, [sp, #4]
 8005a14:	0020      	movs	r0, r4
 8005a16:	0029      	movs	r1, r5
 8005a18:	f7fb ff6e 	bl	80018f8 <__aeabi_dmul>
 8005a1c:	2222      	movs	r2, #34	@ 0x22
 8005a1e:	f7ff ffe3 	bl	80059e8 <with_errno>
 8005a22:	b003      	add	sp, #12
 8005a24:	bd30      	pop	{r4, r5, pc}

08005a26 <__math_uflow>:
 8005a26:	2380      	movs	r3, #128	@ 0x80
 8005a28:	b510      	push	{r4, lr}
 8005a2a:	2200      	movs	r2, #0
 8005a2c:	055b      	lsls	r3, r3, #21
 8005a2e:	f7ff ffe5 	bl	80059fc <xflow>
 8005a32:	bd10      	pop	{r4, pc}

08005a34 <__math_oflow>:
 8005a34:	23e0      	movs	r3, #224	@ 0xe0
 8005a36:	b510      	push	{r4, lr}
 8005a38:	2200      	movs	r2, #0
 8005a3a:	05db      	lsls	r3, r3, #23
 8005a3c:	f7ff ffde 	bl	80059fc <xflow>
 8005a40:	bd10      	pop	{r4, pc}
	...

08005a44 <__ieee754_sqrt>:
 8005a44:	b5f0      	push	{r4, r5, r6, r7, lr}
 8005a46:	000a      	movs	r2, r1
 8005a48:	000d      	movs	r5, r1
 8005a4a:	496d      	ldr	r1, [pc, #436]	@ (8005c00 <__ieee754_sqrt+0x1bc>)
 8005a4c:	0004      	movs	r4, r0
 8005a4e:	0003      	movs	r3, r0
 8005a50:	0008      	movs	r0, r1
 8005a52:	b087      	sub	sp, #28
 8005a54:	4028      	ands	r0, r5
 8005a56:	4288      	cmp	r0, r1
 8005a58:	d111      	bne.n	8005a7e <__ieee754_sqrt+0x3a>
 8005a5a:	0022      	movs	r2, r4
 8005a5c:	002b      	movs	r3, r5
 8005a5e:	0020      	movs	r0, r4
 8005a60:	0029      	movs	r1, r5
 8005a62:	f7fb ff49 	bl	80018f8 <__aeabi_dmul>
 8005a66:	0002      	movs	r2, r0
 8005a68:	000b      	movs	r3, r1
 8005a6a:	0020      	movs	r0, r4
 8005a6c:	0029      	movs	r1, r5
 8005a6e:	f7fa ff9b 	bl	80009a8 <__aeabi_dadd>
 8005a72:	0004      	movs	r4, r0
 8005a74:	000d      	movs	r5, r1
 8005a76:	0020      	movs	r0, r4
 8005a78:	0029      	movs	r1, r5
 8005a7a:	b007      	add	sp, #28
 8005a7c:	bdf0      	pop	{r4, r5, r6, r7, pc}
 8005a7e:	2d00      	cmp	r5, #0
 8005a80:	dc11      	bgt.n	8005aa6 <__ieee754_sqrt+0x62>
 8005a82:	0069      	lsls	r1, r5, #1
 8005a84:	0849      	lsrs	r1, r1, #1
 8005a86:	4321      	orrs	r1, r4
 8005a88:	d0f5      	beq.n	8005a76 <__ieee754_sqrt+0x32>
 8005a8a:	2000      	movs	r0, #0
 8005a8c:	4285      	cmp	r5, r0
 8005a8e:	d010      	beq.n	8005ab2 <__ieee754_sqrt+0x6e>
 8005a90:	0022      	movs	r2, r4
 8005a92:	002b      	movs	r3, r5
 8005a94:	0020      	movs	r0, r4
 8005a96:	0029      	movs	r1, r5
 8005a98:	f7fc f9f6 	bl	8001e88 <__aeabi_dsub>
 8005a9c:	0002      	movs	r2, r0
 8005a9e:	000b      	movs	r3, r1
 8005aa0:	f7fb fae6 	bl	8001070 <__aeabi_ddiv>
 8005aa4:	e7e5      	b.n	8005a72 <__ieee754_sqrt+0x2e>
 8005aa6:	1528      	asrs	r0, r5, #20
 8005aa8:	d115      	bne.n	8005ad6 <__ieee754_sqrt+0x92>
 8005aaa:	2480      	movs	r4, #128	@ 0x80
 8005aac:	2100      	movs	r1, #0
 8005aae:	0364      	lsls	r4, r4, #13
 8005ab0:	e007      	b.n	8005ac2 <__ieee754_sqrt+0x7e>
 8005ab2:	0ada      	lsrs	r2, r3, #11
 8005ab4:	3815      	subs	r0, #21
 8005ab6:	055b      	lsls	r3, r3, #21
 8005ab8:	2a00      	cmp	r2, #0
 8005aba:	d0fa      	beq.n	8005ab2 <__ieee754_sqrt+0x6e>
 8005abc:	e7f5      	b.n	8005aaa <__ieee754_sqrt+0x66>
 8005abe:	0052      	lsls	r2, r2, #1
 8005ac0:	3101      	adds	r1, #1
 8005ac2:	4222      	tst	r2, r4
 8005ac4:	d0fb      	beq.n	8005abe <__ieee754_sqrt+0x7a>
 8005ac6:	1e4c      	subs	r4, r1, #1
 8005ac8:	1b00      	subs	r0, r0, r4
 8005aca:	2420      	movs	r4, #32
 8005acc:	001d      	movs	r5, r3
 8005ace:	1a64      	subs	r4, r4, r1
 8005ad0:	40e5      	lsrs	r5, r4
 8005ad2:	408b      	lsls	r3, r1
 8005ad4:	432a      	orrs	r2, r5
 8005ad6:	494b      	ldr	r1, [pc, #300]	@ (8005c04 <__ieee754_sqrt+0x1c0>)
 8005ad8:	0312      	lsls	r2, r2, #12
 8005ada:	1844      	adds	r4, r0, r1
 8005adc:	2180      	movs	r1, #128	@ 0x80
 8005ade:	0b12      	lsrs	r2, r2, #12
 8005ae0:	0349      	lsls	r1, r1, #13
 8005ae2:	4311      	orrs	r1, r2
 8005ae4:	07c0      	lsls	r0, r0, #31
 8005ae6:	d403      	bmi.n	8005af0 <__ieee754_sqrt+0xac>
 8005ae8:	0fda      	lsrs	r2, r3, #31
 8005aea:	0049      	lsls	r1, r1, #1
 8005aec:	1851      	adds	r1, r2, r1
 8005aee:	005b      	lsls	r3, r3, #1
 8005af0:	2500      	movs	r5, #0
 8005af2:	1062      	asrs	r2, r4, #1
 8005af4:	0049      	lsls	r1, r1, #1
 8005af6:	2480      	movs	r4, #128	@ 0x80
 8005af8:	9205      	str	r2, [sp, #20]
 8005afa:	0fda      	lsrs	r2, r3, #31
 8005afc:	1852      	adds	r2, r2, r1
 8005afe:	2016      	movs	r0, #22
 8005b00:	0029      	movs	r1, r5
 8005b02:	005b      	lsls	r3, r3, #1
 8005b04:	03a4      	lsls	r4, r4, #14
 8005b06:	190e      	adds	r6, r1, r4
 8005b08:	4296      	cmp	r6, r2
 8005b0a:	dc02      	bgt.n	8005b12 <__ieee754_sqrt+0xce>
 8005b0c:	1931      	adds	r1, r6, r4
 8005b0e:	1b92      	subs	r2, r2, r6
 8005b10:	192d      	adds	r5, r5, r4
 8005b12:	0fde      	lsrs	r6, r3, #31
 8005b14:	0052      	lsls	r2, r2, #1
 8005b16:	3801      	subs	r0, #1
 8005b18:	1992      	adds	r2, r2, r6
 8005b1a:	005b      	lsls	r3, r3, #1
 8005b1c:	0864      	lsrs	r4, r4, #1
 8005b1e:	2800      	cmp	r0, #0
 8005b20:	d1f1      	bne.n	8005b06 <__ieee754_sqrt+0xc2>
 8005b22:	2620      	movs	r6, #32
 8005b24:	2780      	movs	r7, #128	@ 0x80
 8005b26:	0004      	movs	r4, r0
 8005b28:	9604      	str	r6, [sp, #16]
 8005b2a:	063f      	lsls	r7, r7, #24
 8005b2c:	19c6      	adds	r6, r0, r7
 8005b2e:	46b4      	mov	ip, r6
 8005b30:	4291      	cmp	r1, r2
 8005b32:	db02      	blt.n	8005b3a <__ieee754_sqrt+0xf6>
 8005b34:	d114      	bne.n	8005b60 <__ieee754_sqrt+0x11c>
 8005b36:	429e      	cmp	r6, r3
 8005b38:	d812      	bhi.n	8005b60 <__ieee754_sqrt+0x11c>
 8005b3a:	4660      	mov	r0, ip
 8005b3c:	4666      	mov	r6, ip
 8005b3e:	19c0      	adds	r0, r0, r7
 8005b40:	9100      	str	r1, [sp, #0]
 8005b42:	2e00      	cmp	r6, #0
 8005b44:	da03      	bge.n	8005b4e <__ieee754_sqrt+0x10a>
 8005b46:	43c6      	mvns	r6, r0
 8005b48:	0ff6      	lsrs	r6, r6, #31
 8005b4a:	198e      	adds	r6, r1, r6
 8005b4c:	9600      	str	r6, [sp, #0]
 8005b4e:	1a52      	subs	r2, r2, r1
 8005b50:	4563      	cmp	r3, ip
 8005b52:	4189      	sbcs	r1, r1
 8005b54:	4249      	negs	r1, r1
 8005b56:	1a52      	subs	r2, r2, r1
 8005b58:	4661      	mov	r1, ip
 8005b5a:	1a5b      	subs	r3, r3, r1
 8005b5c:	9900      	ldr	r1, [sp, #0]
 8005b5e:	19e4      	adds	r4, r4, r7
 8005b60:	0fde      	lsrs	r6, r3, #31
 8005b62:	0052      	lsls	r2, r2, #1
 8005b64:	1992      	adds	r2, r2, r6
 8005b66:	9e04      	ldr	r6, [sp, #16]
 8005b68:	005b      	lsls	r3, r3, #1
 8005b6a:	3e01      	subs	r6, #1
 8005b6c:	087f      	lsrs	r7, r7, #1
 8005b6e:	9604      	str	r6, [sp, #16]
 8005b70:	2e00      	cmp	r6, #0
 8005b72:	d1db      	bne.n	8005b2c <__ieee754_sqrt+0xe8>
 8005b74:	431a      	orrs	r2, r3
 8005b76:	d01f      	beq.n	8005bb8 <__ieee754_sqrt+0x174>
 8005b78:	4e23      	ldr	r6, [pc, #140]	@ (8005c08 <__ieee754_sqrt+0x1c4>)
 8005b7a:	4f24      	ldr	r7, [pc, #144]	@ (8005c0c <__ieee754_sqrt+0x1c8>)
 8005b7c:	6830      	ldr	r0, [r6, #0]
 8005b7e:	6871      	ldr	r1, [r6, #4]
 8005b80:	683a      	ldr	r2, [r7, #0]
 8005b82:	687b      	ldr	r3, [r7, #4]
 8005b84:	9200      	str	r2, [sp, #0]
 8005b86:	9301      	str	r3, [sp, #4]
 8005b88:	6832      	ldr	r2, [r6, #0]
 8005b8a:	6873      	ldr	r3, [r6, #4]
 8005b8c:	9202      	str	r2, [sp, #8]
 8005b8e:	9303      	str	r3, [sp, #12]
 8005b90:	9a00      	ldr	r2, [sp, #0]
 8005b92:	9b01      	ldr	r3, [sp, #4]
 8005b94:	f7fc f978 	bl	8001e88 <__aeabi_dsub>
 8005b98:	0002      	movs	r2, r0
 8005b9a:	000b      	movs	r3, r1
 8005b9c:	9802      	ldr	r0, [sp, #8]
 8005b9e:	9903      	ldr	r1, [sp, #12]
 8005ba0:	f7fa fc4e 	bl	8000440 <__aeabi_dcmple>
 8005ba4:	2800      	cmp	r0, #0
 8005ba6:	d007      	beq.n	8005bb8 <__ieee754_sqrt+0x174>
 8005ba8:	6830      	ldr	r0, [r6, #0]
 8005baa:	6871      	ldr	r1, [r6, #4]
 8005bac:	683a      	ldr	r2, [r7, #0]
 8005bae:	687b      	ldr	r3, [r7, #4]
 8005bb0:	1c67      	adds	r7, r4, #1
 8005bb2:	d10f      	bne.n	8005bd4 <__ieee754_sqrt+0x190>
 8005bb4:	9c04      	ldr	r4, [sp, #16]
 8005bb6:	3501      	adds	r5, #1
 8005bb8:	4b15      	ldr	r3, [pc, #84]	@ (8005c10 <__ieee754_sqrt+0x1cc>)
 8005bba:	106a      	asrs	r2, r5, #1
 8005bbc:	18d2      	adds	r2, r2, r3
 8005bbe:	0863      	lsrs	r3, r4, #1
 8005bc0:	07ed      	lsls	r5, r5, #31
 8005bc2:	d502      	bpl.n	8005bca <__ieee754_sqrt+0x186>
 8005bc4:	2180      	movs	r1, #128	@ 0x80
 8005bc6:	0609      	lsls	r1, r1, #24
 8005bc8:	430b      	orrs	r3, r1
 8005bca:	9905      	ldr	r1, [sp, #20]
 8005bcc:	001c      	movs	r4, r3
 8005bce:	0509      	lsls	r1, r1, #20
 8005bd0:	188d      	adds	r5, r1, r2
 8005bd2:	e750      	b.n	8005a76 <__ieee754_sqrt+0x32>
 8005bd4:	f7fa fee8 	bl	80009a8 <__aeabi_dadd>
 8005bd8:	6877      	ldr	r7, [r6, #4]
 8005bda:	6836      	ldr	r6, [r6, #0]
 8005bdc:	0002      	movs	r2, r0
 8005bde:	000b      	movs	r3, r1
 8005be0:	0030      	movs	r0, r6
 8005be2:	0039      	movs	r1, r7
 8005be4:	f7fa fc22 	bl	800042c <__aeabi_dcmplt>
 8005be8:	2800      	cmp	r0, #0
 8005bea:	d004      	beq.n	8005bf6 <__ieee754_sqrt+0x1b2>
 8005bec:	3402      	adds	r4, #2
 8005bee:	4263      	negs	r3, r4
 8005bf0:	4163      	adcs	r3, r4
 8005bf2:	18ed      	adds	r5, r5, r3
 8005bf4:	e7e0      	b.n	8005bb8 <__ieee754_sqrt+0x174>
 8005bf6:	2301      	movs	r3, #1
 8005bf8:	3401      	adds	r4, #1
 8005bfa:	439c      	bics	r4, r3
 8005bfc:	e7dc      	b.n	8005bb8 <__ieee754_sqrt+0x174>
 8005bfe:	46c0      	nop			@ (mov r8, r8)
 8005c00:	7ff00000 	.word	0x7ff00000
 8005c04:	fffffc01 	.word	0xfffffc01
 8005c08:	20000068 	.word	0x20000068
 8005c0c:	20000060 	.word	0x20000060
 8005c10:	3fe00000 	.word	0x3fe00000

08005c14 <_init>:
 8005c14:	b5f8      	push	{r3, r4, r5, r6, r7, lr}
 8005c16:	46c0      	nop			@ (mov r8, r8)
 8005c18:	bcf8      	pop	{r3, r4, r5, r6, r7}
 8005c1a:	bc08      	pop	{r3}
 8005c1c:	469e      	mov	lr, r3
 8005c1e:	4770      	bx	lr

08005c20 <_fini>:
 8005c20:	b5f8      	push	{r3, r4, r5, r6, r7, lr}
 8005c22:	46c0      	nop			@ (mov r8, r8)
 8005c24:	bcf8      	pop	{r3, r4, r5, r6, r7}
 8005c26:	bc08      	pop	{r3}
 8005c28:	469e      	mov	lr, r3
 8005c2a:	4770      	bx	lr
